 newton_d

 Timestamp is 4d42f094 (Fri Jan 28 08:36:36 2011)

 Preferred load address is 10000000

 Start         Length     Name                   Class
 0001:00000000 00178d2cH .text                   CODE
 0001:00178d30 00001187H .text$x                 CODE
 0001:00179ec0 00001616H .text$yc                CODE
 0001:0017b4e0 00001012H .text$yd                CODE
 0002:00000000 00000104H .CRT$XCA                DATA
 0002:00000104 00000164H .CRT$XCU                DATA
 0002:00000268 00000104H .CRT$XCZ                DATA
 0002:0000036c 00000104H .CRT$XIA                DATA
 0002:00000470 00000118H .CRT$XIC                DATA
 0002:00000588 00000104H .CRT$XIZ                DATA
 0002:0000068c 00000104H .CRT$XPA                DATA
 0002:00000790 00000109H .CRT$XPX                DATA
 0002:0000089c 00000104H .CRT$XPXA               DATA
 0002:000009a0 00000104H .CRT$XPZ                DATA
 0002:00000aa4 00000104H .CRT$XTA                DATA
 0002:00000ba8 00000104H .CRT$XTZ                DATA
 0002:00000cb0 00037e02H .rdata                  DATA
 0002:00038ab4 00000187H .rdata$debug            DATA
 0002:00038c3c 0000031eH .rdata$r                DATA
 0002:00038f60 0000013eH .rdata$sxdata           DATA
 0002:000390a0 00000104H .rtc$IAA                DATA
 0002:000391a4 00000104H .rtc$IZZ                DATA
 0002:000392a8 00000104H .rtc$TAA                DATA
 0002:000393ac 00000104H .rtc$TZZ                DATA
 0002:000394b0 000010c0H .xdata$x                DATA
 0002:0003a570 00003d6eH .edata                  DATA
 0003:00000000 00002440H .data                   DATA
 0003:00002440 000047c8H .bss                    DATA
 0004:00000000 00000014H .idata$2                DATA
 0004:00000014 00000014H .idata$3                DATA
 0004:00000028 00000228H .idata$4                DATA
 0004:00000250 00000228H .idata$5                DATA
 0004:00000478 00000982H .idata$6                DATA
 0005:00000000 00000169H .rsrc$01                DATA
 0005:00000170 00000580H .rsrc$02                DATA

  Address         Publics by Value              Rva+Base       Lib:Object

 0000:00000000       __except_list              00000000     <absolute>
 0000:0000000d       ___safe_se_handler_count   0000000d     <absolute>
 0000:00000000       ___ImageBase               10000000     <linker-defined>
 0001:00001650       ?TraceFuntionName@@YAXPBD@Z 10002650 f   Newton.obj
 0001:00001670       _DllMain@12                10002670 f   Newton.obj
 0001:00001680       _NewtonGetMemoryUsed       10002680 f   Newton.obj
 0001:00001690       _NewtonSetMemorySystem     10002690 f   Newton.obj
 0001:000016e0       _NewtonCreate              100026e0 f   Newton.obj
 0001:000017f0       _NewtonDestroy             100027f0 f   Newton.obj
 0001:00001890       _NewtonInvalidateCache     10002890 f   Newton.obj
 0001:000018b0       _NewtonSetPlatformArchitecture 100028b0 f   Newton.obj
 0001:000018d0       _NewtonGetPlatformArchitecture 100028d0 f   Newton.obj
 0001:000018f0       _NewtonWorldCriticalSectionLock 100028f0 f   Newton.obj
 0001:00001910       _NewtonWorldCriticalSectionUnlock 10002910 f   Newton.obj
 0001:00001930       _NewtonSetThreadsCount     10002930 f   Newton.obj
 0001:00001950       _NewtonGetThreadsCount     10002950 f   Newton.obj
 0001:00001970       _NewtonGetMaxThreadsCount  10002970 f   Newton.obj
 0001:00001990       _NewtonSetMultiThreadSolverOnSingleIsland 10002990 f   Newton.obj
 0001:000019b0       _NewtonGetMultiThreadSolverOnSingleIsland 100029b0 f   Newton.obj
 0001:000019d0       _NewtonSetSolverModel      100029d0 f   Newton.obj
 0001:000019f0       _NewtonSetFrictionModel    100029f0 f   Newton.obj
 0001:00001a10       _NewtonSetPerformanceClock 10002a10 f   Newton.obj
 0001:00001a30       _NewtonReadPerformanceTicks 10002a30 f   Newton.obj
 0001:00001a50       _NewtonReadThreadPerformanceTicks 10002a50 f   Newton.obj
 0001:00001a70       _NewtonUpdate              10002a70 f   Newton.obj
 0001:00001b30       _NewtonCollisionUpdate     10002b30 f   Newton.obj
 0001:00001b70       _NewtonSetMinimumFrameRate 10002b70 f   Newton.obj
 0001:00001bc0       _NewtonDestroyAllBodies    10002bc0 f   Newton.obj
 0001:00001c30       _NewtonSetWorldSize        10002c30 f   Newton.obj
 0001:00001cc0       _NewtonSetIslandUpdateEvent 10002cc0 f   Newton.obj
 0001:00001ce0       _NewtonSetCollisionDestructor 10002ce0 f   Newton.obj
 0001:00001d00       _NewtonSetDestroyBodyByExeciveForce 10002d00 f   Newton.obj
 0001:00001d20       _NewtonSetBodyLeaveWorldEvent 10002d20 f   Newton.obj
 0001:00001d40       _NewtonWorldGetFirstBody   10002d40 f   Newton.obj
 0001:00001dd0       _NewtonWorldGetNextBody    10002dd0 f   Newton.obj
 0001:00001e10       _NewtonWorldForEachJointDo 10002e10 f   Newton.obj
 0001:00001ef0       _NewtonWorldForEachBodyInAABBDo 10002ef0 f   Newton.obj
 0001:00001f90       _NewtonWorldGetVersion     10002f90 f   Newton.obj
 0001:00001fa0       _NewtonWorldFloatSize      10002fa0 f   Newton.obj
 0001:00001fb0       _NewtonWorldSetUserData    10002fb0 f   Newton.obj
 0001:00001fd0       _NewtonWorldGetUserData    10002fd0 f   Newton.obj
 0001:00001ff0       _NewtonWorldSetDestructorCallBack 10002ff0 f   Newton.obj
 0001:00002010       _NewtonWorldGetDestructorCallBack 10003010 f   Newton.obj
 0001:00002030       _NewtonWorldGetBodyCount   10003030 f   Newton.obj
 0001:00002050       _NewtonWorldGetConstraintCount 10003050 f   Newton.obj
 0001:00002070       _NewtonWorldRayCast        10003070 f   Newton.obj
 0001:00002120       _NewtonWorldConvexCast     10003120 f   Newton.obj
 0001:000021a0       _NewtonIslandGetBody       100031a0 f   Newton.obj
 0001:000021c0       _NewtonIslandGetBodyAABB   100031c0 f   Newton.obj
 0001:00002200       _NewtonMaterialGetDefaultGroupID 10003200 f   Newton.obj
 0001:00002220       _NewtonMaterialCreateGroupID 10003220 f   Newton.obj
 0001:00002240       _NewtonMaterialDestroyAllGroupID 10003240 f   Newton.obj
 0001:00002260       _NewtonMaterialSetDefaultCollidable 10003260 f   Newton.obj
 0001:000022c0       _NewtonMaterialSetContinuousCollisionMode 100032c0 f   Newton.obj
 0001:00002320       _NewtonMaterialSetSurfaceThickness 10003320 f   Newton.obj
 0001:00002380       _NewtonMaterialSetDefaultFriction 10003380 f   Newton.obj
 0001:00002490       _NewtonMaterialSetDefaultElasticity 10003490 f   Newton.obj
 0001:000024e0       _NewtonMaterialSetDefaultSoftness 100034e0 f   Newton.obj
 0001:00002530       _NewtonMaterialSetCollisionCallback 10003530 f   Newton.obj
 0001:00002570       ?NewtonMaterialSetCompondCollisionCallback@@YAXPBUNewtonWorld@@HHP6AHPBUNewtonMaterial@@PBUNewtonBody@@2H@Z@Z 10003570 f   Newton.obj
 0001:000025a0       _NewtonMaterialGetUserData 100035a0 f   Newton.obj
 0001:000025d0       _NewtonWorldGetFirstMaterial 100035d0 f   Newton.obj
 0001:000025f0       _NewtonWorldGetNextMaterial 100035f0 f   Newton.obj
 0001:00002610       _NewtonMaterialGetMaterialPairUserData 10003610 f   Newton.obj
 0001:00002630       _NewtonMaterialGetContactFaceAttribute 10003630 f   Newton.obj
 0001:00002650       _NewtonMaterialGetContactNormalSpeed 10003650 f   Newton.obj
 0001:00002780       _NewtonMaterialGetContactTangentSpeed 10003780 f   Newton.obj
 0001:00002900       _NewtonMaterialGetContactPositionAndNormal 10003900 f   Newton.obj
 0001:00002960       _NewtonMaterialGetContactForce 10003960 f   Newton.obj
 0001:00002a10       _NewtonMaterialGetContactTangentDirections 10003a10 f   Newton.obj
 0001:00002a70       _NewtonMaterialGetBodyCollisionID 10003a70 f   Newton.obj
 0001:00002ab0       _NewtonMaterialSetContactSoftness 10003ab0 f   Newton.obj
 0001:00002af0       _NewtonMaterialSetContactElasticity 10003af0 f   Newton.obj
 0001:00002b30       _NewtonMaterialSetContactFrictionState 10003b30 f   Newton.obj
 0001:00002bb0       _NewtonMaterialSetContactFrictionCoef 10003bb0 f   Newton.obj
 0001:00002c90       _NewtonMaterialSetContactNormalAcceleration 10003c90 f   Newton.obj
 0001:00002cc0       _NewtonMaterialSetContactTangentAcceleration 10003cc0 f   Newton.obj
 0001:00002d20       _NewtonMaterialSetContactNormalDirection 10003d20 f   Newton.obj
 0001:00002e80       _NewtonMaterialContactRotateTangentDirections 10003e80 f   Newton.obj
 0001:00002fb0       _NewtonCreateNull          10003fb0 f   Newton.obj
 0001:00002fd0       _NewtonCreateBox           10003fd0 f   Newton.obj
 0001:00003050       _NewtonCreateSphere        10004050 f   Newton.obj
 0001:00003160       _NewtonCreateCone          10004160 f   Newton.obj
 0001:000031d0       _NewtonCreateCapsule       100041d0 f   Newton.obj
 0001:00003240       _NewtonCreateCylinder      10004240 f   Newton.obj
 0001:000032b0       _NewtonCreateChamferCylinder 100042b0 f   Newton.obj
 0001:00003320       _NewtonCreateConvexHull    10004320 f   Newton.obj
 0001:000033c0       _NewtonCreateConvexHullFromMesh 100043c0 f   Newton.obj
 0001:000033f0       _NewtonCreateConvexHullModifier 100043f0 f   Newton.obj
 0001:00003420       _NewtonConvexHullModifierGetMatrix 10004420 f   Newton.obj
 0001:00003470       _NewtonConvexHullModifierSetMatrix 10004470 f   Newton.obj
 0001:000034a0       _NewtonCreateCompoundCollision 100044a0 f   Newton.obj
 0001:000034e0       _NewtonCreateCompoundCollisionFromMesh 100044e0 f   Newton.obj
 0001:00003520       _NewtonCreateCompoundBreakable 10004520 f   Newton.obj
 0001:00003570       _NewtonCompoundBreakableResetAnchoredPieces 10004570 f   Newton.obj
 0001:000035a0       _NewtonCompoundBreakableSetAnchoredPieces 100045a0 f   Newton.obj
 0001:000035e0       _NewtonBreakableGetMainMesh 100045e0 f   Newton.obj
 0001:00003620       _NewtonBreakableBeginDelete 10004620 f   Newton.obj
 0001:00003660       _NewtonBreakableCreateDebrieBody 10004660 f   Newton.obj
 0001:000036b0       _NewtonBreakableDeleteComponent 100046b0 f   Newton.obj
 0001:000036f0       _NewtonBreakableEndDelete  100046f0 f   Newton.obj
 0001:00003730       _NewtonBreakableGetFirstComponent 10004730 f   Newton.obj
 0001:00003770       _NewtonBreakableGetNextComponent 10004770 f   Newton.obj
 0001:000037a0       _NewtonCompoundBreakableGetVertexCount 100047a0 f   Newton.obj
 0001:000037e0       _NewtonCompoundBreakableGetVertexStreams 100047e0 f   Newton.obj
 0001:00003830       _NewtonBreakableGetFirstSegment 10004830 f   Newton.obj
 0001:00003860       _NewtonBreakableGetNextSegment 10004860 f   Newton.obj
 0001:00003880       _NewtonBreakableGetComponentsInRadius 10004880 f   Newton.obj
 0001:00003910       _NewtonBreakableSegmentGetMaterial 10004910 f   Newton.obj
 0001:00003930       _NewtonBreakableSegmentGetIndexCount 10004930 f   Newton.obj
 0001:00003950       _NewtonBreakableSegmentGetIndexStream 10004950 f   Newton.obj
 0001:000039a0       _NewtonBreakableSegmentGetIndexStreamShort 100049a0 f   Newton.obj
 0001:000039f0       _NewtonCollisionIsTriggerVolume 100049f0 f   Newton.obj
 0001:00003a20       _NewtonCollisionSetAsTriggerVolume 10004a20 f   Newton.obj
 0001:00003a50       _NewtonCollisionSetMaxBreakImpactImpulse 10004a50 f   Newton.obj
 0001:00003a80       _NewtonCollisionGetMaxBreakImpactImpulse 10004a80 f   Newton.obj
 0001:00003aa0       _NewtonCollisionSetUserID  10004aa0 f   Newton.obj
 0001:00003ac0       _NewtonCollisionGetUserID  10004ac0 f   Newton.obj
 0001:00003ae0       _NewtonConvexHullGetFaceIndices 10004ae0 f   Newton.obj
 0001:00003b20       _NewtonConvexCollisionCalculateVolume 10004b20 f   Newton.obj
 0001:00003b40       _NewtonConvexCollisionCalculateInertialMatrix 10004b40 f   Newton.obj
 0001:00003c00       _NewtonCreateUserMeshCollision 10004c00 f   Newton.obj
 0001:00003cd0       _NewtonCreateTreeCollision 10004cd0 f   Newton.obj
 0001:00003d00       _NewtonStaticCollisionSetDebugCallback 10004d00 f   Newton.obj
 0001:00003d60       _NewtonTreeCollisionSetUserRayCastCallback 10004d60 f   Newton.obj
 0001:00003d90       _NewtonHeightFieldSetUserRayCastCallback 10004d90 f   Newton.obj
 0001:00003dc0       _NewtonTreeCollisionBeginBuild 10004dc0 f   Newton.obj
 0001:00003e10       _NewtonTreeCollisionAddFace 10004e10 f   Newton.obj
 0001:00003e70       _NewtonTreeCollisionEndBuild 10004e70 f   Newton.obj
 0001:00003ec0       _NewtonTreeCollisionGetFaceAtribute 10004ec0 f   Newton.obj
 0001:00003f20       _NewtonTreeCollisionSetFaceAtribute 10004f20 f   Newton.obj
 0001:00003f80       _NewtonTreeCollisionGetVertexListIndexListInAABB 10004f80 f   Newton.obj
 0001:00004080       _NewtonCreateHeightFieldCollision 10005080 f   Newton.obj
 0001:000040d0       _NewtonCreateSceneCollision 100050d0 f   Newton.obj
 0001:00004100       _NewtonSceneCollisionCreateProxy 10005100 f   Newton.obj
 0001:00004150       _NewtonSceneCollisionDestroyProxy 10005150 f   Newton.obj
 0001:000041a0       _NewtonSceneProxySetMatrix 100051a0 f   Newton.obj
 0001:000041e0       _NewtonSceneProxyGetMatrix 100051e0 f   Newton.obj
 0001:00004240       _NewtonSceneCollisionOptimize 10005240 f   Newton.obj
 0001:00004290       _NewtonCollisionPointDistance 10005290 f   Newton.obj
 0001:000042c0       _NewtonCollisionClosestPoint 100052c0 f   Newton.obj
 0001:00004300       _NewtonCollisionCollide    10005300 f   Newton.obj
 0001:00004340       _NewtonCollisionCollideContinue 10005340 f   Newton.obj
 0001:000043a0       _NewtonCollisionSupportVertex 100053a0 f   Newton.obj
 0001:000044c0       _NewtonCollisionRayCast    100054c0 f   Newton.obj
 0001:00004620       _NewtonCollisionCalculateAABB 10005620 f   Newton.obj
 0001:000046b0       _NewtonCollisionForEachPolygonDo 100056b0 f   Newton.obj
 0001:00004700       _NewtonCollisionMakeUnique 10005700 f   Newton.obj
 0001:00004730       _NewtonAddCollisionReference 10005730 f   Newton.obj
 0001:00004750       _NewtonReleaseCollision    10005750 f   Newton.obj
 0001:00004780       _NewtonCollisionSerialize  10005780 f   Newton.obj
 0001:000047b0       _NewtonCreateCollisionFromSerialization 100057b0 f   Newton.obj
 0001:000047d0       _NewtonCollisionGetInfo    100057d0 f   Newton.obj
 0001:000047f0       _NewtonGetEulerAngle       100057f0 f   Newton.obj
 0001:00004840       _NewtonSetEulerAngle       10005840 f   Newton.obj
 0001:000049a0       _NewtonCalculateSpringDamperAcceleration 100059a0 f   Newton.obj
 0001:00004a20       _NewtonCreateBody          10005a20 f   Newton.obj
 0001:00004a90       _NewtonDestroyBody         10005a90 f   Newton.obj
 0001:00004ac0       _NewtonBodySetUserData     10005ac0 f   Newton.obj
 0001:00004ae0       _NewtonBodyGetUserData     10005ae0 f   Newton.obj
 0001:00004b00       _NewtonBodyGetWorld        10005b00 f   Newton.obj
 0001:00004b20       _NewtonBodySetTransformCallback 10005b20 f   Newton.obj
 0001:00004b40       _NewtonBodyGetTransformCallback 10005b40 f   Newton.obj
 0001:00004b60       _NewtonBodySetForceAndTorqueCallback 10005b60 f   Newton.obj
 0001:00004b80       _NewtonBodyGetForceAndTorqueCallback 10005b80 f   Newton.obj
 0001:00004ba0       _NewtonBodySetDestructorCallback 10005ba0 f   Newton.obj
 0001:00004bc0       _NewtonBodySetMassMatrix   10005bc0 f   Newton.obj
 0001:00004d40       _NewtonBodyGetMassMatrix   10005d40 f   Newton.obj
 0001:00004de0       _NewtonBodyGetInvMass      10005de0 f   Newton.obj
 0001:00004e70       _NewtonBodySetMatrix       10005e70 f   Newton.obj
 0001:00004ed0       _NewtonBodySetMatrixRecursive 10005ed0 f   Newton.obj
 0001:00004f30       _NewtonBodyGetMatrix       10005f30 f   Newton.obj
 0001:00004f60       _NewtonBodyGetRotation     10005f60 f   Newton.obj
 0001:00004fa0       _NewtonBodySetForce        10005fa0 f   Newton.obj
 0001:00005000       _NewtonBodyAddForce        10006000 f   Newton.obj
 0001:00005060       _NewtonBodyGetForceAcc     10006060 f   Newton.obj
 0001:000050c0       _NewtonBodyGetForce        100060c0 f   Newton.obj
 0001:00005120       _NewtonBodyCalculateInverseDynamicsForce 10006120 f   Newton.obj
 0001:000051c0       _NewtonBodySetTorque       100061c0 f   Newton.obj
 0001:00005220       _NewtonBodyAddTorque       10006220 f   Newton.obj
 0001:00005280       _NewtonBodyGetTorque       10006280 f   Newton.obj
 0001:000052e0       _NewtonBodyGetTorqueAcc    100062e0 f   Newton.obj
 0001:00005340       _NewtonBodySetCentreOfMass 10006340 f   Newton.obj
 0001:000053a0       _NewtonBodyGetCentreOfMass 100063a0 f   Newton.obj
 0001:000053f0       _NewtonBodyGetFirstJoint   100063f0 f   Newton.obj
 0001:00005410       _NewtonBodyGetNextJoint    10006410 f   Newton.obj
 0001:00005430       _NewtonBodyGetFirstContactJoint 10006430 f   Newton.obj
 0001:00005450       _NewtonBodyGetNextContactJoint 10006450 f   Newton.obj
 0001:00005470       _NewtonContactJointGetContactCount 10006470 f   Newton.obj
 0001:000054b0       _NewtonContactJointGetFirstContact 100064b0 f   Newton.obj
 0001:000054f0       _NewtonContactJointGetNextContact 100064f0 f   Newton.obj
 0001:00005530       _NewtonContactJointRemoveContact 10006530 f   Newton.obj
 0001:00005580       _NewtonContactGetMaterial  10006580 f   Newton.obj
 0001:000055a0       _NewtonBodyAddBuoyancyForce 100065a0 f   Newton.obj
 0001:00005620       _NewtonBodySetCollision    10006620 f   Newton.obj
 0001:00005650       _NewtonBodyGetCollision    10006650 f   Newton.obj
 0001:00005670       _NewtonBodySetMaterialGroupID 10006670 f   Newton.obj
 0001:00005690       _NewtonBodyGetMaterialGroupID 10006690 f   Newton.obj
 0001:000056b0       _NewtonBodySetContinuousCollisionMode 100066b0 f   Newton.obj
 0001:000056e0       _NewtonBodyGetContinuousCollisionMode 100066e0 f   Newton.obj
 0001:00005700       _NewtonBodySetJointRecursiveCollision 10006700 f   Newton.obj
 0001:00005730       _NewtonBodyGetJointRecursiveCollision 10006730 f   Newton.obj
 0001:00005750       _NewtonBodyGetFreezeState  10006750 f   Newton.obj
 0001:00005770       _NewtonBodySetFreezeState  10006770 f   Newton.obj
 0001:000057a0       _NewtonBodySetAutoSleep    100067a0 f   Newton.obj
 0001:000057d0       _NewtonBodyGetAutoSleep    100067d0 f   Newton.obj
 0001:000057f0       _NewtonBodyGetSleepState   100067f0 f   Newton.obj
 0001:00005810       _NewtonBodyGetAABB         10006810 f   Newton.obj
 0001:00005890       _NewtonBodySetVelocity     10006890 f   Newton.obj
 0001:000058f0       _NewtonBodyGetVelocity     100068f0 f   Newton.obj
 0001:00005950       _NewtonBodySetOmega        10006950 f   Newton.obj
 0001:000059b0       _NewtonBodyGetOmega        100069b0 f   Newton.obj
 0001:00005a10       _NewtonBodySetLinearDamping 10006a10 f   Newton.obj
 0001:00005a30       _NewtonBodyGetLinearDamping 10006a30 f   Newton.obj
 0001:00005a50       _NewtonBodySetAngularDamping 10006a50 f   Newton.obj
 0001:00005ab0       _NewtonBodyGetAngularDamping 10006ab0 f   Newton.obj
 0001:00005b00       _NewtonBodyAddImpulse      10006b00 f   Newton.obj
 0001:00005b60       _NewtonConstraintCreateBall 10006b60 f   Newton.obj
 0001:00005be0       _NewtonBallSetConeLimits   10006be0 f   Newton.obj
 0001:00005f20       _NewtonBallSetUserCallback 10006f20 f   Newton.obj
 0001:00005f40       _NewtonBallGetJointAngle   10006f40 f   Newton.obj
 0001:00005f90       _NewtonBallGetJointOmega   10006f90 f   Newton.obj
 0001:00005fe0       _NewtonBallGetJointForce   10006fe0 f   Newton.obj
 0001:00006030       _NewtonConstraintCreateHinge 10007030 f   Newton.obj
 0001:000060d0       _NewtonHingeSetUserCallback 100070d0 f   Newton.obj
 0001:000060f0       _NewtonHingeGetJointAngle  100070f0 f   Newton.obj
 0001:00006110       _NewtonHingeGetJointOmega  10007110 f   Newton.obj
 0001:00006130       _NewtonHingeCalculateStopAlpha 10007130 f   Newton.obj
 0001:00006160       _NewtonHingeGetJointForce  10007160 f   Newton.obj
 0001:000061b0       _NewtonConstraintCreateSlider 100071b0 f   Newton.obj
 0001:00006250       _NewtonSliderSetUserCallback 10007250 f   Newton.obj
 0001:00006270       _NewtonSliderGetJointPosit 10007270 f   Newton.obj
 0001:00006290       _NewtonSliderGetJointVeloc 10007290 f   Newton.obj
 0001:000062b0       _NewtonSliderCalculateStopAccel 100072b0 f   Newton.obj
 0001:000062e0       _NewtonSliderGetJointForce 100072e0 f   Newton.obj
 0001:00006330       _NewtonConstraintCreateCorkscrew 10007330 f   Newton.obj
 0001:000063d0       _NewtonCorkscrewSetUserCallback 100073d0 f   Newton.obj
 0001:000063f0       _NewtonCorkscrewGetJointPosit 100073f0 f   Newton.obj
 0001:00006410       _NewtonCorkscrewGetJointVeloc 10007410 f   Newton.obj
 0001:00006430       _NewtonCorkscrewGetJointAngle 10007430 f   Newton.obj
 0001:00006450       _NewtonCorkscrewGetJointOmega 10007450 f   Newton.obj
 0001:00006470       _NewtonCorkscrewCalculateStopAlpha 10007470 f   Newton.obj
 0001:000064a0       _NewtonCorkscrewCalculateStopAccel 100074a0 f   Newton.obj
 0001:000064d0       _NewtonCorkscrewGetJointForce 100074d0 f   Newton.obj
 0001:00006520       _NewtonConstraintCreateUniversal 10007520 f   Newton.obj
 0001:000065f0       _NewtonUniversalSetUserCallback 100075f0 f   Newton.obj
 0001:00006610       _NewtonUniversalGetJointAngle0 10007610 f   Newton.obj
 0001:00006630       _NewtonUniversalGetJointAngle1 10007630 f   Newton.obj
 0001:00006650       _NewtonUniversalGetJointOmega0 10007650 f   Newton.obj
 0001:00006670       _NewtonUniversalGetJointOmega1 10007670 f   Newton.obj
 0001:00006690       _NewtonUniversalCalculateStopAlpha0 10007690 f   Newton.obj
 0001:000066c0       _NewtonUniversalCalculateStopAlpha1 100076c0 f   Newton.obj
 0001:000066f0       _NewtonUniversalGetJointForce 100076f0 f   Newton.obj
 0001:00006740       _NewtonConstraintCreateUpVector 10007740 f   Newton.obj
 0001:000067b0       _NewtonUpVectorGetPin      100077b0 f   Newton.obj
 0001:00006800       _NewtonUpVectorSetPin      10007800 f   Newton.obj
 0001:00006860       _NewtonConstraintCreateUserJoint 10007860 f   Newton.obj
 0001:000068d0       _NewtonUserJointAddLinearRow 100078d0 f   Newton.obj
 0001:00006a40       _NewtonUserJointAddAngularRow 10007a40 f   Newton.obj
 0001:00006b50       _NewtonUserJointAddGeneralRow 10007b50 f   Newton.obj
 0001:00006b70       _NewtonUserJointSetRowMaximumFriction 10007b70 f   Newton.obj
 0001:00006b90       _NewtonUserJointSetRowMinimumFriction 10007b90 f   Newton.obj
 0001:00006bb0       _NewtonUserJointSetRowAcceleration 10007bb0 f   Newton.obj
 0001:00006bd0       _NewtonUserJointSetRowSpringDamperAcceleration 10007bd0 f   Newton.obj
 0001:00006c00       _NewtonUserJointSetRowStiffness 10007c00 f   Newton.obj
 0001:00006c20       _NewtonUserJointGetRowForce 10007c20 f   Newton.obj
 0001:00006c40       _NewtonUserJointSetFeedbackCollectorCallback 10007c40 f   Newton.obj
 0001:00006c60       _NewtonJointSetUserData    10007c60 f   Newton.obj
 0001:00006c80       _NewtonJointGetUserData    10007c80 f   Newton.obj
 0001:00006ca0       _NewtonJointGetInfo        10007ca0 f   Newton.obj
 0001:00006cc0       _NewtonJointGetBody0       10007cc0 f   Newton.obj
 0001:00006ce0       _NewtonJointGetBody1       10007ce0 f   Newton.obj
 0001:00006d20       _NewtonJointSetCollisionState 10007d20 f   Newton.obj
 0001:00006d50       _NewtonJointGetCollisionState 10007d50 f   Newton.obj
 0001:00006d70       _NewtonJointSetStiffness   10007d70 f   Newton.obj
 0001:00006da0       _NewtonJointGetStiffness   10007da0 f   Newton.obj
 0001:00006dc0       _NewtonJointSetDestructor  10007dc0 f   Newton.obj
 0001:00006de0       _NewtonDestroyJoint        10007de0 f   Newton.obj
 0001:00006e00       _NewtonMeshCreate          10007e00 f   Newton.obj
 0001:00006e60       _NewtonMeshCreateFromMesh  10007e60 f   Newton.obj
 0001:00006eb0       _NewtonMeshCreateFromCollision 10007eb0 f   Newton.obj
 0001:00006f00       _NewtonMeshConvexHull      10007f00 f   Newton.obj
 0001:00006f70       _NewtonMeshCreatePlane     10007f70 f   Newton.obj
 0001:00006fe0       _NewtonMeshDestroy         10007fe0 f   Newton.obj
 0001:00007020       _NewtonMeshCalculateOOBB   10008020 f   Newton.obj
 0001:00007090       _NewtonMeshCalculateVertexNormals 10008090 f   Newton.obj
 0001:000070b0       _NewtonMeshApplySphericalMapping 100080b0 f   Newton.obj
 0001:000070d0       _NewtonMeshApplyBoxMapping 100080d0 f   Newton.obj
 0001:00007100       _NewtonMeshApplyCylindricalMapping 10008100 f   Newton.obj
 0001:00007120       _NewtonMeshTriangulate     10008120 f   Newton.obj
 0001:00007130       _NewtonMeshPolygonize      10008130 f   Newton.obj
 0001:00007140       _NewtonMeshIsOpenMesh      10008140 f   Newton.obj
 0001:00007160       _NewtonMeshFixTJoints      10008160 f   Newton.obj
 0001:00007170       _NewtonMeshClip            10008170 f   Newton.obj
 0001:000071b0       _NewtonMeshUnion           100081b0 f   Newton.obj
 0001:000071d0       _NewtonMeshDifference      100081d0 f   Newton.obj
 0001:000071f0       _NewtonMeshIntersection    100081f0 f   Newton.obj
 0001:00007210       _NewtonRemoveUnusedVertices 10008210 f   Newton.obj
 0001:00007230       _NewtonMeshBeginFace       10008230 f   Newton.obj
 0001:00007250       _NewtonMeshAddFace         10008250 f   Newton.obj
 0001:00007280       _NewtonMeshEndFace         10008280 f   Newton.obj
 0001:000072a0       _NewtonMeshBuildFromVertexListIndexList 100082a0 f   Newton.obj
 0001:00007300       _NewtonMeshGetVertexCount  10008300 f   Newton.obj
 0001:00007320       _NewtonMeshGetVertexStrideInByte 10008320 f   Newton.obj
 0001:00007340       _NewtonMeshGetVertexArray  10008340 f   Newton.obj
 0001:00007360       _NewtonMeshGetPointCount   10008360 f   Newton.obj
 0001:00007380       _NewtonMeshGetPointStrideInByte 10008380 f   Newton.obj
 0001:000073a0       _NewtonMeshGetPointArray   100083a0 f   Newton.obj
 0001:000073c0       _NewtonMeshGetNormalArray  100083c0 f   Newton.obj
 0001:000073e0       _NewtonMeshGetUV0Array     100083e0 f   Newton.obj
 0001:00007400       _NewtonMeshGetUV1Array     10008400 f   Newton.obj
 0001:00007420       _NewtonMeshGetVertexStreams 10008420 f   Newton.obj
 0001:00007460       _NewtonMeshGetIndirectVertexStreams 10008460 f   Newton.obj
 0001:000074c0       _NewtonMeshBeginHandle     100084c0 f   Newton.obj
 0001:000074e0       _NewtonMeshEndHandle       100084e0 f   Newton.obj
 0001:00007500       _NewtonMeshFirstMaterial   10008500 f   Newton.obj
 0001:00007520       _NewtonMeshNextMaterial    10008520 f   Newton.obj
 0001:00007540       _NewtonMeshMaterialGetMaterial 10008540 f   Newton.obj
 0001:00007560       _NewtonMeshMaterialGetIndexCount 10008560 f   Newton.obj
 0001:00007580       _NewtonMeshMaterialGetIndexStream 10008580 f   Newton.obj
 0001:000075b0       _NewtonMeshMaterialGetIndexStreamShort 100085b0 f   Newton.obj
 0001:000075e0       _NewtonMeshCreateFirstSingleSegment 100085e0 f   Newton.obj
 0001:00007670       _NewtonMeshCreateNextSingleSegment 10008670 f   Newton.obj
 0001:00007740       _NewtonMeshGetTotalFaceCount 10008740 f   Newton.obj
 0001:00007750       _NewtonMeshGetTotalIndexCount 10008750 f   Newton.obj
 0001:00007760       _NewtonMeshGetFaces        10008760 f   Newton.obj
 0001:00007780       _NewtonMeshGetFirstVertex  10008780 f   Newton.obj
 0001:00007790       _NewtonMeshGetNextVertex   10008790 f   Newton.obj
 0001:000077b0       _NewtonMeshGetVertexIndex  100087b0 f   Newton.obj
 0001:000077d0       _NewtonMeshGetFirstPoint   100087d0 f   Newton.obj
 0001:000077e0       _NewtonMeshGetNextPoint    100087e0 f   Newton.obj
 0001:00007800       _NewtonMeshGetPointIndex   10008800 f   Newton.obj
 0001:00007820       _NewtonMeshGetVertexIndexFromPoint 10008820 f   Newton.obj
 0001:00007840       _NewtonMeshGetFirstEdge    10008840 f   Newton.obj
 0001:00007850       _NewtonMeshGetNextEdge     10008850 f   Newton.obj
 0001:00007870       _NewtonMeshGetEdgeIndices  10008870 f   Newton.obj
 0001:00007890       _NewtonMeshGetFirstFace    10008890 f   Newton.obj
 0001:000078a0       _NewtonMeshGetNextFace     100088a0 f   Newton.obj
 0001:000078c0       _NewtonMeshIsFaceOpen      100088c0 f   Newton.obj
 0001:000078e0       _NewtonMeshGetFaceIndexCount 100088e0 f   Newton.obj
 0001:00007900       _NewtonMeshGetFaceMaterial 10008900 f   Newton.obj
 0001:00007920       _NewtonMeshGetFaceIndices  10008920 f   Newton.obj
 0001:00007940       _NewtonMeshGetFacePointIndices 10008940 f   Newton.obj
 0001:00009220       ??2Newton@@SAPAXIQAVdgMemoryAllocator@@@Z 1000a220 f i Newton.obj
 0001:00009240       ??_GNewton@@QAEPAXI@Z      1000a240 f i Newton.obj
 0001:00009280       ??3Newton@@SAXPAX@Z        1000a280 f i Newton.obj
 0001:000092a0       ??_GdgMemoryAllocator@@QAEPAXI@Z 1000a2a0 f i Newton.obj
 0001:000092e0       _ceilf                     1000a2e0 f i Newton.obj
 0001:00009310       ??0dgContactPoint@@QAE@XZ  1000a310 f i Newton.obj
 0001:00009340       ??2?$dgTree@VdgEdge@@_J@@SAPAXIQAVdgMemoryAllocator@@@Z 1000a340 f i Newton.obj
 0001:00009360       ?GetInfo@dgListNode@?$dgList@V?$dgGraphNode@VdgDebriNodeInfo@dgCollisionCompoundBreakable@@VdgSharedNodeMesh@2@@@@@QAEAAV?$dgGraphNode@VdgDebriNodeInfo@dgCollisionCompoundBreakable@@VdgSharedNodeMesh@2@@@XZ 1000a360 f i Newton.obj
 0001:00009380       ?GetInfo@dgListNode@?$dgList@VdgBodyMasterListRow@@@@QAEAAVdgBodyMasterListRow@@XZ 1000a380 f i Newton.obj
 0001:000093a0       ?GetNext@dgListNode@?$dgList@VdgBodyMasterListRow@@@@QBEPAV12@XZ 1000a3a0 f i Newton.obj
 0001:000093c0       ?GetInfo@dgListNode@?$dgList@VdgBodyMasterListCell@@@@QAEAAVdgBodyMasterListCell@@XZ 1000a3c0 f i Newton.obj
 0001:000093e0       ?GetNext@dgListNode@?$dgList@VdgBodyMasterListCell@@@@QBEPAV12@XZ 1000a3e0 f i Newton.obj
 0001:00009400       ?GetInfo@dgListNode@?$dgList@VdgSubMesh@dgCollisionCompoundBreakable@@@@QAEAAVdgSubMesh@dgCollisionCompoundBreakable@@XZ 1000a400 f i Newton.obj
 0001:00009420       ?GetNext@dgListNode@?$dgList@VdgSubMesh@dgCollisionCompoundBreakable@@@@QBEPAV12@XZ 1000a420 f i Newton.obj
 0001:00009440       ?GetInfo@dgListNode@?$dgList@UdgProxy@dgCollisionScene@@@@QAEAAUdgProxy@dgCollisionScene@@XZ 1000a440 f i Newton.obj
 0001:00009460       ?GetInfo@dgListNode@?$dgList@VdgContactMaterial@@@@QAEAAVdgContactMaterial@@XZ 1000a460 f i Newton.obj
 0001:00009480       ?GetNext@dgListNode@?$dgList@VdgContactMaterial@@@@QBEPAV12@XZ 1000a480 f i Newton.obj
 0001:000094a0       ?GetFirst@?$dgList@VdgBodyMasterListCell@@@@QBEPAVdgListNode@1@XZ 1000a4a0 f i Newton.obj
 0001:000094c0       ?GetFirst@?$dgList@VdgBodyMasterListRow@@@@QBEPAVdgListNode@1@XZ 1000a4c0 f i Newton.obj
 0001:000094e0       ??0?$dgTree@PAVdgConstraint@@PAV1@@@QAE@QAVdgMemoryAllocator@@@Z 1000a4e0 f i Newton.obj
 0001:00009520       ??1?$dgTree@PAVdgConstraint@@PAV1@@@QAE@XZ 1000a520 f i Newton.obj
 0001:00009540       ?Find@?$dgTree@PAVdgConstraint@@PAV1@@@QBEPAVdgTreeNode@1@PAVdgConstraint@@@Z 1000a540 f i Newton.obj
 0001:000096a0       ?Insert@?$dgTree@PAVdgConstraint@@PAV1@@@QAEPAVdgTreeNode@1@ABQAVdgConstraint@@PAV3@@Z 1000a6a0 f i Newton.obj
 0001:000096f0       ?GetFirst@?$dgList@VdgSubMesh@dgCollisionCompoundBreakable@@@@QBEPAVdgListNode@1@XZ 1000a6f0 f i Newton.obj
 0001:00009710       ?GetCount@?$dgList@VdgContactMaterial@@@@QBEHXZ 1000a710 f i Newton.obj
 0001:00009730       ?GetFirst@?$dgList@VdgContactMaterial@@@@QBEPAVdgListNode@1@XZ 1000a730 f i Newton.obj
 0001:00009750       ?Remove@?$dgList@VdgContactMaterial@@@@QAEXQAVdgListNode@1@@Z 1000a750 f i Newton.obj
 0001:000097b0       ?GetAllocator@?$dgTree@VdgEdge@@_J@@QBEPAVdgMemoryAllocator@@XZ 1000a7b0 f i Newton.obj
 0001:000097d0       ??_GdgListNode@?$dgList@VdgContactMaterial@@@@AAEPAXI@Z 1000a7d0 f i Newton.obj
 0001:00009810       ??3dgListNode@?$dgList@VdgContactMaterial@@@@CAXPAX@Z 1000a810 f i Newton.obj
 0001:00009830       ??1dgListNode@?$dgList@VdgContactMaterial@@@@AAE@XZ 1000a830 f i Newton.obj
 0001:00009840       ?GetLeft@dgTreeNode@?$dgTree@PAVdgConstraint@@PAV1@@@ABEPAV12@XZ 1000a840 f i Newton.obj
 0001:00009860       ?GetRight@dgTreeNode@?$dgTree@PAVdgConstraint@@PAV1@@@ABEPAV12@XZ 1000a860 f i Newton.obj
 0001:00009880       ?Insert@?$dgTree@PAVdgConstraint@@PAV1@@@QAEPAVdgTreeNode@1@ABQAVdgConstraint@@PAV3@AA_N@Z 1000a880 f i Newton.obj
 0001:00009af0       ?RemoveAll@?$dgTree@PAVdgConstraint@@PAV1@@@QAEXXZ 1000aaf0 f i Newton.obj
 0001:00009b30       ?CompareKeys@?$dgTree@PAVdgConstraint@@PAV1@@@ABEHABQAVdgConstraint@@0@Z 1000ab30 f i Newton.obj
 0001:00009b70       ?Unlink@?$dgList@VdgContactMaterial@@@@QAEXQAVdgListNode@1@@Z 1000ab70 f i Newton.obj
 0001:00009c50       ?Unlink@dgListNode@?$dgList@VdgContactMaterial@@@@AAEXXZ 1000ac50 f i Newton.obj
 0001:00009ce0       ?GetPrev@dgListNode@?$dgList@VdgContactMaterial@@@@QBEPAV12@XZ 1000ace0 f i Newton.obj
 0001:00009d00       ??0dgTreeNode@?$dgTree@PAVdgConstraint@@PAV1@@@AAE@ABQAVdgConstraint@@0PAV01@@Z 1000ad00 f i Newton.obj
 0001:00009d90       ??2dgRedBackNode@@SAPAXIQAVdgMemoryAllocator@@@Z 1000ad90 f i Newton.obj
 0001:00009db0       ??0dgRedBackNode@@QAE@QAV0@@Z 1000adb0 f i Newton.obj
 0001:00009de0       ?Initdata@dgRedBackNode@@QAEXQAV1@@Z 1000ade0 f i Newton.obj
 0001:00009e30       ?SetColor@dgRedBackNode@@QAEXW4REDBLACK_COLOR@1@@Z 1000ae30 f i Newton.obj
 0001:00009e60       ?SetInTreeFlag@dgRedBackNode@@QAEXI@Z 1000ae60 f i Newton.obj
 0001:00009e90       ??0dgVector@@QAE@XZ        1000ae90 f i Newton.obj
 0001:00009eb0       ??0dgVector@@QAE@ABV?$dgTemplateVector@M@@@Z 1000aeb0 f i Newton.obj
 0001:00009fb0       ??0dgVector@@QAE@PBM@Z     1000afb0 f i Newton.obj
 0001:0000a0a0       ??0dgVector@@QAE@MMMM@Z    1000b0a0 f i Newton.obj
 0001:0000a1a0       ??0dgMatrix@@QAE@ABVdgVector@@@Z 1000b1a0 f i Newton.obj
 0001:0000a630       ??AdgMatrix@@QAEAAVdgVector@@H@Z 1000b630 f i Newton.obj
 0001:0000a6b0       ?RotateVector@dgMatrix@@QBE?AVdgVector@@ABV2@@Z 1000b6b0 f i Newton.obj
 0001:0000a7a0       ?UnrotateVector@dgMatrix@@QBE?AVdgVector@@ABV2@@Z 1000b7a0 f i Newton.obj
 0001:0000a810       ?TransformVector@dgMatrix@@QBE?AVdgVector@@ABV2@@Z 1000b810 f i Newton.obj
 0001:0000a910       ?UntransformVector@dgMatrix@@QBE?AVdgVector@@ABV2@@Z 1000b910 f i Newton.obj
 0001:0000a980       ?dgPitchMatrix@@YA?AVdgMatrix@@M@Z 1000b980 f i Newton.obj
 0001:0000aa90       ??0dgMatrix@@QAE@ABVdgVector@@000@Z 1000ba90 f i Newton.obj
 0001:0000ab40       ?dgYawMatrix@@YA?AVdgMatrix@@M@Z 1000bb40 f i Newton.obj
 0001:0000ac50       ?dgRollMatrix@@YA?AVdgMatrix@@M@Z 1000bc50 f i Newton.obj
 0001:0000ad60       ?BeginConectedSurface@dgPolyhedra@@QBEXXZ 1000bd60 f i Newton.obj
 0001:0000ad80       ?IncLRU@dgPolyhedra@@QBEHXZ 1000bd80 f i Newton.obj
 0001:0000ade0       ?EndConectedSurface@dgPolyhedra@@QBEXXZ 1000bde0 f i Newton.obj
 0001:0000adf0       ?GetTagId@dgPolygonSoupDatabase@@QBEIPBH@Z 1000bdf0 f i Newton.obj
 0001:0000ae10       ?SetTagId@dgPolygonSoupDatabase@@QBEXPBHI@Z 1000be10 f i Newton.obj
 0001:0000ae40       ?GetBody@dgBodyMasterListRow@@QBEPAVdgBody@@XZ 1000be40 f i Newton.obj
 0001:0000ae60       ?SetAutoSleep@dgBody@@QAEX_N@Z 1000be60 f i Newton.obj
 0001:0000aed0       ?GetAutoSleep@dgBody@@QBE_NXZ 1000bed0 f i Newton.obj
 0001:0000aef0       ?GetSleepState@dgBody@@QBE_NXZ 1000bef0 f i Newton.obj
 0001:0000af10       ?GetCollisionWithLinkedBodies@dgBody@@QBE_NXZ 1000bf10 f i Newton.obj
 0001:0000af30       ?SetCollisionWithLinkedBodies@dgBody@@QAEX_N@Z 1000bf30 f i Newton.obj
 0001:0000af70       ?SetUserData@dgBody@@QAEXQAX@Z 1000bf70 f i Newton.obj
 0001:0000af90       ?GetUserData@dgBody@@QBEPAXXZ 1000bf90 f i Newton.obj
 0001:0000afb0       ?GetWorld@dgBody@@QBEPAVdgWorld@@XZ 1000bfb0 f i Newton.obj
 0001:0000afd0       ?GetGroupID@dgBody@@QBEIXZ 1000bfd0 f i Newton.obj
 0001:0000aff0       ?SetGroupID@dgBody@@QAEXI@Z 1000bff0 f i Newton.obj
 0001:0000b010       ?SetDestructorCallback@dgBody@@QAEXP6AXAAV1@@Z@Z 1000c010 f i Newton.obj
 0001:0000b030       ?SetExtForceAndTorqueCallback@dgBody@@QAEXP6AXAAV1@MH@Z@Z 1000c030 f i Newton.obj
 0001:0000b050       ?GetExtForceAndTorqueCallback@dgBody@@QBEP6AXAAV1@MH@ZXZ 1000c050 f i Newton.obj
 0001:0000b070       ?SetMatrixUpdateCallback@dgBody@@QAEXP6AXABV1@ABVdgMatrix@@H@Z@Z 1000c070 f i Newton.obj
 0001:0000b090       ?GetMatrixUpdateCallback@dgBody@@QAEP6AXABV1@ABVdgMatrix@@H@ZXZ 1000c090 f i Newton.obj
 0001:0000b0b0       ?SetOmega@dgBody@@QAEXABVdgVector@@@Z 1000c0b0 f i Newton.obj
 0001:0000b0f0       ?SetVelocity@dgBody@@QAEXABVdgVector@@@Z 1000c0f0 f i Newton.obj
 0001:0000b130       ?SetCentreOfMass@dgBody@@QAEXABVdgVector@@@Z 1000c130 f i Newton.obj
 0001:0000b1f0       ?AddForce@dgBody@@QAEXABVdgVector@@@Z 1000c1f0 f i Newton.obj
 0001:0000b260       ?AddTorque@dgBody@@QAEXABVdgVector@@@Z 1000c260 f i Newton.obj
 0001:0000b2d0       ?GetAparentMass@dgBody@@QBEABVdgVector@@XZ 1000c2d0 f i Newton.obj
 0001:0000b2f0       ?GetOmega@dgBody@@QBEABVdgVector@@XZ 1000c2f0 f i Newton.obj
 0001:0000b310       ?GetVelocity@dgBody@@QBEABVdgVector@@XZ 1000c310 f i Newton.obj
 0001:0000b330       ?GetForce@dgBody@@QBEABVdgVector@@XZ 1000c330 f i Newton.obj
 0001:0000b350       ?GetTorque@dgBody@@QBEABVdgVector@@XZ 1000c350 f i Newton.obj
 0001:0000b370       ?GetNetForce@dgBody@@QBEABVdgVector@@XZ 1000c370 f i Newton.obj
 0001:0000b390       ?GetNetTorque@dgBody@@QBEABVdgVector@@XZ 1000c390 f i Newton.obj
 0001:0000b3b0       ?GetCollision@dgBody@@QBEPAVdgCollision@@XZ 1000c3b0 f i Newton.obj
 0001:0000b3d0       ?GetPosition@dgBody@@QBEABVdgVector@@XZ 1000c3d0 f i Newton.obj
 0001:0000b3f0       ?GetRotation@dgBody@@QBEABVdgQuaternion@@XZ 1000c3f0 f i Newton.obj
 0001:0000b410       ?GetMatrix@dgBody@@QBEABVdgMatrix@@XZ 1000c410 f i Newton.obj
 0001:0000b430       ?GetCentreOfMass@dgBody@@QBE?AVdgVector@@XZ 1000c430 f i Newton.obj
 0001:0000b470       ?GetAABB@dgBody@@QBEXAAVdgVector@@0@Z 1000c470 f i Newton.obj
 0001:0000b4f0       ?SetContinuesCollisionMode@dgBody@@QAEX_N@Z 1000c4f0 f i Newton.obj
 0001:0000b530       ?GetContinuesCollisionMode@dgBody@@QBE_NXZ 1000c530 f i Newton.obj
 0001:0000b550       ?GetLinearDamping@dgBody@@QBEMXZ 1000c550 f i Newton.obj
 0001:0000b590       ?GetAngularDamping@dgBody@@QBE?AVdgVector@@XZ 1000c590 f i Newton.obj
 0001:0000b630       ?SetLinearDamping@dgBody@@QAEXM@Z 1000c630 f i Newton.obj
 0001:0000b690       ?SetAngularDamping@dgBody@@QAEXABVdgVector@@@Z 1000c690 f i Newton.obj
 0001:0000b770       ?SetForce@dgBody@@QAEXABVdgVector@@@Z 1000c770 f i Newton.obj
 0001:0000b8a0       ?SetTorque@dgBody@@QAEXABVdgVector@@@Z 1000c8a0 f i Newton.obj
 0001:0000b9d0       ?GetMasterList@dgBody@@QBEPAVdgListNode@?$dgList@VdgBodyMasterListRow@@@@XZ 1000c9d0 f i Newton.obj
 0001:0000b9f0       ?GetFreeze@dgBody@@QBE_NXZ 1000c9f0 f i Newton.obj
 0001:0000ba10       ??2dgConstraint@@SAPAXIQAVdgMemoryAllocator@@@Z 1000ca10 f i Newton.obj
 0001:0000ba30       ?IsCollidable@dgConstraint@@QBE_NXZ 1000ca30 f i Newton.obj
 0001:0000ba50       ?SetCollidable@dgConstraint@@QAEX_N@Z 1000ca50 f i Newton.obj
 0001:0000ba90       ?GetId@dgConstraint@@QBEIXZ 1000ca90 f i Newton.obj
 0001:0000bab0       ?GetBody0@dgConstraint@@QBEPAVdgBody@@XZ 1000cab0 f i Newton.obj
 0001:0000bad0       ?GetBody1@dgConstraint@@QBEPAVdgBody@@XZ 1000cad0 f i Newton.obj
 0001:0000baf0       ?SetCollisionCallback@dgContactMaterial@@QAEXP6A_NABV1@ABVdgBody@@1H@ZP6AXAAVdgContact@@MH@Z@Z 1000caf0 f i Newton.obj
 0001:0000bb20       ?SetCompoundCollisionCallback@dgContactMaterial@@QAEXP6A_NABV1@ABVdgBody@@1H@Z@Z 1000cb20 f i Newton.obj
 0001:0000bb40       ?GetUserData@dgContactMaterial@@QBEPAXXZ 1000cb40 f i Newton.obj
 0001:0000bb60       ?SetUserData@dgContactMaterial@@QAEXQAX@Z 1000cb60 f i Newton.obj
 0001:0000bb80       ?IsType@dgCollision@@QBEHW4RTTI@1@@Z 1000cb80 f i Newton.obj
 0001:0000bba0       ?GetOffsetMatrix@dgCollision@@QBEABVdgMatrix@@XZ 1000cba0 f i Newton.obj
 0001:0000bbc0       ?SetUserDataID@dgCollision@@QBEIXZ 1000cbc0 f i Newton.obj
 0001:0000bbe0       ?SetUserDataID@dgCollision@@QAEXI@Z 1000cbe0 f i Newton.obj
 0001:0000bc00       ?AddRef@dgCollision@@QAEPAV1@XZ 1000cc00 f i Newton.obj
 0001:0000bc30       ?GetRefCount@dgCollision@@QBEHXZ 1000cc30 f i Newton.obj
 0001:0000bc50       ?GetAllocator@dgCollision@@QBEPAVdgMemoryAllocator@@XZ 1000cc50 f i Newton.obj
 0001:0000bc70       ?dgGetUserLock@dgWorld@@QBEXXZ 1000cc70 f i Newton.obj
 0001:0000bca0       ?dgReleasedUserLock@dgWorld@@QBEXXZ 1000cca0 f i Newton.obj
 0001:0000bcd0       ?GetAllocator@dgWorld@@QBEPAVdgMemoryAllocator@@XZ 1000ccd0 f i Newton.obj
 0001:0000bcf0       ?GetVertexStrideInByte@dgMeshEffect@@QBEHXZ 1000ccf0 f i Newton.obj
 0001:0000bd10       ?GetVertexPool@dgMeshEffect@@QBEPAMXZ 1000cd10 f i Newton.obj
 0001:0000bd30       ?GetPropertiesStrideInByte@dgMeshEffect@@QBEHXZ 1000cd30 f i Newton.obj
 0001:0000bd50       ?GetAttributePool@dgMeshEffect@@QBEPAMXZ 1000cd50 f i Newton.obj
 0001:0000bd70       ?GetNormalPool@dgMeshEffect@@QBEPAMXZ 1000cd70 f i Newton.obj
 0001:0000bd90       ?GetUV0Pool@dgMeshEffect@@QBEPAMXZ 1000cd90 f i Newton.obj
 0001:0000bdb0       ?GetUV1Pool@dgMeshEffect@@QBEPAMXZ 1000cdb0 f i Newton.obj
 0001:0000bdd0       ?GetVertexCount@dgMeshEffect@@QBEHXZ 1000cdd0 f i Newton.obj
 0001:0000bdf0       ?GetPropertiesCount@dgMeshEffect@@QBEHXZ 1000cdf0 f i Newton.obj
 0001:0000be10       ?GetMaterialID@dgMeshEffect@@QAEHPAUdgIndexArray@1@H@Z 1000ce10 f i Newton.obj
 0001:0000be30       ?GetMaterialIndexCount@dgMeshEffect@@QAEHPAUdgIndexArray@1@H@Z 1000ce30 f i Newton.obj
 0001:0000be50       ?GetMainMesh@dgCollisionCompoundBreakable@@QBEPAVdgListNode@?$dgList@V?$dgGraphNode@VdgDebriNodeInfo@dgCollisionCompoundBreakable@@VdgSharedNodeMesh@2@@@@@XZ 1000ce50 f i Newton.obj
 0001:0000be70       ?GetFirstComponentMesh@dgCollisionCompoundBreakable@@QBEPAVdgListNode@?$dgList@V?$dgGraphNode@VdgDebriNodeInfo@dgCollisionCompoundBreakable@@VdgSharedNodeMesh@2@@@@@XZ 1000ce70 f i Newton.obj
 0001:0000bed0       ?GetVertecCount@dgCollisionCompoundBreakable@@QBEHXZ 1000ced0 f i Newton.obj
 0001:0000bef0       ?GetVertexStreams@dgCollisionCompoundBreakable@@QBEXHPAMH0H0@Z 1000cef0 f i Newton.obj
 0001:0000bf30       ?GetNext@dgListNode@?$dgList@V?$dgGraphNode@VdgDebriNodeInfo@dgCollisionCompoundBreakable@@VdgSharedNodeMesh@2@@@@@QBEPAV12@XZ 1000cf30 f i Newton.obj
 0001:0000bf50       ??0?$dgTemplateVector@M@@QAE@MMMM@Z 1000cf50 f i Newton.obj
 0001:0000bf90       ??0?$dgTemplateVector@M@@QAE@PBM@Z 1000cf90 f i Newton.obj
 0001:0000bfe0       ??0?$dgTemplateVector@M@@QAE@XZ 1000cfe0 f i Newton.obj
 0001:0000c000       ?Scale@?$dgTemplateVector@M@@QBE?AV1@M@Z 1000d000 f i Newton.obj
 0001:0000c080       ??A?$dgTemplateVector@M@@QAEAAMH@Z 1000d080 f i Newton.obj
 0001:0000c100       ??H?$dgTemplateVector@M@@QBE?AV0@ABV0@@Z 1000d100 f i Newton.obj
 0001:0000c180       ??G?$dgTemplateVector@M@@QBE?AV0@ABV0@@Z 1000d180 f i Newton.obj
 0001:0000c200       ??L?$dgTemplateVector@M@@QBEMABV0@@Z 1000d200 f i Newton.obj
 0001:0000c250       ??D?$dgTemplateVector@M@@QBE?AV0@ABV0@@Z 1000d250 f i Newton.obj
 0001:0000c300       ??$ClampValue@M@@YAMMMM@Z  1000d300 f i Newton.obj
 0001:0000c340       ??$GetMin@M@@YAMMM@Z       1000d340 f i Newton.obj
 0001:0000c370       ??$GetMax@M@@YAMMM@Z       1000d370 f i Newton.obj
 0001:0000c3a0       ?GetCount@?$dgList@V?$dgGraphNode@VdgDebriNodeInfo@dgCollisionCompoundBreakable@@VdgSharedNodeMesh@2@@@@@QBEHXZ 1000d3a0 f i Newton.obj
 0001:0000c3c0       ?GetLast@?$dgList@V?$dgGraphNode@VdgDebriNodeInfo@dgCollisionCompoundBreakable@@VdgSharedNodeMesh@2@@@@@QBEPAVdgListNode@1@XZ 1000d3c0 f i Newton.obj
 0001:0000c3e0       ?GetFirst@?$dgList@V?$dgGraphNode@VdgDebriNodeInfo@dgCollisionCompoundBreakable@@VdgSharedNodeMesh@2@@@@@QBEPAVdgListNode@1@XZ 1000d3e0 f i Newton.obj
 0001:0000c400       ??0NewtonDeadBodies@@QAE@QAVdgMemoryAllocator@@@Z 1000d400 f   NewtonClass.obj
 0001:0000c440       ?DestroyBodies@NewtonDeadBodies@@QAEXAAVNewton@@@Z 1000d440 f   NewtonClass.obj
 0001:0000c4c0       ??0NewtonDeadJoints@@QAE@QAVdgMemoryAllocator@@@Z 1000d4c0 f   NewtonClass.obj
 0001:0000c500       ?DestroyJoints@NewtonDeadJoints@@QAEXAAVNewton@@@Z 1000d500 f   NewtonClass.obj
 0001:0000c580       ?DefaultAllocMemory@Newton@@SAPAXH@Z 1000d580 f   NewtonClass.obj
 0001:0000c5a0       ?DefaultFreeMemory@Newton@@SAXPAXH@Z 1000d5a0 f   NewtonClass.obj
 0001:0000c5c0       ??0Newton@@QAE@MQAVdgMemoryAllocator@@@Z 1000d5c0 f   NewtonClass.obj
 0001:0000c630       ??1Newton@@QAE@XZ          1000d630 f   NewtonClass.obj
 0001:0000c680       ?UpdatePhysics@Newton@@QAEXM@Z 1000d680 f   NewtonClass.obj
 0001:0000c710       ?DestroyJoint@Newton@@QAEXPAVdgConstraint@@@Z 1000d710 f   NewtonClass.obj
 0001:0000c770       ?DestroyBody@Newton@@QAEXPAVdgBody@@@Z 1000d770 f   NewtonClass.obj
 0001:0000c7d0       ??0NewtonUserJoint@@QAE@PAVdgWorld@@HP6AXPBUNewtonJoint@@MH@ZP6AX1PAUNewtonJointRecord@@@ZPAVdgBody@@5@Z 1000d7d0 f   NewtonClass.obj
 0001:0000c920       ??1NewtonUserJoint@@UAE@XZ 1000d920 f   NewtonClass.obj
 0001:0000c980       ?JacobianDerivative@NewtonUserJoint@@UAEIAAVdgContraintDescritor@@@Z 1000d980 f   NewtonClass.obj
 0001:0000c9e0       ?AddLinearRowJacobian@NewtonUserJoint@@QAEXABVdgVector@@00@Z 1000d9e0 f   NewtonClass.obj
 0001:0000cb10       ?AddAngularRowJacobian@NewtonUserJoint@@QAEXABVdgVector@@M@Z 1000db10 f   NewtonClass.obj
 0001:0000cc60       ?AddGeneralRowJacobian@NewtonUserJoint@@QAEXPBM0@Z 1000dc60 f   NewtonClass.obj
 0001:0000cda0       ?SetAcceleration@NewtonUserJoint@@QAEXM@Z 1000dda0 f   NewtonClass.obj
 0001:0000cdf0       ?SetSpringDamperAcceleration@NewtonUserJoint@@QAEXMM@Z 1000ddf0 f   NewtonClass.obj
 0001:0000cec0       ?SetHighFriction@NewtonUserJoint@@QAEXM@Z 1000dec0 f   NewtonClass.obj
 0001:0000cf50       ?SetLowerFriction@NewtonUserJoint@@QAEXM@Z 1000df50 f   NewtonClass.obj
 0001:0000cfe0       ?SetRowStiffness@NewtonUserJoint@@QAEXM@Z 1000dfe0 f   NewtonClass.obj
 0001:0000d060       ?GetRowForce@NewtonUserJoint@@QBEMH@Z 1000e060 f   NewtonClass.obj
 0001:0000d0a0       ?GetInfo@NewtonUserJoint@@UBEXQAVdgConstraintInfo@@@Z 1000e0a0 f   NewtonClass.obj
 0001:0000d0f0       ?SetUpdateFeedbackFunction@NewtonUserJoint@@QAEXP6AXPBUNewtonJoint@@MH@Z@Z 1000e0f0 f   NewtonClass.obj
 0001:0000d450       ??1NewtonDeadBodies@@QAE@XZ 1000e450 f i NewtonClass.obj
 0001:0000d470       ??1NewtonDeadJoints@@QAE@XZ 1000e470 f i NewtonClass.obj
 0001:0000d490       ??_GNewtonUserJoint@@UAEPAXI@Z 1000e490 f i NewtonClass.obj
 0001:0000d490       ??_ENewtonUserJoint@@UAEPAXI@Z 1000e490 f i NewtonClass.obj
 0001:0000d4d0       ??0dgPointParam@dgConstraint@@QAE@XZ 1000e4d0 f i NewtonClass.obj
 0001:0000d550       ??0Iterator@?$dgTree@PAVdgBody@@PAX@@QAE@ABV1@@Z 1000e550 f i NewtonClass.obj
 0001:0000d580       ??1Iterator@?$dgTree@PAVdgBody@@PAX@@QAE@XZ 1000e580 f i NewtonClass.obj
 0001:0000d590       ?Begin@Iterator@?$dgTree@PAVdgBody@@PAX@@QAEXXZ 1000e590 f i NewtonClass.obj
 0001:0000d5c0       ??BIterator@?$dgTree@PAVdgBody@@PAX@@QBEHXZ 1000e5c0 f i NewtonClass.obj
 0001:0000d5e0       ??EIterator@?$dgTree@PAVdgBody@@PAX@@QAEXH@Z 1000e5e0 f i NewtonClass.obj
 0001:0000d640       ?GetNode@Iterator@?$dgTree@PAVdgBody@@PAX@@QBEPAVdgTreeNode@2@XZ 1000e640 f i NewtonClass.obj
 0001:0000d660       ?GetInfo@dgTreeNode@?$dgTree@PAVdgBody@@PAX@@QAEAAPAVdgBody@@XZ 1000e660 f i NewtonClass.obj
 0001:0000d680       ??0Iterator@?$dgTree@PAVdgConstraint@@PAX@@QAE@ABV1@@Z 1000e680 f i NewtonClass.obj
 0001:0000d6b0       ??1Iterator@?$dgTree@PAVdgConstraint@@PAX@@QAE@XZ 1000e6b0 f i NewtonClass.obj
 0001:0000d6c0       ?Begin@Iterator@?$dgTree@PAVdgConstraint@@PAX@@QAEXXZ 1000e6c0 f i NewtonClass.obj
 0001:0000d6f0       ??BIterator@?$dgTree@PAVdgConstraint@@PAX@@QBEHXZ 1000e6f0 f i NewtonClass.obj
 0001:0000d710       ??EIterator@?$dgTree@PAVdgConstraint@@PAX@@QAEXH@Z 1000e710 f i NewtonClass.obj
 0001:0000d770       ?GetNode@Iterator@?$dgTree@PAVdgConstraint@@PAX@@QBEPAVdgTreeNode@2@XZ 1000e770 f i NewtonClass.obj
 0001:0000d790       ?GetInfo@dgTreeNode@?$dgTree@PAVdgConstraint@@PAX@@QAEAAPAVdgConstraint@@XZ 1000e790 f i NewtonClass.obj
 0001:0000d7b0       ??0?$dgTree@PAVdgBody@@PAX@@QAE@QAVdgMemoryAllocator@@@Z 1000e7b0 f i NewtonClass.obj
 0001:0000d7f0       ??1?$dgTree@PAVdgBody@@PAX@@QAE@XZ 1000e7f0 f i NewtonClass.obj
 0001:0000d810       ?Minimum@?$dgTree@PAVdgBody@@PAX@@QBEPAVdgTreeNode@1@XZ 1000e810 f i NewtonClass.obj
 0001:0000d850       ?Insert@?$dgTree@PAVdgBody@@PAX@@QAEPAVdgTreeNode@1@ABQAVdgBody@@PAX@Z 1000e850 f i NewtonClass.obj
 0001:0000d8a0       ?Remove@?$dgTree@PAVdgBody@@PAX@@QAEXQAVdgTreeNode@1@@Z 1000e8a0 f i NewtonClass.obj
 0001:0000d8e0       ??0?$dgTree@PAVdgConstraint@@PAX@@QAE@QAVdgMemoryAllocator@@@Z 1000e8e0 f i NewtonClass.obj
 0001:0000d920       ??1?$dgTree@PAVdgConstraint@@PAX@@QAE@XZ 1000e920 f i NewtonClass.obj
 0001:0000d940       ?Minimum@?$dgTree@PAVdgConstraint@@PAX@@QBEPAVdgTreeNode@1@XZ 1000e940 f i NewtonClass.obj
 0001:0000d980       ?Insert@?$dgTree@PAVdgConstraint@@PAX@@QAEPAVdgTreeNode@1@ABQAVdgConstraint@@PAX@Z 1000e980 f i NewtonClass.obj
 0001:0000d9d0       ?Remove@?$dgTree@PAVdgConstraint@@PAX@@QAEXQAVdgTreeNode@1@@Z 1000e9d0 f i NewtonClass.obj
 0001:0000da10       ?Insert@?$dgTree@PAVdgBody@@PAX@@QAEPAVdgTreeNode@1@ABQAVdgBody@@PAXAA_N@Z 1000ea10 f i NewtonClass.obj
 0001:0000dc80       ?RemoveAll@?$dgTree@PAVdgBody@@PAX@@QAEXXZ 1000ec80 f i NewtonClass.obj
 0001:0000dcc0       ?Insert@?$dgTree@PAVdgConstraint@@PAX@@QAEPAVdgTreeNode@1@ABQAVdgConstraint@@PAXAA_N@Z 1000ecc0 f i NewtonClass.obj
 0001:0000df30       ?RemoveAll@?$dgTree@PAVdgConstraint@@PAX@@QAEXXZ 1000ef30 f i NewtonClass.obj
 0001:0000df70       ??0dgTreeNode@?$dgTree@PAVdgBody@@PAX@@AAE@ABQAVdgBody@@ABQAXPAV01@@Z 1000ef70 f i NewtonClass.obj
 0001:0000e000       ?GetLeft@dgTreeNode@?$dgTree@PAVdgBody@@PAX@@ABEPAV12@XZ 1000f000 f i NewtonClass.obj
 0001:0000e020       ?GetRight@dgTreeNode@?$dgTree@PAVdgBody@@PAX@@ABEPAV12@XZ 1000f020 f i NewtonClass.obj
 0001:0000e040       ??0dgTreeNode@?$dgTree@PAVdgConstraint@@PAX@@AAE@ABQAVdgConstraint@@ABQAXPAV01@@Z 1000f040 f i NewtonClass.obj
 0001:0000e0d0       ?GetLeft@dgTreeNode@?$dgTree@PAVdgConstraint@@PAX@@ABEPAV12@XZ 1000f0d0 f i NewtonClass.obj
 0001:0000e0f0       ?GetRight@dgTreeNode@?$dgTree@PAVdgConstraint@@PAX@@ABEPAV12@XZ 1000f0f0 f i NewtonClass.obj
 0001:0000e110       ?CompareKeys@?$dgTree@PAVdgBody@@PAX@@ABEHABQAX0@Z 1000f110 f i NewtonClass.obj
 0001:0000e150       ?CompareKeys@?$dgTree@PAVdgConstraint@@PAX@@ABEHABQAX0@Z 1000f150 f i NewtonClass.obj
 0001:0000e190       ??3dgConstraint@@SAXPAX@Z  1000f190 f i NewtonClass.obj
 0001:0000e1b0       ?SetUpdateFeedbackFunction@dgConstraint@@IAEXP6AXABV1@MH@Z@Z 1000f1b0 f i NewtonClass.obj
 0001:0000e1d0       ??_H@YGXPAXIHP6EPAX0@Z@Z   1000f1d0 f i NewtonClass.obj
 0001:0000e200       ?Init@dgBilateralConstraint@@MAEXXZ 1000f200 f i NewtonClass.obj
 0001:0000e240       ?Remove@dgBilateralConstraint@@MAEXPAVdgWorld@@@Z 1000f240 f i NewtonClass.obj
 0001:0000e280       ??0dgWorld@@QAE@QAVdgMemoryAllocator@@@Z 1000f280 f   physics:dgWorld.obj
 0001:0000e800       ??1dgWorld@@QAE@XZ         1000f800 f   physics:dgWorld.obj
 0001:0000e9a0       ?GetPerformanceCount@dgWorld@@CAIXZ 1000f9a0 f   physics:dgWorld.obj
 0001:0000e9b0       ?AddSentinelBody@dgWorld@@AAEXXZ 1000f9b0 f   physics:dgWorld.obj
 0001:0000ea40       ?GetSentinelBody@dgWorld@@QBEPAVdgBody@@XZ 1000fa40 f   physics:dgWorld.obj
 0001:0000ea60       ?SetSolverMode@dgWorld@@QAEXH@Z 1000fa60 f   physics:dgWorld.obj
 0001:0000ea90       ?SetFrictionMode@dgWorld@@QAEXH@Z 1000fa90 f   physics:dgWorld.obj
 0001:0000eab0       ?SetHardwareMode@dgWorld@@QAEXH@Z 1000fab0 f   physics:dgWorld.obj
 0001:0000eae0       ?GetHardwareMode@dgWorld@@QAEHPAD@Z 1000fae0 f   physics:dgWorld.obj
 0001:0000eb40       ?SetThreadsCount@dgWorld@@QAEXH@Z 1000fb40 f   physics:dgWorld.obj
 0001:0000eb80       ?GetThreadsCount@dgWorld@@QBEHXZ 1000fb80 f   physics:dgWorld.obj
 0001:0000eba0       ?GetMaxThreadsCount@dgWorld@@QBEHXZ 1000fba0 f   physics:dgWorld.obj
 0001:0000ebc0       ?EnableThreadOnSingleIsland@dgWorld@@QAEXH@Z 1000fbc0 f   physics:dgWorld.obj
 0001:0000ebe0       ?GetThreadOnSingleIsland@dgWorld@@QBEHXZ 1000fbe0 f   physics:dgWorld.obj
 0001:0000ec00       ?SetFrictionThreshold@dgWorld@@QAEXM@Z 1000fc00 f   physics:dgWorld.obj
 0001:0000ec30       ?RemoveAllGroupID@dgWorld@@QAEXXZ 1000fc30 f   physics:dgWorld.obj
 0001:0000ec90       ?DestroyAllBodies@dgWorld@@QAEXXZ 1000fc90 f   physics:dgWorld.obj
 0001:0000eda0       ?CreateBody@dgWorld@@QAEPAVdgBody@@QAVdgCollision@@ABVdgMatrix@@@Z 1000fda0 f   physics:dgWorld.obj
 0001:0000f090       ?DestroyBody@dgWorld@@QAEXQAVdgBody@@@Z 10010090 f   physics:dgWorld.obj
 0001:0000f140       ?DestroyConstraint@dgWorld@@QAEXPAVdgConstraint@@@Z 10010140 f   physics:dgWorld.obj
 0001:0000f190       ?UpdateCollision@dgWorld@@QAEXXZ 10010190 f   physics:dgWorld.obj
 0001:0000f310       ?Update@dgWorld@@QAEXM@Z   10010310 f   physics:dgWorld.obj
 0001:0000f520       ?GetPerformaceFuntion@dgWorld@@QBEP6AIXZXZ 10010520 f   physics:dgWorld.obj
 0001:0000f540       ?SetPerfomanceCounter@dgWorld@@QAEXP6AIXZ@Z 10010540 f   physics:dgWorld.obj
 0001:0000f590       ?GetPerfomanceTicks@dgWorld@@QBEII@Z 10010590 f   physics:dgWorld.obj
 0001:0000f5c0       ?GetThreadPerfomanceTicks@dgWorld@@QBEII@Z 100105c0 f   physics:dgWorld.obj
 0001:0000f5e0       ?SetUserData@dgWorld@@QAEXQAX@Z 100105e0 f   physics:dgWorld.obj
 0001:0000f600       ?GetUserData@dgWorld@@QBEPAXXZ 10010600 f   physics:dgWorld.obj
 0001:0000f620       ?SetIslandUpdateCallback@dgWorld@@QAEXP6AIQBV1@PAXH@Z@Z 10010620 f   physics:dgWorld.obj
 0001:0000f640       ?SetDestroyCollisionCallback@dgWorld@@QAEXP6AXQBV1@PAVdgCollision@@@Z@Z 10010640 f   physics:dgWorld.obj
 0001:0000f660       ?SetLeavingWorldCallback@dgWorld@@QAEXP6AXPAVdgBody@@H@Z@Z 10010660 f   physics:dgWorld.obj
 0001:0000f680       ?SetBodyDestructionByExeciveForce@dgWorld@@QAEXP6AXQBVdgBody@@PBVdgContact@@@Z@Z 10010680 f   physics:dgWorld.obj
 0001:0000f6a0       ?CreateBallConstraint@dgWorld@@QAEPAVdgBallConstraint@@ABVdgVector@@QAVdgBody@@PAV4@@Z 100106a0 f   physics:dgWorld.obj
 0001:0000f760       ?CreateHingeConstraint@dgWorld@@QAEPAVdgHingeConstraint@@ABVdgVector@@0QAVdgBody@@PAV4@@Z 10010760 f   physics:dgWorld.obj
 0001:0000f820       ?CreateUpVectorConstraint@dgWorld@@QAEPAVdgUpVectorConstraint@@ABVdgVector@@PAVdgBody@@@Z 10010820 f   physics:dgWorld.obj
 0001:0000f8c0       ?CreateSlidingConstraint@dgWorld@@QAEPAVdgSlidingConstraint@@ABVdgVector@@0QAVdgBody@@PAV4@@Z 100108c0 f   physics:dgWorld.obj
 0001:0000f980       ?CreateCorkscrewConstraint@dgWorld@@QAEPAVdgCorkscrewConstraint@@ABVdgVector@@0QAVdgBody@@PAV4@@Z 10010980 f   physics:dgWorld.obj
 0001:0000fa40       ?CreateUniversalConstraint@dgWorld@@QAEPAVdgUniversalConstraint@@ABVdgVector@@00QAVdgBody@@PAV4@@Z 10010a40 f   physics:dgWorld.obj
 0001:0000fb10       ?GetBodiesCount@dgWorld@@QBEHXZ 10010b10 f   physics:dgWorld.obj
 0001:0000fb30       ?GetConstraintsCount@dgWorld@@QBEHXZ 10010b30 f   physics:dgWorld.obj
 0001:0000fb50       ?BodySetMatrix@dgWorld@@QAEXPAVdgBody@@ABVdgMatrix@@@Z 10010b50 f   physics:dgWorld.obj
 0001:0000fe10       ?AddBodyImpulse@dgWorld@@QAEXPAVdgBody@@ABVdgVector@@1@Z 10010e10 f   physics:dgWorld.obj
 0001:0000fe40       ?AreBodyConnectedByJoints@dgWorld@@AAE_NQAVdgBody@@0@Z 10010e40 f   physics:dgWorld.obj
 0001:00010020       ?FlushCache@dgWorld@@QAEXXZ 10011020 f   physics:dgWorld.obj
 0001:000100a0       ??0dgActiveContacts@@QAE@QAVdgMemoryAllocator@@@Z 100110a0 f i physics:dgWorld.obj
 0001:000100c0       ??2dgCollision@@SAPAXIQAVdgMemoryAllocator@@@Z 100110c0 f i physics:dgWorld.obj
 0001:000100e0       ??0dgBodyCollisionList@@QAE@QAVdgMemoryAllocator@@@Z 100110e0 f i physics:dgWorld.obj
 0001:00010100       ??0dgBodyMaterialList@@QAE@QAVdgMemoryAllocator@@@Z 10011100 f i physics:dgWorld.obj
 0001:00010120       ??0dgDetroyBodyByForce@dgWorld@@QAE@XZ 10011120 f i physics:dgWorld.obj
 0001:00010140       ??0dgCollisionPoint@@QAE@QAVdgMemoryAllocator@@@Z 10011140 f i physics:dgWorld.obj
 0001:00010180       ?ModifierGetMatrix@dgCollision@@UBE?AVdgMatrix@@XZ 10011180 f i physics:dgWorld.obj
 0001:000101b0       ?ModifierSetMatrix@dgCollision@@UAEXABVdgMatrix@@@Z 100111b0 f i physics:dgWorld.obj
 0001:000101c0       ?Release@dgCollision@@UAEHXZ 100111c0 f i physics:dgWorld.obj
 0001:00010220       ?SetBreakImpulse@dgCollision@@UAEXM@Z 10011220 f i physics:dgWorld.obj
 0001:00010230       ?GetBreakImpulse@dgCollision@@UBEMXZ 10011230 f i physics:dgWorld.obj
 0001:00010250       ??_GdgCollisionPoint@@UAEPAXI@Z 10011250 f i physics:dgWorld.obj
 0001:00010250       ??_EdgCollisionPoint@@UAEPAXI@Z 10011250 f i physics:dgWorld.obj
 0001:00010280       ??3dgCollision@@SAXPAX@Z   10011280 f i physics:dgWorld.obj
 0001:000102a0       ??1dgCollisionPoint@@UAE@XZ 100112a0 f i physics:dgWorld.obj
 0001:000102c0       ??_I@YGXPAXIHP6EX0@Z@Z     100112c0 f i physics:dgWorld.obj
 0001:000102f0       ??1dgBodyMaterialList@@QAE@XZ 100112f0 f i physics:dgWorld.obj
 0001:00010310       ??1dgBodyCollisionList@@QAE@XZ 10011310 f i physics:dgWorld.obj
 0001:00010330       ??1dgActiveContacts@@QAE@XZ 10011330 f i physics:dgWorld.obj
 0001:00010350       ??1dgWorldDynamicUpdate@@QAE@XZ 10011350 f i physics:dgWorld.obj
 0001:00010460       ??1dgSolverWorlkerThreads@@UAE@XZ 10011460 f i physics:dgWorld.obj
 0001:00010480       ??1dgParallelSolverClear@@UAE@XZ 10011480 f i physics:dgWorld.obj
 0001:000104a0       ??1dgParallelSolverBodyInertia@@UAE@XZ 100114a0 f i physics:dgWorld.obj
 0001:000104c0       ??1dgParallelSolverUpdateVeloc@@UAE@XZ 100114c0 f i physics:dgWorld.obj
 0001:000104e0       ??1dgParallelSolverUpdateForce@@UAE@XZ 100114e0 f i physics:dgWorld.obj
 0001:00010500       ??1dgParallelSolverCalculateForces@@UAE@XZ 10011500 f i physics:dgWorld.obj
 0001:00010520       ??1dgParallelSolverInitInternalForces@@UAE@XZ 10011520 f i physics:dgWorld.obj
 0001:00010540       ??1dgParallelSolverBuildJacobianRows@@UAE@XZ 10011540 f i physics:dgWorld.obj
 0001:00010560       ??1dgParallelSolverJointAcceleration@@UAE@XZ 10011560 f i physics:dgWorld.obj
 0001:00010580       ??1dgParallelSolverInitFeedbackUpdate@@UAE@XZ 10011580 f i physics:dgWorld.obj
 0001:000105a0       ??1dgParallelSolverBuildJacobianMatrix@@UAE@XZ 100115a0 f i physics:dgWorld.obj
 0001:000105c0       ??2dgBody@@SAPAXIQAVdgMemoryAllocator@@@Z 100115c0 f i physics:dgWorld.obj
 0001:000105e0       ??_GdgBody@@QAEPAXI@Z      100115e0 f i physics:dgWorld.obj
 0001:00010610       ??3dgBody@@SAXPAX@Z        10011610 f i physics:dgWorld.obj
 0001:00010630       ?GetInfo@dgListNode@?$dgList@PAVdgContact@@@@QAEAAPAVdgContact@@XZ 10011630 f i physics:dgWorld.obj
 0001:00010640       ?GetNext@dgListNode@?$dgList@PAVdgContact@@@@QBEPAV12@XZ 10011640 f i physics:dgWorld.obj
 0001:00010660       ?GetCount@?$dgList@VdgBodyMasterListCell@@@@QBEHXZ 10011660 f i physics:dgWorld.obj
 0001:00010670       ?GetCount@?$dgList@VdgBodyMasterListRow@@@@QBEHXZ 10011670 f i physics:dgWorld.obj
 0001:00010680       ??0?$dgList@PAVdgContact@@@@QAE@QAVdgMemoryAllocator@@@Z 10011680 f i physics:dgWorld.obj
 0001:000106c0       ??1?$dgList@PAVdgContact@@@@QAE@XZ 100116c0 f i physics:dgWorld.obj
 0001:000106e0       ?GetFirst@?$dgList@PAVdgContact@@@@QBEPAVdgListNode@1@XZ 100116e0 f i physics:dgWorld.obj
 0001:00010700       ??0?$dgTree@PAVdgCollision@@I@@QAE@QAVdgMemoryAllocator@@@Z 10011700 f i physics:dgWorld.obj
 0001:00010730       ??1?$dgTree@PAVdgCollision@@I@@QAE@XZ 10011730 f i physics:dgWorld.obj
 0001:00010750       ?GetCount@?$dgTree@PAVdgCollision@@I@@QBEHXZ 10011750 f i physics:dgWorld.obj
 0001:00010760       ??0?$dgTree@VdgContactMaterial@@I@@QAE@QAVdgMemoryAllocator@@@Z 10011760 f i physics:dgWorld.obj
 0001:00010790       ??1?$dgTree@VdgContactMaterial@@I@@QAE@XZ 10011790 f i physics:dgWorld.obj
 0001:000107b0       ?GetCount@?$dgTree@VdgContactMaterial@@I@@QBEHXZ 100117b0 f i physics:dgWorld.obj
 0001:000107c0       ?GetRoot@?$dgTree@VdgContactMaterial@@I@@QBEPAVdgTreeNode@1@XZ 100117c0 f i physics:dgWorld.obj
 0001:000107e0       ?Remove@?$dgTree@VdgContactMaterial@@I@@QAEXQAVdgTreeNode@1@@Z 100117e0 f i physics:dgWorld.obj
 0001:00010820       ??0?$dgTree@PAXI@@QAE@QAVdgMemoryAllocator@@@Z 10011820 f i physics:dgWorld.obj
 0001:00010850       ??1?$dgTree@PAXI@@QAE@XZ   10011850 f i physics:dgWorld.obj
 0001:00010870       ??$GetMax@H@@YAHHH@Z       10011870 f i physics:dgWorld.obj
 0001:00010890       ??$ClampValue@I@@YAIIII@Z  10011890 f i physics:dgWorld.obj
 0001:000108c0       ??$Swap@PAVdgBody@@@@YAXAAPAVdgBody@@0@Z 100118c0 f i physics:dgWorld.obj
 0001:000108f0       ?RemoveAll@?$dgList@PAVdgContact@@@@QAEXXZ 100118f0 f i physics:dgWorld.obj
 0001:000109b0       ?RemoveAll@?$dgTree@PAVdgCollision@@I@@QAEXXZ 100119b0 f i physics:dgWorld.obj
 0001:000109f0       ?RemoveAll@?$dgTree@VdgContactMaterial@@I@@QAEXXZ 100119f0 f i physics:dgWorld.obj
 0001:00010a30       ?RemoveAll@?$dgTree@PAXI@@QAEXXZ 10011a30 f i physics:dgWorld.obj
 0001:00010a70       ??_GdgListNode@?$dgList@PAVdgContact@@@@AAEPAXI@Z 10011a70 f i physics:dgWorld.obj
 0001:00010aa0       ??3dgListNode@?$dgList@PAVdgContact@@@@CAXPAX@Z 10011aa0 f i physics:dgWorld.obj
 0001:00010ac0       ??1dgListNode@?$dgList@PAVdgContact@@@@AAE@XZ 10011ac0 f i physics:dgWorld.obj
 0001:00010ad0       ?Unlink@dgListNode@?$dgList@PAVdgContact@@@@AAEXXZ 10011ad0 f i physics:dgWorld.obj
 0001:00010b20       ?Inverse@dgMatrix@@QBE?AV1@XZ 10011b20 f i physics:dgWorld.obj
 0001:00010c30       ??1dgWorkerThread@@UAE@XZ  10011c30 f i physics:dgWorld.obj
 0001:00010c50       ??_EdgWorkerThread@@UAEPAXI@Z 10011c50 f i physics:dgWorld.obj
 0001:00010c50       ??_GdgWorkerThread@@UAEPAXI@Z 10011c50 f i physics:dgWorld.obj
 0001:00010c80       ??0dgSortArray@@QAE@XZ     10011c80 f   physics:dgBroadPhaseCollision.obj
 0001:00010cb0       ??1dgSortArray@@QAE@XZ     10011cb0 f   physics:dgBroadPhaseCollision.obj
 0001:00010cf0       ?Add@dgSortArray@@QAEXQAVdgBody@@@Z 10011cf0 f   physics:dgBroadPhaseCollision.obj
 0001:00010d60       ?Remove@dgSortArray@@QAEXQAVdgBody@@@Z 10011d60 f   physics:dgBroadPhaseCollision.obj
 0001:00010dd0       ?Sort@dgSortArray@@QAEMXZ  10011dd0 f   physics:dgBroadPhaseCollision.obj
 0001:00010f20       ?RayCast@dgSortArray@@QBEMMABUdgLineBox@@P6AMQBVdgBody@@ABVdgVector@@HQAXM@ZP6AI1QBVdgCollision@@3@Z3@Z 10011f20 f   physics:dgBroadPhaseCollision.obj
 0001:00011040       ?InvalidateCache@dgSortArray@@QAEXXZ 10012040 f   physics:dgBroadPhaseCollision.obj
 0001:000110f0       ?SanityCheck@dgSortArray@@QAE_NXZ 100120f0 f   physics:dgBroadPhaseCollision.obj
 0001:00011170       ??0dgBroadPhaseCell@@QAE@XZ 10012170 f   physics:dgBroadPhaseCollision.obj
 0001:00011190       ??1dgBroadPhaseCell@@QAE@XZ 10012190 f   physics:dgBroadPhaseCollision.obj
 0001:000111e0       ?Init@dgBroadPhaseCell@@AAEXHPAVdgMemoryAllocator@@@Z 100121e0 f   physics:dgBroadPhaseCollision.obj
 0001:00011250       ?Add@dgBroadPhaseCell@@AAEXQAVdgBody@@@Z 10012250 f   physics:dgBroadPhaseCollision.obj
 0001:000112e0       ?Remove@dgBroadPhaseCell@@AAEXQAVdgBody@@@Z 100122e0 f   physics:dgBroadPhaseCollision.obj
 0001:000113a0       ?Sort@dgBroadPhaseCell@@AAEXXZ 100123a0 f   physics:dgBroadPhaseCollision.obj
 0001:00011430       ?UpdateAutoPair@dgBroadPhaseCell@@AAEXQAVdgWorld@@H@Z 10012430 f   physics:dgBroadPhaseCollision.obj
 0001:000115b0       ??0dgBroadPhaseLayer@@QAE@XZ 100125b0 f   physics:dgBroadPhaseCollision.obj
 0001:000115f0       ??1dgBroadPhaseLayer@@QAE@XZ 100125f0 f   physics:dgBroadPhaseCollision.obj
 0001:00011630       ?Init@dgBroadPhaseLayer@@AAEXQAVdgWorld@@MH@Z 10012630 f   physics:dgBroadPhaseCollision.obj
 0001:000116a0       ?FindCreate@dgBroadPhaseLayer@@AAEPAVdgBroadPhaseCell@@HH@Z 100126a0 f   physics:dgBroadPhaseCollision.obj
 0001:00011730       ??0dgBroadPhaseCollision@@AAE@PAVdgMemoryAllocator@@@Z 10012730 f   physics:dgBroadPhaseCollision.obj
 0001:000118d0       ??1dgBroadPhaseCollision@@AAE@XZ 100128d0 f   physics:dgBroadPhaseCollision.obj
 0001:00011960       ?Init@dgBroadPhaseCollision@@AAEXXZ 10012960 f   physics:dgBroadPhaseCollision.obj
 0001:000119e0       ?GetWorldSize@dgBroadPhaseCollision@@QBEXAAVdgVector@@0@Z 100129e0 f   physics:dgBroadPhaseCollision.obj
 0001:00011a30       ?SetWorldSize@dgBroadPhaseCollision@@QAEXABVdgVector@@0@Z 10012a30 f   physics:dgBroadPhaseCollision.obj
 0001:00011e70       ?InvalidateCache@dgBroadPhaseCollision@@AAEXXZ 10012e70 f   physics:dgBroadPhaseCollision.obj
 0001:00011f00       ?Add@dgBroadPhaseCollision@@AAEXQAVdgBody@@@Z 10012f00 f   physics:dgBroadPhaseCollision.obj
 0001:00011f60       ?Remove@dgBroadPhaseCollision@@AAEXQAVdgBody@@@Z 10012f60 f   physics:dgBroadPhaseCollision.obj
 0001:00012030       ?UpdatePairs@dgBroadPhaseCollision@@ABEXQAVdgBody@@QAVdgListNode@?$dgList@VdgSortArrayEntry@@@@HH@Z 10013030 f   physics:dgBroadPhaseCollision.obj
 0001:00012180       ?UpdatePairs@dgBroadPhaseCollision@@ABEXAAVdgBroadPhaseCell@@0H@Z 10013180 f   physics:dgBroadPhaseCollision.obj
 0001:00012260       ?ForEachBodyInAABB@dgBroadPhaseCollision@@QBEXABVdgVector@@0P6AXPAVdgBody@@QAX@Z2@Z 10013260 f   physics:dgBroadPhaseCollision.obj
 0001:000124c0       ?ConvexCast@dgBroadPhaseCollision@@QBEHQAVdgCollision@@ABVdgMatrix@@ABVdgVector@@AAMP6AIQBVdgBody@@QBV2@QAX@Z6QAVdgConvexCastReturnInfo@@HH@Z 100134c0 f   physics:dgBroadPhaseCollision.obj
 0001:00012fc0       ?Realloc@dgBroadPhaseCalculateContactsWorkerThread@@QAEXHHH@Z 10013fc0 f   physics:dgBroadPhaseCollision.obj
 0001:00013120       ?ThreadExecute@dgBroadPhaseCellPairsWorkerThread@@UAEXXZ 10014120 f   physics:dgBroadPhaseCollision.obj
 0001:000131e0       ?ThreadExecute@dgBroadPhaseApplyExternalForce@@UAEXXZ 100141e0 f   physics:dgBroadPhaseCollision.obj
 0001:00013700       ?ThreadExecute@dgBroadPhaseCalculateContactsWorkerThread@@UAEXXZ 10014700 f   physics:dgBroadPhaseCollision.obj
 0001:00013960       ?ThreadExecute@dgBroadPhaseMaterialCallbackWorkerThread@@UAEXXZ 10014960 f   physics:dgBroadPhaseCollision.obj
 0001:00013aa0       ?RayCast@dgBroadPhaseCollision@@QBEXABVdgVector@@0P6AMQBVdgBody@@0HQAXM@ZP6AI1QBVdgCollision@@2@Z2@Z 10014aa0 f   physics:dgBroadPhaseCollision.obj
 0001:00014490       ?UpdateBodyBroadphase@dgBroadPhaseCollision@@AAEXQAVdgBody@@H@Z 10015490 f   physics:dgBroadPhaseCollision.obj
 0001:00014a70       ?UpdateContactsBroadPhaseBegin@dgBroadPhaseCollision@@AAEIM_NI@Z 10015a70 f   physics:dgBroadPhaseCollision.obj
 0001:00015ae0       ?UpdateContactsBroadPhaseEnd@dgBroadPhaseCollision@@AAEXM@Z 10016ae0 f   physics:dgBroadPhaseCollision.obj
 0001:00015c60       ?UpdateContactsSimd@dgBroadPhaseCollision@@AAEXM_N@Z 10016c60 f   physics:dgBroadPhaseCollision.obj
 0001:00015fe0       ?UpdateContacts@dgBroadPhaseCollision@@AAEXM_N@Z 10016fe0 f   physics:dgBroadPhaseCollision.obj
 0001:00016360       ?GetKey@dgBroadPhaseLayer@@ABEIHH@Z 10017360 f i physics:dgBroadPhaseCollision.obj
 0001:00016380       ??0dgBroadPhaseApplyExternalForce@@QAE@XZ 10017380 f i physics:dgBroadPhaseCollision.obj
 0001:000163a0       ??0dgBroadPhaseCellPairsWorkerThread@@QAE@XZ 100173a0 f i physics:dgBroadPhaseCollision.obj
 0001:000163c0       ??0dgBroadPhaseMaterialCallbackWorkerThread@@QAE@XZ 100173c0 f i physics:dgBroadPhaseCollision.obj
 0001:000163e0       ??0dgBroadPhaseCalculateContactsWorkerThread@@QAE@XZ 100173e0 f i physics:dgBroadPhaseCollision.obj
 0001:00016400       ??_EdgBroadPhaseApplyExternalForce@@UAEPAXI@Z 10017400 f i physics:dgBroadPhaseCollision.obj
 0001:00016400       ??_GdgBroadPhaseApplyExternalForce@@UAEPAXI@Z 10017400 f i physics:dgBroadPhaseCollision.obj
 0001:00016430       ??1dgBroadPhaseApplyExternalForce@@UAE@XZ 10017430 f i physics:dgBroadPhaseCollision.obj
 0001:00016450       ??_GdgBroadPhaseCellPairsWorkerThread@@UAEPAXI@Z 10017450 f i physics:dgBroadPhaseCollision.obj
 0001:00016450       ??_EdgBroadPhaseCellPairsWorkerThread@@UAEPAXI@Z 10017450 f i physics:dgBroadPhaseCollision.obj
 0001:00016480       ??1dgBroadPhaseCellPairsWorkerThread@@UAE@XZ 10017480 f i physics:dgBroadPhaseCollision.obj
 0001:000164a0       ??_GdgBroadPhaseMaterialCallbackWorkerThread@@UAEPAXI@Z 100174a0 f i physics:dgBroadPhaseCollision.obj
 0001:000164a0       ??_EdgBroadPhaseMaterialCallbackWorkerThread@@UAEPAXI@Z 100174a0 f i physics:dgBroadPhaseCollision.obj
 0001:000164d0       ??1dgBroadPhaseMaterialCallbackWorkerThread@@UAE@XZ 100174d0 f i physics:dgBroadPhaseCollision.obj
 0001:000164f0       ??_GdgBroadPhaseCalculateContactsWorkerThread@@UAEPAXI@Z 100174f0 f i physics:dgBroadPhaseCollision.obj
 0001:000164f0       ??_EdgBroadPhaseCalculateContactsWorkerThread@@UAEPAXI@Z 100174f0 f i physics:dgBroadPhaseCollision.obj
 0001:00016520       ??1dgBroadPhaseCalculateContactsWorkerThread@@UAE@XZ 10017520 f i physics:dgBroadPhaseCollision.obj
 0001:00016540       _logf                      10017540 f i physics:dgBroadPhaseCollision.obj
 0001:00016560       _powf                      10017560 f i physics:dgBroadPhaseCollision.obj
 0001:00016590       ?Find@dgBroadPhaseLayer@@ABEPAVdgBroadPhaseCell@@HH@Z 10017590 f i physics:dgBroadPhaseCollision.obj
 0001:000165e0       ?ApplyExtenalForces@dgBody@@AAEXMH@Z 100175e0 f i physics:dgBroadPhaseCollision.obj
 0001:000166b0       ?IsInEquelibrium@dgBody@@QBE_NXZ 100176b0 f i physics:dgBroadPhaseCollision.obj
 0001:000168a0       ??0dgLineBox@@QAE@XZ       100178a0 f i physics:dgBroadPhaseCollision.obj
 0001:000168e0       ?GetCollisionPrimityType@dgCollision@@QBE?AW4dgCollisionID@@XZ 100178e0 f i physics:dgBroadPhaseCollision.obj
 0001:00016900       ?KeyToIndex@dgBroadPhaseLayer@@ABEXHAAH0@Z 10017900 f i physics:dgBroadPhaseCollision.obj
 0001:00016930       ?GetKey@dgTreeNode@?$dgTree@VdgBroadPhaseCell@@I@@QBEABIXZ 10017930 f i physics:dgBroadPhaseCollision.obj
 0001:00016950       ?GetInfo@dgTreeNode@?$dgTree@VdgBroadPhaseCell@@I@@QAEAAVdgBroadPhaseCell@@XZ 10017950 f i physics:dgBroadPhaseCollision.obj
 0001:00016970       ?GetInfo@dgListNode@?$dgList@VdgSortArrayEntry@@@@QAEAAVdgSortArrayEntry@@XZ 10017970 f i physics:dgBroadPhaseCollision.obj
 0001:00016980       ?GetNext@dgListNode@?$dgList@VdgSortArrayEntry@@@@QBEPAV12@XZ 10017980 f i physics:dgBroadPhaseCollision.obj
 0001:000169a0       ?GetPrev@dgListNode@?$dgList@VdgSortArrayEntry@@@@QBEPAV12@XZ 100179a0 f i physics:dgBroadPhaseCollision.obj
 0001:000169c0       ??0Iterator@?$dgTree@VdgBroadPhaseCell@@I@@QAE@ABV1@@Z 100179c0 f i physics:dgBroadPhaseCollision.obj
 0001:000169f0       ??1Iterator@?$dgTree@VdgBroadPhaseCell@@I@@QAE@XZ 100179f0 f i physics:dgBroadPhaseCollision.obj
 0001:00016a00       ?Begin@Iterator@?$dgTree@VdgBroadPhaseCell@@I@@QAEXXZ 10017a00 f i physics:dgBroadPhaseCollision.obj
 0001:00016a20       ??BIterator@?$dgTree@VdgBroadPhaseCell@@I@@QBEHXZ 10017a20 f i physics:dgBroadPhaseCollision.obj
 0001:00016a40       ??EIterator@?$dgTree@VdgBroadPhaseCell@@I@@QAEXH@Z 10017a40 f i physics:dgBroadPhaseCollision.obj
 0001:00016a90       ?GetNode@Iterator@?$dgTree@VdgBroadPhaseCell@@I@@QBEPAVdgTreeNode@2@XZ 10017a90 f i physics:dgBroadPhaseCollision.obj
 0001:00016aa0       ??A?$dgTemplateVector@M@@QBEABMH@Z 10017aa0 f i physics:dgBroadPhaseCollision.obj
 0001:00016b10       ??Z?$dgTemplateVector@M@@QAEAAV0@ABV0@@Z 10017b10 f i physics:dgBroadPhaseCollision.obj
 0001:00016bf0       ??0?$dgList@VdgSortArrayEntry@@@@QAE@QAVdgMemoryAllocator@@@Z 10017bf0 f i physics:dgBroadPhaseCollision.obj
 0001:00016c30       ??1?$dgList@VdgSortArrayEntry@@@@QAE@XZ 10017c30 f i physics:dgBroadPhaseCollision.obj
 0001:00016c50       ?SetAllocator@?$dgList@VdgSortArrayEntry@@@@QAEXQAVdgMemoryAllocator@@@Z 10017c50 f i physics:dgBroadPhaseCollision.obj
 0001:00016c80       ?GetCount@?$dgList@VdgSortArrayEntry@@@@QBEHXZ 10017c80 f i physics:dgBroadPhaseCollision.obj
 0001:00016c90       ?GetFirst@?$dgList@VdgSortArrayEntry@@@@QBEPAVdgListNode@1@XZ 10017c90 f i physics:dgBroadPhaseCollision.obj
 0001:00016cb0       ?Append@?$dgList@VdgSortArrayEntry@@@@QAEPAVdgListNode@1@XZ 10017cb0 f i physics:dgBroadPhaseCollision.obj
 0001:00016d70       ?RotateToBegin@?$dgList@VdgSortArrayEntry@@@@QAEXQAVdgListNode@1@@Z 10017d70 f i physics:dgBroadPhaseCollision.obj
 0001:00016de0       ?InsertAfter@?$dgList@VdgSortArrayEntry@@@@QAEXQAVdgListNode@1@0@Z 10017de0 f i physics:dgBroadPhaseCollision.obj
 0001:00016fb0       ?Remove@?$dgList@VdgSortArrayEntry@@@@QAEXQAVdgListNode@1@@Z 10017fb0 f i physics:dgBroadPhaseCollision.obj
 0001:00017000       ??0?$dgTree@VdgBroadPhaseCell@@I@@QAE@QAVdgMemoryAllocator@@@Z 10018000 f i physics:dgBroadPhaseCollision.obj
 0001:00017030       ??1?$dgTree@VdgBroadPhaseCell@@I@@QAE@XZ 10018030 f i physics:dgBroadPhaseCollision.obj
 0001:00017050       ?SetAllocator@?$dgTree@VdgBroadPhaseCell@@I@@QAEXQAVdgMemoryAllocator@@@Z 10018050 f i physics:dgBroadPhaseCollision.obj
 0001:00017080       ?GetCount@?$dgTree@VdgBroadPhaseCell@@I@@QBEHXZ 10018080 f i physics:dgBroadPhaseCollision.obj
 0001:00017090       ?Minimum@?$dgTree@VdgBroadPhaseCell@@I@@QBEPAVdgTreeNode@1@XZ 10018090 f i physics:dgBroadPhaseCollision.obj
 0001:000170c0       ?Find@?$dgTree@VdgBroadPhaseCell@@I@@QBEPAVdgTreeNode@1@I@Z 100180c0 f i physics:dgBroadPhaseCollision.obj
 0001:000171e0       ?GetNodeFromInfo@?$dgTree@VdgBroadPhaseCell@@I@@QBEPAVdgTreeNode@1@AAVdgBroadPhaseCell@@@Z 100181e0 f i physics:dgBroadPhaseCollision.obj
 0001:00017280       ?Insert@?$dgTree@VdgBroadPhaseCell@@I@@QAEPAVdgTreeNode@1@ABVdgBroadPhaseCell@@I@Z 10018280 f i physics:dgBroadPhaseCollision.obj
 0001:000172c0       ?Remove@?$dgTree@VdgBroadPhaseCell@@I@@QAEXQAVdgTreeNode@1@@Z 100182c0 f i physics:dgBroadPhaseCollision.obj
 0001:00017300       ??_GdgListNode@?$dgList@VdgSortArrayEntry@@@@AAEPAXI@Z 10018300 f i physics:dgBroadPhaseCollision.obj
 0001:00017330       ?GetLeft@dgTreeNode@?$dgTree@VdgBroadPhaseCell@@I@@ABEPAV12@XZ 10018330 f i physics:dgBroadPhaseCollision.obj
 0001:00017340       ?GetRight@dgTreeNode@?$dgTree@VdgBroadPhaseCell@@I@@ABEPAV12@XZ 10018340 f i physics:dgBroadPhaseCollision.obj
 0001:00017360       ??2dgListNode@?$dgList@VdgSortArrayEntry@@@@CAPAXIQAVdgMemoryAllocator@@@Z 10018360 f i physics:dgBroadPhaseCollision.obj
 0001:00017380       ??3dgListNode@?$dgList@VdgSortArrayEntry@@@@CAXPAX@Z 10018380 f i physics:dgBroadPhaseCollision.obj
 0001:000173a0       ??0dgListNode@?$dgList@VdgSortArrayEntry@@@@AAE@QAV01@0@Z 100183a0 f i physics:dgBroadPhaseCollision.obj
 0001:00017430       ??1dgListNode@?$dgList@VdgSortArrayEntry@@@@AAE@XZ 10018430 f i physics:dgBroadPhaseCollision.obj
 0001:00017440       ?Unlink@dgListNode@?$dgList@VdgSortArrayEntry@@@@AAEXXZ 10018440 f i physics:dgBroadPhaseCollision.obj
 0001:00017490       ?AddFirst@dgListNode@?$dgList@VdgSortArrayEntry@@@@AAEXQAV12@@Z 10018490 f i physics:dgBroadPhaseCollision.obj
 0001:000174b0       ?RemoveAll@?$dgList@VdgSortArrayEntry@@@@QAEXXZ 100184b0 f i physics:dgBroadPhaseCollision.obj
 0001:00017570       ?Unlink@?$dgList@VdgSortArrayEntry@@@@QAEXQAVdgListNode@1@@Z 10018570 f i physics:dgBroadPhaseCollision.obj
 0001:00017620       ?SanityCheck@?$dgList@VdgSortArrayEntry@@@@QBE_NXZ 10018620 f i physics:dgBroadPhaseCollision.obj
 0001:000177a0       ?Insert@?$dgTree@VdgBroadPhaseCell@@I@@QAEPAVdgTreeNode@1@ABVdgBroadPhaseCell@@IAA_N@Z 100187a0 f i physics:dgBroadPhaseCollision.obj
 0001:000179a0       ?RemoveAll@?$dgTree@VdgBroadPhaseCell@@I@@QAEXXZ 100189a0 f i physics:dgBroadPhaseCollision.obj
 0001:000179e0       ?CompareKeys@?$dgTree@VdgBroadPhaseCell@@I@@ABEHABI0@Z 100189e0 f i physics:dgBroadPhaseCollision.obj
 0001:00017a20       ??0dgTreeNode@?$dgTree@VdgBroadPhaseCell@@I@@AAE@ABVdgBroadPhaseCell@@ABIPAV01@@Z 10018a20 f i physics:dgBroadPhaseCollision.obj
 0001:00017aa0       ?IsInTree@dgRedBackNode@@QBEIXZ 10018aa0 f i physics:dgBroadPhaseCollision.obj
 0001:00017ac0       ??0dgWorkerThread@@QAE@XZ  10018ac0 f i physics:dgBroadPhaseCollision.obj
 0001:00017af0       ?dgOverlapTest@@YAHABVdgVector@@000@Z 10018af0 f i physics:dgBroadPhaseCollision.obj
 0001:00017b80       ?GetIslandBody@dgWorld@@QBEPAVdgBody@@QBXH@Z 10018b80 f   physics:dgWorldDynamicUpdate.obj
 0001:00017bf0       ??0dgWorldDynamicUpdate@@AAE@XZ 10018bf0 f   physics:dgWorldDynamicUpdate.obj
 0001:00017d50       ?UpdateDynamics@dgWorldDynamicUpdate@@AAEXQAVdgWorld@@HM@Z 10018d50 f   physics:dgWorldDynamicUpdate.obj
 0001:00018400       ?ThreadExecute@dgSolverWorlkerThreads@@UAEXXZ 10019400 f   physics:dgWorldDynamicUpdate.obj
 0001:00019120       ?ReallocBodyMemory@dgWorldDynamicUpdate@@AAEXH@Z 1001a120 f   physics:dgWorldDynamicUpdate.obj
 0001:00019280       ?ReallocIslandMemory@dgWorldDynamicUpdate@@AAEXH@Z 1001a280 f   physics:dgWorldDynamicUpdate.obj
 0001:000193e0       ?ReallocJointsMemory@dgWorldDynamicUpdate@@AAEXH@Z 1001a3e0 f   physics:dgWorldDynamicUpdate.obj
 0001:00019540       ?ReallocJacobiansMemory@dgWorldDynamicUpdate@@AAEXHH@Z 1001a540 f   physics:dgWorldDynamicUpdate.obj
 0001:00019da0       ?ReallocIntenalForcesMemory@dgWorldDynamicUpdate@@AAEXHH@Z 1001ada0 f   physics:dgWorldDynamicUpdate.obj
 0001:0001a000       ?BuildIsland@dgWorldDynamicUpdate@@AAEXAAV?$dgQueue@PAVdgBody@@@@HHH@Z 1001b000 f   physics:dgWorldDynamicUpdate.obj
 0001:0001a550       ?SpanningTree@dgWorldDynamicUpdate@@AAEXQAVdgBody@@@Z 1001b550 f   physics:dgWorldDynamicUpdate.obj
 0001:0001afb0       ?IntegrateArray@dgWorldDynamicUpdate@@ABEXPBVdgBodyInfo@@HMMH_N@Z 1001bfb0 f   physics:dgWorldDynamicUpdate.obj
 0001:0001b790       ?GetJacobialDerivatives@dgWorldDynamicUpdate@@AAEHABVdgIsland@@H_NHM@Z 1001c790 f   physics:dgWorldDynamicUpdate.obj
 0001:0001bf50       ?BuildJacobianMatrixSimd@dgWorldDynamicUpdate@@AAEXABVdgIsland@@HM@Z 1001cf50 f   physics:dgWorldDynamicUpdate.obj
 0001:0001cd40       ?BuildJacobianMatrix@dgWorldDynamicUpdate@@AAEXABVdgIsland@@HM@Z 1001dd40 f   physics:dgWorldDynamicUpdate.obj
 0001:0001d6b0       ?CalculateReactionsForcesSimd@dgJacobianMemory@@QBEXHM@Z 1001e6b0 f   physics:dgWorldDynamicUpdate.obj
 0001:0001d730       ?CalculateReactionsForces@dgJacobianMemory@@QBEXHM@Z 1001e730 f   physics:dgWorldDynamicUpdate.obj
 0001:0001d7b0       ?ApplyExternalForcesAndAccelerationSimd@dgJacobianMemory@@QBEXM@Z 1001e7b0 f   physics:dgWorldDynamicUpdate.obj
 0001:0001e220       ?ApplyExternalForcesAndAcceleration@dgJacobianMemory@@QBEXM@Z 1001f220 f   physics:dgWorldDynamicUpdate.obj
 0001:0001e8b0       ?SwapRowsSimd@dgJacobianMemory@@QBEXHH@Z 1001f8b0 f   physics:dgWorldDynamicUpdate.obj
 0001:0001ed00       ?SwapRows@dgJacobianMemory@@QBEXHH@Z 1001fd00 f   physics:dgWorldDynamicUpdate.obj
 0001:0001eef0       ?CalculateSimpleBodyReactionsForcesSimd@dgJacobianMemory@@QBEXM@Z 1001fef0 f   physics:dgWorldDynamicUpdate.obj
 0001:00021650       ?CalculateSimpleBodyReactionsForces@dgJacobianMemory@@QBEXM@Z 10022650 f   physics:dgWorldDynamicUpdate.obj
 0001:00022930       ?CalculateForcesSimulationModeSimd@dgJacobianMemory@@QBEXM@Z 10023930 f   physics:dgWorldDynamicUpdate.obj
 0001:00025f30       ?CalculateForcesSimulationMode@dgJacobianMemory@@QBEXM@Z 10026f30 f   physics:dgWorldDynamicUpdate.obj
 0001:00028620       ?CalculateJointForcesSimd@dgJacobianMemory@@QBEMHPAMM@Z 10029620 f   physics:dgWorldDynamicUpdate.obj
 0001:0002ac30       ?CalculateJointForces@dgJacobianMemory@@QBEMHPAMM@Z 1002bc30 f   physics:dgWorldDynamicUpdate.obj
 0001:0002be00       ?CalculateForcesGameModeSimd@dgJacobianMemory@@QBEXHM@Z 1002ce00 f   physics:dgWorldDynamicUpdate.obj
 0001:0002da30       ?CalculateForcesGameMode@dgJacobianMemory@@QBEXHM@Z 1002ea30 f   physics:dgWorldDynamicUpdate.obj
 0001:0002edf0       ?ThreadExecute@dgParallelSolverBodyInertia@@UAEXXZ 1002fdf0 f   physics:dgWorldDynamicUpdate.obj
 0001:0002eef0       ?ThreadExecute@dgParallelSolverBuildJacobianRows@@UAEXXZ 1002fef0 f   physics:dgWorldDynamicUpdate.obj
 0001:0002ff90       ?ThreadExecute@dgParallelSolverBuildJacobianMatrix@@UAEXXZ 10030f90 f   physics:dgWorldDynamicUpdate.obj
 0001:00030790       ?GetJacobialDerivativesParallel@dgWorldDynamicUpdate@@AAEHABVdgIsland@@_NHM@Z 10031790 f   physics:dgWorldDynamicUpdate.obj
 0001:00030930       ?BuildJacobianMatrixParallel@dgWorldDynamicUpdate@@AAEXABVdgIsland@@MH@Z 10031930 f   physics:dgWorldDynamicUpdate.obj
 0001:00030ef0       ?ThreadExecute@dgParallelSolverClear@@UAEXXZ 10031ef0 f   physics:dgWorldDynamicUpdate.obj
 0001:00031120       ?ThreadExecute@dgParallelSolverInitInternalForces@@UAEXXZ 10032120 f   physics:dgWorldDynamicUpdate.obj
 0001:00031890       ?ThreadExecute@dgParallelSolverJointAcceleration@@UAEXXZ 10032890 f   physics:dgWorldDynamicUpdate.obj
 0001:00031af0       ?ThreadExecute@dgParallelSolverUpdateVeloc@@UAEXXZ 10032af0 f   physics:dgWorldDynamicUpdate.obj
 0001:00031fb0       ?ThreadExecute@dgParallelSolverUpdateForce@@UAEXXZ 10032fb0 f   physics:dgWorldDynamicUpdate.obj
 0001:00032b20       ?ThreadExecute@dgParallelSolverInitFeedbackUpdate@@UAEXXZ 10033b20 f   physics:dgWorldDynamicUpdate.obj
 0001:00032c20       ?ThreadExecute@dgParallelSolverCalculateForces@@UAEXXZ 10033c20 f   physics:dgWorldDynamicUpdate.obj
 0001:00033b70       ?CalculateForcesGameModeParallel@dgJacobianMemory@@QBEXHMH@Z 10034b70 f   physics:dgWorldDynamicUpdate.obj
 0001:00034ad0       ?CalculateReactionsForcesParallel@dgJacobianMemory@@QBEXHMH@Z 10035ad0 f   physics:dgWorldDynamicUpdate.obj
 0001:00034b30       ??0dgSolverWorlkerThreads@@QAE@XZ 10035b30 f i physics:dgWorldDynamicUpdate.obj
 0001:00034b50       ??0dgParallelSolverClear@@QAE@XZ 10035b50 f i physics:dgWorldDynamicUpdate.obj
 0001:00034b70       ??0dgParallelSolverBodyInertia@@QAE@XZ 10035b70 f i physics:dgWorldDynamicUpdate.obj
 0001:00034b90       ??0dgParallelSolverUpdateVeloc@@QAE@XZ 10035b90 f i physics:dgWorldDynamicUpdate.obj
 0001:00034bb0       ??0dgParallelSolverUpdateForce@@QAE@XZ 10035bb0 f i physics:dgWorldDynamicUpdate.obj
 0001:00034bd0       ??0dgParallelSolverCalculateForces@@QAE@XZ 10035bd0 f i physics:dgWorldDynamicUpdate.obj
 0001:00034bf0       ??0dgParallelSolverInitInternalForces@@QAE@XZ 10035bf0 f i physics:dgWorldDynamicUpdate.obj
 0001:00034c10       ??0dgParallelSolverBuildJacobianRows@@QAE@XZ 10035c10 f i physics:dgWorldDynamicUpdate.obj
 0001:00034c30       ??0dgParallelSolverJointAcceleration@@QAE@XZ 10035c30 f i physics:dgWorldDynamicUpdate.obj
 0001:00034c50       ??0dgParallelSolverInitFeedbackUpdate@@QAE@XZ 10035c50 f i physics:dgWorldDynamicUpdate.obj
 0001:00034c70       ??0dgParallelSolverBuildJacobianMatrix@@QAE@XZ 10035c70 f i physics:dgWorldDynamicUpdate.obj
 0001:00034c90       ??_GdgSolverWorlkerThreads@@UAEPAXI@Z 10035c90 f i physics:dgWorldDynamicUpdate.obj
 0001:00034c90       ??_EdgSolverWorlkerThreads@@UAEPAXI@Z 10035c90 f i physics:dgWorldDynamicUpdate.obj
 0001:00034cc0       ??_GdgParallelSolverClear@@UAEPAXI@Z 10035cc0 f i physics:dgWorldDynamicUpdate.obj
 0001:00034cc0       ??_EdgParallelSolverClear@@UAEPAXI@Z 10035cc0 f i physics:dgWorldDynamicUpdate.obj
 0001:00034cf0       ??_EdgParallelSolverBodyInertia@@UAEPAXI@Z 10035cf0 f i physics:dgWorldDynamicUpdate.obj
 0001:00034cf0       ??_GdgParallelSolverBodyInertia@@UAEPAXI@Z 10035cf0 f i physics:dgWorldDynamicUpdate.obj
 0001:00034d20       ??_EdgParallelSolverUpdateVeloc@@UAEPAXI@Z 10035d20 f i physics:dgWorldDynamicUpdate.obj
 0001:00034d20       ??_GdgParallelSolverUpdateVeloc@@UAEPAXI@Z 10035d20 f i physics:dgWorldDynamicUpdate.obj
 0001:00034d50       ??_GdgParallelSolverUpdateForce@@UAEPAXI@Z 10035d50 f i physics:dgWorldDynamicUpdate.obj
 0001:00034d50       ??_EdgParallelSolverUpdateForce@@UAEPAXI@Z 10035d50 f i physics:dgWorldDynamicUpdate.obj
 0001:00034d80       ??_EdgParallelSolverCalculateForces@@UAEPAXI@Z 10035d80 f i physics:dgWorldDynamicUpdate.obj
 0001:00034d80       ??_GdgParallelSolverCalculateForces@@UAEPAXI@Z 10035d80 f i physics:dgWorldDynamicUpdate.obj
 0001:00034db0       ??_EdgParallelSolverInitInternalForces@@UAEPAXI@Z 10035db0 f i physics:dgWorldDynamicUpdate.obj
 0001:00034db0       ??_GdgParallelSolverInitInternalForces@@UAEPAXI@Z 10035db0 f i physics:dgWorldDynamicUpdate.obj
 0001:00034de0       ??_EdgParallelSolverBuildJacobianRows@@UAEPAXI@Z 10035de0 f i physics:dgWorldDynamicUpdate.obj
 0001:00034de0       ??_GdgParallelSolverBuildJacobianRows@@UAEPAXI@Z 10035de0 f i physics:dgWorldDynamicUpdate.obj
 0001:00034e10       ??_EdgParallelSolverJointAcceleration@@UAEPAXI@Z 10035e10 f i physics:dgWorldDynamicUpdate.obj
 0001:00034e10       ??_GdgParallelSolverJointAcceleration@@UAEPAXI@Z 10035e10 f i physics:dgWorldDynamicUpdate.obj
 0001:00034e40       ??_GdgParallelSolverInitFeedbackUpdate@@UAEPAXI@Z 10035e40 f i physics:dgWorldDynamicUpdate.obj
 0001:00034e40       ??_EdgParallelSolverInitFeedbackUpdate@@UAEPAXI@Z 10035e40 f i physics:dgWorldDynamicUpdate.obj
 0001:00034e70       ??_GdgParallelSolverBuildJacobianMatrix@@UAEPAXI@Z 10035e70 f i physics:dgWorldDynamicUpdate.obj
 0001:00034e70       ??_EdgParallelSolverBuildJacobianMatrix@@UAEPAXI@Z 10035e70 f i physics:dgWorldDynamicUpdate.obj
 0001:00034ea0       ??0dgContraintDescritor@@QAE@XZ 10035ea0 f i physics:dgWorldDynamicUpdate.obj
 0001:00034ec0       ??0dgJacobianPair@@QAE@XZ  10035ec0 f i physics:dgWorldDynamicUpdate.obj
 0001:00034ef0       ??0dgJacobian@@QAE@XZ      10035ef0 f i physics:dgWorldDynamicUpdate.obj
 0001:00034f20       ?AddDamingAcceleration@dgBody@@AAEXXZ 10035f20 f i physics:dgWorldDynamicUpdate.obj
 0001:00034fe0       ?dgGetIndirectLock@dgWorld@@QAEXPAH@Z 10035fe0 f i physics:dgWorldDynamicUpdate.obj
 0001:00035000       ?dgReleaseIndirectLock@dgWorld@@QAEXPAH@Z 10036000 f i physics:dgWorldDynamicUpdate.obj
 0001:00035020       ?GetPrev@dgListNode@?$dgList@VdgBodyMasterListRow@@@@QBEPAV12@XZ 10036020 f i physics:dgWorldDynamicUpdate.obj
 0001:00035040       ??0?$dgQueue@PAVdgBody@@@@QAE@PAPAVdgBody@@H@Z 10036040 f i physics:dgWorldDynamicUpdate.obj
 0001:00035080       ?Insert@?$dgQueue@PAVdgBody@@@@QAEXPAVdgBody@@@Z 10036080 f i physics:dgWorldDynamicUpdate.obj
 0001:00035100       ?Reset@?$dgQueue@PAVdgBody@@@@QAEXXZ 10036100 f i physics:dgWorldDynamicUpdate.obj
 0001:00035120       ?IsEmpty@?$dgQueue@PAVdgBody@@@@QBE_NXZ 10036120 f i physics:dgWorldDynamicUpdate.obj
 0001:00035140       ?GetLast@?$dgList@VdgBodyMasterListRow@@@@QBEPAVdgListNode@1@XZ 10036140 f i physics:dgWorldDynamicUpdate.obj
 0001:00035160       ??Y?$dgTemplateVector@M@@QAEAAV0@ABV0@@Z 10036160 f i physics:dgWorldDynamicUpdate.obj
 0001:00035240       ?CompProduct@?$dgTemplateVector@M@@QBE?AV1@ABV1@@Z 10036240 f i physics:dgWorldDynamicUpdate.obj
 0001:00035290       ??$dgSort@VdgIsland@@@@YAXQAVdgIsland@@HP6AHQBV0@1QAX@Z2@Z 10036290 f i physics:dgWorldDynamicUpdate.obj
 0001:00035710       ??$GetMin@H@@YAHHH@Z       10036710 f i physics:dgWorldDynamicUpdate.obj
 0001:00035730       ??$Swap@M@@YAXAAM0@Z       10036730 f i physics:dgWorldDynamicUpdate.obj
 0001:00035760       ??$Swap@H@@YAXAAH0@Z       10036760 f i physics:dgWorldDynamicUpdate.obj
 0001:00035790       ??$Swap@PAM@@YAXAAPAM0@Z   10036790 f i physics:dgWorldDynamicUpdate.obj
 0001:000357c0       ??$Swap@VdgJacobianPair@@@@YAXAAVdgJacobianPair@@0@Z 100367c0 f i physics:dgWorldDynamicUpdate.obj
 0001:00035810       ?CreateNull@dgWorld@@QAEPAVdgCollision@@XZ 10036810 f   physics:dgNarrowPhaseCollision.obj
 0001:000358c0       ?CreateBox@dgWorld@@QAEPAVdgCollision@@MMMHABVdgMatrix@@@Z 100368c0 f   physics:dgNarrowPhaseCollision.obj
 0001:00035aa0       ?CreateSphere@dgWorld@@QAEPAVdgCollision@@MHABVdgMatrix@@@Z 10036aa0 f   physics:dgNarrowPhaseCollision.obj
 0001:00035c20       ?CreateEllipse@dgWorld@@QAEPAVdgCollision@@MMMHABVdgMatrix@@@Z 10036c20 f   physics:dgNarrowPhaseCollision.obj
 0001:00035df0       ?CreateCapsule@dgWorld@@QAEPAVdgCollision@@MMHABVdgMatrix@@@Z 10036df0 f   physics:dgNarrowPhaseCollision.obj
 0001:00035f90       ?CreateCone@dgWorld@@QAEPAVdgCollision@@MMHABVdgMatrix@@@Z 10036f90 f   physics:dgNarrowPhaseCollision.obj
 0001:00036130       ?CreateCylinder@dgWorld@@QAEPAVdgCollision@@MMHABVdgMatrix@@@Z 10037130 f   physics:dgNarrowPhaseCollision.obj
 0001:000362d0       ?CreateChamferCylinder@dgWorld@@QAEPAVdgCollision@@MMHABVdgMatrix@@@Z 100372d0 f   physics:dgNarrowPhaseCollision.obj
 0001:00036470       ?CreateConvexHull@dgWorld@@QAEPAVdgCollision@@HPBMHMHABVdgMatrix@@@Z 10037470 f   physics:dgNarrowPhaseCollision.obj
 0001:000366f0       ?CreateConvexModifier@dgWorld@@QAEPAVdgCollision@@PAV2@@Z 100376f0 f   physics:dgNarrowPhaseCollision.obj
 0001:00036770       ?CreateCollisionCompound@dgWorld@@QAEPAVdgCollision@@HQBQAV2@@Z 10037770 f   physics:dgNarrowPhaseCollision.obj
 0001:000367d0       ?CreateCollisionCompoundBreakable@dgWorld@@QAEPAVdgCollision@@HQBQBVdgMeshEffect@@QBHQBM1HM@Z 100377d0 f   physics:dgNarrowPhaseCollision.obj
 0001:00036840       ?CreateBVH@dgWorld@@QAEPAVdgCollision@@XZ 10037840 f   physics:dgNarrowPhaseCollision.obj
 0001:00036890       ?CreateStaticUserMesh@dgWorld@@QAEPAVdgCollision@@ABVdgVector@@0ABVdgUserMeshCreation@@@Z 10037890 f   physics:dgNarrowPhaseCollision.obj
 0001:000368f0       ?CreateBVHFieldCollision@dgWorld@@QAEPAVdgCollision@@HHHQBGQBDMM@Z 100378f0 f   physics:dgNarrowPhaseCollision.obj
 0001:00036960       ?CreateScene@dgWorld@@QAEPAVdgCollision@@XZ 10037960 f   physics:dgNarrowPhaseCollision.obj
 0001:000369b0       ?Serialize@dgWorld@@QBEXPAVdgCollision@@P6AXPAXPBXI@ZQAX@Z 100379b0 f   physics:dgNarrowPhaseCollision.obj
 0001:00036a20       ?CreateFromSerialization@dgWorld@@QAEPAVdgCollision@@P6AXPAX0I@ZQAX@Z 10037a20 f   physics:dgNarrowPhaseCollision.obj
 0001:00037180       ?GetMaterial@dgWorld@@QBEPAVdgContactMaterial@@II@Z 10038180 f   physics:dgNarrowPhaseCollision.obj
 0001:000371f0       ?GetFirstMaterial@dgWorld@@QBEPAVdgContactMaterial@@XZ 100381f0 f   physics:dgNarrowPhaseCollision.obj
 0001:00037240       ?GetNextMaterial@dgWorld@@QBEPAVdgContactMaterial@@PAV2@@Z 10038240 f   physics:dgNarrowPhaseCollision.obj
 0001:000372b0       ?GetDefualtBodyGroupID@dgWorld@@QBEIXZ 100382b0 f   physics:dgNarrowPhaseCollision.obj
 0001:000372d0       ?CreateBodyGroupID@dgWorld@@QAEIXZ 100382d0 f   physics:dgNarrowPhaseCollision.obj
 0001:000373a0       ?RemoveFromCache@dgWorld@@QAEXQAVdgCollision@@@Z 100383a0 f   physics:dgNarrowPhaseCollision.obj
 0001:00037430       ?ReleaseCollision@dgWorld@@QAEXQAVdgCollision@@@Z 10038430 f   physics:dgNarrowPhaseCollision.obj
 0001:00037520       ?ClosestPoint@dgWorld@@QBEHAAVdgTriplex@@QAVdgCollision@@ABVdgMatrix@@00H@Z 10038520 f   physics:dgNarrowPhaseCollision.obj
 0001:000375c0       ?ClosestPoint@dgWorld@@QBEHQAVdgCollision@@ABVdgMatrix@@01AAVdgTriplex@@22H@Z 100385c0 f   physics:dgNarrowPhaseCollision.obj
 0001:00037940       ?ClosestCompoundPoint@dgWorld@@ABEHQAVdgBody@@0AAVdgTriplex@@11H@Z 10038940 f   physics:dgNarrowPhaseCollision.obj
 0001:000379b0       ?SortContacts@dgWorld@@ABEXQAVdgContactPoint@@H@Z 100389b0 f   physics:dgNarrowPhaseCollision.obj
 0001:00037a40       ?ReduceContacts@dgWorld@@ABEHHQAVdgContactPoint@@HMH@Z 10038a40 f   physics:dgNarrowPhaseCollision.obj
 0001:00037d10       ?PruneContacts@dgWorld@@ABEHHQAVdgContactPoint@@H@Z 10038d10 f   physics:dgNarrowPhaseCollision.obj
 0001:00037f70       ?ProcessCachedContacts@dgWorld@@ABEXQAVdgContact@@QBVdgContactMaterial@@MH@Z 10038f70 f   physics:dgNarrowPhaseCollision.obj
 0001:00038380       ?ProcessTriggers@dgWorld@@AAEXQAUdgPair@dgCollidingPairCollector@@MH@Z 10039380 f   physics:dgNarrowPhaseCollision.obj
 0001:00038620       ?ProcessContacts@dgWorld@@AAEXQAUdgPair@dgCollidingPairCollector@@MH@Z 10039620 f   physics:dgNarrowPhaseCollision.obj
 0001:00039dc0       ?ValidateContactCache@dgWorld@@ABEHQAVdgBody@@0QAVdgContact@@@Z 1003adc0 f   physics:dgNarrowPhaseCollision.obj
 0001:0003a120       ?CompoundContactsSimd@dgWorld@@ABEXQAUdgPair@dgCollidingPairCollector@@AAVdgCollisionParamProxi@@@Z 1003b120 f   physics:dgNarrowPhaseCollision.obj
 0001:0003a210       ?CompoundContacts@dgWorld@@ABEXQAUdgPair@dgCollidingPairCollector@@AAVdgCollisionParamProxi@@@Z 1003b210 f   physics:dgNarrowPhaseCollision.obj
 0001:0003a300       ?ConvexContactsSimd@dgWorld@@ABEXQAUdgPair@dgCollidingPairCollector@@AAVdgCollisionParamProxi@@@Z 1003b300 f   physics:dgNarrowPhaseCollision.obj
 0001:0003a640       ?ConvexContacts@dgWorld@@ABEXQAUdgPair@dgCollidingPairCollector@@AAVdgCollisionParamProxi@@@Z 1003b640 f   physics:dgNarrowPhaseCollision.obj
 0001:0003a980       ?SceneContactsSimd@dgWorld@@ABEXABUdgProxy@dgCollisionScene@@QAUdgPair@dgCollidingPairCollector@@AAVdgCollisionParamProxi@@@Z 1003b980 f   physics:dgNarrowPhaseCollision.obj
 0001:0003ab80       ?SceneContacts@dgWorld@@ABEXABUdgProxy@dgCollisionScene@@QAUdgPair@dgCollidingPairCollector@@AAVdgCollisionParamProxi@@@Z 1003bb80 f   physics:dgNarrowPhaseCollision.obj
 0001:0003ad80       ?SceneContacts@dgWorld@@ABEXQAUdgPair@dgCollidingPairCollector@@AAVdgCollisionParamProxi@@@Z 1003bd80 f   physics:dgNarrowPhaseCollision.obj
 0001:0003af30       ?SceneContactsSimd@dgWorld@@ABEXQAUdgPair@dgCollidingPairCollector@@AAVdgCollisionParamProxi@@@Z 1003bf30 f   physics:dgNarrowPhaseCollision.obj
 0001:0003b0e0       ?CalculateContactsSimd@dgWorld@@AAEXQAUdgPair@dgCollidingPairCollector@@MH@Z 1003c0e0 f   physics:dgNarrowPhaseCollision.obj
 0001:0003b360       ?CalculateContacts@dgWorld@@AAEXQAUdgPair@dgCollidingPairCollector@@MH@Z 1003c360 f   physics:dgNarrowPhaseCollision.obj
 0001:0003b5e0       ?CollideContinueSimd@dgWorld@@QAEHPAVdgCollision@@ABVdgMatrix@@ABVdgVector@@20122AAMPAVdgTriplex@@4PAMHH@Z 1003c5e0 f   physics:dgNarrowPhaseCollision.obj
 0001:0003be40       ?CollideContinue@dgWorld@@QAEHPAVdgCollision@@ABVdgMatrix@@ABVdgVector@@20122AAMPAVdgTriplex@@4PAMHH@Z 1003ce40 f   physics:dgNarrowPhaseCollision.obj
 0001:0003c690       ?Collide@dgWorld@@QAEHPAVdgCollision@@ABVdgMatrix@@01PAVdgTriplex@@2PAMHH@Z 1003d690 f   physics:dgNarrowPhaseCollision.obj
 0001:0003cb60       ?GetVertexCount@dgConvexCollision@@QBEHXZ 1003db60 f i physics:dgNarrowPhaseCollision.obj
 0001:0003cb80       ?GetSignature@dgCollision@@QBEIXZ 1003db80 f i physics:dgNarrowPhaseCollision.obj
 0001:0003cba0       ??0dgCollisionParamProxi@@QAE@H@Z 1003dba0 f i physics:dgNarrowPhaseCollision.obj
 0001:0003cbf0       ??2dgContact@@CAPAXIQAVdgMemoryAllocator@@@Z 1003dbf0 f i physics:dgNarrowPhaseCollision.obj
 0001:0003cc10       ?AddToBreakQueue@dgWorld@@QAEXQBVdgContact@@QAVdgBody@@M@Z 1003dc10 f i physics:dgNarrowPhaseCollision.obj
 0001:0003cd20       ?GetInfo@dgTreeNode@?$dgTree@PAVdgCollision@@I@@QAEAAPAVdgCollision@@XZ 1003dd20 f i physics:dgNarrowPhaseCollision.obj
 0001:0003cd40       ?GetInfo@dgTreeNode@?$dgTree@VdgContactMaterial@@I@@QAEAAVdgContactMaterial@@XZ 1003dd40 f i physics:dgNarrowPhaseCollision.obj
 0001:0003cd60       ?Append@?$dgList@VdgContactMaterial@@@@QAEPAVdgListNode@1@XZ 1003dd60 f i physics:dgNarrowPhaseCollision.obj
 0001:0003ce20       ?Find@?$dgTree@PAVdgCollision@@I@@QBEPAVdgTreeNode@1@I@Z 1003de20 f i physics:dgNarrowPhaseCollision.obj
 0001:0003cf40       ?Insert@?$dgTree@PAVdgCollision@@I@@QAEPAVdgTreeNode@1@ABQAVdgCollision@@I@Z 1003df40 f i physics:dgNarrowPhaseCollision.obj
 0001:0003cf80       ?Remove@?$dgTree@PAVdgCollision@@I@@QAEXQAVdgTreeNode@1@@Z 1003df80 f i physics:dgNarrowPhaseCollision.obj
 0001:0003cfc0       ?Minimum@?$dgTree@VdgContactMaterial@@I@@QBEPAVdgTreeNode@1@XZ 1003dfc0 f i physics:dgNarrowPhaseCollision.obj
 0001:0003cff0       ?Find@?$dgTree@VdgContactMaterial@@I@@QBEPAVdgTreeNode@1@I@Z 1003dff0 f i physics:dgNarrowPhaseCollision.obj
 0001:0003d120       ?GetNodeFromInfo@?$dgTree@VdgContactMaterial@@I@@QBEPAVdgTreeNode@1@AAVdgContactMaterial@@@Z 1003e120 f i physics:dgNarrowPhaseCollision.obj
 0001:0003d1c0       ?Insert@?$dgTree@VdgContactMaterial@@I@@QAEPAVdgTreeNode@1@ABVdgContactMaterial@@I@Z 1003e1c0 f i physics:dgNarrowPhaseCollision.obj
 0001:0003d200       ??0?$dgStack@I@@QAE@H@Z    1003e200 f i physics:dgNarrowPhaseCollision.obj
 0001:0003d230       ??1?$dgStack@I@@QAE@XZ     1003e230 f i physics:dgNarrowPhaseCollision.obj
 0001:0003d250       ?GetSizeInBytes@?$dgStack@I@@QBEHXZ 1003e250 f i physics:dgNarrowPhaseCollision.obj
 0001:0003d270       ??A?$dgStack@I@@QAEAAIH@Z  1003e270 f i physics:dgNarrowPhaseCollision.obj
 0001:0003d2f0       ??$Swap@I@@YAXAAI0@Z       1003e2f0 f i physics:dgNarrowPhaseCollision.obj
 0001:0003d320       ??$dgSort@VdgContactPoint@@@@YAXQAVdgContactPoint@@HP6AHQBV0@1QAX@Z2@Z 1003e320 f i physics:dgNarrowPhaseCollision.obj
 0001:0003d6f0       ??$Swap@PAVdgListNode@?$dgList@VdgBodyMasterListCell@@@@@@YAXAAPAVdgListNode@?$dgList@VdgBodyMasterListCell@@@@0@Z 1003e6f0 f i physics:dgNarrowPhaseCollision.obj
 0001:0003d720       ?GetLeft@dgTreeNode@?$dgTree@PAVdgCollision@@I@@ABEPAV12@XZ 1003e720 f i physics:dgNarrowPhaseCollision.obj
 0001:0003d730       ?GetRight@dgTreeNode@?$dgTree@PAVdgCollision@@I@@ABEPAV12@XZ 1003e730 f i physics:dgNarrowPhaseCollision.obj
 0001:0003d750       ?GetLeft@dgTreeNode@?$dgTree@VdgContactMaterial@@I@@ABEPAV12@XZ 1003e750 f i physics:dgNarrowPhaseCollision.obj
 0001:0003d760       ?GetRight@dgTreeNode@?$dgTree@VdgContactMaterial@@I@@ABEPAV12@XZ 1003e760 f i physics:dgNarrowPhaseCollision.obj
 0001:0003d780       ??2dgListNode@?$dgList@VdgContactMaterial@@@@CAPAXIQAVdgMemoryAllocator@@@Z 1003e780 f i physics:dgNarrowPhaseCollision.obj
 0001:0003d7a0       ??0dgListNode@?$dgList@VdgContactMaterial@@@@AAE@QAV01@0@Z 1003e7a0 f i physics:dgNarrowPhaseCollision.obj
 0001:0003d850       ?Insert@?$dgTree@PAVdgCollision@@I@@QAEPAVdgTreeNode@1@ABQAVdgCollision@@IAA_N@Z 1003e850 f i physics:dgNarrowPhaseCollision.obj
 0001:0003da50       ?CompareKeys@?$dgTree@PAVdgCollision@@I@@ABEHABI0@Z 1003ea50 f i physics:dgNarrowPhaseCollision.obj
 0001:0003da90       ?Insert@?$dgTree@VdgContactMaterial@@I@@QAEPAVdgTreeNode@1@ABVdgContactMaterial@@IAA_N@Z 1003ea90 f i physics:dgNarrowPhaseCollision.obj
 0001:0003dca0       ?CompareKeys@?$dgTree@VdgContactMaterial@@I@@ABEHABI0@Z 1003eca0 f i physics:dgNarrowPhaseCollision.obj
 0001:0003dce0       ??0dgTreeNode@?$dgTree@PAVdgCollision@@I@@AAE@ABQAVdgCollision@@ABIPAV01@@Z 1003ece0 f i physics:dgNarrowPhaseCollision.obj
 0001:0003dd50       ??0dgTreeNode@?$dgTree@VdgContactMaterial@@I@@AAE@ABVdgContactMaterial@@ABIPAV01@@Z 1003ed50 f i physics:dgNarrowPhaseCollision.obj
 0001:0003ddd0       ??0dgStackBase@@IAE@H@Z    1003edd0 f i physics:dgNarrowPhaseCollision.obj
 0001:0003de00       ??1dgStackBase@@IAE@XZ     1003ee00 f i physics:dgNarrowPhaseCollision.obj
 0001:0003de20       ??0dgMatrix@@QAE@XZ        1003ee20 f i physics:dgNarrowPhaseCollision.obj
 0001:0003de60       ?DotProduct@dgQuaternion@@QBEMABV1@@Z 1003ee60 f i physics:dgNarrowPhaseCollision.obj
 0001:0003deb0       ??GdgQuaternion@@QBE?AV0@ABV0@@Z 1003eeb0 f i physics:dgNarrowPhaseCollision.obj
 0001:0003df10       ??0dgQuaternion@@QAE@MMMM@Z 1003ef10 f i physics:dgNarrowPhaseCollision.obj
 0001:0003df50       ??0dgMeshEffect@@QAE@QAVdgMemoryAllocator@@_N@Z 1003ef50 f   physics:dgMeshEffect.obj
 0001:0003dfa0       ??0dgMeshEffect@@QAE@QAVdgMemoryAllocator@@ABVdgMatrix@@MMH11@Z 1003efa0 f   physics:dgMeshEffect.obj
 0001:0003e000       ??0dgMeshEffect@@QAE@AAVdgPolyhedra@@ABV0@@Z 1003f000 f   physics:dgMeshEffect.obj
 0001:0003e100       ??0dgMeshEffect@@QAE@ABV0@@Z 1003f100 f   physics:dgMeshEffect.obj
 0001:0003e200       ??0dgMeshEffect@@QAE@QAVdgCollision@@@Z 1003f200 f   physics:dgMeshEffect.obj
 0001:0003e4e0       ??1dgMeshEffect@@UAE@XZ    1003f4e0 f   physics:dgMeshEffect.obj
 0001:0003e550       ?Init@dgMeshEffect@@AAEX_N@Z 1003f550 f   physics:dgMeshEffect.obj
 0001:0003e600       ?Triangulate@dgMeshEffect@@QAEXXZ 1003f600 f   physics:dgMeshEffect.obj
 0001:0003e960       ?ConvertToPolygons@dgMeshEffect@@QAEXXZ 1003f960 f   physics:dgMeshEffect.obj
 0001:0003ecc0       ?RemoveUnusedVertices@dgMeshEffect@@QAEXQAH@Z 1003fcc0 f   physics:dgMeshEffect.obj
 0001:0003f1a0       ?CalculateOOBB@dgMeshEffect@@QBE?AVdgMatrix@@AAVdgVector@@@Z 100401a0 f   physics:dgMeshEffect.obj
 0001:0003f340       ?CalculateAABB@dgMeshEffect@@QBEXAAVdgVector@@0@Z 10040340 f   physics:dgMeshEffect.obj
 0001:0003f510       ?EnumerateAttributeArray@dgMeshEffect@@AAEXPAUdgVertexAtribute@1@@Z 10040510 f   physics:dgMeshEffect.obj
 0001:0003f5c0       ?ApplyAttributeArray@dgMeshEffect@@AAEXPAUdgVertexAtribute@1@@Z 100405c0 f   physics:dgMeshEffect.obj
 0001:0003f760       ?GetOrigin@dgMeshEffect@@ABE?AVdgVector@@XZ 10040760 f   physics:dgMeshEffect.obj
 0001:0003f7a0       ?FixCylindricalMapping@dgMeshEffect@@ABEXPAUdgVertexAtribute@1@@Z 100407a0 f   physics:dgMeshEffect.obj
 0001:0003f980       ?SphericalMapping@dgMeshEffect@@QAEXH@Z 10040980 f   physics:dgMeshEffect.obj
 0001:0003fc90       ?CylindricalMapping@dgMeshEffect@@QAEXHH@Z 10040c90 f   physics:dgMeshEffect.obj
 0001:000402f0       ?BoxMapping@dgMeshEffect@@QAEXHHH@Z 100412f0 f   physics:dgMeshEffect.obj
 0001:00040760       ?CalculateNormals@dgMeshEffect@@QAEXM@Z 10041760 f   physics:dgMeshEffect.obj
 0001:00040bd0       ?BeginPolygon@dgMeshEffect@@QAEXXZ 10041bd0 f   physics:dgMeshEffect.obj
 0001:00040c10       ?AddAtribute@dgMeshEffect@@AAEXABUdgVertexAtribute@1@@Z 10041c10 f   physics:dgMeshEffect.obj
 0001:00040d40       ?AddVertex@dgMeshEffect@@AAEXABVdgVector@@@Z 10041d40 f   physics:dgMeshEffect.obj
 0001:00040e50       ?AddPoint@dgMeshEffect@@AAEXPBMH@Z 10041e50 f   physics:dgMeshEffect.obj
 0001:00040f70       ?PackVertexArrays@dgMeshEffect@@QAEXXZ 10041f70 f   physics:dgMeshEffect.obj
 0001:00041080       ?AddPolygon@dgMeshEffect@@QAEXHPBMHH@Z 10042080 f   physics:dgMeshEffect.obj
 0001:00041230       ?EndPolygon@dgMeshEffect@@QAEXXZ 10042230 f   physics:dgMeshEffect.obj
 0001:000419b0       ?BuildFromVertexListIndexList@dgMeshEffect@@QAEXHQBH0QBMH01H01H01H0@Z 100429b0 f   physics:dgMeshEffect.obj
 0001:00042060       ?GetTotalFaceCount@dgMeshEffect@@QBEHXZ 10043060 f   physics:dgMeshEffect.obj
 0001:00042080       ?GetTotalIndexCount@dgMeshEffect@@QBEHXZ 10043080 f   physics:dgMeshEffect.obj
 0001:00042150       ?GetFaces@dgMeshEffect@@QBEXQAH0QAPAX@Z 10043150 f   physics:dgMeshEffect.obj
 0001:00042280       ?GetFirstVertex@dgMeshEffect@@QAEPAXXZ 10043280 f   physics:dgMeshEffect.obj
 0001:00042330       ?GetNextVertex@dgMeshEffect@@QAEPAXPBX@Z 10043330 f   physics:dgMeshEffect.obj
 0001:00042420       ?GetVertexIndex@dgMeshEffect@@QBEHPBX@Z 10043420 f   physics:dgMeshEffect.obj
 0001:00042450       ?GetFirstPoint@dgMeshEffect@@QAEPAXXZ 10043450 f   physics:dgMeshEffect.obj
 0001:00042520       ?GetNextPoint@dgMeshEffect@@QAEPAXPBX@Z 10043520 f   physics:dgMeshEffect.obj
 0001:00042620       ?GetPointIndex@dgMeshEffect@@QBEHPBX@Z 10043620 f   physics:dgMeshEffect.obj
 0001:00042650       ?GetVertexIndexFromPoint@dgMeshEffect@@QBEHPBX@Z 10043650 f   physics:dgMeshEffect.obj
 0001:00042670       ?ConectVertex@dgMeshEffect@@QAEPAVdgEdge@@QAV2@0@Z 10043670 f   physics:dgMeshEffect.obj
 0001:000427a0       ?GetFirstEdge@dgMeshEffect@@QAEPAXXZ 100437a0 f   physics:dgMeshEffect.obj
 0001:00042840       ?GetNextEdge@dgMeshEffect@@QAEPAXPBX@Z 10043840 f   physics:dgMeshEffect.obj
 0001:00042920       ?GetEdgeIndex@dgMeshEffect@@QBEXPBXAAH1@Z 10043920 f   physics:dgMeshEffect.obj
 0001:00042960       ?GetFirstFace@dgMeshEffect@@QAEPAXXZ 10043960 f   physics:dgMeshEffect.obj
 0001:00042a00       ?GetNextFace@dgMeshEffect@@QAEPAXPBX@Z 10043a00 f   physics:dgMeshEffect.obj
 0001:00042af0       ?IsFaceOpen@dgMeshEffect@@QBEHPBX@Z 10043af0 f   physics:dgMeshEffect.obj
 0001:00042b20       ?GetFaceMaterial@dgMeshEffect@@QBEHPBX@Z 10043b20 f   physics:dgMeshEffect.obj
 0001:00042b60       ?GetFaceIndexCount@dgMeshEffect@@QBEHPBX@Z 10043b60 f   physics:dgMeshEffect.obj
 0001:00042bb0       ?GetFaceIndex@dgMeshEffect@@QBEXPBXPAH@Z 10043bb0 f   physics:dgMeshEffect.obj
 0001:00042c10       ?GetFaceAttributeIndex@dgMeshEffect@@QBEXPBXPAH@Z 10043c10 f   physics:dgMeshEffect.obj
 0001:00042c70       ?GetVertexStreams@dgMeshEffect@@QAEXHPAMH0H0H0@Z 10043c70 f   physics:dgMeshEffect.obj
 0001:00042e00       ?GetIndirectVertexStreams@dgMeshEffect@@QAEXHPAMPAH1H011H011H011@Z 10043e00 f   physics:dgMeshEffect.obj
 0001:000430a0       ?MaterialGeomteryBegin@dgMeshEffect@@QAEPAUdgIndexArray@1@XZ 100440a0 f   physics:dgMeshEffect.obj
 0001:00043420       ?MaterialGeomteryEnd@dgMeshEffect@@QAEXPAUdgIndexArray@1@@Z 10044420 f   physics:dgMeshEffect.obj
 0001:00043450       ?GetFirstMaterial@dgMeshEffect@@QAEHPAUdgIndexArray@1@@Z 10044450 f   physics:dgMeshEffect.obj
 0001:00043470       ?GetNextMaterial@dgMeshEffect@@QAEHPAUdgIndexArray@1@H@Z 10044470 f   physics:dgMeshEffect.obj
 0001:000434a0       ?GetMaterialGetIndexStream@dgMeshEffect@@QAEXPAUdgIndexArray@1@HPAH@Z 100444a0 f   physics:dgMeshEffect.obj
 0001:00043560       ?GetMaterialGetIndexStreamShort@dgMeshEffect@@QAEXPAUdgIndexArray@1@HPAF@Z 10044560 f   physics:dgMeshEffect.obj
 0001:00043630       ?CreateConvexCollision@dgMeshEffect@@QBEPAVdgCollision@@MHABVdgMatrix@@@Z 10044630 f   physics:dgMeshEffect.obj
 0001:00043a80       ?TransformMesh@dgMeshEffect@@QAEXABVdgMatrix@@@Z 10044a80 f   physics:dgMeshEffect.obj
 0001:00043ac0       ?InterpolateEdge@dgMeshEffect@@ABE?AUdgVertexAtribute@1@QAVdgEdge@@M@Z 10044ac0 f   physics:dgMeshEffect.obj
 0001:00043ca0       ?Sanity@dgMeshEffect@@QBE_NXZ 10044ca0 f   physics:dgMeshEffect.obj
 0001:00043ed0       ?InsertEdgeVertex@dgMeshEffect@@QAEPAVdgEdge@@QAV2@M@Z 10044ed0 f   physics:dgMeshEffect.obj
 0001:00044010       ?InterpolateVertex@dgMeshEffect@@ABE?AUdgVertexAtribute@1@ABVdgVector@@QAVdgEdge@@@Z 10045010 f   physics:dgMeshEffect.obj
 0001:000448d0       ?MergeFaces@dgMeshEffect@@AAEXPAV1@@Z 100458d0 f   physics:dgMeshEffect.obj
 0001:00044910       ?ReverseMergeFaces@dgMeshEffect@@AAEXPAV1@@Z 10045910 f   physics:dgMeshEffect.obj
 0001:00044950       ?ClipFace@dgMeshEffect@@ABEXABVdgBigPlane@@PAVdgMeshTreeCSGFace@@PAPAV3@2AAVdgMeshTreeCSGPointsPool@@@Z 10045950 f   physics:dgMeshEffect.obj
 0001:00044f60       ?CopyCGSFace@dgMeshEffect@@AAEXABV1@QAVdgEdge@@@Z 10045f60 f   physics:dgMeshEffect.obj
 0001:00044fa0       ?Union@dgMeshEffect@@QBEPAV1@ABVdgMatrix@@PBV1@@Z 10045fa0 f   physics:dgMeshEffect.obj
 0001:000451c0       ?Difference@dgMeshEffect@@QBEPAV1@ABVdgMatrix@@PBV1@@Z 100461c0 f   physics:dgMeshEffect.obj
 0001:000453e0       ?Intersection@dgMeshEffect@@QBEPAV1@ABVdgMatrix@@PBV1@@Z 100463e0 f   physics:dgMeshEffect.obj
 0001:00045600       ?ClipMesh@dgMeshEffect@@QBEXABVdgMatrix@@PBV1@PAPAV1@2@Z 10046600 f   physics:dgMeshEffect.obj
 0001:000458d0       ?AddCGSFace@dgMeshEffect@@AAEXABV1@QAVdgEdge@@HQAPAVdgMeshTreeCSGFace@@ABVdgMeshTreeCSGPointsPool@@@Z 100468d0 f   physics:dgMeshEffect.obj
 0001:00045910       ?CreateSolidTree@dgMeshEffect@@QBEPAVdgMeshEffectSolidTree@@XZ 10046910 f   physics:dgMeshEffect.obj
 0001:00045950       ?DestroySolidTree@dgMeshEffect@@SAXPAVdgMeshEffectSolidTree@@@Z 10046950 f   physics:dgMeshEffect.obj
 0001:00045990       ?ClipMesh@dgMeshEffect@@ABEXPBV1@PAPAV1@1@Z 10046990 f   physics:dgMeshEffect.obj
 0001:000459d0       ?CheckIntersection@dgMeshEffect@@SA_NQBV1@QBVdgMeshEffectSolidTree@@01M@Z 100469d0 f   physics:dgMeshEffect.obj
 0001:00045a20       ?CheckIntersection@dgMeshEffect@@QBE_NQBVdgMeshEffectSolidTree@@M@Z 10046a20 f   physics:dgMeshEffect.obj
 0001:00045a60       ?PlaneClipMesh@dgMeshEffect@@ABEXPBV1@PAPAV1@1@Z 10046a60 f   physics:dgMeshEffect.obj
 0001:00045aa0       ?PlaneClipMesh@dgMeshEffect@@QAEXABVdgPlane@@PAPAV1@1@Z 10046aa0 f   physics:dgMeshEffect.obj
 0001:00045ae0       ?CheckSingleMesh@dgMeshEffect@@ABE_NXZ 10046ae0 f   physics:dgMeshEffect.obj
 0001:00045b20       ?PlaneApplyCap@dgMeshEffect@@AAEHPBV1@ABVdgPlane@@@Z 10046b20 f   physics:dgMeshEffect.obj
 0001:00045b60       ?HasOpenEdges@dgMeshEffect@@QBE_NXZ 10046b60 f   physics:dgMeshEffect.obj
 0001:00045bf0       ?SeparateDuplicateLoops@dgMeshEffect@@QAE_NQAVdgEdge@@@Z 10046bf0 f   physics:dgMeshEffect.obj
 0001:00045c90       ?WeldTJoints@dgMeshEffect@@QAEXXZ 10046c90 f   physics:dgMeshEffect.obj
 0001:00046410       ?CalculateVolume@dgMeshEffect@@QBEMXZ 10047410 f   physics:dgMeshEffect.obj
 0001:00046600       ??_EdgMeshEffect@@UAEPAXI@Z 10047600 f i physics:dgMeshEffect.obj
 0001:00046600       ??_GdgMeshEffect@@UAEPAXI@Z 10047600 f i physics:dgMeshEffect.obj
 0001:00046630       ??0dgMeshEffectBuilder@@QAE@XZ 10047630 f i physics:dgMeshEffect.obj
 0001:000466a0       ??1dgMeshEffectBuilder@@QAE@XZ 100476a0 f i physics:dgMeshEffect.obj
 0001:000466d0       ?GetShapeFromCollision@dgMeshEffectBuilder@@SAXPAXHPBMH@Z 100476d0 f i physics:dgMeshEffect.obj
 0001:00046880       ??0dgCollisionInfo@@QAE@XZ 10047880 f i physics:dgMeshEffect.obj
 0001:000468a0       ??0dgVertexAtribute@dgMeshEffect@@QAE@XZ 100478a0 f i physics:dgMeshEffect.obj
 0001:000468c0       ?AddPoint@dgMeshTreeCSGPointsPool@@QAEHABVdgBigVector@@@Z 100478c0 f i physics:dgMeshEffect.obj
 0001:00046930       ??2dgMeshTreeCSGFace@@SAPAXIQAVdgMemoryAllocator@@@Z 10047930 f i physics:dgMeshEffect.obj
 0001:00046950       ??0dgMeshTreeCSGFace@@QAE@QAVdgMemoryAllocator@@@Z 10047950 f i physics:dgMeshEffect.obj
 0001:00046990       ?AddPoint@dgMeshTreeCSGFace@@QAEXH@Z 10047990 f i physics:dgMeshEffect.obj
 0001:00046a50       ??2CSGLinearEdge@dgMeshTreeCSGFace@@SAPAXIQAVdgMemoryAllocator@@@Z 10047a50 f i physics:dgMeshEffect.obj
 0001:00046a70       ??0CSGLinearEdge@dgMeshTreeCSGFace@@QAE@H@Z 10047a70 f i physics:dgMeshEffect.obj
 0001:00046aa0       ??0CSGLinearEdge@dgMeshTreeCSGFace@@QAE@HPAV01@@Z 10047aa0 f i physics:dgMeshEffect.obj
 0001:00046ad0       ??_GdgMeshTreeCSGFace@@UAEPAXI@Z 10047ad0 f i physics:dgMeshEffect.obj
 0001:00046ad0       ??_EdgMeshTreeCSGFace@@UAEPAXI@Z 10047ad0 f i physics:dgMeshEffect.obj
 0001:00046b00       ??3dgMeshTreeCSGFace@@SAXPAX@Z 10047b00 f i physics:dgMeshEffect.obj
 0001:00046b20       ??1dgMeshTreeCSGFace@@UAE@XZ 10047b20 f i physics:dgMeshEffect.obj
 0001:00046b80       ??3CSGLinearEdge@dgMeshTreeCSGFace@@SAXPAX@Z 10047b80 f i physics:dgMeshEffect.obj
 0001:00046ba0       ??_GdgMeshEffectSolidTree@@QAEPAXI@Z 10047ba0 f i physics:dgMeshEffect.obj
 0001:00046bd0       ??3dgMeshEffectSolidTree@@SAXPAX@Z 10047bd0 f i physics:dgMeshEffect.obj
 0001:00046bf0       ??1dgMeshEffectSolidTree@@QAE@XZ 10047bf0 f i physics:dgMeshEffect.obj
 0001:00046c70       ??3?$dgTree@VdgEdge@@_J@@SAXPAX@Z 10047c70 f i physics:dgMeshEffect.obj
 0001:00046c90       ??0Iterator@?$dgTree@VdgEdge@@_J@@QAE@ABV1@@Z 10047c90 f i physics:dgMeshEffect.obj
 0001:00046cc0       ??1Iterator@?$dgTree@VdgEdge@@_J@@QAE@XZ 10047cc0 f i physics:dgMeshEffect.obj
 0001:00046cd0       ?Begin@Iterator@?$dgTree@VdgEdge@@_J@@QAEXXZ 10047cd0 f i physics:dgMeshEffect.obj
 0001:00046cf0       ?Set@Iterator@?$dgTree@VdgEdge@@_J@@QAEXQAVdgTreeNode@2@@Z 10047cf0 f i physics:dgMeshEffect.obj
 0001:00046d10       ??BIterator@?$dgTree@VdgEdge@@_J@@QBEHXZ 10047d10 f i physics:dgMeshEffect.obj
 0001:00046d30       ??EIterator@?$dgTree@VdgEdge@@_J@@QAEXH@Z 10047d30 f i physics:dgMeshEffect.obj
 0001:00046d80       ??DIterator@?$dgTree@VdgEdge@@_J@@QBEAAVdgEdge@@XZ 10047d80 f i physics:dgMeshEffect.obj
 0001:00046da0       ?GetNode@Iterator@?$dgTree@VdgEdge@@_J@@QBEPAVdgTreeNode@2@XZ 10047da0 f i physics:dgMeshEffect.obj
 0001:00046db0       ?GetInfo@dgTreeNode@?$dgTree@VdgEdge@@_J@@QAEAAVdgEdge@@XZ 10047db0 f i physics:dgMeshEffect.obj
 0001:00046dd0       ?Scale@?$dgTemplateVector@N@@QBE?AV1@N@Z 10047dd0 f i physics:dgMeshEffect.obj
 0001:00046e20       ??H?$dgTemplateVector@N@@QBE?AV0@ABV0@@Z 10047e20 f i physics:dgMeshEffect.obj
 0001:00046e80       ?GetCount@?$dgTree@VdgEdge@@_J@@QBEHXZ 10047e80 f i physics:dgMeshEffect.obj
 0001:00046e90       ?Minimum@?$dgTree@VdgEdge@@_J@@QBEPAVdgTreeNode@1@XZ 10047e90 f i physics:dgMeshEffect.obj
 0001:00046ec0       ?GetNodeFromInfo@?$dgTree@VdgEdge@@_J@@QBEPAVdgTreeNode@1@AAVdgEdge@@@Z 10047ec0 f i physics:dgMeshEffect.obj
 0001:00046f60       ?RemoveAll@?$dgTree@VdgEdge@@_J@@QAEXXZ 10047f60 f i physics:dgMeshEffect.obj
 0001:00046fa0       ??0?$dgStack@H@@QAE@H@Z    10047fa0 f i physics:dgMeshEffect.obj
 0001:00046fd0       ??1?$dgStack@H@@QAE@XZ     10047fd0 f i physics:dgMeshEffect.obj
 0001:00046ff0       ?GetSizeInBytes@?$dgStack@H@@QBEHXZ 10047ff0 f i physics:dgMeshEffect.obj
 0001:00047010       ??A?$dgStack@H@@QAEAAHH@Z  10048010 f i physics:dgMeshEffect.obj
 0001:00047090       ??0?$dgStack@VdgVector@@@@QAE@H@Z 10048090 f i physics:dgMeshEffect.obj
 0001:000470c0       ??1?$dgStack@VdgVector@@@@QAE@XZ 100480c0 f i physics:dgMeshEffect.obj
 0001:000470e0       ?GetElementsCount@?$dgStack@VdgVector@@@@QBEHXZ 100480e0 f i physics:dgMeshEffect.obj
 0001:00047100       ??A?$dgStack@VdgVector@@@@QAEAAVdgVector@@H@Z 10048100 f i physics:dgMeshEffect.obj
 0001:00047180       ??0?$dgStack@UdgVertexAtribute@dgMeshEffect@@@@QAE@H@Z 10048180 f i physics:dgMeshEffect.obj
 0001:000471b0       ??1?$dgStack@UdgVertexAtribute@dgMeshEffect@@@@QAE@XZ 100481b0 f i physics:dgMeshEffect.obj
 0001:000471d0       ??A?$dgStack@UdgVertexAtribute@dgMeshEffect@@@@QAEAAUdgVertexAtribute@dgMeshEffect@@H@Z 100481d0 f i physics:dgMeshEffect.obj
 0001:00047250       ??0?$dgStack@D@@QAE@H@Z    10048250 f i physics:dgMeshEffect.obj
 0001:00047280       ??1?$dgStack@D@@QAE@XZ     10048280 f i physics:dgMeshEffect.obj
 0001:000472a0       ?GetSizeInBytes@?$dgStack@D@@QBEHXZ 100482a0 f i physics:dgMeshEffect.obj
 0001:000472c0       ??A?$dgStack@D@@QAEAADH@Z  100482c0 f i physics:dgMeshEffect.obj
 0001:00047340       ??_EdgMeshEffect@@WBM@AEPAXI@Z 10048340 f i physics:dgMeshEffect.obj
 0001:00047350       ??0dgBigVector@@QAE@ABVdgVector@@@Z 10048350 f i physics:dgMeshEffect.obj
 0001:00047430       ??0dgBigVector@@QAE@ABV?$dgTemplateVector@N@@@Z 10048430 f i physics:dgMeshEffect.obj
 0001:000474f0       ?Evalue@dgBigPlane@@QBENABVdgBigVector@@@Z 100484f0 f i physics:dgMeshEffect.obj
 0001:00047530       ??4dgSphere@@QAEAAV0@ABVdgMatrix@@@Z 10048530 f i physics:dgMeshEffect.obj
 0001:000475d0       ?SetLRU@dgPolyhedra@@QBEXH@Z 100485d0 f i physics:dgMeshEffect.obj
 0001:00047600       ?AddFace@dgPolyhedra@@QAEPAVdgEdge@@HQBH@Z 10048600 f i physics:dgMeshEffect.obj
 0001:00047620       ??0dgRefCounter@@QAE@XZ    10048620 f i physics:dgMeshEffect.obj
 0001:00047650       ??_EdgRefCounter@@MAEPAXI@Z 10048650 f i physics:dgMeshEffect.obj
 0001:00047650       ??_GdgRefCounter@@MAEPAXI@Z 10048650 f i physics:dgMeshEffect.obj
 0001:00047680       ??1dgRefCounter@@MAE@XZ    10048680 f i physics:dgMeshEffect.obj
 0001:000476c0       ?AddRef@dgRefCounter@@QAEXXZ 100486c0 f i physics:dgMeshEffect.obj
 0001:000476e0       ??0?$dgTemplateVector@N@@QAE@NNNN@Z 100486e0 f i physics:dgMeshEffect.obj
 0001:00047720       ??A?$dgTemplateVector@N@@QAEAANH@Z 10048720 f i physics:dgMeshEffect.obj
 0001:00047790       ??G?$dgTemplateVector@N@@QBE?AV0@ABV0@@Z 10048790 f i physics:dgMeshEffect.obj
 0001:000477f0       ??L?$dgTemplateVector@N@@QBENABV0@@Z 100487f0 f i physics:dgMeshEffect.obj
 0001:00047830       ??0dgMeshEffect@@QAE@QAVdgMemoryAllocator@@QBMHHM@Z 10048830 f   physics:dgMeshEffect2.obj
 0001:00047b90       ?CreateConvexApproximationCollision@dgMeshEffect@@QBEPAVdgCollision@@QAVdgWorld@@HHH@Z 10048b90 f   physics:dgMeshEffect2.obj
 0001:000483b0       ??0Tetrahedralization@@QAE@AAVdgMeshEffect@@@Z 100493b0 f i physics:dgMeshEffect2.obj
 0001:00048490       ??0dgMissingEdges@Tetrahedralization@@QAE@QAVdgMemoryAllocator@@@Z 10049490 f i physics:dgMeshEffect2.obj
 0001:000484b0       ??0dgEdgeMap@Tetrahedralization@@QAE@QAVdgMemoryAllocator@@@Z 100494b0 f i physics:dgMeshEffect2.obj
 0001:000484d0       ??1Tetrahedralization@@UAE@XZ 100494d0 f i physics:dgMeshEffect2.obj
 0001:00048510       ??1dgMissingEdges@Tetrahedralization@@QAE@XZ 10049510 f i physics:dgMeshEffect2.obj
 0001:00048530       ??1dgEdgeMap@Tetrahedralization@@QAE@XZ 10049530 f i physics:dgMeshEffect2.obj
 0001:00048580       ?BuildTetrahedraEdgeList@Tetrahedralization@@QAEXXZ 10049580 f i physics:dgMeshEffect2.obj
 0001:000485c0       ?RecoverEdges@Tetrahedralization@@QAEXXZ 100495c0 f i physics:dgMeshEffect2.obj
 0001:00048a60       ?CreateIndexMap@Tetrahedralization@@QAEXXZ 10049a60 f i physics:dgMeshEffect2.obj
 0001:00048b00       ?ConvexCompareIndex@Tetrahedralization@@SAHQBVdgIndexMapPair@1@0QAX@Z 10049b00 f i physics:dgMeshEffect2.obj
 0001:00048b30       ?GetKey@Tetrahedralization@@QBE_KHH@Z 10049b30 f i physics:dgMeshEffect2.obj
 0001:00048b90       ?AddEdges@Tetrahedralization@@QAEXQAVdgListNode@?$dgList@VdgConvexHull4dTetraherum@@@@@Z 10049b90 f i physics:dgMeshEffect2.obj
 0001:00048c60       ?InsertNewNode@Tetrahedralization@@QAEXHHQAVdgListNode@?$dgList@VdgConvexHull4dTetraherum@@@@@Z 10049c60 f i physics:dgMeshEffect2.obj
 0001:00048d40       ??0dgEdgeSharedTetras@Tetrahedralization@@QAE@QAVdgMemoryAllocator@@@Z 10049d40 f i physics:dgMeshEffect2.obj
 0001:00048d60       ??1dgEdgeSharedTetras@Tetrahedralization@@QAE@XZ 10049d60 f i physics:dgMeshEffect2.obj
 0001:00048d80       ?AddFace@Tetrahedralization@@UAEPAVdgListNode@?$dgList@VdgConvexHull4dTetraherum@@@@HHHH@Z 10049d80 f i physics:dgMeshEffect2.obj
 0001:00048dc0       ?DeleteFace@Tetrahedralization@@UAEXQAVdgListNode@?$dgList@VdgConvexHull4dTetraherum@@@@@Z 10049dc0 f i physics:dgMeshEffect2.obj
 0001:00048e70       ?RemoveEdges@Tetrahedralization@@QAEXQAVdgListNode@?$dgList@VdgConvexHull4dTetraherum@@@@@Z 10049e70 f i physics:dgMeshEffect2.obj
 0001:00048f20       ?RemoveNode@Tetrahedralization@@QAEXHHQAVdgListNode@?$dgList@VdgConvexHull4dTetraherum@@@@@Z 10049f20 f i physics:dgMeshEffect2.obj
 0001:00049020       ?RecoverFaces@Tetrahedralization@@QAEXXZ 1004a020 f i physics:dgMeshEffect2.obj
 0001:00049920       ??0dgEdgeFaceKey@Tetrahedralization@@QAE@HHH@Z 1004a920 f i physics:dgMeshEffect2.obj
 0001:00049990       ??0dgFaceKeyMap@Tetrahedralization@@QAE@QAVdgMemoryAllocator@@@Z 1004a990 f i physics:dgMeshEffect2.obj
 0001:000499b0       ?RemoveDegeneratedTetras@Tetrahedralization@@QAEXXZ 1004a9b0 f i physics:dgMeshEffect2.obj
 0001:00049c00       ?RecoverFace@Tetrahedralization@@QBEXAAVdgMeshEffect@@QAVdgEdge@@HHAAV?$dgTree@PAVdgEdge@@PAV1@@@@Z 1004ac00 f i physics:dgMeshEffect2.obj
 0001:0004a450       ?MatchFace@Tetrahedralization@@QBE_NAAVdgMeshEffect@@QAVdgEdge@@H@Z 1004b450 f i physics:dgMeshEffect2.obj
 0001:0004a900       ??_GTetrahedralization@@UAEPAXI@Z 1004b900 f i physics:dgMeshEffect2.obj
 0001:0004a900       ??_ETetrahedralization@@UAEPAXI@Z 1004b900 f i physics:dgMeshEffect2.obj
 0001:0004a930       ??1dgFaceKeyMap@Tetrahedralization@@QAE@XZ 1004b930 f i physics:dgMeshEffect2.obj
 0001:0004a950       ??3?$dgList@VdgConvexHull4dTetraherum@@@@SAXPAX@Z 1004b950 f i physics:dgMeshEffect2.obj
 0001:0004a970       ?GetInfo@dgListNode@?$dgList@VdgConvexHull3DFace@@@@QAEAAVdgConvexHull3DFace@@XZ 1004b970 f i physics:dgMeshEffect2.obj
 0001:0004a980       ?GetNext@dgListNode@?$dgList@VdgConvexHull3DFace@@@@QBEPAV12@XZ 1004b980 f i physics:dgMeshEffect2.obj
 0001:0004a9a0       ?GetInfo@dgTreeNode@?$dgTree@VdgEdgeSharedTetras@Tetrahedralization@@_K@@QAEAAVdgEdgeSharedTetras@Tetrahedralization@@XZ 1004b9a0 f i physics:dgMeshEffect2.obj
 0001:0004a9c0       ?GetInfo@dgListNode@?$dgList@VdgConvexHull4dTetraherum@@@@QAEAAVdgConvexHull4dTetraherum@@XZ 1004b9c0 f i physics:dgMeshEffect2.obj
 0001:0004a9d0       ?GetNext@dgListNode@?$dgList@VdgConvexHull4dTetraherum@@@@QBEPAV12@XZ 1004b9d0 f i physics:dgMeshEffect2.obj
 0001:0004a9f0       ?GetInfo@dgListNode@?$dgList@PAVdgTreeNode@?$dgTree@VdgEdge@@_J@@@@QAEAAPAVdgTreeNode@?$dgTree@VdgEdge@@_J@@XZ 1004b9f0 f i physics:dgMeshEffect2.obj
 0001:0004aa00       ?GetInfo@dgListNode@?$dgList@PAVdgListNode@?$dgList@VdgConvexHull4dTetraherum@@@@@@QAEAAPAV1?$dgList@VdgConvexHull4dTetraherum@@@@XZ 1004ba00 f i physics:dgMeshEffect2.obj
 0001:0004aa10       ?GetNext@dgListNode@?$dgList@PAVdgListNode@?$dgList@VdgConvexHull4dTetraherum@@@@@@QBEPAV12@XZ 1004ba10 f i physics:dgMeshEffect2.obj
 0001:0004aa30       ??0Iterator@?$dgTree@PAVdgEdge@@PAV1@@@QAE@ABV1@@Z 1004ba30 f i physics:dgMeshEffect2.obj
 0001:0004aa60       ??1Iterator@?$dgTree@PAVdgEdge@@PAV1@@@QAE@XZ 1004ba60 f i physics:dgMeshEffect2.obj
 0001:0004aa70       ?Begin@Iterator@?$dgTree@PAVdgEdge@@PAV1@@@QAEXXZ 1004ba70 f i physics:dgMeshEffect2.obj
 0001:0004aa90       ??BIterator@?$dgTree@PAVdgEdge@@PAV1@@@QBEHXZ 1004ba90 f i physics:dgMeshEffect2.obj
 0001:0004aab0       ??EIterator@?$dgTree@PAVdgEdge@@PAV1@@@QAEXH@Z 1004bab0 f i physics:dgMeshEffect2.obj
 0001:0004ab00       ?GetNode@Iterator@?$dgTree@PAVdgEdge@@PAV1@@@QBEPAVdgTreeNode@2@XZ 1004bb00 f i physics:dgMeshEffect2.obj
 0001:0004ab10       ?GetInfo@dgTreeNode@?$dgTree@PAVdgEdge@@PAV1@@@QAEAAPAVdgEdge@@XZ 1004bb10 f i physics:dgMeshEffect2.obj
 0001:0004ab30       ?GetCount@?$dgList@VdgConvexHull3DFace@@@@QBEHXZ 1004bb30 f i physics:dgMeshEffect2.obj
 0001:0004ab40       ?GetFirst@?$dgList@VdgConvexHull3DFace@@@@QBEPAVdgListNode@1@XZ 1004bb40 f i physics:dgMeshEffect2.obj
 0001:0004ab60       ??0?$dgList@PAVdgTreeNode@?$dgTree@VdgEdge@@_J@@@@QAE@QAVdgMemoryAllocator@@@Z 1004bb60 f i physics:dgMeshEffect2.obj
 0001:0004aba0       ??1?$dgList@PAVdgTreeNode@?$dgTree@VdgEdge@@_J@@@@QAE@XZ 1004bba0 f i physics:dgMeshEffect2.obj
 0001:0004abc0       ?GetCount@?$dgList@PAVdgTreeNode@?$dgTree@VdgEdge@@_J@@@@QBEHXZ 1004bbc0 f i physics:dgMeshEffect2.obj
 0001:0004abd0       ?GetFirst@?$dgList@PAVdgTreeNode@?$dgTree@VdgEdge@@_J@@@@QBEPAVdgListNode@1@XZ 1004bbd0 f i physics:dgMeshEffect2.obj
 0001:0004abf0       ?Append@?$dgList@PAVdgTreeNode@?$dgTree@VdgEdge@@_J@@@@QAEPAVdgListNode@1@ABQAVdgTreeNode@?$dgTree@VdgEdge@@_J@@@Z 1004bbf0 f i physics:dgMeshEffect2.obj
 0001:0004acb0       ?Remove@?$dgList@PAVdgTreeNode@?$dgTree@VdgEdge@@_J@@@@QAEXQAVdgListNode@1@@Z 1004bcb0 f i physics:dgMeshEffect2.obj
 0001:0004ad00       ??0?$dgList@PAVdgListNode@?$dgList@VdgConvexHull4dTetraherum@@@@@@QAE@QAVdgMemoryAllocator@@@Z 1004bd00 f i physics:dgMeshEffect2.obj
 0001:0004ad40       ??1?$dgList@PAVdgListNode@?$dgList@VdgConvexHull4dTetraherum@@@@@@QAE@XZ 1004bd40 f i physics:dgMeshEffect2.obj
 0001:0004ad60       ?GetCount@?$dgList@PAVdgListNode@?$dgList@VdgConvexHull4dTetraherum@@@@@@QBEHXZ 1004bd60 f i physics:dgMeshEffect2.obj
 0001:0004ad70       ?GetFirst@?$dgList@PAVdgListNode@?$dgList@VdgConvexHull4dTetraherum@@@@@@QBEPAVdgListNode@1@XZ 1004bd70 f i physics:dgMeshEffect2.obj
 0001:0004ad90       ?Append@?$dgList@PAVdgListNode@?$dgList@VdgConvexHull4dTetraherum@@@@@@QAEPAVdgListNode@1@ABQAV2?$dgList@VdgConvexHull4dTetraherum@@@@@Z 1004bd90 f i physics:dgMeshEffect2.obj
 0001:0004ae50       ?Remove@?$dgList@PAVdgListNode@?$dgList@VdgConvexHull4dTetraherum@@@@@@QAEXQAVdgListNode@1@@Z 1004be50 f i physics:dgMeshEffect2.obj
 0001:0004aea0       ?RemoveAll@?$dgList@PAVdgListNode@?$dgList@VdgConvexHull4dTetraherum@@@@@@QAEXXZ 1004bea0 f i physics:dgMeshEffect2.obj
 0001:0004af60       ??0?$dgTree@VdgEdgeSharedTetras@Tetrahedralization@@_K@@QAE@QAVdgMemoryAllocator@@@Z 1004bf60 f i physics:dgMeshEffect2.obj
 0001:0004af90       ??1?$dgTree@VdgEdgeSharedTetras@Tetrahedralization@@_K@@QAE@XZ 1004bf90 f i physics:dgMeshEffect2.obj
 0001:0004afb0       ?GetRoot@?$dgTree@VdgEdgeSharedTetras@Tetrahedralization@@_K@@QBEPAVdgTreeNode@1@XZ 1004bfb0 f i physics:dgMeshEffect2.obj
 0001:0004afd0       ?Find@?$dgTree@VdgEdgeSharedTetras@Tetrahedralization@@_K@@QBEPAVdgTreeNode@1@_K@Z 1004bfd0 f i physics:dgMeshEffect2.obj
 0001:0004b110       ?Insert@?$dgTree@VdgEdgeSharedTetras@Tetrahedralization@@_K@@QAEPAVdgTreeNode@1@ABVdgEdgeSharedTetras@Tetrahedralization@@_K@Z 1004c110 f i physics:dgMeshEffect2.obj
 0001:0004b150       ?Remove@?$dgTree@VdgEdgeSharedTetras@Tetrahedralization@@_K@@QAEXQAVdgTreeNode@1@@Z 1004c150 f i physics:dgMeshEffect2.obj
 0001:0004b190       ??0?$dgTree@PAVdgListNode@?$dgList@VdgConvexHull4dTetraherum@@@@VdgEdgeFaceKey@Tetrahedralization@@@@QAE@QAVdgMemoryAllocator@@@Z 1004c190 f i physics:dgMeshEffect2.obj
 0001:0004b1c0       ??1?$dgTree@PAVdgListNode@?$dgList@VdgConvexHull4dTetraherum@@@@VdgEdgeFaceKey@Tetrahedralization@@@@QAE@XZ 1004c1c0 f i physics:dgMeshEffect2.obj
 0001:0004b1e0       ?Find@?$dgTree@PAVdgListNode@?$dgList@VdgConvexHull4dTetraherum@@@@VdgEdgeFaceKey@Tetrahedralization@@@@QBEPAVdgTreeNode@1@VdgEdgeFaceKey@Tetrahedralization@@@Z 1004c1e0 f i physics:dgMeshEffect2.obj
 0001:0004b310       ??MdgEdgeFaceKey@Tetrahedralization@@QBE_NABV01@@Z 1004c310 f i physics:dgMeshEffect2.obj
 0001:0004b340       ?Compared@dgEdgeFaceKey@Tetrahedralization@@QBEHABV12@@Z 1004c340 f i physics:dgMeshEffect2.obj
 0001:0004b3b0       ??OdgEdgeFaceKey@Tetrahedralization@@QBE_NABV01@@Z 1004c3b0 f i physics:dgMeshEffect2.obj
 0001:0004b3e0       ?Insert@?$dgTree@PAVdgListNode@?$dgList@VdgConvexHull4dTetraherum@@@@VdgEdgeFaceKey@Tetrahedralization@@@@QAEPAVdgTreeNode@1@ABQAVdgListNode@?$dgList@VdgConvexHull4dTetraherum@@@@VdgEdgeFaceKey@Tetrahedralization@@@Z 1004c3e0 f i physics:dgMeshEffect2.obj
 0001:0004b430       ??0?$dgArray@VdgIndexMapPair@Tetrahedralization@@@@QAE@HQAVdgMemoryAllocator@@@Z 1004c430 f i physics:dgMeshEffect2.obj
 0001:0004b470       ??1?$dgArray@VdgIndexMapPair@Tetrahedralization@@@@QAE@XZ 1004c470 f i physics:dgMeshEffect2.obj
 0001:0004b4a0       ??A?$dgArray@VdgIndexMapPair@Tetrahedralization@@@@QBEABVdgIndexMapPair@Tetrahedralization@@H@Z 1004c4a0 f i physics:dgMeshEffect2.obj
 0001:0004b500       ??A?$dgArray@VdgIndexMapPair@Tetrahedralization@@@@QAEAAVdgIndexMapPair@Tetrahedralization@@H@Z 1004c500 f i physics:dgMeshEffect2.obj
 0001:0004b560       ?GetAllocator@?$dgList@VdgConvexHull4dTetraherum@@@@QBEPAVdgMemoryAllocator@@XZ 1004c560 f i physics:dgMeshEffect2.obj
 0001:0004b580       ?GetCount@?$dgList@VdgConvexHull4dTetraherum@@@@QBEHXZ 1004c580 f i physics:dgMeshEffect2.obj
 0001:0004b590       ?GetFirst@?$dgList@VdgConvexHull4dTetraherum@@@@QBEPAVdgListNode@1@XZ 1004c590 f i physics:dgMeshEffect2.obj
 0001:0004b5b0       ?Scale4@?$dgTemplateVector@N@@QBE?AV1@N@Z 1004c5b0 f i physics:dgMeshEffect2.obj
 0001:0004b610       ?Add4@?$dgTemplateVector@N@@QBE?AV1@ABV1@@Z 1004c610 f i physics:dgMeshEffect2.obj
 0001:0004b670       ??0?$dgTree@PAVdgEdge@@PAV1@@@QAE@QAVdgMemoryAllocator@@@Z 1004c670 f i physics:dgMeshEffect2.obj
 0001:0004b6a0       ??1?$dgTree@PAVdgEdge@@PAV1@@@QAE@XZ 1004c6a0 f i physics:dgMeshEffect2.obj
 0001:0004b6c0       ?GetCount@?$dgTree@PAVdgEdge@@PAV1@@@QBEHXZ 1004c6c0 f i physics:dgMeshEffect2.obj
 0001:0004b6d0       ?Minimum@?$dgTree@PAVdgEdge@@PAV1@@@QBEPAVdgTreeNode@1@XZ 1004c6d0 f i physics:dgMeshEffect2.obj
 0001:0004b700       ?Find@?$dgTree@PAVdgEdge@@PAV1@@@QBEPAVdgTreeNode@1@PAVdgEdge@@@Z 1004c700 f i physics:dgMeshEffect2.obj
 0001:0004b820       ?Insert@?$dgTree@PAVdgEdge@@PAV1@@@QAEPAVdgTreeNode@1@ABQAVdgEdge@@PAV3@@Z 1004c820 f i physics:dgMeshEffect2.obj
 0001:0004b860       ??$dgSort@VdgIndexMapPair@Tetrahedralization@@@@YAXQAVdgIndexMapPair@Tetrahedralization@@HP6AHQBV01@1QAX@Z2@Z 1004c860 f i physics:dgMeshEffect2.obj
 0001:0004bc30       ??0?$dgStack@PAVdgCollision@@@@QAE@H@Z 1004cc30 f i physics:dgMeshEffect2.obj
 0001:0004bc60       ??1?$dgStack@PAVdgCollision@@@@QAE@XZ 1004cc60 f i physics:dgMeshEffect2.obj
 0001:0004bc80       ??A?$dgStack@PAVdgCollision@@@@QAEAAPAVdgCollision@@H@Z 1004cc80 f i physics:dgMeshEffect2.obj
 0001:0004bd00       ??_GdgListNode@?$dgList@PAVdgTreeNode@?$dgTree@VdgEdge@@_J@@@@AAEPAXI@Z 1004cd00 f i physics:dgMeshEffect2.obj
 0001:0004bd30       ??_GdgListNode@?$dgList@PAVdgListNode@?$dgList@VdgConvexHull4dTetraherum@@@@@@AAEPAXI@Z 1004cd30 f i physics:dgMeshEffect2.obj
 0001:0004bd60       ?GetLeft@dgTreeNode@?$dgTree@VdgEdgeSharedTetras@Tetrahedralization@@_K@@ABEPAV12@XZ 1004cd60 f i physics:dgMeshEffect2.obj
 0001:0004bd70       ?GetRight@dgTreeNode@?$dgTree@VdgEdgeSharedTetras@Tetrahedralization@@_K@@ABEPAV12@XZ 1004cd70 f i physics:dgMeshEffect2.obj
 0001:0004bd90       ??2dgListNode@?$dgList@PAVdgTreeNode@?$dgTree@VdgEdge@@_J@@@@CAPAXIQAVdgMemoryAllocator@@@Z 1004cd90 f i physics:dgMeshEffect2.obj
 0001:0004bdb0       ??3dgListNode@?$dgList@PAVdgTreeNode@?$dgTree@VdgEdge@@_J@@@@CAXPAX@Z 1004cdb0 f i physics:dgMeshEffect2.obj
 0001:0004bdd0       ??0dgListNode@?$dgList@PAVdgTreeNode@?$dgTree@VdgEdge@@_J@@@@AAE@ABQAVdgTreeNode@?$dgTree@VdgEdge@@_J@@QAV01@1@Z 1004cdd0 f i physics:dgMeshEffect2.obj
 0001:0004be60       ??1dgListNode@?$dgList@PAVdgTreeNode@?$dgTree@VdgEdge@@_J@@@@AAE@XZ 1004ce60 f i physics:dgMeshEffect2.obj
 0001:0004be70       ??2dgListNode@?$dgList@PAVdgListNode@?$dgList@VdgConvexHull4dTetraherum@@@@@@CAPAXIQAVdgMemoryAllocator@@@Z 1004ce70 f i physics:dgMeshEffect2.obj
 0001:0004be90       ??3dgListNode@?$dgList@PAVdgListNode@?$dgList@VdgConvexHull4dTetraherum@@@@@@CAXPAX@Z 1004ce90 f i physics:dgMeshEffect2.obj
 0001:0004beb0       ??0dgListNode@?$dgList@PAVdgListNode@?$dgList@VdgConvexHull4dTetraherum@@@@@@AAE@ABQAV0?$dgList@VdgConvexHull4dTetraherum@@@@QAV01@1@Z 1004ceb0 f i physics:dgMeshEffect2.obj
 0001:0004bf40       ??1dgListNode@?$dgList@PAVdgListNode@?$dgList@VdgConvexHull4dTetraherum@@@@@@AAE@XZ 1004cf40 f i physics:dgMeshEffect2.obj
 0001:0004bf50       ?Unlink@dgListNode@?$dgList@PAVdgListNode@?$dgList@VdgConvexHull4dTetraherum@@@@@@AAEXXZ 1004cf50 f i physics:dgMeshEffect2.obj
 0001:0004bfa0       ?GetLeft@dgTreeNode@?$dgTree@PAVdgEdge@@PAV1@@@ABEPAV12@XZ 1004cfa0 f i physics:dgMeshEffect2.obj
 0001:0004bfb0       ?GetRight@dgTreeNode@?$dgTree@PAVdgEdge@@PAV1@@@ABEPAV12@XZ 1004cfb0 f i physics:dgMeshEffect2.obj
 0001:0004bfd0       ?GetLeft@dgTreeNode@?$dgTree@PAVdgListNode@?$dgList@VdgConvexHull4dTetraherum@@@@VdgEdgeFaceKey@Tetrahedralization@@@@ABEPAV12@XZ 1004cfd0 f i physics:dgMeshEffect2.obj
 0001:0004bfe0       ?GetRight@dgTreeNode@?$dgTree@PAVdgListNode@?$dgList@VdgConvexHull4dTetraherum@@@@VdgEdgeFaceKey@Tetrahedralization@@@@ABEPAV12@XZ 1004cfe0 f i physics:dgMeshEffect2.obj
 0001:0004c000       ?RemoveAll@?$dgList@PAVdgTreeNode@?$dgTree@VdgEdge@@_J@@@@QAEXXZ 1004d000 f i physics:dgMeshEffect2.obj
 0001:0004c0c0       ?Unlink@?$dgList@PAVdgTreeNode@?$dgTree@VdgEdge@@_J@@@@QAEXQAVdgListNode@1@@Z 1004d0c0 f i physics:dgMeshEffect2.obj
 0001:0004c170       ?Unlink@?$dgList@PAVdgListNode@?$dgList@VdgConvexHull4dTetraherum@@@@@@QAEXQAVdgListNode@1@@Z 1004d170 f i physics:dgMeshEffect2.obj
 0001:0004c220       ?Insert@?$dgTree@VdgEdgeSharedTetras@Tetrahedralization@@_K@@QAEPAVdgTreeNode@1@ABVdgEdgeSharedTetras@Tetrahedralization@@_KAA_N@Z 1004d220 f i physics:dgMeshEffect2.obj
 0001:0004c440       ?RemoveAll@?$dgTree@VdgEdgeSharedTetras@Tetrahedralization@@_K@@QAEXXZ 1004d440 f i physics:dgMeshEffect2.obj
 0001:0004c480       ?CompareKeys@?$dgTree@VdgEdgeSharedTetras@Tetrahedralization@@_K@@ABEHAB_K0@Z 1004d480 f i physics:dgMeshEffect2.obj
 0001:0004c4f0       ?Insert@?$dgTree@PAVdgListNode@?$dgList@VdgConvexHull4dTetraherum@@@@VdgEdgeFaceKey@Tetrahedralization@@@@QAEPAVdgTreeNode@1@ABQAVdgListNode@?$dgList@VdgConvexHull4dTetraherum@@@@VdgEdgeFaceKey@Tetrahedralization@@AA_N@Z 1004d4f0 f i physics:dgMeshEffect2.obj
 0001:0004c700       ?RemoveAll@?$dgTree@PAVdgListNode@?$dgList@VdgConvexHull4dTetraherum@@@@VdgEdgeFaceKey@Tetrahedralization@@@@QAEXXZ 1004d700 f i physics:dgMeshEffect2.obj
 0001:0004c740       ?CompareKeys@?$dgTree@PAVdgListNode@?$dgList@VdgConvexHull4dTetraherum@@@@VdgEdgeFaceKey@Tetrahedralization@@@@ABEHABVdgEdgeFaceKey@Tetrahedralization@@0@Z 1004d740 f i physics:dgMeshEffect2.obj
 0001:0004c790       ?Resize@?$dgArray@VdgIndexMapPair@Tetrahedralization@@@@QBEXH@Z 1004d790 f i physics:dgMeshEffect2.obj
 0001:0004c900       ?Insert@?$dgTree@PAVdgEdge@@PAV1@@@QAEPAVdgTreeNode@1@ABQAVdgEdge@@PAV3@AA_N@Z 1004d900 f i physics:dgMeshEffect2.obj
 0001:0004cb00       ?RemoveAll@?$dgTree@PAVdgEdge@@PAV1@@@QAEXXZ 1004db00 f i physics:dgMeshEffect2.obj
 0001:0004cb40       ?CompareKeys@?$dgTree@PAVdgEdge@@PAV1@@@ABEHABQAVdgEdge@@0@Z 1004db40 f i physics:dgMeshEffect2.obj
 0001:0004cb80       ??0dgTreeNode@?$dgTree@VdgEdgeSharedTetras@Tetrahedralization@@_K@@AAE@ABVdgEdgeSharedTetras@Tetrahedralization@@AB_KPAV01@@Z 1004db80 f i physics:dgMeshEffect2.obj
 0001:0004cc00       ??0dgEdgeSharedTetras@Tetrahedralization@@QAE@ABV01@@Z 1004dc00 f i physics:dgMeshEffect2.obj
 0001:0004cc30       ?GetAllocator@?$dgList@PAVdgListNode@?$dgList@VdgConvexHull4dTetraherum@@@@@@QBEPAVdgMemoryAllocator@@XZ 1004dc30 f i physics:dgMeshEffect2.obj
 0001:0004cc50       ?Unlink@dgListNode@?$dgList@PAVdgTreeNode@?$dgTree@VdgEdge@@_J@@@@AAEXXZ 1004dc50 f i physics:dgMeshEffect2.obj
 0001:0004cca0       ?GetNext@dgListNode@?$dgList@PAVdgTreeNode@?$dgTree@VdgEdge@@_J@@@@QBEPAV12@XZ 1004dca0 f i physics:dgMeshEffect2.obj
 0001:0004ccc0       ?GetPrev@dgListNode@?$dgList@PAVdgTreeNode@?$dgTree@VdgEdge@@_J@@@@QBEPAV12@XZ 1004dcc0 f i physics:dgMeshEffect2.obj
 0001:0004cce0       ?GetPrev@dgListNode@?$dgList@PAVdgListNode@?$dgList@VdgConvexHull4dTetraherum@@@@@@QBEPAV12@XZ 1004dce0 f i physics:dgMeshEffect2.obj
 0001:0004cd00       ??0dgTreeNode@?$dgTree@PAVdgEdge@@PAV1@@@AAE@ABQAVdgEdge@@0PAV01@@Z 1004dd00 f i physics:dgMeshEffect2.obj
 0001:0004cd70       ??0dgTreeNode@?$dgTree@PAVdgListNode@?$dgList@VdgConvexHull4dTetraherum@@@@VdgEdgeFaceKey@Tetrahedralization@@@@AAE@ABQAVdgListNode@?$dgList@VdgConvexHull4dTetraherum@@@@ABVdgEdgeFaceKey@Tetrahedralization@@PAV01@@Z 1004dd70 f i physics:dgMeshEffect2.obj
 0001:0004cdf0       ?GetVertexCount@dgConvexHull3d@@QBEHXZ 1004ddf0 f i physics:dgMeshEffect2.obj
 0001:0004ce10       ?GetVertex@dgConvexHull3d@@QBEABVdgVector@@H@Z 1004de10 f i physics:dgMeshEffect2.obj
 0001:0004ce30       ?GetMark@dgConvexHull4dTetraherum@@QBEHXZ 1004de30 f i physics:dgMeshEffect2.obj
 0001:0004ce50       ?SetMark@dgConvexHull4dTetraherum@@QAEXH@Z 1004de50 f i physics:dgMeshEffect2.obj
 0001:0004ce70       ?IncMark@dgConvexHull4d@@QAEHXZ 1004de70 f i physics:dgMeshEffect2.obj
 0001:0004ce90       ?GetVertexCount@dgConvexHull4d@@QBEHXZ 1004de90 f i physics:dgMeshEffect2.obj
 0001:0004ceb0       ?GetVertexIndex@dgConvexHull4d@@QBEHH@Z 1004deb0 f i physics:dgMeshEffect2.obj
 0001:0004cf30       ?GetVertex@dgConvexHull4d@@QBEABVdgBigVector@@H@Z 1004df30 f i physics:dgMeshEffect2.obj
 0001:0004cfa0       ??A?$dgArray@VdgVector@@@@QBEABVdgVector@@H@Z 1004dfa0 f i physics:dgMeshEffect2.obj
 0001:0004d000       ??A?$dgArray@VdgHullVector@@@@QBEABVdgHullVector@@H@Z 1004e000 f i physics:dgMeshEffect2.obj
 0001:0004d060       ?Resize@?$dgArray@VdgVector@@@@QBEXH@Z 1004e060 f i physics:dgMeshEffect2.obj
 0001:0004d1f0       ?Resize@?$dgArray@VdgHullVector@@@@QBEXH@Z 1004e1f0 f i physics:dgMeshEffect2.obj
 0001:0004d360       ??0dgCollisionConvexIntance@dgCollisionCompoundBreakable@@QAE@PAVdgConvexCollision@@PAVdgListNode@?$dgList@V?$dgGraphNode@VdgDebriNodeInfo@dgCollisionCompoundBreakable@@VdgSharedNodeMesh@2@@@@@M@Z 1004e360 f   physics:dgCollisionCompoundBreakable.obj
 0001:0004d4b0       ??0dgCollisionConvexIntance@dgCollisionCompoundBreakable@@QAE@ABV01@PAVdgListNode@?$dgList@V?$dgGraphNode@VdgDebriNodeInfo@dgCollisionCompoundBreakable@@VdgSharedNodeMesh@2@@@@@@Z 1004e4b0 f   physics:dgCollisionCompoundBreakable.obj
 0001:0004d590       ??0dgCollisionConvexIntance@dgCollisionCompoundBreakable@@QAE@QAVdgWorld@@P6AXPAX1I@ZQAX@Z 1004e590 f   physics:dgCollisionCompoundBreakable.obj
 0001:0004d680       ??1dgCollisionConvexIntance@dgCollisionCompoundBreakable@@UAE@XZ 1004e680 f   physics:dgCollisionCompoundBreakable.obj
 0001:0004d6c0       ?GetVolume@dgCollisionConvexIntance@dgCollisionCompoundBreakable@@MBEMXZ 1004e6c0 f   physics:dgCollisionCompoundBreakable.obj
 0001:0004d6f0       ?OOBBTest@dgCollisionConvexIntance@dgCollisionCompoundBreakable@@MBE_NABVdgMatrix@@QBVdgConvexCollision@@QAX@Z 1004e6f0 f   physics:dgCollisionCompoundBreakable.obj
 0001:0004d730       ?SupportVertex@dgCollisionConvexIntance@dgCollisionCompoundBreakable@@MBE?AVdgVector@@ABV3@@Z 1004e730 f   physics:dgCollisionCompoundBreakable.obj
 0001:0004d770       ?SupportVertexSimd@dgCollisionConvexIntance@dgCollisionCompoundBreakable@@MBE?AVdgVector@@ABV3@@Z 1004e770 f   physics:dgCollisionCompoundBreakable.obj
 0001:0004d7b0       ?CalcAABB@dgCollisionConvexIntance@dgCollisionCompoundBreakable@@MBEXABVdgMatrix@@AAVdgVector@@1@Z 1004e7b0 f   physics:dgCollisionCompoundBreakable.obj
 0001:0004d7f0       ?CalcAABBSimd@dgCollisionConvexIntance@dgCollisionCompoundBreakable@@MBEXABVdgMatrix@@AAVdgVector@@1@Z 1004e7f0 f   physics:dgCollisionCompoundBreakable.obj
 0001:0004d830       ?DebugCollision@dgCollisionConvexIntance@dgCollisionCompoundBreakable@@MBEXABVdgMatrix@@P6AXPAXHPBMH@ZQAX@Z 1004e830 f   physics:dgCollisionCompoundBreakable.obj
 0001:0004d870       ?RayCast@dgCollisionConvexIntance@dgCollisionCompoundBreakable@@MBEMABVdgVector@@0AAVdgContactPoint@@P6AIQBVdgBody@@QBVdgCollision@@QAX@Z24@Z 1004e870 f   physics:dgCollisionCompoundBreakable.obj
 0001:0004d8b0       ?RayCastSimd@dgCollisionConvexIntance@dgCollisionCompoundBreakable@@MBEMABVdgVector@@0AAVdgContactPoint@@P6AIQBVdgBody@@QBVdgCollision@@QAX@Z24@Z 1004e8b0 f   physics:dgCollisionCompoundBreakable.obj
 0001:0004d8f0       ?CalculateVolumeIntegral@dgCollisionConvexIntance@dgCollisionCompoundBreakable@@MBE?AVdgVector@@ABVdgMatrix@@P6AIPAX10AAVdgPlane@@@ZQAX@Z 1004e8f0 f   physics:dgCollisionCompoundBreakable.obj
 0001:0004d930       ?CalculateSignature@dgCollisionConvexIntance@dgCollisionCompoundBreakable@@EBEHXZ 1004e930 f   physics:dgCollisionCompoundBreakable.obj
 0001:0004d940       ?SetCollisionBBox@dgCollisionConvexIntance@dgCollisionCompoundBreakable@@EAEXABVdgVector@@0@Z 1004e940 f   physics:dgCollisionCompoundBreakable.obj
 0001:0004d970       ?GetBoxMinRadius@dgCollisionConvexIntance@dgCollisionCompoundBreakable@@EBEMXZ 1004e970 f   physics:dgCollisionCompoundBreakable.obj
 0001:0004d9a0       ?GetBoxMaxRadius@dgCollisionConvexIntance@dgCollisionCompoundBreakable@@EBEMXZ 1004e9a0 f   physics:dgCollisionCompoundBreakable.obj
 0001:0004d9d0       ?CalculatePlaneIntersection@dgCollisionConvexIntance@dgCollisionCompoundBreakable@@EBEHABVdgVector@@0QAV3@@Z 1004e9d0 f   physics:dgCollisionCompoundBreakable.obj
 0001:0004da10       ?CalculatePlaneIntersectionSimd@dgCollisionConvexIntance@dgCollisionCompoundBreakable@@EBEHABVdgVector@@0QAV3@@Z 1004ea10 f   physics:dgCollisionCompoundBreakable.obj
 0001:0004da50       ?GetCollisionInfo@dgCollisionConvexIntance@dgCollisionCompoundBreakable@@EBEXPAVdgCollisionInfo@@@Z 1004ea50 f   physics:dgCollisionCompoundBreakable.obj
 0001:0004da80       ?Serialize@dgCollisionConvexIntance@dgCollisionCompoundBreakable@@EBEXP6AXPAXPBXI@ZQAX@Z 1004ea80 f   physics:dgCollisionCompoundBreakable.obj
 0001:0004db10       ?SetBreakImpulse@dgCollisionConvexIntance@dgCollisionCompoundBreakable@@EAEXM@Z 1004eb10 f   physics:dgCollisionCompoundBreakable.obj
 0001:0004db30       ?GetBreakImpulse@dgCollisionConvexIntance@dgCollisionCompoundBreakable@@EBEMXZ 1004eb30 f   physics:dgCollisionCompoundBreakable.obj
 0001:0004db50       ??0dgVertexBuffer@dgCollisionCompoundBreakable@@QAE@HPAVdgMemoryAllocator@@@Z 1004eb50 f   physics:dgCollisionCompoundBreakable.obj
 0001:0004dbe0       ??1dgVertexBuffer@dgCollisionCompoundBreakable@@UAE@XZ 1004ebe0 f   physics:dgCollisionCompoundBreakable.obj
 0001:0004dc40       ??0dgVertexBuffer@dgCollisionCompoundBreakable@@QAE@QAVdgMemoryAllocator@@P6AXPAX1I@ZQAX@Z 1004ec40 f   physics:dgCollisionCompoundBreakable.obj
 0001:0004dd30       ?Serialize@dgVertexBuffer@dgCollisionCompoundBreakable@@QBEXP6AXPAXPBXI@ZQAX@Z 1004ed30 f   physics:dgCollisionCompoundBreakable.obj
 0001:0004ddb0       ?GetVertexStreams@dgVertexBuffer@dgCollisionCompoundBreakable@@QBEXHPAMH0H0@Z 1004edb0 f   physics:dgCollisionCompoundBreakable.obj
 0001:0004df00       ??0dgSubMesh@dgCollisionCompoundBreakable@@QAE@QAVdgMemoryAllocator@@@Z 1004ef00 f   physics:dgCollisionCompoundBreakable.obj
 0001:0004df50       ??1dgSubMesh@dgCollisionCompoundBreakable@@QAE@XZ 1004ef50 f   physics:dgCollisionCompoundBreakable.obj
 0001:0004df80       ?Serialize@dgSubMesh@dgCollisionCompoundBreakable@@QBEXP6AXPAXPBXI@ZQAX@Z 1004ef80 f   physics:dgCollisionCompoundBreakable.obj
 0001:0004e000       ??0dgMesh@dgCollisionCompoundBreakable@@QAE@QAVdgMemoryAllocator@@@Z 1004f000 f   physics:dgCollisionCompoundBreakable.obj
 0001:0004e040       ??1dgMesh@dgCollisionCompoundBreakable@@UAE@XZ 1004f040 f   physics:dgCollisionCompoundBreakable.obj
 0001:0004e070       ??0dgMesh@dgCollisionCompoundBreakable@@QAE@QAVdgMemoryAllocator@@P6AXPAX1I@ZQAX@Z 1004f070 f   physics:dgCollisionCompoundBreakable.obj
 0001:0004e170       ?Serialize@dgMesh@dgCollisionCompoundBreakable@@QBEXP6AXPAXPBXI@ZQAX@Z 1004f170 f   physics:dgCollisionCompoundBreakable.obj
 0001:0004e1f0       ?AddgSubMesh@dgMesh@dgCollisionCompoundBreakable@@QAEPAVdgSubMesh@2@HH@Z 1004f1f0 f   physics:dgCollisionCompoundBreakable.obj
 0001:0004e290       ??0dgDebriNodeInfo@dgCollisionCompoundBreakable@@QAE@XZ 1004f290 f   physics:dgCollisionCompoundBreakable.obj
 0001:0004e2d0       ??1dgDebriNodeInfo@dgCollisionCompoundBreakable@@QAE@XZ 1004f2d0 f   physics:dgCollisionCompoundBreakable.obj
 0001:0004e310       ??0dgSharedNodeMesh@dgCollisionCompoundBreakable@@QAE@XZ 1004f310 f   physics:dgCollisionCompoundBreakable.obj
 0001:0004e320       ??1dgSharedNodeMesh@dgCollisionCompoundBreakable@@QAE@XZ 1004f320 f   physics:dgCollisionCompoundBreakable.obj
 0001:0004e330       ??0dgDebriGraph@dgCollisionCompoundBreakable@@QAE@QAVdgMemoryAllocator@@@Z 1004f330 f   physics:dgCollisionCompoundBreakable.obj
 0001:0004e350       ??0dgDebriGraph@dgCollisionCompoundBreakable@@QAE@QAVdgMemoryAllocator@@P6AXPAX1I@ZQAX@Z 1004f350 f   physics:dgCollisionCompoundBreakable.obj
 0001:0004e530       ??0dgDebriGraph@dgCollisionCompoundBreakable@@QAE@ABV01@@Z 1004f530 f   physics:dgCollisionCompoundBreakable.obj
 0001:0004e6f0       ??1dgDebriGraph@dgCollisionCompoundBreakable@@QAE@XZ 1004f6f0 f   physics:dgCollisionCompoundBreakable.obj
 0001:0004e710       ?Serialize@dgDebriGraph@dgCollisionCompoundBreakable@@QBEXP6AXPAXPBXI@ZQAX@Z 1004f710 f   physics:dgCollisionCompoundBreakable.obj
 0001:0004e930       ?AddNode@dgDebriGraph@dgCollisionCompoundBreakable@@QAEXAAVdgFlatVertexArray@2@PAVdgMeshEffect@@HHMM@Z 1004f930 f   physics:dgCollisionCompoundBreakable.obj
 0001:0004e970       ?AddMeshes@dgDebriGraph@dgCollisionCompoundBreakable@@QAEXAAVdgFlatVertexArray@2@HQBQBVdgMeshEffect@@QBHQBM2M@Z 1004f970 f   physics:dgCollisionCompoundBreakable.obj
 0001:0004e9f0       ??0dgCollisionCompoundBreakable@@QAE@HQBQBVdgMeshEffect@@QBHQBM1HMPAVdgWorld@@@Z 1004f9f0 f   physics:dgCollisionCompoundBreakable.obj
 0001:0004f750       ??0dgCollisionCompoundBreakable@@QAE@ABV0@@Z 10050750 f   physics:dgCollisionCompoundBreakable.obj
 0001:0004fcb0       ??0dgCollisionCompoundBreakable@@QAE@QAVdgWorld@@P6AXPAX1I@ZQAX@Z 10050cb0 f   physics:dgCollisionCompoundBreakable.obj
 0001:0004fec0       ??1dgCollisionCompoundBreakable@@UAE@XZ 10050ec0 f   physics:dgCollisionCompoundBreakable.obj
 0001:0004ff50       ?LinkNodes@dgCollisionCompoundBreakable@@AAEXXZ 10050f50 f   physics:dgCollisionCompoundBreakable.obj
 0001:00050060       ?Serialize@dgCollisionCompoundBreakable@@EBEXP6AXPAXPBXI@ZQAX@Z 10051060 f   physics:dgCollisionCompoundBreakable.obj
 0001:00050130       ?GetCollisionInfo@dgCollisionCompoundBreakable@@EBEXPAVdgCollisionInfo@@@Z 10051130 f   physics:dgCollisionCompoundBreakable.obj
 0001:00050160       ?GetSegmentIndexStreamShort@dgCollisionCompoundBreakable@@QBEHQAVdgListNode@?$dgList@V?$dgGraphNode@VdgDebriNodeInfo@dgCollisionCompoundBreakable@@VdgSharedNodeMesh@2@@@@@PAV2?$dgList@VdgSubMesh@dgCollisionCompoundBreakable@@@@QAF@Z 10051160 f   physics:dgCollisionCompoundBreakable.obj
 0001:000502a0       ?GetSegmentIndexStream@dgCollisionCompoundBreakable@@QBEHQAVdgListNode@?$dgList@V?$dgGraphNode@VdgDebriNodeInfo@dgCollisionCompoundBreakable@@VdgSharedNodeMesh@2@@@@@PAV2?$dgList@VdgSubMesh@dgCollisionCompoundBreakable@@@@QAH@Z 100512a0 f   physics:dgCollisionCompoundBreakable.obj
 0001:000503d0       ?GetSegmentsInRadius@dgCollisionCompoundBreakable@@QAEHABVdgVector@@MPAPAVdgListNode@?$dgList@V?$dgGraphNode@VdgDebriNodeInfo@dgCollisionCompoundBreakable@@VdgSharedNodeMesh@2@@@@@H@Z 100513d0 f   physics:dgCollisionCompoundBreakable.obj
 0001:000506e0       ?EnumerateIslands@dgCollisionCompoundBreakable@@QAEXXZ 100516e0 f   physics:dgCollisionCompoundBreakable.obj
 0001:000508e0       ?ResetAnchor@dgCollisionCompoundBreakable@@QAEXXZ 100518e0 f   physics:dgCollisionCompoundBreakable.obj
 0001:00050950       ?SetAnchoredParts@dgCollisionCompoundBreakable@@QAEXHQBVdgMatrix@@PAPBVdgCollision@@@Z 10051950 f   physics:dgCollisionCompoundBreakable.obj
 0001:00050c60       ?DeleteComponent@dgCollisionCompoundBreakable@@QAEXPAVdgListNode@?$dgList@V?$dgGraphNode@VdgDebriNodeInfo@dgCollisionCompoundBreakable@@VdgSharedNodeMesh@2@@@@@@Z 10051c60 f   physics:dgCollisionCompoundBreakable.obj
 0001:00050ef0       ?CreateComponentBody@dgCollisionCompoundBreakable@@QBEPAVdgBody@@PAVdgListNode@?$dgList@V?$dgGraphNode@VdgDebriNodeInfo@dgCollisionCompoundBreakable@@VdgSharedNodeMesh@2@@@@@@Z 10051ef0 f   physics:dgCollisionCompoundBreakable.obj
 0001:00050f30       ?DeleteComponentBegin@dgCollisionCompoundBreakable@@QAEXXZ 10051f30 f   physics:dgCollisionCompoundBreakable.obj
 0001:00050f60       ?DeleteComponentEnd@dgCollisionCompoundBreakable@@QAEXXZ 10051f60 f   physics:dgCollisionCompoundBreakable.obj
 0001:00051420       ??_EdgCollisionConvexIntance@dgCollisionCompoundBreakable@@UAEPAXI@Z 10052420 f i physics:dgCollisionCompoundBreakable.obj
 0001:00051420       ??_GdgCollisionConvexIntance@dgCollisionCompoundBreakable@@UAEPAXI@Z 10052420 f i physics:dgCollisionCompoundBreakable.obj
 0001:00051450       ??_EdgVertexBuffer@dgCollisionCompoundBreakable@@UAEPAXI@Z 10052450 f i physics:dgCollisionCompoundBreakable.obj
 0001:00051450       ??_GdgVertexBuffer@dgCollisionCompoundBreakable@@UAEPAXI@Z 10052450 f i physics:dgCollisionCompoundBreakable.obj
 0001:00051480       ??3dgVertexBuffer@dgCollisionCompoundBreakable@@SAXPAX@Z 10052480 f i physics:dgCollisionCompoundBreakable.obj
 0001:000514a0       ??_GdgMesh@dgCollisionCompoundBreakable@@UAEPAXI@Z 100524a0 f i physics:dgCollisionCompoundBreakable.obj
 0001:000514a0       ??_EdgMesh@dgCollisionCompoundBreakable@@UAEPAXI@Z 100524a0 f i physics:dgCollisionCompoundBreakable.obj
 0001:000514d0       ?SetAsTriggerVolume@dgCollision@@UAEX_N@Z 100524d0 f i physics:dgCollisionCompoundBreakable.obj
 0001:000514e0       ?IsTriggerVolume@dgCollision@@UBE_NXZ 100524e0 f i physics:dgCollisionCompoundBreakable.obj
 0001:000514f0       ??0dgFlatVertexArray@dgCollisionCompoundBreakable@@QAE@QAVdgMemoryAllocator@@@Z 100524f0 f i physics:dgCollisionCompoundBreakable.obj
 0001:00051520       ??2dgVertexBuffer@dgCollisionCompoundBreakable@@SAPAXIQAVdgMemoryAllocator@@@Z 10052520 f i physics:dgCollisionCompoundBreakable.obj
 0001:00051540       ??0dgIsland@dgCollisionCompoundBreakable@@QAE@QAVdgMemoryAllocator@@@Z 10052540 f i physics:dgCollisionCompoundBreakable.obj
 0001:00051560       ??_EdgCollisionCompoundBreakable@@UAEPAXI@Z 10052560 f i physics:dgCollisionCompoundBreakable.obj
 0001:00051560       ??_GdgCollisionCompoundBreakable@@UAEPAXI@Z 10052560 f i physics:dgCollisionCompoundBreakable.obj
 0001:00051590       ??1dgFlatVertexArray@dgCollisionCompoundBreakable@@QAE@XZ 10052590 f i physics:dgCollisionCompoundBreakable.obj
 0001:000515b0       ??1dgIsland@dgCollisionCompoundBreakable@@QAE@XZ 100525b0 f i physics:dgCollisionCompoundBreakable.obj
 0001:000515d0       ??2?$dgList@VdgSubMesh@dgCollisionCompoundBreakable@@@@SAPAXIQAVdgMemoryAllocator@@@Z 100525d0 f i physics:dgCollisionCompoundBreakable.obj
 0001:000515f0       ??3?$dgList@VdgSubMesh@dgCollisionCompoundBreakable@@@@SAXPAX@Z 100525f0 f i physics:dgCollisionCompoundBreakable.obj
 0001:00051610       ?GetInfo@dgTreeNode@?$dgTree@PAVdgListNode@?$dgList@V?$dgGraphNode@VdgDebriNodeInfo@dgCollisionCompoundBreakable@@VdgSharedNodeMesh@2@@@@@PAV12@@@QAEAAPAVdgListNode@?$dgList@V?$dgGraphNode@VdgDebriNodeInfo@dgCollisionCompoundBreakable@@VdgSharedNodeMesh@2@@@@@XZ 10052610 f i physics:dgCollisionCompoundBreakable.obj
 0001:00051630       ?GetInfo@dgListNode@?$dgList@V?$dgGraphEdge@VdgDebriNodeInfo@dgCollisionCompoundBreakable@@VdgSharedNodeMesh@2@@@@@QAEAAV?$dgGraphEdge@VdgDebriNodeInfo@dgCollisionCompoundBreakable@@VdgSharedNodeMesh@2@@@XZ 10052630 f i physics:dgCollisionCompoundBreakable.obj
 0001:00051640       ?GetNext@dgListNode@?$dgList@V?$dgGraphEdge@VdgDebriNodeInfo@dgCollisionCompoundBreakable@@VdgSharedNodeMesh@2@@@@@QBEPAV12@XZ 10052640 f i physics:dgCollisionCompoundBreakable.obj
 0001:00051660       ?GetInfo@dgTreeNode@?$dgTree@HPAVdgListNode@?$dgList@V?$dgGraphNode@VdgDebriNodeInfo@dgCollisionCompoundBreakable@@VdgSharedNodeMesh@2@@@@@@@QAEAAHXZ 10052660 f i physics:dgCollisionCompoundBreakable.obj
 0001:00051680       ?GetInfo@dgTreeNode@?$dgTree@VdgCompoundBreakableFilterData@dgCollisionCompoundBreakable@@PAVdgConvexCollision@@@@QAEAAVdgCompoundBreakableFilterData@dgCollisionCompoundBreakable@@XZ 10052680 f i physics:dgCollisionCompoundBreakable.obj
 0001:000516a0       ?GetInfo@dgListNode@?$dgList@PAVdgListNode@?$dgList@V?$dgGraphNode@VdgDebriNodeInfo@dgCollisionCompoundBreakable@@VdgSharedNodeMesh@2@@@@@@@QAEAAPAV1?$dgList@V?$dgGraphNode@VdgDebriNodeInfo@dgCollisionCompoundBreakable@@VdgSharedNodeMesh@2@@@@@XZ 100526a0 f i physics:dgCollisionCompoundBreakable.obj
 0001:000516b0       ?GetNext@dgListNode@?$dgList@PAVdgListNode@?$dgList@V?$dgGraphNode@VdgDebriNodeInfo@dgCollisionCompoundBreakable@@VdgSharedNodeMesh@2@@@@@@@QBEPAV12@XZ 100526b0 f i physics:dgCollisionCompoundBreakable.obj
 0001:000516d0       ??0?$dgArray@VdgFlatVertex@dgCollisionCompoundBreakable@@@@QAE@HQAVdgMemoryAllocator@@@Z 100526d0 f i physics:dgCollisionCompoundBreakable.obj
 0001:00051710       ??1?$dgArray@VdgFlatVertex@dgCollisionCompoundBreakable@@@@QAE@XZ 10052710 f i physics:dgCollisionCompoundBreakable.obj
 0001:00051740       ??A?$dgArray@VdgFlatVertex@dgCollisionCompoundBreakable@@@@QAEAAVdgFlatVertex@dgCollisionCompoundBreakable@@H@Z 10052740 f i physics:dgCollisionCompoundBreakable.obj
 0001:000517a0       ??0?$dgList@VdgSubMesh@dgCollisionCompoundBreakable@@@@QAE@QAVdgMemoryAllocator@@@Z 100527a0 f i physics:dgCollisionCompoundBreakable.obj
 0001:000517e0       ??1?$dgList@VdgSubMesh@dgCollisionCompoundBreakable@@@@QAE@XZ 100527e0 f i physics:dgCollisionCompoundBreakable.obj
 0001:00051800       ?GetAllocator@?$dgList@VdgSubMesh@dgCollisionCompoundBreakable@@@@QBEPAVdgMemoryAllocator@@XZ 10052800 f i physics:dgCollisionCompoundBreakable.obj
 0001:00051820       ?GetCount@?$dgList@VdgSubMesh@dgCollisionCompoundBreakable@@@@QBEHXZ 10052820 f i physics:dgCollisionCompoundBreakable.obj
 0001:00051830       ?Append@?$dgList@VdgSubMesh@dgCollisionCompoundBreakable@@@@QAEPAVdgListNode@1@ABVdgSubMesh@dgCollisionCompoundBreakable@@@Z 10052830 f i physics:dgCollisionCompoundBreakable.obj
 0001:000518f0       ?GetAllocator@?$dgList@V?$dgGraphNode@VdgDebriNodeInfo@dgCollisionCompoundBreakable@@VdgSharedNodeMesh@2@@@@@QBEPAVdgMemoryAllocator@@XZ 100528f0 f i physics:dgCollisionCompoundBreakable.obj
 0001:00051910       ??0?$dgGraph@VdgDebriNodeInfo@dgCollisionCompoundBreakable@@VdgSharedNodeMesh@2@@@QAE@QAVdgMemoryAllocator@@@Z 10052910 f i physics:dgCollisionCompoundBreakable.obj
 0001:00051940       ??1?$dgGraph@VdgDebriNodeInfo@dgCollisionCompoundBreakable@@VdgSharedNodeMesh@2@@@QAE@XZ 10052940 f i physics:dgCollisionCompoundBreakable.obj
 0001:00051960       ?AddNode@?$dgGraph@VdgDebriNodeInfo@dgCollisionCompoundBreakable@@VdgSharedNodeMesh@2@@@QAEPAVdgListNode@?$dgList@V?$dgGraphNode@VdgDebriNodeInfo@dgCollisionCompoundBreakable@@VdgSharedNodeMesh@2@@@@@XZ 10052960 f i physics:dgCollisionCompoundBreakable.obj
 0001:000519c0       ?DeleteNode@?$dgGraph@VdgDebriNodeInfo@dgCollisionCompoundBreakable@@VdgSharedNodeMesh@2@@@QAEXQAVdgListNode@?$dgList@V?$dgGraphNode@VdgDebriNodeInfo@dgCollisionCompoundBreakable@@VdgSharedNodeMesh@2@@@@@@Z 100529c0 f i physics:dgCollisionCompoundBreakable.obj
 0001:00051a60       ??0?$dgList@PAVdgListNode@?$dgList@V?$dgGraphNode@VdgDebriNodeInfo@dgCollisionCompoundBreakable@@VdgSharedNodeMesh@2@@@@@@@QAE@QAVdgMemoryAllocator@@@Z 10052a60 f i physics:dgCollisionCompoundBreakable.obj
 0001:00051aa0       ??1?$dgList@PAVdgListNode@?$dgList@V?$dgGraphNode@VdgDebriNodeInfo@dgCollisionCompoundBreakable@@VdgSharedNodeMesh@2@@@@@@@QAE@XZ 10052aa0 f i physics:dgCollisionCompoundBreakable.obj
 0001:00051ac0       ?GetFirst@?$dgList@PAVdgListNode@?$dgList@V?$dgGraphNode@VdgDebriNodeInfo@dgCollisionCompoundBreakable@@VdgSharedNodeMesh@2@@@@@@@QBEPAVdgListNode@1@XZ 10052ac0 f i physics:dgCollisionCompoundBreakable.obj
 0001:00051ae0       ?Append@?$dgList@PAVdgListNode@?$dgList@V?$dgGraphNode@VdgDebriNodeInfo@dgCollisionCompoundBreakable@@VdgSharedNodeMesh@2@@@@@@@QAEPAVdgListNode@1@ABQAV2?$dgList@V?$dgGraphNode@VdgDebriNodeInfo@dgCollisionCompoundBreakable@@VdgSharedNodeMesh@2@@@@@@Z 10052ae0 f i physics:dgCollisionCompoundBreakable.obj
 0001:00051ba0       ?Remove@?$dgList@PAVdgListNode@?$dgList@V?$dgGraphNode@VdgDebriNodeInfo@dgCollisionCompoundBreakable@@VdgSharedNodeMesh@2@@@@@@@QAEXABQAVdgListNode@?$dgList@V?$dgGraphNode@VdgDebriNodeInfo@dgCollisionCompoundBreakable@@VdgSharedNodeMesh@2@@@@@@Z 10052ba0 f i physics:dgCollisionCompoundBreakable.obj
 0001:00051bd0       ?Remove@?$dgList@PAVdgListNode@?$dgList@V?$dgGraphNode@VdgDebriNodeInfo@dgCollisionCompoundBreakable@@VdgSharedNodeMesh@2@@@@@@@QAEXQAVdgListNode@1@@Z 10052bd0 f i physics:dgCollisionCompoundBreakable.obj
 0001:00051c20       ?RemoveAll@?$dgList@PAVdgListNode@?$dgList@V?$dgGraphNode@VdgDebriNodeInfo@dgCollisionCompoundBreakable@@VdgSharedNodeMesh@2@@@@@@@QAEXXZ 10052c20 f i physics:dgCollisionCompoundBreakable.obj
 0001:00051ce0       ?GetCount@?$dgList@V?$dgGraphEdge@VdgDebriNodeInfo@dgCollisionCompoundBreakable@@VdgSharedNodeMesh@2@@@@@QBEHXZ 10052ce0 f i physics:dgCollisionCompoundBreakable.obj
 0001:00051cf0       ?GetFirst@?$dgList@V?$dgGraphEdge@VdgDebriNodeInfo@dgCollisionCompoundBreakable@@VdgSharedNodeMesh@2@@@@@QBEPAVdgListNode@1@XZ 10052cf0 f i physics:dgCollisionCompoundBreakable.obj
 0001:00051d10       ?AddEdge@?$dgGraphNode@VdgDebriNodeInfo@dgCollisionCompoundBreakable@@VdgSharedNodeMesh@2@@@QAEPAVdgListNode@?$dgList@V?$dgGraphEdge@VdgDebriNodeInfo@dgCollisionCompoundBreakable@@VdgSharedNodeMesh@2@@@@@QAV2?$dgList@V?$dgGraphNode@VdgDebriNodeInfo@dgCollisionCompoundBreakable@@VdgSharedNodeMesh@2@@@@@@Z 10052d10 f i physics:dgCollisionCompoundBreakable.obj
 0001:00051d40       ?DeleteEdge@?$dgGraphNode@VdgDebriNodeInfo@dgCollisionCompoundBreakable@@VdgSharedNodeMesh@2@@@QAEXQAVdgListNode@?$dgList@V?$dgGraphEdge@VdgDebriNodeInfo@dgCollisionCompoundBreakable@@VdgSharedNodeMesh@2@@@@@@Z 10052d40 f i physics:dgCollisionCompoundBreakable.obj
 0001:00051dc0       ??0?$dgStack@PAVdgListNode@?$dgList@V?$dgGraphNode@VdgDebriNodeInfo@dgCollisionCompoundBreakable@@VdgSharedNodeMesh@2@@@@@@@QAE@H@Z 10052dc0 f i physics:dgCollisionCompoundBreakable.obj
 0001:00051df0       ??1?$dgStack@PAVdgListNode@?$dgList@V?$dgGraphNode@VdgDebriNodeInfo@dgCollisionCompoundBreakable@@VdgSharedNodeMesh@2@@@@@@@QAE@XZ 10052df0 f i physics:dgCollisionCompoundBreakable.obj
 0001:00051e10       ??A?$dgStack@PAVdgListNode@?$dgList@V?$dgGraphNode@VdgDebriNodeInfo@dgCollisionCompoundBreakable@@VdgSharedNodeMesh@2@@@@@@@QAEAAPAVdgListNode@?$dgList@V?$dgGraphNode@VdgDebriNodeInfo@dgCollisionCompoundBreakable@@VdgSharedNodeMesh@2@@@@@H@Z 10052e10 f i physics:dgCollisionCompoundBreakable.obj
 0001:00051e90       ??0?$dgTree@PAVdgListNode@?$dgList@V?$dgGraphNode@VdgDebriNodeInfo@dgCollisionCompoundBreakable@@VdgSharedNodeMesh@2@@@@@PAV12@@@QAE@QAVdgMemoryAllocator@@@Z 10052e90 f i physics:dgCollisionCompoundBreakable.obj
 0001:00051ec0       ??1?$dgTree@PAVdgListNode@?$dgList@V?$dgGraphNode@VdgDebriNodeInfo@dgCollisionCompoundBreakable@@VdgSharedNodeMesh@2@@@@@PAV12@@@QAE@XZ 10052ec0 f i physics:dgCollisionCompoundBreakable.obj
 0001:00051ee0       ?Find@?$dgTree@PAVdgListNode@?$dgList@V?$dgGraphNode@VdgDebriNodeInfo@dgCollisionCompoundBreakable@@VdgSharedNodeMesh@2@@@@@PAV12@@@QBEPAVdgTreeNode@1@PAVdgListNode@?$dgList@V?$dgGraphNode@VdgDebriNodeInfo@dgCollisionCompoundBreakable@@VdgSharedNodeMesh@2@@@@@@Z 10052ee0 f i physics:dgCollisionCompoundBreakable.obj
 0001:00052000       ?Insert@?$dgTree@PAVdgListNode@?$dgList@V?$dgGraphNode@VdgDebriNodeInfo@dgCollisionCompoundBreakable@@VdgSharedNodeMesh@2@@@@@PAV12@@@QAEPAVdgTreeNode@1@ABQAVdgListNode@?$dgList@V?$dgGraphNode@VdgDebriNodeInfo@dgCollisionCompoundBreakable@@VdgSharedNodeMesh@2@@@@@PAV34@@Z 10053000 f i physics:dgCollisionCompoundBreakable.obj
 0001:00052040       ??0?$dgTree@HPAVdgListNode@?$dgList@V?$dgGraphNode@VdgDebriNodeInfo@dgCollisionCompoundBreakable@@VdgSharedNodeMesh@2@@@@@@@QAE@QAVdgMemoryAllocator@@@Z 10053040 f i physics:dgCollisionCompoundBreakable.obj
 0001:00052070       ??1?$dgTree@HPAVdgListNode@?$dgList@V?$dgGraphNode@VdgDebriNodeInfo@dgCollisionCompoundBreakable@@VdgSharedNodeMesh@2@@@@@@@QAE@XZ 10053070 f i physics:dgCollisionCompoundBreakable.obj
 0001:00052090       ?Find@?$dgTree@HPAVdgListNode@?$dgList@V?$dgGraphNode@VdgDebriNodeInfo@dgCollisionCompoundBreakable@@VdgSharedNodeMesh@2@@@@@@@QBEPAVdgTreeNode@1@PAVdgListNode@?$dgList@V?$dgGraphNode@VdgDebriNodeInfo@dgCollisionCompoundBreakable@@VdgSharedNodeMesh@2@@@@@@Z 10053090 f i physics:dgCollisionCompoundBreakable.obj
 0001:000521b0       ?Insert@?$dgTree@HPAVdgListNode@?$dgList@V?$dgGraphNode@VdgDebriNodeInfo@dgCollisionCompoundBreakable@@VdgSharedNodeMesh@2@@@@@@@QAEPAVdgTreeNode@1@ABHPAVdgListNode@?$dgList@V?$dgGraphNode@VdgDebriNodeInfo@dgCollisionCompoundBreakable@@VdgSharedNodeMesh@2@@@@@@Z 100531b0 f i physics:dgCollisionCompoundBreakable.obj
 0001:000521f0       ??0?$dgStack@PAVdgConvexCollision@@@@QAE@H@Z 100531f0 f i physics:dgCollisionCompoundBreakable.obj
 0001:00052220       ??1?$dgStack@PAVdgConvexCollision@@@@QAE@XZ 10053220 f i physics:dgCollisionCompoundBreakable.obj
 0001:00052240       ??A?$dgStack@PAVdgConvexCollision@@@@QAEAAPAVdgConvexCollision@@H@Z 10053240 f i physics:dgCollisionCompoundBreakable.obj
 0001:000522c0       ??0?$dgTree@VdgCompoundBreakableFilterData@dgCollisionCompoundBreakable@@PAVdgConvexCollision@@@@QAE@QAVdgMemoryAllocator@@@Z 100532c0 f i physics:dgCollisionCompoundBreakable.obj
 0001:000522f0       ??1?$dgTree@VdgCompoundBreakableFilterData@dgCollisionCompoundBreakable@@PAVdgConvexCollision@@@@QAE@XZ 100532f0 f i physics:dgCollisionCompoundBreakable.obj
 0001:00052310       ?Find@?$dgTree@VdgCompoundBreakableFilterData@dgCollisionCompoundBreakable@@PAVdgConvexCollision@@@@QBEPAVdgTreeNode@1@PAVdgConvexCollision@@@Z 10053310 f i physics:dgCollisionCompoundBreakable.obj
 0001:00052430       ?Insert@?$dgTree@VdgCompoundBreakableFilterData@dgCollisionCompoundBreakable@@PAVdgConvexCollision@@@@QAEPAVdgTreeNode@1@ABVdgCompoundBreakableFilterData@dgCollisionCompoundBreakable@@PAVdgConvexCollision@@@Z 10053430 f i physics:dgCollisionCompoundBreakable.obj
 0001:00052470       ??_GdgListNode@?$dgList@PAVdgListNode@?$dgList@V?$dgGraphNode@VdgDebriNodeInfo@dgCollisionCompoundBreakable@@VdgSharedNodeMesh@2@@@@@@@AAEPAXI@Z 10053470 f i physics:dgCollisionCompoundBreakable.obj
 0001:000524a0       ??2dgListNode@?$dgList@VdgSubMesh@dgCollisionCompoundBreakable@@@@CAPAXIQAVdgMemoryAllocator@@@Z 100534a0 f i physics:dgCollisionCompoundBreakable.obj
 0001:000524c0       ??0dgListNode@?$dgList@VdgSubMesh@dgCollisionCompoundBreakable@@@@AAE@ABVdgSubMesh@dgCollisionCompoundBreakable@@QAV01@1@Z 100534c0 f i physics:dgCollisionCompoundBreakable.obj
 0001:00052570       ?GetLeft@dgTreeNode@?$dgTree@PAVdgListNode@?$dgList@V?$dgGraphNode@VdgDebriNodeInfo@dgCollisionCompoundBreakable@@VdgSharedNodeMesh@2@@@@@PAV12@@@ABEPAV12@XZ 10053570 f i physics:dgCollisionCompoundBreakable.obj
 0001:00052580       ?GetRight@dgTreeNode@?$dgTree@PAVdgListNode@?$dgList@V?$dgGraphNode@VdgDebriNodeInfo@dgCollisionCompoundBreakable@@VdgSharedNodeMesh@2@@@@@PAV12@@@ABEPAV12@XZ 10053580 f i physics:dgCollisionCompoundBreakable.obj
 0001:000525a0       ?GetLeft@dgTreeNode@?$dgTree@HPAVdgListNode@?$dgList@V?$dgGraphNode@VdgDebriNodeInfo@dgCollisionCompoundBreakable@@VdgSharedNodeMesh@2@@@@@@@ABEPAV12@XZ 100535a0 f i physics:dgCollisionCompoundBreakable.obj
 0001:000525b0       ?GetRight@dgTreeNode@?$dgTree@HPAVdgListNode@?$dgList@V?$dgGraphNode@VdgDebriNodeInfo@dgCollisionCompoundBreakable@@VdgSharedNodeMesh@2@@@@@@@ABEPAV12@XZ 100535b0 f i physics:dgCollisionCompoundBreakable.obj
 0001:000525d0       ?GetLeft@dgTreeNode@?$dgTree@VdgCompoundBreakableFilterData@dgCollisionCompoundBreakable@@PAVdgConvexCollision@@@@ABEPAV12@XZ 100535d0 f i physics:dgCollisionCompoundBreakable.obj
 0001:000525e0       ?GetRight@dgTreeNode@?$dgTree@VdgCompoundBreakableFilterData@dgCollisionCompoundBreakable@@PAVdgConvexCollision@@@@ABEPAV12@XZ 100535e0 f i physics:dgCollisionCompoundBreakable.obj
 0001:00052600       ??2dgListNode@?$dgList@PAVdgListNode@?$dgList@V?$dgGraphNode@VdgDebriNodeInfo@dgCollisionCompoundBreakable@@VdgSharedNodeMesh@2@@@@@@@CAPAXIQAVdgMemoryAllocator@@@Z 10053600 f i physics:dgCollisionCompoundBreakable.obj
 0001:00052620       ??3dgListNode@?$dgList@PAVdgListNode@?$dgList@V?$dgGraphNode@VdgDebriNodeInfo@dgCollisionCompoundBreakable@@VdgSharedNodeMesh@2@@@@@@@CAXPAX@Z 10053620 f i physics:dgCollisionCompoundBreakable.obj
 0001:00052640       ??0dgListNode@?$dgList@PAVdgListNode@?$dgList@V?$dgGraphNode@VdgDebriNodeInfo@dgCollisionCompoundBreakable@@VdgSharedNodeMesh@2@@@@@@@AAE@ABQAV0?$dgList@V?$dgGraphNode@VdgDebriNodeInfo@dgCollisionCompoundBreakable@@VdgSharedNodeMesh@2@@@@@QAV01@1@Z 10053640 f i physics:dgCollisionCompoundBreakable.obj
 0001:000526d0       ??1dgListNode@?$dgList@PAVdgListNode@?$dgList@V?$dgGraphNode@VdgDebriNodeInfo@dgCollisionCompoundBreakable@@VdgSharedNodeMesh@2@@@@@@@AAE@XZ 100536d0 f i physics:dgCollisionCompoundBreakable.obj
 0001:000526e0       ?Unlink@dgListNode@?$dgList@PAVdgListNode@?$dgList@V?$dgGraphNode@VdgDebriNodeInfo@dgCollisionCompoundBreakable@@VdgSharedNodeMesh@2@@@@@@@AAEXXZ 100536e0 f i physics:dgCollisionCompoundBreakable.obj
 0001:00052730       ?Resize@?$dgArray@VdgFlatVertex@dgCollisionCompoundBreakable@@@@QBEXH@Z 10053730 f i physics:dgCollisionCompoundBreakable.obj
 0001:000528a0       ?RemoveAll@?$dgList@VdgSubMesh@dgCollisionCompoundBreakable@@@@QAEXXZ 100538a0 f i physics:dgCollisionCompoundBreakable.obj
 0001:00052960       ??0?$dgList@V?$dgGraphNode@VdgDebriNodeInfo@dgCollisionCompoundBreakable@@VdgSharedNodeMesh@2@@@@@QAE@QAVdgMemoryAllocator@@@Z 10053960 f i physics:dgCollisionCompoundBreakable.obj
 0001:000529a0       ??1?$dgList@V?$dgGraphNode@VdgDebriNodeInfo@dgCollisionCompoundBreakable@@VdgSharedNodeMesh@2@@@@@QAE@XZ 100539a0 f i physics:dgCollisionCompoundBreakable.obj
 0001:000529c0       ?Append@?$dgList@V?$dgGraphNode@VdgDebriNodeInfo@dgCollisionCompoundBreakable@@VdgSharedNodeMesh@2@@@@@QAEPAVdgListNode@1@XZ 100539c0 f i physics:dgCollisionCompoundBreakable.obj
 0001:00052a80       ?Remove@?$dgList@V?$dgGraphNode@VdgDebriNodeInfo@dgCollisionCompoundBreakable@@VdgSharedNodeMesh@2@@@@@QAEXQAVdgListNode@1@@Z 10053a80 f i physics:dgCollisionCompoundBreakable.obj
 0001:00052ad0       ?SetAllocator@?$dgList@V?$dgGraphEdge@VdgDebriNodeInfo@dgCollisionCompoundBreakable@@VdgSharedNodeMesh@2@@@@@QAEXQAVdgMemoryAllocator@@@Z 10053ad0 f i physics:dgCollisionCompoundBreakable.obj
 0001:00052b00       ?Append@?$dgList@V?$dgGraphEdge@VdgDebriNodeInfo@dgCollisionCompoundBreakable@@VdgSharedNodeMesh@2@@@@@QAEPAVdgListNode@1@XZ 10053b00 f i physics:dgCollisionCompoundBreakable.obj
 0001:00052bc0       ?Remove@?$dgList@V?$dgGraphEdge@VdgDebriNodeInfo@dgCollisionCompoundBreakable@@VdgSharedNodeMesh@2@@@@@QAEXQAVdgListNode@1@@Z 10053bc0 f i physics:dgCollisionCompoundBreakable.obj
 0001:00052c10       ?Find@?$dgList@PAVdgListNode@?$dgList@V?$dgGraphNode@VdgDebriNodeInfo@dgCollisionCompoundBreakable@@VdgSharedNodeMesh@2@@@@@@@QBEPAVdgListNode@1@ABQAV2?$dgList@V?$dgGraphNode@VdgDebriNodeInfo@dgCollisionCompoundBreakable@@VdgSharedNodeMesh@2@@@@@@Z 10053c10 f i physics:dgCollisionCompoundBreakable.obj
 0001:00052c50       ?Unlink@?$dgList@PAVdgListNode@?$dgList@V?$dgGraphNode@VdgDebriNodeInfo@dgCollisionCompoundBreakable@@VdgSharedNodeMesh@2@@@@@@@QAEXQAVdgListNode@1@@Z 10053c50 f i physics:dgCollisionCompoundBreakable.obj
 0001:00052d00       ?DeleteHalfEdge@?$dgGraphNode@VdgDebriNodeInfo@dgCollisionCompoundBreakable@@VdgSharedNodeMesh@2@@@QAEXQAVdgListNode@?$dgList@V?$dgGraphEdge@VdgDebriNodeInfo@dgCollisionCompoundBreakable@@VdgSharedNodeMesh@2@@@@@@Z 10053d00 f i physics:dgCollisionCompoundBreakable.obj
 0001:00052d20       ?Insert@?$dgTree@PAVdgListNode@?$dgList@V?$dgGraphNode@VdgDebriNodeInfo@dgCollisionCompoundBreakable@@VdgSharedNodeMesh@2@@@@@PAV12@@@QAEPAVdgTreeNode@1@ABQAVdgListNode@?$dgList@V?$dgGraphNode@VdgDebriNodeInfo@dgCollisionCompoundBreakable@@VdgSharedNodeMesh@2@@@@@PAV34@AA_N@Z 10053d20 f i physics:dgCollisionCompoundBreakable.obj
 0001:00052f20       ?RemoveAll@?$dgTree@PAVdgListNode@?$dgList@V?$dgGraphNode@VdgDebriNodeInfo@dgCollisionCompoundBreakable@@VdgSharedNodeMesh@2@@@@@PAV12@@@QAEXXZ 10053f20 f i physics:dgCollisionCompoundBreakable.obj
 0001:00052f60       ?CompareKeys@?$dgTree@PAVdgListNode@?$dgList@V?$dgGraphNode@VdgDebriNodeInfo@dgCollisionCompoundBreakable@@VdgSharedNodeMesh@2@@@@@PAV12@@@ABEHABQAVdgListNode@?$dgList@V?$dgGraphNode@VdgDebriNodeInfo@dgCollisionCompoundBreakable@@VdgSharedNodeMesh@2@@@@@0@Z 10053f60 f i physics:dgCollisionCompoundBreakable.obj
 0001:00052fa0       ?Insert@?$dgTree@HPAVdgListNode@?$dgList@V?$dgGraphNode@VdgDebriNodeInfo@dgCollisionCompoundBreakable@@VdgSharedNodeMesh@2@@@@@@@QAEPAVdgTreeNode@1@ABHPAVdgListNode@?$dgList@V?$dgGraphNode@VdgDebriNodeInfo@dgCollisionCompoundBreakable@@VdgSharedNodeMesh@2@@@@@AA_N@Z 10053fa0 f i physics:dgCollisionCompoundBreakable.obj
 0001:000531a0       ?RemoveAll@?$dgTree@HPAVdgListNode@?$dgList@V?$dgGraphNode@VdgDebriNodeInfo@dgCollisionCompoundBreakable@@VdgSharedNodeMesh@2@@@@@@@QAEXXZ 100541a0 f i physics:dgCollisionCompoundBreakable.obj
 0001:000531e0       ?CompareKeys@?$dgTree@HPAVdgListNode@?$dgList@V?$dgGraphNode@VdgDebriNodeInfo@dgCollisionCompoundBreakable@@VdgSharedNodeMesh@2@@@@@@@ABEHABQAVdgListNode@?$dgList@V?$dgGraphNode@VdgDebriNodeInfo@dgCollisionCompoundBreakable@@VdgSharedNodeMesh@2@@@@@0@Z 100541e0 f i physics:dgCollisionCompoundBreakable.obj
 0001:00053220       ?Insert@?$dgTree@VdgCompoundBreakableFilterData@dgCollisionCompoundBreakable@@PAVdgConvexCollision@@@@QAEPAVdgTreeNode@1@ABVdgCompoundBreakableFilterData@dgCollisionCompoundBreakable@@PAVdgConvexCollision@@AA_N@Z 10054220 f i physics:dgCollisionCompoundBreakable.obj
 0001:00053420       ?RemoveAll@?$dgTree@VdgCompoundBreakableFilterData@dgCollisionCompoundBreakable@@PAVdgConvexCollision@@@@QAEXXZ 10054420 f i physics:dgCollisionCompoundBreakable.obj
 0001:00053460       ?CompareKeys@?$dgTree@VdgCompoundBreakableFilterData@dgCollisionCompoundBreakable@@PAVdgConvexCollision@@@@ABEHABQAVdgConvexCollision@@0@Z 10054460 f i physics:dgCollisionCompoundBreakable.obj
 0001:000534a0       ??_GdgListNode@?$dgList@VdgSubMesh@dgCollisionCompoundBreakable@@@@AAEPAXI@Z 100544a0 f i physics:dgCollisionCompoundBreakable.obj
 0001:000534d0       ??_GdgListNode@?$dgList@V?$dgGraphNode@VdgDebriNodeInfo@dgCollisionCompoundBreakable@@VdgSharedNodeMesh@2@@@@@AAEPAXI@Z 100544d0 f i physics:dgCollisionCompoundBreakable.obj
 0001:00053500       ??_GdgListNode@?$dgList@V?$dgGraphEdge@VdgDebriNodeInfo@dgCollisionCompoundBreakable@@VdgSharedNodeMesh@2@@@@@AAEPAXI@Z 10054500 f i physics:dgCollisionCompoundBreakable.obj
 0001:00053530       ??2dgListNode@?$dgList@V?$dgGraphNode@VdgDebriNodeInfo@dgCollisionCompoundBreakable@@VdgSharedNodeMesh@2@@@@@CAPAXIQAVdgMemoryAllocator@@@Z 10054530 f i physics:dgCollisionCompoundBreakable.obj
 0001:00053550       ??3dgListNode@?$dgList@V?$dgGraphNode@VdgDebriNodeInfo@dgCollisionCompoundBreakable@@VdgSharedNodeMesh@2@@@@@CAXPAX@Z 10054550 f i physics:dgCollisionCompoundBreakable.obj
 0001:00053570       ??0dgListNode@?$dgList@V?$dgGraphNode@VdgDebriNodeInfo@dgCollisionCompoundBreakable@@VdgSharedNodeMesh@2@@@@@AAE@QAV01@0@Z 10054570 f i physics:dgCollisionCompoundBreakable.obj
 0001:00053600       ??1dgListNode@?$dgList@V?$dgGraphNode@VdgDebriNodeInfo@dgCollisionCompoundBreakable@@VdgSharedNodeMesh@2@@@@@AAE@XZ 10054600 f i physics:dgCollisionCompoundBreakable.obj
 0001:00053620       ??3dgListNode@?$dgList@VdgSubMesh@dgCollisionCompoundBreakable@@@@CAXPAX@Z 10054620 f i physics:dgCollisionCompoundBreakable.obj
 0001:00053640       ??1dgListNode@?$dgList@VdgSubMesh@dgCollisionCompoundBreakable@@@@AAE@XZ 10054640 f i physics:dgCollisionCompoundBreakable.obj
 0001:00053660       ?Unlink@dgListNode@?$dgList@VdgSubMesh@dgCollisionCompoundBreakable@@@@AAEXXZ 10054660 f i physics:dgCollisionCompoundBreakable.obj
 0001:000536b0       ??0dgTreeNode@?$dgTree@PAVdgListNode@?$dgList@V?$dgGraphNode@VdgDebriNodeInfo@dgCollisionCompoundBreakable@@VdgSharedNodeMesh@2@@@@@PAV12@@@AAE@ABQAVdgListNode@?$dgList@V?$dgGraphNode@VdgDebriNodeInfo@dgCollisionCompoundBreakable@@VdgSharedNodeMesh@2@@@@@0PAV01@@Z 100546b0 f i physics:dgCollisionCompoundBreakable.obj
 0001:00053720       ??2dgListNode@?$dgList@V?$dgGraphEdge@VdgDebriNodeInfo@dgCollisionCompoundBreakable@@VdgSharedNodeMesh@2@@@@@CAPAXIQAVdgMemoryAllocator@@@Z 10054720 f i physics:dgCollisionCompoundBreakable.obj
 0001:00053740       ??3dgListNode@?$dgList@V?$dgGraphEdge@VdgDebriNodeInfo@dgCollisionCompoundBreakable@@VdgSharedNodeMesh@2@@@@@CAXPAX@Z 10054740 f i physics:dgCollisionCompoundBreakable.obj
 0001:00053760       ??0dgListNode@?$dgList@V?$dgGraphEdge@VdgDebriNodeInfo@dgCollisionCompoundBreakable@@VdgSharedNodeMesh@2@@@@@AAE@QAV01@0@Z 10054760 f i physics:dgCollisionCompoundBreakable.obj
 0001:000537f0       ??1dgListNode@?$dgList@V?$dgGraphEdge@VdgDebriNodeInfo@dgCollisionCompoundBreakable@@VdgSharedNodeMesh@2@@@@@AAE@XZ 100547f0 f i physics:dgCollisionCompoundBreakable.obj
 0001:00053810       ??0dgTreeNode@?$dgTree@HPAVdgListNode@?$dgList@V?$dgGraphNode@VdgDebriNodeInfo@dgCollisionCompoundBreakable@@VdgSharedNodeMesh@2@@@@@@@AAE@ABHABQAVdgListNode@?$dgList@V?$dgGraphNode@VdgDebriNodeInfo@dgCollisionCompoundBreakable@@VdgSharedNodeMesh@2@@@@@PAV01@@Z 10054810 f i physics:dgCollisionCompoundBreakable.obj
 0001:00053880       ??0dgTreeNode@?$dgTree@VdgCompoundBreakableFilterData@dgCollisionCompoundBreakable@@PAVdgConvexCollision@@@@AAE@ABVdgCompoundBreakableFilterData@dgCollisionCompoundBreakable@@ABQAVdgConvexCollision@@PAV01@@Z 10054880 f i physics:dgCollisionCompoundBreakable.obj
 0001:00053900       ?GetPrev@dgListNode@?$dgList@PAVdgListNode@?$dgList@V?$dgGraphNode@VdgDebriNodeInfo@dgCollisionCompoundBreakable@@VdgSharedNodeMesh@2@@@@@@@QBEPAV12@XZ 10054900 f i physics:dgCollisionCompoundBreakable.obj
 0001:00053920       ?RemoveAll@?$dgList@V?$dgGraphNode@VdgDebriNodeInfo@dgCollisionCompoundBreakable@@VdgSharedNodeMesh@2@@@@@QAEXXZ 10054920 f i physics:dgCollisionCompoundBreakable.obj
 0001:000539e0       ?Unlink@?$dgList@V?$dgGraphNode@VdgDebriNodeInfo@dgCollisionCompoundBreakable@@VdgSharedNodeMesh@2@@@@@QAEXQAVdgListNode@1@@Z 100549e0 f i physics:dgCollisionCompoundBreakable.obj
 0001:00053a90       ?Unlink@?$dgList@V?$dgGraphEdge@VdgDebriNodeInfo@dgCollisionCompoundBreakable@@VdgSharedNodeMesh@2@@@@@QAEXQAVdgListNode@1@@Z 10054a90 f i physics:dgCollisionCompoundBreakable.obj
 0001:00053b40       ??0?$dgGraphNode@VdgDebriNodeInfo@dgCollisionCompoundBreakable@@VdgSharedNodeMesh@2@@@QAE@XZ 10054b40 f i physics:dgCollisionCompoundBreakable.obj
 0001:00053b70       ??1?$dgGraphNode@VdgDebriNodeInfo@dgCollisionCompoundBreakable@@VdgSharedNodeMesh@2@@@QAE@XZ 10054b70 f i physics:dgCollisionCompoundBreakable.obj
 0001:00053b90       ??0?$dgGraphEdge@VdgDebriNodeInfo@dgCollisionCompoundBreakable@@VdgSharedNodeMesh@2@@@QAE@XZ 10054b90 f i physics:dgCollisionCompoundBreakable.obj
 0001:00053bb0       ??1?$dgGraphEdge@VdgDebriNodeInfo@dgCollisionCompoundBreakable@@VdgSharedNodeMesh@2@@@QAE@XZ 10054bb0 f i physics:dgCollisionCompoundBreakable.obj
 0001:00053bd0       ?Unlink@dgListNode@?$dgList@V?$dgGraphNode@VdgDebriNodeInfo@dgCollisionCompoundBreakable@@VdgSharedNodeMesh@2@@@@@AAEXXZ 10054bd0 f i physics:dgCollisionCompoundBreakable.obj
 0001:00053c20       ?GetPrev@dgListNode@?$dgList@V?$dgGraphNode@VdgDebriNodeInfo@dgCollisionCompoundBreakable@@VdgSharedNodeMesh@2@@@@@QBEPAV12@XZ 10054c20 f i physics:dgCollisionCompoundBreakable.obj
 0001:00053c40       ?Unlink@dgListNode@?$dgList@V?$dgGraphEdge@VdgDebriNodeInfo@dgCollisionCompoundBreakable@@VdgSharedNodeMesh@2@@@@@AAEXXZ 10054c40 f i physics:dgCollisionCompoundBreakable.obj
 0001:00053c90       ?GetPrev@dgListNode@?$dgList@V?$dgGraphEdge@VdgDebriNodeInfo@dgCollisionCompoundBreakable@@VdgSharedNodeMesh@2@@@@@QBEPAV12@XZ 10054c90 f i physics:dgCollisionCompoundBreakable.obj
 0001:00053cb0       ??0?$dgList@V?$dgGraphEdge@VdgDebriNodeInfo@dgCollisionCompoundBreakable@@VdgSharedNodeMesh@2@@@@@QAE@QAVdgMemoryAllocator@@@Z 10054cb0 f i physics:dgCollisionCompoundBreakable.obj
 0001:00053cf0       ??1?$dgList@V?$dgGraphEdge@VdgDebriNodeInfo@dgCollisionCompoundBreakable@@VdgSharedNodeMesh@2@@@@@QAE@XZ 10054cf0 f i physics:dgCollisionCompoundBreakable.obj
 0001:00053d10       ?RemoveAll@?$dgList@V?$dgGraphEdge@VdgDebriNodeInfo@dgCollisionCompoundBreakable@@VdgSharedNodeMesh@2@@@@@QAEXXZ 10054d10 f i physics:dgCollisionCompoundBreakable.obj
 0001:00053dd0       ?Release@dgRefCounter@@QAEHXZ 10054dd0 f i physics:dgCollisionCompoundBreakable.obj
 0001:00053e30       ??0dgCollisionConvexHull@@QAE@QAVdgMemoryAllocator@@IHHMPBMABVdgMatrix@@@Z 10054e30 f   physics:dgCollisionConvexHull.obj
 0001:000543f0       ??0dgCollisionConvexHull@@QAE@QAVdgWorld@@P6AXPAX1I@ZQAX@Z 100553f0 f   physics:dgCollisionConvexHull.obj
 0001:00054650       ??1dgCollisionConvexHull@@UAE@XZ 10055650 f   physics:dgCollisionConvexHull.obj
 0001:00054690       ?GetFaceIndices@dgCollisionConvexHull@@QBEHHPAH@Z 10055690 f   physics:dgCollisionConvexHull.obj
 0001:000546f0       ?FaceNormal@dgCollisionConvexHull@@ABE?AVdgBigVector@@PBVdgEdge@@QBVdgVector@@@Z 100556f0 f   physics:dgCollisionConvexHull.obj
 0001:00054a40       ?RemoveCoplanarEdge@dgCollisionConvexHull@@ABE_NAAVdgPolyhedra@@QAVdgVector@@@Z 10055a40 f   physics:dgCollisionConvexHull.obj
 0001:00055110       ?CheckConvex@dgCollisionConvexHull@@ABE_NAAVdgPolyhedra@@PBVdgVector@@@Z 10056110 f   physics:dgCollisionConvexHull.obj
 0001:000553e0       ?Create@dgCollisionConvexHull@@AAE_NHHQBMM@Z 100563e0 f   physics:dgCollisionConvexHull.obj
 0001:00055be0       ?CalculateSignature@dgCollisionConvexHull@@EBEHXZ 10056be0 f   physics:dgCollisionConvexHull.obj
 0001:00055c20       ?SetBreakImpulse@dgCollisionConvexHull@@EAEXM@Z 10056c20 f   physics:dgCollisionConvexHull.obj
 0001:00055c40       ?GetBreakImpulse@dgCollisionConvexHull@@EBEMXZ 10056c40 f   physics:dgCollisionConvexHull.obj
 0001:00055c60       ?SetCollisionBBox@dgCollisionConvexHull@@EAEXABVdgVector@@0@Z 10056c60 f   physics:dgCollisionConvexHull.obj
 0001:00055ca0       ?DebugCollision@dgCollisionConvexHull@@EBEXABVdgMatrix@@P6AXPAXHPBMH@ZQAX@Z 10056ca0 f   physics:dgCollisionConvexHull.obj
 0001:00055dd0       ?GetCollisionInfo@dgCollisionConvexHull@@EBEXPAVdgCollisionInfo@@@Z 10056dd0 f   physics:dgCollisionConvexHull.obj
 0001:00055e50       ?Serialize@dgCollisionConvexHull@@EBEXP6AXPAXPBXI@ZQAX@Z 10056e50 f   physics:dgCollisionConvexHull.obj
 0001:00056020       ?OOBBTest@dgCollisionConvexHull@@EBE_NABVdgMatrix@@QBVdgConvexCollision@@QAX@Z 10057020 f   physics:dgCollisionConvexHull.obj
 0001:000563e0       ??_EdgCollisionConvexHull@@UAEPAXI@Z 100573e0 f i physics:dgCollisionConvexHull.obj
 0001:000563e0       ??_GdgCollisionConvexHull@@UAEPAXI@Z 100573e0 f i physics:dgCollisionConvexHull.obj
 0001:00056410       ??0dgPlaneLocation@@QAE@XZ 10057410 f i physics:dgCollisionConvexHull.obj
 0001:00056430       ??$Swap@PAVdgConvexSimplexEdge@@@@YAXAAPAVdgConvexSimplexEdge@@0@Z 10057430 f i physics:dgCollisionConvexHull.obj
 0001:00056460       ??Y?$dgTemplateVector@N@@QAEAAV0@ABV0@@Z 10057460 f i physics:dgCollisionConvexHull.obj
 0001:00056540       ?GetRoot@?$dgTree@VdgEdge@@_J@@QBEPAVdgTreeNode@1@XZ 10057540 f i physics:dgCollisionConvexHull.obj
 0001:00056560       ??0?$dgStack@PAVdgEdge@@@@QAE@H@Z 10057560 f i physics:dgCollisionConvexHull.obj
 0001:00056590       ??1?$dgStack@PAVdgEdge@@@@QAE@XZ 10057590 f i physics:dgCollisionConvexHull.obj
 0001:000565b0       ??A?$dgStack@PAVdgEdge@@@@QAEAAPAVdgEdge@@H@Z 100575b0 f i physics:dgCollisionConvexHull.obj
 0001:00056630       ??0?$dgStack@PAVdgConvexSimplexEdge@@@@QAE@H@Z 10057630 f i physics:dgCollisionConvexHull.obj
 0001:00056660       ??1?$dgStack@PAVdgConvexSimplexEdge@@@@QAE@XZ 10057660 f i physics:dgCollisionConvexHull.obj
 0001:00056680       ??A?$dgStack@PAVdgConvexSimplexEdge@@@@QAEAAPAVdgConvexSimplexEdge@@H@Z 10057680 f i physics:dgCollisionConvexHull.obj
 0001:00056700       ??0?$dgStack@VdgTriplex@@@@QAE@H@Z 10057700 f i physics:dgCollisionConvexHull.obj
 0001:00056730       ??1?$dgStack@VdgTriplex@@@@QAE@XZ 10057730 f i physics:dgCollisionConvexHull.obj
 0001:00056750       ??A?$dgStack@VdgTriplex@@@@QAEAAVdgTriplex@@H@Z 10057750 f i physics:dgCollisionConvexHull.obj
 0001:000567d0       ??0dgBigVector@@QAE@PBM@Z  100577d0 f i physics:dgCollisionConvexHull.obj
 0001:000568b0       ??0dgBigVector@@QAE@NNNN@Z 100578b0 f i physics:dgCollisionConvexHull.obj
 0001:00056990       ??0dgPlane@@QAE@XZ         10057990 f i physics:dgCollisionConvexHull.obj
 0001:000569b0       ??0dgPlane@@QAE@ABVdgVector@@M@Z 100579b0 f i physics:dgCollisionConvexHull.obj
 0001:000569f0       ?Scale@dgPlane@@QBE?AV1@M@Z 100579f0 f i physics:dgCollisionConvexHull.obj
 0001:00056a40       ??0dgPlane@@QAE@MMMM@Z     10057a40 f i physics:dgCollisionConvexHull.obj
 0001:00056a80       ?Evalue@dgPlane@@QBEMABVdgVector@@@Z 10057a80 f i physics:dgCollisionConvexHull.obj
 0001:00056ac0       ??0dgBigPlane@@QAE@ABVdgBigVector@@N@Z 10057ac0 f i physics:dgCollisionConvexHull.obj
 0001:00056af0       ?Evalue@dgBigPlane@@QBENABVdgVector@@@Z 10057af0 f i physics:dgCollisionConvexHull.obj
 0001:00056b30       ?GetVertexPool@dgConvexHull3d@@QBEPBVdgVector@@XZ 10057b30 f i physics:dgCollisionConvexHull.obj
 0001:00056b50       ??D?$dgTemplateVector@N@@QBE?AV0@ABV0@@Z 10057b50 f i physics:dgCollisionConvexHull.obj
 0001:00056bd0       ??0dgCollisionScene@@QAE@PAVdgWorld@@@Z 10057bd0 f   physics:dgCollisionScene.obj
 0001:00056cd0       ??0dgCollisionScene@@QAE@QAVdgWorld@@P6AXPAX1I@ZQAX@Z 10057cd0 f   physics:dgCollisionScene.obj
 0001:00057230       ??1dgCollisionScene@@UAE@XZ 10058230 f   physics:dgCollisionScene.obj
 0001:000572e0       ?Serialize@dgCollisionScene@@EBEXP6AXPAXPBXI@ZQAX@Z 100582e0 f   physics:dgCollisionScene.obj
 0001:000578b0       ?AddProxy@dgCollisionScene@@QAEPAXPAVdgCollision@@@Z 100588b0 f   physics:dgCollisionScene.obj
 0001:00057930       ?RemoveProxy@dgCollisionScene@@QAEXPAX@Z 10058930 f   physics:dgCollisionScene.obj
 0001:00057980       ?SetProxyMatrix@dgCollisionScene@@QAEXPAXABVdgMatrix@@@Z 10058980 f   physics:dgCollisionScene.obj
 0001:00057a30       ?SetCollisionCallback@dgCollisionScene@@QAEXP6AXPBVdgBody@@QBV2@HHPBMH@Z@Z 10058a30 f   physics:dgCollisionScene.obj
 0001:00057aa0       ?GetProxyMatrix@dgCollisionScene@@QAE?AVdgMatrix@@PAX@Z 10058aa0 f   physics:dgCollisionScene.obj
 0001:00057b00       ?CalcAABB@dgCollisionScene@@EBEXABVdgMatrix@@AAVdgVector@@1@Z 10058b00 f   physics:dgCollisionScene.obj
 0001:00057d70       ?CalcAABBSimd@dgCollisionScene@@EBEXABVdgMatrix@@AAVdgVector@@1@Z 10058d70 f   physics:dgCollisionScene.obj
 0001:00057da0       ?GetFirstProxy@dgCollisionScene@@QBEPAXXZ 10058da0 f   physics:dgCollisionScene.obj
 0001:00057dc0       ?GetNextProxy@dgCollisionScene@@QBEPAXPAX@Z 10058dc0 f   physics:dgCollisionScene.obj
 0001:00057de0       ?DebugCollision@dgCollisionScene@@EBEXABVdgMatrix@@P6AXPAXHPBMH@ZQAX@Z 10058de0 f   physics:dgCollisionScene.obj
 0001:00057e90       ?GetVolume@dgCollisionScene@@EBEMXZ 10058e90 f   physics:dgCollisionScene.obj
 0001:00057ed0       ?CalculateSignature@dgCollisionScene@@EBEHXZ 10058ed0 f   physics:dgCollisionScene.obj
 0001:00057f10       ?GetBoxMinRadius@dgCollisionScene@@EBEMXZ 10058f10 f   physics:dgCollisionScene.obj
 0001:00057f20       ?GetBoxMaxRadius@dgCollisionScene@@EBEMXZ 10058f20 f   physics:dgCollisionScene.obj
 0001:00057f30       ?SetCollisionBBox@dgCollisionScene@@EAEXABVdgVector@@0@Z 10058f30 f   physics:dgCollisionScene.obj
 0001:00058090       ?CalculateInertia@dgCollisionScene@@EBEXAAVdgVector@@0@Z 10059090 f   physics:dgCollisionScene.obj
 0001:000580d0       ?CalculateVolumeIntegral@dgCollisionScene@@EBE?AVdgVector@@ABVdgMatrix@@P6AIPAX10AAVdgPlane@@@ZQAX@Z 100590d0 f   physics:dgCollisionScene.obj
 0001:00058130       ?GetCollisionInfo@dgCollisionScene@@EBEXPAVdgCollisionInfo@@@Z 10059130 f   physics:dgCollisionScene.obj
 0001:00058180       ?OOBBTest@dgCollisionScene@@EBE_NABVdgMatrix@@QBVdgConvexCollision@@QAX@Z 10059180 f   physics:dgCollisionScene.obj
 0001:000581c0       ?BuildAABB@dgCollisionScene@@ABEXQAPAVdgListNode@?$dgList@UdgProxy@dgCollisionScene@@@@HAAVdgVector@@1@Z 100591c0 f   physics:dgCollisionScene.obj
 0001:00058350       ?GetAxis@dgCollisionScene@@ABEHQAPAVdgListNode@?$dgList@UdgProxy@dgCollisionScene@@@@H@Z 10059350 f   physics:dgCollisionScene.obj
 0001:000584e0       ?RayCastSimd@dgCollisionScene@@EBEMABVdgVector@@0AAVdgContactPoint@@P6AIQBVdgBody@@QBVdgCollision@@QAX@Z24@Z 100594e0 f   physics:dgCollisionScene.obj
 0001:00058930       ?SupportVertex@dgCollisionScene@@EBE?AVdgVector@@ABV2@@Z 10059930 f   physics:dgCollisionScene.obj
 0001:00058990       ?RayCast@dgCollisionScene@@EBEMABVdgVector@@0AAVdgContactPoint@@P6AIQBVdgBody@@QBVdgCollision@@QAX@Z24@Z 10059990 f   physics:dgCollisionScene.obj
 0001:00058de0       ?CollidePairSimd@dgCollisionScene@@QBEXQAUdgPair@dgCollidingPairCollector@@AAVdgCollisionParamProxi@@@Z 10059de0 f   physics:dgCollisionScene.obj
 0001:000592a0       ?CollidePair@dgCollisionScene@@QBEXQAUdgPair@dgCollidingPairCollector@@AAVdgCollisionParamProxi@@@Z 1005a2a0 f   physics:dgCollisionScene.obj
 0001:00059760       ?CompareProxy@dgCollisionScene@@CAHQBVdgListNode@?$dgList@UdgProxy@dgCollisionScene@@@@0PAX@Z 1005a760 f   physics:dgCollisionScene.obj
 0001:00059800       ?SortAABBBoxes@dgCollisionScene@@ABEHQAPAVdgListNode@?$dgList@UdgProxy@dgCollisionScene@@@@H@Z 1005a800 f   physics:dgCollisionScene.obj
 0001:000598d0       ?SortAndSpliteSplite@dgCollisionScene@@ABEHQAPAVdgListNode@?$dgList@UdgProxy@dgCollisionScene@@@@H@Z 1005a8d0 f   physics:dgCollisionScene.obj
 0001:00059c90       ?BuildTree@dgCollisionScene@@AAEPAUdgNode@1@PAU21@QAPAVdgListNode@?$dgList@UdgProxy@dgCollisionScene@@@@HH@Z 1005ac90 f   physics:dgCollisionScene.obj
 0001:00059f50       ?BuildTree@dgCollisionScene@@QAEXXZ 1005af50 f   physics:dgCollisionScene.obj
 0001:0005a0e0       ??_GdgCollisionScene@@UAEPAXI@Z 1005b0e0 f i physics:dgCollisionScene.obj
 0001:0005a0e0       ??_EdgCollisionScene@@UAEPAXI@Z 1005b0e0 f i physics:dgCollisionScene.obj
 0001:0005a110       ??2dgNode@dgCollisionScene@@SAPAXIQAVdgMemoryAllocator@@@Z 1005b110 f i physics:dgCollisionScene.obj
 0001:0005a130       ??0dgNode@dgCollisionScene@@QAE@XZ 1005b130 f i physics:dgCollisionScene.obj
 0001:0005a160       ??_GdgNode@dgCollisionScene@@QAEPAXI@Z 1005b160 f i physics:dgCollisionScene.obj
 0001:0005a190       ??3dgNode@dgCollisionScene@@SAXPAX@Z 1005b190 f i physics:dgCollisionScene.obj
 0001:0005a1b0       ??1dgNode@dgCollisionScene@@QAE@XZ 1005b1b0 f i physics:dgCollisionScene.obj
 0001:0005a230       ?UpdateAABB@dgNode@dgCollisionScene@@QAEXABVdgVector@@0@Z 1005b230 f i physics:dgCollisionScene.obj
 0001:0005a310       ?GetNext@dgListNode@?$dgList@UdgProxy@dgCollisionScene@@@@QBEPAV12@XZ 1005b310 f i physics:dgCollisionScene.obj
 0001:0005a330       ??0?$dgList@UdgProxy@dgCollisionScene@@@@QAE@QAVdgMemoryAllocator@@@Z 1005b330 f i physics:dgCollisionScene.obj
 0001:0005a370       ??1?$dgList@UdgProxy@dgCollisionScene@@@@QAE@XZ 1005b370 f i physics:dgCollisionScene.obj
 0001:0005a390       ?GetCount@?$dgList@UdgProxy@dgCollisionScene@@@@QBEHXZ 1005b390 f i physics:dgCollisionScene.obj
 0001:0005a3a0       ?GetFirst@?$dgList@UdgProxy@dgCollisionScene@@@@QBEPAVdgListNode@1@XZ 1005b3a0 f i physics:dgCollisionScene.obj
 0001:0005a3c0       ?Append@?$dgList@UdgProxy@dgCollisionScene@@@@QAEPAVdgListNode@1@XZ 1005b3c0 f i physics:dgCollisionScene.obj
 0001:0005a480       ?Remove@?$dgList@UdgProxy@dgCollisionScene@@@@QAEXQAVdgListNode@1@@Z 1005b480 f i physics:dgCollisionScene.obj
 0001:0005a4d0       ??0?$dgStack@PAVdgListNode@?$dgList@UdgProxy@dgCollisionScene@@@@@@QAE@H@Z 1005b4d0 f i physics:dgCollisionScene.obj
 0001:0005a500       ??1?$dgStack@PAVdgListNode@?$dgList@UdgProxy@dgCollisionScene@@@@@@QAE@XZ 1005b500 f i physics:dgCollisionScene.obj
 0001:0005a520       ??A?$dgStack@PAVdgListNode@?$dgList@UdgProxy@dgCollisionScene@@@@@@QAEAAPAVdgListNode@?$dgList@UdgProxy@dgCollisionScene@@@@H@Z 1005b520 f i physics:dgCollisionScene.obj
 0001:0005a5a0       ??$dgSortIndirect@VdgListNode@?$dgList@UdgProxy@dgCollisionScene@@@@@@YAXQAPAVdgListNode@?$dgList@UdgProxy@dgCollisionScene@@@@HP6AHQBV01@1QAX@Z2@Z 1005b5a0 f i physics:dgCollisionScene.obj
 0001:0005a920       ??$Swap@PAVdgListNode@?$dgList@UdgProxy@dgCollisionScene@@@@@@YAXAAPAVdgListNode@?$dgList@UdgProxy@dgCollisionScene@@@@0@Z 1005b920 f i physics:dgCollisionScene.obj
 0001:0005a950       ??_GdgListNode@?$dgList@UdgProxy@dgCollisionScene@@@@AAEPAXI@Z 1005b950 f i physics:dgCollisionScene.obj
 0001:0005a980       ??2dgListNode@?$dgList@UdgProxy@dgCollisionScene@@@@CAPAXIQAVdgMemoryAllocator@@@Z 1005b980 f i physics:dgCollisionScene.obj
 0001:0005a9a0       ??3dgListNode@?$dgList@UdgProxy@dgCollisionScene@@@@CAXPAX@Z 1005b9a0 f i physics:dgCollisionScene.obj
 0001:0005a9c0       ??0dgListNode@?$dgList@UdgProxy@dgCollisionScene@@@@AAE@QAV01@0@Z 1005b9c0 f i physics:dgCollisionScene.obj
 0001:0005aa60       ??1dgListNode@?$dgList@UdgProxy@dgCollisionScene@@@@AAE@XZ 1005ba60 f i physics:dgCollisionScene.obj
 0001:0005aa70       ??0dgProxy@dgCollisionScene@@QAE@XZ 1005ba70 f i physics:dgCollisionScene.obj
 0001:0005aaa0       ?RemoveAll@?$dgList@UdgProxy@dgCollisionScene@@@@QAEXXZ 1005baa0 f i physics:dgCollisionScene.obj
 0001:0005ab60       ?Unlink@?$dgList@UdgProxy@dgCollisionScene@@@@QAEXQAVdgListNode@1@@Z 1005bb60 f i physics:dgCollisionScene.obj
 0001:0005ac10       ?Unlink@dgListNode@?$dgList@UdgProxy@dgCollisionScene@@@@AAEXXZ 1005bc10 f i physics:dgCollisionScene.obj
 0001:0005ac60       ?GetPrev@dgListNode@?$dgList@UdgProxy@dgCollisionScene@@@@QBEPAV12@XZ 1005bc60 f i physics:dgCollisionScene.obj
 0001:0005ac80       ??AdgMatrix@@QBEABVdgVector@@H@Z 1005bc80 f i physics:dgCollisionScene.obj
 0001:0005acf0       ?Reset@FastRayTest@@QAEXM@Z 1005bcf0 f i physics:dgCollisionScene.obj
 0001:0005ad60       ?dgOverlapTestSimd@@YAHABVdgVector@@000@Z 1005bd60 f i physics:dgCollisionScene.obj
 0001:0005ae10       ??0dgCollisionConvexPolygon@dgCollisionMesh@@QAE@QAVdgMemoryAllocator@@@Z 1005be10 f   physics:dgCollisionMesh.obj
 0001:0005af50       ??1dgCollisionConvexPolygon@dgCollisionMesh@@UAE@XZ 1005bf50 f   physics:dgCollisionMesh.obj
 0001:0005af70       ?CalculateSignature@dgCollisionConvexPolygon@dgCollisionMesh@@UBEHXZ 1005bf70 f   physics:dgCollisionMesh.obj
 0001:0005af80       ?SetCollisionBBox@dgCollisionConvexPolygon@dgCollisionMesh@@UAEXABVdgVector@@0@Z 1005bf80 f   physics:dgCollisionMesh.obj
 0001:0005afb0       ?Serialize@dgCollisionConvexPolygon@dgCollisionMesh@@UBEXP6AXPAXPBXI@ZQAX@Z 1005bfb0 f   physics:dgCollisionMesh.obj
 0001:0005afe0       ?RayCast@dgCollisionConvexPolygon@dgCollisionMesh@@UBEMABVdgVector@@0AAVdgContactPoint@@P6AIQBVdgBody@@QBVdgCollision@@QAX@Z24@Z 1005bfe0 f   physics:dgCollisionMesh.obj
 0001:0005b020       ?GetVolume@dgCollisionConvexPolygon@dgCollisionMesh@@UBEMXZ 1005c020 f   physics:dgCollisionMesh.obj
 0001:0005b050       ?GetBoxMinRadius@dgCollisionConvexPolygon@dgCollisionMesh@@UBEMXZ 1005c050 f   physics:dgCollisionMesh.obj
 0001:0005b080       ?GetBoxMaxRadius@dgCollisionConvexPolygon@dgCollisionMesh@@UBEMXZ 1005c080 f   physics:dgCollisionMesh.obj
 0001:0005b0b0       ?OOBBTest@dgCollisionConvexPolygon@dgCollisionMesh@@UBE_NABVdgMatrix@@QBVdgConvexCollision@@QAX@Z 1005c0b0 f   physics:dgCollisionMesh.obj
 0001:0005b0f0       ?CalculateInertia@dgCollisionConvexPolygon@dgCollisionMesh@@UBEXAAVdgVector@@0@Z 1005c0f0 f   physics:dgCollisionMesh.obj
 0001:0005b130       ?SupportVertex@dgCollisionConvexPolygon@dgCollisionMesh@@UBE?AVdgVector@@ABV3@@Z 1005c130 f   physics:dgCollisionMesh.obj
 0001:0005b230       ?SupportVertexSimd@dgCollisionConvexPolygon@dgCollisionMesh@@UBE?AVdgVector@@ABV3@@Z 1005c230 f   physics:dgCollisionMesh.obj
 0001:0005b710       ?CalculateNormalSimd@dgCollisionConvexPolygon@dgCollisionMesh@@QAEXXZ 1005c710 f   physics:dgCollisionMesh.obj
 0001:0005ba50       ?CalculateNormal@dgCollisionConvexPolygon@dgCollisionMesh@@QAEXXZ 1005ca50 f   physics:dgCollisionMesh.obj
 0001:0005bbe0       ?QuickTestContinueSimd@dgCollisionConvexPolygon@dgCollisionMesh@@QAEHPBVdgConvexCollision@@ABVdgMatrix@@@Z 1005cbe0 f   physics:dgCollisionMesh.obj
 0001:0005c0b0       ?QuickTestContinue@dgCollisionConvexPolygon@dgCollisionMesh@@QAEHPBVdgConvexCollision@@ABVdgMatrix@@@Z 1005d0b0 f   physics:dgCollisionMesh.obj
 0001:0005c320       ?QuickTestSimd@dgCollisionConvexPolygon@dgCollisionMesh@@QAEHPBVdgConvexCollision@@ABVdgMatrix@@@Z 1005d320 f   physics:dgCollisionMesh.obj
 0001:0005c9b0       ?QuickTest@dgCollisionConvexPolygon@dgCollisionMesh@@QAEHPBVdgConvexCollision@@ABVdgMatrix@@@Z 1005d9b0 f   physics:dgCollisionMesh.obj
 0001:0005ccb0       ?ClipContacts@dgCollisionConvexPolygon@dgCollisionMesh@@QBEHHQAVdgContactPoint@@ABVdgMatrix@@@Z 1005dcb0 f   physics:dgCollisionMesh.obj
 0001:0005d1b0       ?BeamClippingSimd@dgCollisionConvexPolygon@dgCollisionMesh@@QAEXPBVdgConvexCollision@@ABVdgMatrix@@M@Z 1005e1b0 f   physics:dgCollisionMesh.obj
 0001:0005d430       ?BeamClipping@dgCollisionConvexPolygon@dgCollisionMesh@@QAEXPBVdgConvexCollision@@ABVdgMatrix@@M@Z 1005e430 f   physics:dgCollisionMesh.obj
 0001:0005e150       ?ClosestDistanceToTriangle@dgCollisionConvexPolygon@dgCollisionMesh@@QBE?AVdgVector@@ABV3@000@Z 1005f150 f   physics:dgCollisionMesh.obj
 0001:0005e7e0       ?PointToPolygonDistance@dgCollisionConvexPolygon@dgCollisionMesh@@QAE_NABVdgVector@@MAAV3@@Z 1005f7e0 f   physics:dgCollisionMesh.obj
 0001:0005ea20       ?DistanceToOrigen@dgCollisionConvexPolygon@dgCollisionMesh@@QAE_NABVdgMatrix@@ABVdgVector@@MAAV4@@Z 1005fa20 f   physics:dgCollisionMesh.obj
 0001:0005ef70       ?MovingPointToPolygonContact@dgCollisionConvexPolygon@dgCollisionMesh@@QAEMABVdgVector@@0MAAVdgContactPoint@@@Z 1005ff70 f   physics:dgCollisionMesh.obj
 0001:0005f910       ?CalculatePlaneIntersection@dgCollisionConvexPolygon@dgCollisionMesh@@UBEHABVdgVector@@0QAV3@@Z 10060910 f   physics:dgCollisionMesh.obj
 0001:00060510       ?CalculatePlaneIntersectionSimd@dgCollisionConvexPolygon@dgCollisionMesh@@UBEHABVdgVector@@0QAV3@@Z 10061510 f   physics:dgCollisionMesh.obj
 0001:00060540       ??0dgCollisionMesh@@QAE@QAVdgMemoryAllocator@@W4dgCollisionID@@@Z 10061540 f   physics:dgCollisionMesh.obj
 0001:00060680       ??0dgCollisionMesh@@QAE@QAVdgWorld@@P6AXPAX1I@ZQAX@Z 10061680 f   physics:dgCollisionMesh.obj
 0001:000607b0       ??1dgCollisionMesh@@UAE@XZ 100617b0 f   physics:dgCollisionMesh.obj
 0001:00060810       ?SetCollisionBBox@dgCollisionMesh@@MAEXABVdgVector@@0@Z 10061810 f   physics:dgCollisionMesh.obj
 0001:00060970       ?CalculateSignature@dgCollisionMesh@@EBEHXZ 10061970 f   physics:dgCollisionMesh.obj
 0001:000609b0       ?GetUserData@dgCollisionMesh@@UBEPAXXZ 100619b0 f   physics:dgCollisionMesh.obj
 0001:000609c0       ?SetCollisionCallback@dgCollisionMesh@@QAEXP6AXPBVdgBody@@QBV2@HHPBMH@Z@Z 100619c0 f   physics:dgCollisionMesh.obj
 0001:000609e0       ?CalcAABB@dgCollisionMesh@@EBEXABVdgMatrix@@AAVdgVector@@1@Z 100619e0 f   physics:dgCollisionMesh.obj
 0001:00060c50       ?CalcAABBSimd@dgCollisionMesh@@EBEXABVdgMatrix@@AAVdgVector@@1@Z 10061c50 f   physics:dgCollisionMesh.obj
 0001:00060c80       ?CalculatePlaneIntersection@dgCollisionMesh@@ABEHPBMPBHHHABVdgPlane@@QAVdgVector@@@Z 10061c80 f   physics:dgCollisionMesh.obj
 0001:00060ff0       ?CalculateVolumeIntegral@dgCollisionMesh@@EBE?AVdgVector@@ABVdgMatrix@@P6AIPAX10AAVdgPlane@@@ZQAX@Z 10061ff0 f   physics:dgCollisionMesh.obj
 0001:00061020       ?DebugCollision@dgCollisionMesh@@EBEXABVdgMatrix@@P6AXPAXHPBMH@ZQAX@Z 10062020 f   physics:dgCollisionMesh.obj
 0001:00061060       ?GetVolume@dgCollisionMesh@@UBEMXZ 10062060 f   physics:dgCollisionMesh.obj
 0001:00061070       ?GetBoxMinRadius@dgCollisionMesh@@UBEMXZ 10062070 f   physics:dgCollisionMesh.obj
 0001:00061080       ?GetBoxMaxRadius@dgCollisionMesh@@UBEMXZ 10062080 f   physics:dgCollisionMesh.obj
 0001:00061090       ?CalculateInertia@dgCollisionMesh@@UBEXAAVdgVector@@0@Z 10062090 f   physics:dgCollisionMesh.obj
 0001:000610d0       ?GetCollisionInfo@dgCollisionMesh@@EBEXPAVdgCollisionInfo@@@Z 100620d0 f   physics:dgCollisionMesh.obj
 0001:00061110       ?Serialize@dgCollisionMesh@@EBEXP6AXPAXPBXI@ZQAX@Z 10062110 f   physics:dgCollisionMesh.obj
 0001:00061150       ?SupportVertex@dgCollisionMesh@@EBE?AVdgVector@@ABV2@@Z 10062150 f   physics:dgCollisionMesh.obj
 0001:000611b0       ?OOBBTest@dgCollisionMesh@@EBE_NABVdgMatrix@@QBVdgConvexCollision@@QAX@Z 100621b0 f   physics:dgCollisionMesh.obj
 0001:000611f0       ??_EdgCollisionConvexPolygon@dgCollisionMesh@@UAEPAXI@Z 100621f0 f i physics:dgCollisionMesh.obj
 0001:000611f0       ??_GdgCollisionConvexPolygon@dgCollisionMesh@@UAEPAXI@Z 100621f0 f i physics:dgCollisionMesh.obj
 0001:00061220       ??_EdgCollisionMesh@@UAEPAXI@Z 10062220 f i physics:dgCollisionMesh.obj
 0001:00061220       ??_GdgCollisionMesh@@UAEPAXI@Z 10062220 f i physics:dgCollisionMesh.obj
 0001:00061250       ??$GetSign@M@@YAMM@Z       10062250 f i physics:dgCollisionMesh.obj
 0001:00061280       ?RotateVectorSimd@dgMatrix@@QBE?AVdgVector@@ABV2@@Z 10062280 f i physics:dgCollisionMesh.obj
 0001:00061390       ??0dgVector@@QAE@ABT__m128@@@Z 10062390 f i physics:dgCollisionMesh.obj
 0001:000614a0       ??0dgCollisionBVH@@QAE@QAVdgMemoryAllocator@@@Z 100624a0 f   physics:dgCollisionBVH.obj
 0001:00061510       ??0dgCollisionBVH@@QAE@QAVdgWorld@@P6AXPAX1I@ZQAX@Z 10062510 f   physics:dgCollisionBVH.obj
 0001:000615f0       ??1dgCollisionBVH@@UAE@XZ  100625f0 f   physics:dgCollisionBVH.obj
 0001:00061630       ?Serialize@dgCollisionBVH@@EBEXP6AXPAXPBXI@ZQAX@Z 10062630 f   physics:dgCollisionBVH.obj
 0001:00061670       ?BeginBuild@dgCollisionBVH@@QAEXXZ 10062670 f   physics:dgCollisionBVH.obj
 0001:000616e0       ?AddFace@dgCollisionBVH@@QAEXHQBMHH@Z 100626e0 f   physics:dgCollisionBVH.obj
 0001:000617a0       ?SetCollisionRayCastCallback@dgCollisionBVH@@QAEXP6AMQBVdgBody@@QBV1@MPAMHPAX@Z@Z 100627a0 f   physics:dgCollisionBVH.obj
 0001:000617c0       ?EndBuild@dgCollisionBVH@@QAEXH@Z 100627c0 f   physics:dgCollisionBVH.obj
 0001:000618a0       ?GetCollisionInfo@dgCollisionBVH@@EBEXPAVdgCollisionInfo@@@Z 100628a0 f   physics:dgCollisionBVH.obj
 0001:000619c0       ?CollectVertexListIndexList@dgCollisionBVH@@CA?AW4dgIntersectStatus@@PAXQBMHQBHH@Z 100629c0 f   physics:dgCollisionBVH.obj
 0001:00061b10       ?GetTriangleCount@dgCollisionBVH@@CA?AW4dgIntersectStatus@@PAXQBMHQBHH@Z 10062b10 f   physics:dgCollisionBVH.obj
 0001:00061b90       ?GetVertexListIndexList@dgCollisionBVH@@UBEXABVdgVector@@0AAVdgGetVertexListIndexList@dgCollisionMesh@@@Z 10062b90 f   physics:dgCollisionBVH.obj
 0001:00061c10       ?RayHitSimd@dgCollisionBVH@@CAMPAXQBMHQBHH@Z 10062c10 f   physics:dgCollisionBVH.obj
 0001:00061db0       ?RayHit@dgCollisionBVH@@CAMPAXQBMHQBHH@Z 10062db0 f   physics:dgCollisionBVH.obj
 0001:00061f50       ?RayHitUserSimd@dgCollisionBVH@@CAMPAXQBMHQBHH@Z 10062f50 f   physics:dgCollisionBVH.obj
 0001:000620c0       ?RayHitUser@dgCollisionBVH@@CAMPAXQBMHQBHH@Z 100630c0 f   physics:dgCollisionBVH.obj
 0001:00062230       ?RayCastSimd@dgCollisionBVH@@EBEMABVdgVector@@0AAVdgContactPoint@@P6AIQBVdgBody@@QBVdgCollision@@QAX@Z24@Z 10063230 f   physics:dgCollisionBVH.obj
 0001:00062450       ?RayCast@dgCollisionBVH@@EBEMABVdgVector@@0AAVdgContactPoint@@P6AIQBVdgBody@@QBVdgCollision@@QAX@Z24@Z 10063450 f   physics:dgCollisionBVH.obj
 0001:00062670       ?GetPolygon@dgCollisionBVH@@CA?AW4dgIntersectStatus@@PAXQBMHQBHH@Z 10063670 f   physics:dgCollisionBVH.obj
 0001:00062930       ?GetCollidingFacesSimd@dgCollisionBVH@@EBEXQAVdgPolygonMeshDesc@@@Z 10063930 f   physics:dgCollisionBVH.obj
 0001:00062a10       ?GetCollidingFaces@dgCollisionBVH@@EBEXQAVdgPolygonMeshDesc@@@Z 10063a10 f   physics:dgCollisionBVH.obj
 0001:00062af0       ?SupportVertex@dgCollisionBVH@@EBE?AVdgVector@@ABV2@@Z 10063af0 f   physics:dgCollisionBVH.obj
 0001:00062b20       ?ShowDebugPolygon@dgCollisionBVH@@CA?AW4dgIntersectStatus@@PAXQBMHQBHH@Z 10063b20 f   physics:dgCollisionBVH.obj
 0001:00062c10       ?DebugCollision@dgCollisionBVH@@EBEXABVdgMatrix@@P6AXPAXHPBMH@ZQAX@Z 10063c10 f   physics:dgCollisionBVH.obj
 0001:00062ce0       ??_EdgCollisionBVH@@UAEPAXI@Z 10063ce0 f i physics:dgCollisionBVH.obj
 0001:00062ce0       ??_GdgCollisionBVH@@UAEPAXI@Z 10063ce0 f i physics:dgCollisionBVH.obj
 0001:00062d10       ??_GdgPolygonSoupDatabaseBuilder@@QAEPAXI@Z 10063d10 f i physics:dgCollisionBVH.obj
 0001:00062d40       ?GetDebugRayCastCallback@dgCollisionBVH@@QBEP6AMQBVdgBody@@QBV1@MPAMHPAX@ZXZ 10063d40 f i physics:dgCollisionBVH.obj
 0001:00062d60       ??0dgBVHRay@dgCollisionBVH@@QAE@ABVdgVector@@0@Z 10063d60 f i physics:dgCollisionBVH.obj
 0001:00062da0       ?GetCollisionMatrix@dgBody@@QBEABVdgMatrix@@XZ 10063da0 f i physics:dgCollisionBVH.obj
 0001:00062dc0       ?GetDebugCollisionCallback@dgCollisionMesh@@QBEP6AXPBVdgBody@@QBV2@HHPBMH@ZXZ 10063dc0 f i physics:dgCollisionBVH.obj
 0001:00062de0       ??0dgCollisionBVHShowPolyContext@@QAE@XZ 10063de0 f i physics:dgCollisionBVH.obj
 0001:00062e00       ??_EdgCollisionBVH@@WMA@AEPAXI@Z 10063e00 f i physics:dgCollisionBVH.obj
 0001:00062e10       ?Serialize@dgCollisionBVH@@GMA@BEXP6AXPAXPBXI@ZQAX@Z 10063e10 f i physics:dgCollisionBVH.obj
 0001:00062e20       ?GetVertexCount@dgPolygonSoupDatabase@@QBEHXZ 10063e20 f i physics:dgCollisionBVH.obj
 0001:00062e40       ?GetLocalVertexPool@dgPolygonSoupDatabase@@QBEPAMXZ 10063e40 f i physics:dgCollisionBVH.obj
 0001:00062e60       ?GetStrideInBytes@dgPolygonSoupDatabase@@QBEHXZ 10063e60 f i physics:dgCollisionBVH.obj
 0001:00062e80       ??2dgPolygonSoupDatabaseBuilder@@SAPAXIQAVdgMemoryAllocator@@@Z 10063e80 f i physics:dgCollisionBVH.obj
 0001:00062ea0       ??3dgPolygonSoupDatabaseBuilder@@SAXPAX@Z 10063ea0 f i physics:dgCollisionBVH.obj
 0001:00062ec0       ??0dgCollisionHeightField@@QAE@QAVdgWorld@@HHHQBGQBDMM@Z 10063ec0 f   physics:dgCollisionHeightField.obj
 0001:00063270       ??0dgCollisionHeightField@@QAE@QAVdgWorld@@P6AXPAX1I@ZQAX@Z 10064270 f   physics:dgCollisionHeightField.obj
 0001:00063540       ??1dgCollisionHeightField@@UAE@XZ 10064540 f   physics:dgCollisionHeightField.obj
 0001:00063620       ?Serialize@dgCollisionHeightField@@EBEXP6AXPAXPBXI@ZQAX@Z 10064620 f   physics:dgCollisionHeightField.obj
 0001:00063730       ?SetCollisionRayCastCallback@dgCollisionHeightField@@QAEXP6AMQBVdgBody@@QBV1@MHHQAVdgVector@@HQAX@Z@Z 10064730 f   physics:dgCollisionHeightField.obj
 0001:00063750       ?AllocateVertex@dgCollisionHeightField@@ABEXQAVdgWorld@@H@Z 10064750 f   physics:dgCollisionHeightField.obj
 0001:00063820       ?GetCollisionInfo@dgCollisionHeightField@@EBEXPAVdgCollisionInfo@@@Z 10064820 f   physics:dgCollisionHeightField.obj
 0001:000638d0       ?CalculateMinExtend2d@dgCollisionHeightField@@ABEXABVdgVector@@0AAV2@1@Z 100648d0 f   physics:dgCollisionHeightField.obj
 0001:00063ac0       ?CalculateMinExtend3d@dgCollisionHeightField@@ABEXABVdgVector@@0AAV2@1@Z 10064ac0 f   physics:dgCollisionHeightField.obj
 0001:00063cf0       ?RayCastCellSimd@dgCollisionHeightField@@ABEMABVFastRayTest@@HHAAVdgVector@@@Z 10064cf0 f   physics:dgCollisionHeightField.obj
 0001:00064350       ?RayCastCell@dgCollisionHeightField@@ABEMABVFastRayTest@@HHAAVdgVector@@@Z 10065350 f   physics:dgCollisionHeightField.obj
 0001:000649b0       ?RayCastSimd@dgCollisionHeightField@@EBEMABVdgVector@@0AAVdgContactPoint@@P6AIQBVdgBody@@QBVdgCollision@@QAX@Z24@Z 100659b0 f   physics:dgCollisionHeightField.obj
 0001:00064f70       ?RayCast@dgCollisionHeightField@@EBEMABVdgVector@@0AAVdgContactPoint@@P6AIQBVdgBody@@QBVdgCollision@@QAX@Z24@Z 10065f70 f   physics:dgCollisionHeightField.obj
 0001:00065480       ?GetVertexListIndexList@dgCollisionHeightField@@EBEXABVdgVector@@0AAVdgGetVertexListIndexList@dgCollisionMesh@@@Z 10066480 f   physics:dgCollisionHeightField.obj
 0001:000654c0       ?DebugCollision@dgCollisionHeightField@@EBEXABVdgMatrix@@P6AXPAXHPBMH@ZQAX@Z 100664c0 f   physics:dgCollisionHeightField.obj
 0001:000659f0       ?GetLocalAABB@dgCollisionHeightField@@ABEXABVdgVector@@0AAV2@1@Z 100669f0 f   physics:dgCollisionHeightField.obj
 0001:00065b50       ?GetCollidingFacesSimd@dgCollisionHeightField@@EBEXQAVdgPolygonMeshDesc@@@Z 10066b50 f   physics:dgCollisionHeightField.obj
 0001:00065b70       ?GetCollidingFaces@dgCollisionHeightField@@EBEXQAVdgPolygonMeshDesc@@@Z 10066b70 f   physics:dgCollisionHeightField.obj
 0001:00067360       ??_EdgCollisionHeightField@@UAEPAXI@Z 10068360 f i physics:dgCollisionHeightField.obj
 0001:00067360       ??_GdgCollisionHeightField@@UAEPAXI@Z 10068360 f i physics:dgCollisionHeightField.obj
 0001:00067390       ?GetInfo@dgTreeNode@?$dgTree@PAXI@@QAEAAPAXXZ 10068390 f i physics:dgCollisionHeightField.obj
 0001:000673b0       ?Find@?$dgTree@PAXI@@QBEPAVdgTreeNode@1@I@Z 100683b0 f i physics:dgCollisionHeightField.obj
 0001:000674d0       ?Insert@?$dgTree@PAXI@@QAEPAVdgTreeNode@1@ABQAXI@Z 100684d0 f i physics:dgCollisionHeightField.obj
 0001:00067510       ?Remove@?$dgTree@PAXI@@QAEXI@Z 10068510 f i physics:dgCollisionHeightField.obj
 0001:00067550       ?GetLeft@dgTreeNode@?$dgTree@PAXI@@ABEPAV12@XZ 10068550 f i physics:dgCollisionHeightField.obj
 0001:00067560       ?GetRight@dgTreeNode@?$dgTree@PAXI@@ABEPAV12@XZ 10068560 f i physics:dgCollisionHeightField.obj
 0001:00067580       ?Insert@?$dgTree@PAXI@@QAEPAVdgTreeNode@1@ABQAXIAA_N@Z 10068580 f i physics:dgCollisionHeightField.obj
 0001:00067780       ?Remove@?$dgTree@PAXI@@QAEXQAVdgTreeNode@1@@Z 10068780 f i physics:dgCollisionHeightField.obj
 0001:000677c0       ?CompareKeys@?$dgTree@PAXI@@ABEHABI0@Z 100687c0 f i physics:dgCollisionHeightField.obj
 0001:00067800       ??0dgTreeNode@?$dgTree@PAXI@@AAE@ABQAXABIPAV01@@Z 10068800 f i physics:dgCollisionHeightField.obj
 0001:00067870       ??0dgBody@@QAE@XZ          10068870 f   physics:dgBody.obj
 0001:00067990       ??1dgBody@@QAE@XZ          10068990 f   physics:dgBody.obj
 0001:000679a0       ?SetAparentMassMatrix@dgBody@@QAEXABVdgVector@@@Z 100689a0 f   physics:dgBody.obj
 0001:00067a50       ?SetMassMatrix@dgBody@@QAEXMMMM@Z 10068a50 f   physics:dgBody.obj
 0001:00067d00       ?AttachCollision@dgBody@@QAEXPAVdgCollision@@@Z 10068d00 f   physics:dgBody.obj
 0001:00067ef0       ?SetMatrix@dgBody@@QAEXABVdgMatrix@@@Z 10068ef0 f   physics:dgBody.obj
 0001:00067f50       ?SetMatrixIgnoreSleep@dgBody@@QAEXABVdgMatrix@@@Z 10068f50 f   physics:dgBody.obj
 0001:00068020       ?UpdateCollisionMatrixSimd@dgBody@@AAEXMH@Z 10069020 f   physics:dgBody.obj
 0001:000686f0       ?UpdateCollisionMatrix@dgBody@@AAEXMH@Z 100696f0 f   physics:dgBody.obj
 0001:00068dc0       ?RayCast@dgBody@@QBEMABUdgLineBox@@P6AMQBV1@ABVdgVector@@HQAXM@ZP6AI1QBVdgCollision@@3@Z3M@Z 10069dc0 f   physics:dgBody.obj
 0001:000690e0       ?AddBuoyancyForce@dgBody@@QAEXMMMABVdgVector@@P6AIPAX1ABVdgMatrix@@AAVdgPlane@@@ZQAX@Z 1006a0e0 f   physics:dgBody.obj
 0001:00069310       ?CalcInvInertiaMatrix@dgBody@@QAEXXZ 1006a310 f   physics:dgBody.obj
 0001:00069880       ?CalcInvInertiaMatrixSimd@dgBody@@QAEXXZ 1006a880 f   physics:dgBody.obj
 0001:00069e80       ?UpdateMatrix@dgBody@@AAEXMH@Z 1006ae80 f   physics:dgBody.obj
 0001:00069ed0       ?IntegrateVelocity@dgBody@@AAEXM@Z 1006aed0 f   physics:dgBody.obj
 0001:0006a370       ?CalculateContinueVelocity@dgBody@@ABEXMAAVdgVector@@0@Z 1006b370 f   physics:dgBody.obj
 0001:0006a4a0       ?CalculateContinueVelocitySimd@dgBody@@ABEXMAAVdgVector@@0@Z 1006b4a0 f   physics:dgBody.obj
 0001:0006a5c0       ?GetTrajectory@dgBody@@ABE?AVdgVector@@ABV2@0@Z 1006b5c0 f   physics:dgBody.obj
 0001:0006a620       ?CalculateInverseDynamicForce@dgBody@@QBE?AVdgVector@@ABV2@M@Z 1006b620 f   physics:dgBody.obj
 0001:0006a6b0       ?GetFirstJoint@dgBody@@QBEPAVdgConstraint@@XZ 1006b6b0 f   physics:dgBody.obj
 0001:0006a710       ?GetNextJoint@dgBody@@QBEPAVdgConstraint@@PAV2@@Z 1006b710 f   physics:dgBody.obj
 0001:0006a7a0       ?GetFirstContact@dgBody@@QBEPAVdgConstraint@@XZ 1006b7a0 f   physics:dgBody.obj
 0001:0006a800       ?GetNextContact@dgBody@@QBEPAVdgConstraint@@PAV2@@Z 1006b800 f   physics:dgBody.obj
 0001:0006a890       ?SetFreeze@dgBody@@QAEX_N@Z 1006b890 f   physics:dgBody.obj
 0001:0006a8c0       ?Freeze@dgBody@@QAEXXZ     1006b8c0 f   physics:dgBody.obj
 0001:0006a950       ?Unfreeze@dgBody@@QAEXXZ   1006b950 f   physics:dgBody.obj
 0001:0006a9e0       ?AddImpulse@dgBody@@AAEXABVdgVector@@0@Z 1006b9e0 f   physics:dgBody.obj
 0001:0006b1d0       ?InvalidateCache@dgBody@@QAEXXZ 1006c1d0 f   physics:dgBody.obj
 0001:0006b2e0       ?SetMatrixOriginAndRotation@dgBody@@AAEXABVdgMatrix@@@Z 1006c2e0 f i physics:dgBody.obj
 0001:0006b560       ?GetLink0@dgConstraint@@QBEPAVdgListNode@?$dgList@VdgBodyMasterListCell@@@@XZ 1006c560 f i physics:dgBody.obj
 0001:0006b580       ?GetLink1@dgConstraint@@QBEPAVdgListNode@?$dgList@VdgBodyMasterListCell@@@@XZ 1006c580 f i physics:dgBody.obj
 0001:0006b5a0       ?RotateToEnd@?$dgList@VdgBodyMasterListRow@@@@QAEXQAVdgListNode@1@@Z 1006c5a0 f i physics:dgBody.obj
 0001:0006b610       ?InsertAfter@?$dgList@VdgBodyMasterListRow@@@@QAEXQAVdgListNode@1@0@Z 1006c610 f i physics:dgBody.obj
 0001:0006b7e0       ?Unlink@dgListNode@?$dgList@VdgBodyMasterListRow@@@@AAEXXZ 1006c7e0 f i physics:dgBody.obj
 0001:0006b830       ?AddLast@dgListNode@?$dgList@VdgBodyMasterListRow@@@@AAEXQAV12@@Z 1006c830 f i physics:dgBody.obj
 0001:0006b850       ?SanityCheck@?$dgList@VdgBodyMasterListRow@@@@QBE_NXZ 1006c850 f i physics:dgBody.obj
 0001:0006b9d0       ?CompProductSimd@dgVector@@QBE?AV1@ABV1@@Z 1006c9d0 f i physics:dgBody.obj
 0001:0006ba20       ?UnrotateVectorSimd@dgMatrix@@QBE?AVdgVector@@ABV2@@Z 1006ca20 f i physics:dgBody.obj
 0001:0006ba80       ?DotProductSimd@dgVector@@QBEMABV1@@Z 1006ca80 f i physics:dgBody.obj
 0001:0006bae0       ?MultiplySimd@dgMatrix@@QBE?AV1@ABV1@@Z 1006cae0 f i physics:dgBody.obj
 0001:0006c250       ??0dgQuaternion@@QAE@XZ    1006d250 f i physics:dgBody.obj
 0001:0006c280       ?Scale@dgQuaternion@@QAEXM@Z 1006d280 f i physics:dgBody.obj
 0001:0006c2d0       ??DdgQuaternion@@QBE?AV0@ABV0@@Z 1006d2d0 f i physics:dgBody.obj
 0001:0006c3d0       ??0dgBallConstraint@@AAE@XZ 1006d3d0 f   physics:dgBallConstraint.obj
 0001:0006c4e0       ??1dgBallConstraint@@EAE@XZ 1006d4e0 f   physics:dgBallConstraint.obj
 0001:0006c500       ?SetJointParameterCallBack@dgBallConstraint@@QAEXP6AIABV1@M@Z@Z 1006d500 f   physics:dgBallConstraint.obj
 0001:0006c520       ?GetJointAngle@dgBallConstraint@@QBE?AVdgVector@@XZ 1006d520 f   physics:dgBallConstraint.obj
 0001:0006c560       ?GetJointOmega@dgBallConstraint@@QBE?AVdgVector@@XZ 1006d560 f   physics:dgBallConstraint.obj
 0001:0006c6b0       ?GetJointForce@dgBallConstraint@@QBE?AVdgVector@@XZ 1006d6b0 f   physics:dgBallConstraint.obj
 0001:0006c790       ?GetTwistLimitState@dgBallConstraint@@QBE_NXZ 1006d790 f   physics:dgBallConstraint.obj
 0001:0006c7b0       ?GetConeLimitState@dgBallConstraint@@QBE_NXZ 1006d7b0 f   physics:dgBallConstraint.obj
 0001:0006c7d0       ?GetLatealLimitState@dgBallConstraint@@QBE_NXZ 1006d7d0 f   physics:dgBallConstraint.obj
 0001:0006c7f0       ?SetTwistLimitState@dgBallConstraint@@QAEX_N@Z 1006d7f0 f   physics:dgBallConstraint.obj
 0001:0006c820       ?SetConeLimitState@dgBallConstraint@@QAEX_N@Z 1006d820 f   physics:dgBallConstraint.obj
 0001:0006c850       ?SetLatealLimitState@dgBallConstraint@@QAEX_N@Z 1006d850 f   physics:dgBallConstraint.obj
 0001:0006c880       ?SetPivotPoint@dgBallConstraint@@AAEXABVdgVector@@@Z 1006d880 f   physics:dgBallConstraint.obj
 0001:0006c9d0       ?SetLimits@dgBallConstraint@@QAEXABVdgVector@@MMM0MM@Z 1006d9d0 f   physics:dgBallConstraint.obj
 0001:0006ce10       ?JacobianDerivative@dgBallConstraint@@EAEIAAVdgContraintDescritor@@@Z 1006de10 f   physics:dgBallConstraint.obj
 0001:0006d700       ??_GdgBallConstraint@@EAEPAXI@Z 1006e700 f i physics:dgBallConstraint.obj
 0001:0006d700       ??_EdgBallConstraint@@EAEPAXI@Z 1006e700 f i physics:dgBallConstraint.obj
 0001:0006d730       ??0dgHingeConstraint@@AAE@XZ 1006e730 f   physics:dgHingeConstraint.obj
 0001:0006d7e0       ??1dgHingeConstraint@@EAE@XZ 1006e7e0 f   physics:dgHingeConstraint.obj
 0001:0006d800       ?SetJointParameterCallBack@dgHingeConstraint@@QAEXP6AIABV1@PAVdgJointCallBackParam@@@Z@Z 1006e800 f   physics:dgHingeConstraint.obj
 0001:0006d820       ?GetJointAngle@dgHingeConstraint@@QBEMXZ 1006e820 f   physics:dgHingeConstraint.obj
 0001:0006d840       ?GetJointOmega@dgHingeConstraint@@QBEMXZ 1006e840 f   physics:dgHingeConstraint.obj
 0001:0006d910       ?CalculateStopAlpha@dgHingeConstraint@@QBEMMPBVdgJointCallBackParam@@@Z 1006e910 f   physics:dgHingeConstraint.obj
 0001:0006d9f0       ?GetJointForce@dgHingeConstraint@@QBE?AVdgVector@@XZ 1006e9f0 f   physics:dgHingeConstraint.obj
 0001:0006db20       ?JacobianDerivative@dgHingeConstraint@@EAEIAAVdgContraintDescritor@@@Z 1006eb20 f   physics:dgHingeConstraint.obj
 0001:0006df40       ??_EdgHingeConstraint@@EAEPAXI@Z 1006ef40 f i physics:dgHingeConstraint.obj
 0001:0006df40       ??_GdgHingeConstraint@@EAEPAXI@Z 1006ef40 f i physics:dgHingeConstraint.obj
 0001:0006df70       ??0dgSlidingConstraint@@AAE@XZ 1006ef70 f   physics:dgSlidingConstraint.obj
 0001:0006e020       ??1dgSlidingConstraint@@EAE@XZ 1006f020 f   physics:dgSlidingConstraint.obj
 0001:0006e040       ?SetJointParameterCallBack@dgSlidingConstraint@@QAEXP6AIABV1@PAVdgJointCallBackParam@@@Z@Z 1006f040 f   physics:dgSlidingConstraint.obj
 0001:0006e060       ?GetJointPosit@dgSlidingConstraint@@QBEMXZ 1006f060 f   physics:dgSlidingConstraint.obj
 0001:0006e080       ?GetJointVeloc@dgSlidingConstraint@@QBEMXZ 1006f080 f   physics:dgSlidingConstraint.obj
 0001:0006e150       ?CalculateStopAccel@dgSlidingConstraint@@QBEMMPBVdgJointCallBackParam@@@Z 1006f150 f   physics:dgSlidingConstraint.obj
 0001:0006e250       ?GetJointForce@dgSlidingConstraint@@QBE?AVdgVector@@XZ 1006f250 f   physics:dgSlidingConstraint.obj
 0001:0006e380       ?JacobianDerivative@dgSlidingConstraint@@EAEIAAVdgContraintDescritor@@@Z 1006f380 f   physics:dgSlidingConstraint.obj
 0001:0006e8e0       ??_GdgSlidingConstraint@@EAEPAXI@Z 1006f8e0 f i physics:dgSlidingConstraint.obj
 0001:0006e8e0       ??_EdgSlidingConstraint@@EAEPAXI@Z 1006f8e0 f i physics:dgSlidingConstraint.obj
 0001:0006e910       ??0dgCorkscrewConstraint@@AAE@XZ 1006f910 f   physics:dgCorkscrewConstraint.obj
 0001:0006e9c0       ??1dgCorkscrewConstraint@@EAE@XZ 1006f9c0 f   physics:dgCorkscrewConstraint.obj
 0001:0006e9e0       ?SetJointParameterCallBack@dgCorkscrewConstraint@@QAEXP6AIABV1@PAVdgJointCallBackParam@@@Z@Z 1006f9e0 f   physics:dgCorkscrewConstraint.obj
 0001:0006ea00       ?GetJointAngle@dgCorkscrewConstraint@@QBEMXZ 1006fa00 f   physics:dgCorkscrewConstraint.obj
 0001:0006ea20       ?GetJointPosit@dgCorkscrewConstraint@@QBEMXZ 1006fa20 f   physics:dgCorkscrewConstraint.obj
 0001:0006ea40       ?GetJointOmega@dgCorkscrewConstraint@@QBEMXZ 1006fa40 f   physics:dgCorkscrewConstraint.obj
 0001:0006eb10       ?GetJointVeloc@dgCorkscrewConstraint@@QBEMXZ 1006fb10 f   physics:dgCorkscrewConstraint.obj
 0001:0006ebe0       ?CalculateStopAlpha@dgCorkscrewConstraint@@QBEMMPBVdgJointCallBackParam@@@Z 1006fbe0 f   physics:dgCorkscrewConstraint.obj
 0001:0006ecb0       ?CalculateStopAccel@dgCorkscrewConstraint@@QBEMMPBVdgJointCallBackParam@@@Z 1006fcb0 f   physics:dgCorkscrewConstraint.obj
 0001:0006edb0       ?GetJointForce@dgCorkscrewConstraint@@QBE?AVdgVector@@XZ 1006fdb0 f   physics:dgCorkscrewConstraint.obj
 0001:0006eeb0       ?JacobianDerivative@dgCorkscrewConstraint@@EAEIAAVdgContraintDescritor@@@Z 1006feb0 f   physics:dgCorkscrewConstraint.obj
 0001:0006f4a0       ??_EdgCorkscrewConstraint@@EAEPAXI@Z 100704a0 f i physics:dgCorkscrewConstraint.obj
 0001:0006f4a0       ??_GdgCorkscrewConstraint@@EAEPAXI@Z 100704a0 f i physics:dgCorkscrewConstraint.obj
 0001:0006f4d0       ??0dgUniversalConstraint@@AAE@XZ 100704d0 f   physics:dgUniversalConstraint.obj
 0001:0006f580       ??1dgUniversalConstraint@@EAE@XZ 10070580 f   physics:dgUniversalConstraint.obj
 0001:0006f5a0       ?SetJointParameterCallBack@dgUniversalConstraint@@QAEXP6AIABV1@PAVdgJointCallBackParam@@@Z@Z 100705a0 f   physics:dgUniversalConstraint.obj
 0001:0006f5c0       ?GetJointAngle0@dgUniversalConstraint@@QBEMXZ 100705c0 f   physics:dgUniversalConstraint.obj
 0001:0006f5e0       ?GetJointAngle1@dgUniversalConstraint@@QBEMXZ 100705e0 f   physics:dgUniversalConstraint.obj
 0001:0006f600       ?GetJointOmega0@dgUniversalConstraint@@QBEMXZ 10070600 f   physics:dgUniversalConstraint.obj
 0001:0006f6d0       ?GetJointOmega1@dgUniversalConstraint@@QBEMXZ 100706d0 f   physics:dgUniversalConstraint.obj
 0001:0006f7a0       ?CalculateStopAlpha0@dgUniversalConstraint@@QBEMMPBVdgJointCallBackParam@@@Z 100707a0 f   physics:dgUniversalConstraint.obj
 0001:0006f870       ?CalculateStopAlpha1@dgUniversalConstraint@@QBEMMPBVdgJointCallBackParam@@@Z 10070870 f   physics:dgUniversalConstraint.obj
 0001:0006f940       ?GetJointForce@dgUniversalConstraint@@QBE?AVdgVector@@XZ 10070940 f   physics:dgUniversalConstraint.obj
 0001:0006fa40       ?JacobianDerivative@dgUniversalConstraint@@EAEIAAVdgContraintDescritor@@@Z 10070a40 f   physics:dgUniversalConstraint.obj
 0001:00070020       ??_EdgUniversalConstraint@@EAEPAXI@Z 10071020 f i physics:dgUniversalConstraint.obj
 0001:00070020       ??_GdgUniversalConstraint@@EAEPAXI@Z 10071020 f i physics:dgUniversalConstraint.obj
 0001:00070050       ??0dgUpVectorConstraint@@AAE@XZ 10071050 f   physics:dgUpVectorConstraint.obj
 0001:00070100       ??1dgUpVectorConstraint@@EAE@XZ 10071100 f   physics:dgUpVectorConstraint.obj
 0001:00070120       ?IsBilateral@dgUpVectorConstraint@@UBE_NXZ 10071120 f   physics:dgUpVectorConstraint.obj
 0001:00070130       ?InitPinDir@dgUpVectorConstraint@@QAEXABVdgVector@@@Z 10071130 f   physics:dgUpVectorConstraint.obj
 0001:00070190       ?SetPinDir@dgUpVectorConstraint@@QAEXABVdgVector@@@Z 10071190 f   physics:dgUpVectorConstraint.obj
 0001:000701e0       ?GetPinDir@dgUpVectorConstraint@@QBE?AVdgVector@@XZ 100711e0 f   physics:dgUpVectorConstraint.obj
 0001:00070210       ?SetJointParameterCallBack@dgUpVectorConstraint@@QAEXP6AIABV1@@Z@Z 10071210 f   physics:dgUpVectorConstraint.obj
 0001:00070230       ?JacobianDerivative@dgUpVectorConstraint@@EAEIAAVdgContraintDescritor@@@Z 10071230 f   physics:dgUpVectorConstraint.obj
 0001:00070470       ??_EdgUpVectorConstraint@@EAEPAXI@Z 10071470 f i physics:dgUpVectorConstraint.obj
 0001:00070470       ??_GdgUpVectorConstraint@@EAEPAXI@Z 10071470 f i physics:dgUpVectorConstraint.obj
 0001:000704a0       ?GetUserData@dgConstraint@@QBEPAXXZ 100714a0 f   physics:dgConstraint.obj
 0001:000704c0       ?SetUserData@dgConstraint@@QAEXPAX@Z 100714c0 f   physics:dgConstraint.obj
 0001:000704e0       ?IsBilateral@dgConstraint@@MBE_NXZ 100714e0 f   physics:dgConstraint.obj
 0001:000704f0       ?InitPointParam@dgConstraint@@IBEXAAVdgPointParam@1@MABVdgVector@@1@Z 100714f0 f   physics:dgConstraint.obj
 0001:000707a0       ?InitInfo@dgConstraint@@IBEXPAVdgConstraintInfo@@@Z 100717a0 f   physics:dgConstraint.obj
 0001:00070880       ?GetInfo@dgConstraint@@UBEXQAVdgConstraintInfo@@@Z 10071880 f   physics:dgConstraint.obj
 0001:000708b0       ??0dgUserConstraint@@IAE@QAVdgWorld@@QAVdgBody@@1H@Z 100718b0 f   physics:dgUserConstraint.obj
 0001:00070960       ??1dgUserConstraint@@MAE@XZ 10071960 f   physics:dgUserConstraint.obj
 0001:00070980       ?GetInfo@dgUserConstraint@@MBEXQAVdgConstraintInfo@@@Z 10071980 f   physics:dgUserConstraint.obj
 0001:000709a0       ??_EdgUserConstraint@@MAEPAXI@Z 100719a0 f i physics:dgUserConstraint.obj
 0001:000709a0       ??_GdgUserConstraint@@MAEPAXI@Z 100719a0 f i physics:dgUserConstraint.obj
 0001:000709d0       ??0dgBilateralConstraint@@IAE@XZ 100719d0 f   physics:dgBilateralConstraint.obj
 0001:00070af0       ??1dgBilateralConstraint@@MAE@XZ 10071af0 f   physics:dgBilateralConstraint.obj
 0001:00070b30       ?IsBilateral@dgBilateralConstraint@@MBE_NXZ 10071b30 f   physics:dgBilateralConstraint.obj
 0001:00070b40       ?GetStiffness@dgBilateralConstraint@@MBEMXZ 10071b40 f   physics:dgBilateralConstraint.obj
 0001:00070b60       ?SetStiffness@dgBilateralConstraint@@MAEXM@Z 10071b60 f   physics:dgBilateralConstraint.obj
 0001:00070bb0       ?SetDestructorCallback@dgBilateralConstraint@@UAEXP6AXAAVdgConstraint@@@Z@Z 10071bb0 f   physics:dgBilateralConstraint.obj
 0001:00070bd0       ?CalculateMatrixOffset@dgBilateralConstraint@@IAEXABVdgVector@@0AAVdgMatrix@@1@Z 10071bd0 f   physics:dgBilateralConstraint.obj
 0001:00070d90       ?SetPivotAndPinDir@dgBilateralConstraint@@IAEXABVdgVector@@0@Z 10071d90 f   physics:dgBilateralConstraint.obj
 0001:00070dc0       ?SetPivotAndPinDir@dgBilateralConstraint@@IAEXABVdgVector@@00@Z 10071dc0 f   physics:dgBilateralConstraint.obj
 0001:00071070       ?CalculateGlobalMatrixAndAngle@dgBilateralConstraint@@IBE?AVdgVector@@AAVdgMatrix@@0@Z 10072070 f   physics:dgBilateralConstraint.obj
 0001:00071270       ?SetMotorAcceleration@dgBilateralConstraint@@IAEXHMAAVdgContraintDescritor@@@Z 10072270 f   physics:dgBilateralConstraint.obj
 0001:000712c0       ?SetJacobianDerivative@dgBilateralConstraint@@IAEXHAAVdgContraintDescritor@@PBM1PAM@Z 100722c0 f   physics:dgBilateralConstraint.obj
 0001:00071490       ?CalculateSpringDamperAcceleration@dgBilateralConstraint@@IAEMHABVdgContraintDescritor@@MABVdgVector@@1MM@Z 10072490 f   physics:dgBilateralConstraint.obj
 0001:00071680       ?CalculateAngularDerivative@dgBilateralConstraint@@IAEXHAAVdgContraintDescritor@@ABVdgVector@@MMPAM@Z 10072680 f   physics:dgBilateralConstraint.obj
 0001:000719c0       ?CalculatePointDerivative@dgBilateralConstraint@@IAEXHAAVdgContraintDescritor@@ABVdgVector@@ABVdgPointParam@dgConstraint@@PAM@Z 100729c0 f   physics:dgBilateralConstraint.obj
 0001:00071e00       ?JointAccelerationsSimd@dgBilateralConstraint@@MAEXABVdgJointAccelerationDecriptor@@@Z 10072e00 f   physics:dgBilateralConstraint.obj
 0001:00072050       ?JointAccelerations@dgBilateralConstraint@@MAEXABVdgJointAccelerationDecriptor@@@Z 10073050 f   physics:dgBilateralConstraint.obj
 0001:000722a0       ?JointVelocityCorrection@dgBilateralConstraint@@MAEXABVdgJointAccelerationDecriptor@@@Z 100732a0 f   physics:dgBilateralConstraint.obj
 0001:000722b0       ??0dgConstraint@@IAE@XZ    100732b0 f i physics:dgBilateralConstraint.obj
 0001:000723a0       ??_GdgConstraint@@MAEPAXI@Z 100733a0 f i physics:dgBilateralConstraint.obj
 0001:000723a0       ??_EdgConstraint@@MAEPAXI@Z 100733a0 f i physics:dgBilateralConstraint.obj
 0001:000723d0       ??1dgConstraint@@MAE@XZ    100733d0 f i physics:dgBilateralConstraint.obj
 0001:000723f0       ?GetStiffness@dgConstraint@@UBEMXZ 100733f0 f i physics:dgBilateralConstraint.obj
 0001:00072400       ?SetStiffness@dgConstraint@@UAEXM@Z 10073400 f i physics:dgBilateralConstraint.obj
 0001:00072410       ??_EdgBilateralConstraint@@MAEPAXI@Z 10073410 f i physics:dgBilateralConstraint.obj
 0001:00072410       ??_GdgBilateralConstraint@@MAEPAXI@Z 10073410 f i physics:dgBilateralConstraint.obj
 0001:00072440       ??0dgContactMaterial@@QAE@XZ 10073440 f   physics:dgContact.obj
 0001:00072540       ??0dgContact@@AAE@PAVdgWorld@@@Z 10073540 f   physics:dgContact.obj
 0001:00072680       ?GetInfo@dgContact@@EBEXQAVdgConstraintInfo@@@Z 10073680 f   physics:dgContact.obj
 0001:000726e0       ?CalculatePointDerivative@dgContact@@ABEXHAAVdgContraintDescritor@@ABVdgVector@@ABVdgPointParam@dgConstraint@@@Z 100736e0 f   physics:dgContact.obj
 0001:000728d0       ?JacobianDerivative@dgContact@@EAEIAAVdgContraintDescritor@@@Z 100738d0 f   physics:dgContact.obj
 0001:00072960       ?JacobianContactDerivative@dgContact@@AAEXAAVdgContraintDescritor@@ABVdgContactMaterial@@HAAH@Z 10073960 f   physics:dgContact.obj
 0001:00072fc0       ?JointAccelerationsSimd@dgContact@@EAEXABVdgJointAccelerationDecriptor@@@Z 10073fc0 f   physics:dgContact.obj
 0001:000735a0       ?JointAccelerations@dgContact@@EAEXABVdgJointAccelerationDecriptor@@@Z 100745a0 f   physics:dgContact.obj
 0001:00073820       ?JointVelocityCorrection@dgContact@@EAEXABVdgJointAccelerationDecriptor@@@Z 10074820 f   physics:dgContact.obj
 0001:00073860       ??0dgCollidingPairCollector@@QAE@XZ 10074860 f   physics:dgContact.obj
 0001:000738a0       ??1dgCollidingPairCollector@@QAE@XZ 100748a0 f   physics:dgContact.obj
 0001:000738b0       ?Init@dgCollidingPairCollector@@QAEXXZ 100748b0 f   physics:dgContact.obj
 0001:00073910       ?SetCaches@dgCollidingPairCollector@@QAEXQAUdgThreadPairCache@1@@Z 10074910 f   physics:dgContact.obj
 0001:00073960       ?FlushChache@dgCollidingPairCollector@@QAEXQAUdgThreadPairCache@1@@Z 10074960 f   physics:dgContact.obj
 0001:00073a90       ?AddPair@dgCollidingPairCollector@@QAEXQAVdgBody@@0H@Z 10074a90 f   physics:dgContact.obj
 0001:000740b0       ?SetDestructorCallback@dgContact@@EAEXP6AXAAVdgConstraint@@@Z@Z 100750b0 f i physics:dgContact.obj
 0001:000740c0       ??_EdgContact@@EAEPAXI@Z   100750c0 f i physics:dgContact.obj
 0001:000740c0       ??_GdgContact@@EAEPAXI@Z   100750c0 f i physics:dgContact.obj
 0001:000740f0       ??3dgContact@@CAXPAX@Z     100750f0 f i physics:dgContact.obj
 0001:00074110       ??1dgContact@@EAE@XZ       10075110 f i physics:dgContact.obj
 0001:00074190       ?Append@?$dgList@PAVdgContact@@@@QAEPAVdgListNode@1@ABQAVdgContact@@@Z 10075190 f i physics:dgContact.obj
 0001:00074250       ?Remove@?$dgList@PAVdgContact@@@@QAEXQAVdgListNode@1@@Z 10075250 f i physics:dgContact.obj
 0001:000742a0       ??0?$dgList@VdgContactMaterial@@@@QAE@QAVdgMemoryAllocator@@@Z 100752a0 f i physics:dgContact.obj
 0001:000742e0       ??1?$dgList@VdgContactMaterial@@@@QAE@XZ 100752e0 f i physics:dgContact.obj
 0001:00074300       ?RemoveAll@?$dgList@VdgContactMaterial@@@@QAEXXZ 10075300 f i physics:dgContact.obj
 0001:000743c0       ??2dgListNode@?$dgList@PAVdgContact@@@@CAPAXIQAVdgMemoryAllocator@@@Z 100753c0 f i physics:dgContact.obj
 0001:000743e0       ??0dgListNode@?$dgList@PAVdgContact@@@@AAE@ABQAVdgContact@@QAV01@1@Z 100753e0 f i physics:dgContact.obj
 0001:00074470       ?Unlink@?$dgList@PAVdgContact@@@@QAEXQAVdgListNode@1@@Z 10075470 f i physics:dgContact.obj
 0001:00074520       ?GetPrev@dgListNode@?$dgList@PAVdgContact@@@@QBEPAV12@XZ 10075520 f i physics:dgContact.obj
 0001:00074540       ??0dgBodyMasterListRow@@QAE@XZ 10075540 f   physics:dgBodyMasterList.obj
 0001:00074570       ??1dgBodyMasterListRow@@QAE@XZ 10075570 f   physics:dgBodyMasterList.obj
 0001:000745b0       ?AddJoint@dgBodyMasterListRow@@QAEPAVdgListNode@?$dgList@VdgBodyMasterListCell@@@@QAVdgConstraint@@QAVdgBody@@@Z 100755b0 f   physics:dgBodyMasterList.obj
 0001:000745f0       ?RemoveAllJoints@dgBodyMasterListRow@@QAEXXZ 100755f0 f   physics:dgBodyMasterList.obj
 0001:00074650       ?SortList@dgBodyMasterListRow@@QAEXXZ 10075650 f   physics:dgBodyMasterList.obj
 0001:000746d0       ??0dgBodyMasterList@@QAE@QAVdgMemoryAllocator@@@Z 100756d0 f   physics:dgBodyMasterList.obj
 0001:00074700       ??1dgBodyMasterList@@QAE@XZ 10075700 f   physics:dgBodyMasterList.obj
 0001:00074720       ?AddBody@dgBodyMasterList@@QAEXQAVdgBody@@@Z 10075720 f   physics:dgBodyMasterList.obj
 0001:000747a0       ?RemoveBody@dgBodyMasterList@@QAEXQAVdgBody@@@Z 100757a0 f   physics:dgBodyMasterList.obj
 0001:00074840       ?FindConstraintLink@dgBodyMasterList@@QBEPAVdgListNode@?$dgList@VdgBodyMasterListCell@@@@QBVdgBody@@0@Z 10075840 f   physics:dgBodyMasterList.obj
 0001:00074910       ?FindConstraintLinkNext@dgBodyMasterList@@QBEPAVdgListNode@?$dgList@VdgBodyMasterListCell@@@@QBV23@QBVdgBody@@@Z 10075910 f   physics:dgBodyMasterList.obj
 0001:000749a0       ?AttachConstraint@dgBodyMasterList@@QAEXQAVdgConstraint@@QAVdgBody@@1@Z 100759a0 f   physics:dgBodyMasterList.obj
 0001:00074ab0       ?RemoveConstraint@dgBodyMasterList@@QAEXQAVdgConstraint@@@Z 10075ab0 f   physics:dgBodyMasterList.obj
 0001:00074c90       ?SortMasterList@dgBodyMasterList@@QAEXXZ 10075c90 f   physics:dgBodyMasterList.obj
 0001:00074e40       ?GetPrev@dgListNode@?$dgList@VdgBodyMasterListCell@@@@QBEPAV12@XZ 10075e40 f i physics:dgBodyMasterList.obj
 0001:00074e60       ??0?$dgList@VdgBodyMasterListCell@@@@QAE@QAVdgMemoryAllocator@@@Z 10075e60 f i physics:dgBodyMasterList.obj
 0001:00074ea0       ??1?$dgList@VdgBodyMasterListCell@@@@QAE@XZ 10075ea0 f i physics:dgBodyMasterList.obj
 0001:00074ec0       ?SetAllocator@?$dgList@VdgBodyMasterListCell@@@@QAEXQAVdgMemoryAllocator@@@Z 10075ec0 f i physics:dgBodyMasterList.obj
 0001:00074ef0       ?Addtop@?$dgList@VdgBodyMasterListCell@@@@QAEPAVdgListNode@1@XZ 10075ef0 f i physics:dgBodyMasterList.obj
 0001:00074fb0       ?RotateToBegin@?$dgList@VdgBodyMasterListCell@@@@QAEXQAVdgListNode@1@@Z 10075fb0 f i physics:dgBodyMasterList.obj
 0001:00075020       ?InsertAfter@?$dgList@VdgBodyMasterListCell@@@@QAEXQAVdgListNode@1@0@Z 10076020 f i physics:dgBodyMasterList.obj
 0001:000751f0       ?Remove@?$dgList@VdgBodyMasterListCell@@@@QAEXQAVdgListNode@1@@Z 100761f0 f i physics:dgBodyMasterList.obj
 0001:00075240       ??0?$dgList@VdgBodyMasterListRow@@@@QAE@QAVdgMemoryAllocator@@@Z 10076240 f i physics:dgBodyMasterList.obj
 0001:00075280       ??1?$dgList@VdgBodyMasterListRow@@@@QAE@XZ 10076280 f i physics:dgBodyMasterList.obj
 0001:000752a0       ?Append@?$dgList@VdgBodyMasterListRow@@@@QAEPAVdgListNode@1@XZ 100762a0 f i physics:dgBodyMasterList.obj
 0001:00075360       ?RotateToBegin@?$dgList@VdgBodyMasterListRow@@@@QAEXQAVdgListNode@1@@Z 10076360 f i physics:dgBodyMasterList.obj
 0001:000753d0       ?Remove@?$dgList@VdgBodyMasterListRow@@@@QAEXQAVdgListNode@1@@Z 100763d0 f i physics:dgBodyMasterList.obj
 0001:00075420       ??_GdgListNode@?$dgList@VdgBodyMasterListCell@@@@AAEPAXI@Z 10076420 f i physics:dgBodyMasterList.obj
 0001:00075450       ??_GdgListNode@?$dgList@VdgBodyMasterListRow@@@@AAEPAXI@Z 10076450 f i physics:dgBodyMasterList.obj
 0001:00075480       ??2dgListNode@?$dgList@VdgBodyMasterListCell@@@@CAPAXIQAVdgMemoryAllocator@@@Z 10076480 f i physics:dgBodyMasterList.obj
 0001:000754a0       ??3dgListNode@?$dgList@VdgBodyMasterListCell@@@@CAXPAX@Z 100764a0 f i physics:dgBodyMasterList.obj
 0001:000754c0       ??0dgListNode@?$dgList@VdgBodyMasterListCell@@@@AAE@QAV01@0@Z 100764c0 f i physics:dgBodyMasterList.obj
 0001:00075550       ??1dgListNode@?$dgList@VdgBodyMasterListCell@@@@AAE@XZ 10076550 f i physics:dgBodyMasterList.obj
 0001:00075560       ?Unlink@dgListNode@?$dgList@VdgBodyMasterListCell@@@@AAEXXZ 10076560 f i physics:dgBodyMasterList.obj
 0001:000755b0       ?AddFirst@dgListNode@?$dgList@VdgBodyMasterListCell@@@@AAEXQAV12@@Z 100765b0 f i physics:dgBodyMasterList.obj
 0001:000755d0       ??2dgListNode@?$dgList@VdgBodyMasterListRow@@@@CAPAXIQAVdgMemoryAllocator@@@Z 100765d0 f i physics:dgBodyMasterList.obj
 0001:000755f0       ??3dgListNode@?$dgList@VdgBodyMasterListRow@@@@CAXPAX@Z 100765f0 f i physics:dgBodyMasterList.obj
 0001:00075610       ??0dgListNode@?$dgList@VdgBodyMasterListRow@@@@AAE@QAV01@0@Z 10076610 f i physics:dgBodyMasterList.obj
 0001:000756a0       ??1dgListNode@?$dgList@VdgBodyMasterListRow@@@@AAE@XZ 100766a0 f i physics:dgBodyMasterList.obj
 0001:000756c0       ?AddFirst@dgListNode@?$dgList@VdgBodyMasterListRow@@@@AAEXQAV12@@Z 100766c0 f i physics:dgBodyMasterList.obj
 0001:000756e0       ?RemoveAll@?$dgList@VdgBodyMasterListCell@@@@QAEXXZ 100766e0 f i physics:dgBodyMasterList.obj
 0001:000757a0       ?Unlink@?$dgList@VdgBodyMasterListCell@@@@QAEXQAVdgListNode@1@@Z 100767a0 f i physics:dgBodyMasterList.obj
 0001:00075850       ?SanityCheck@?$dgList@VdgBodyMasterListCell@@@@QBE_NXZ 10076850 f i physics:dgBodyMasterList.obj
 0001:000759d0       ?RemoveAll@?$dgList@VdgBodyMasterListRow@@@@QAEXXZ 100769d0 f i physics:dgBodyMasterList.obj
 0001:00075a90       ?Unlink@?$dgList@VdgBodyMasterListRow@@@@QAEXQAVdgListNode@1@@Z 10076a90 f i physics:dgBodyMasterList.obj
 0001:00075b40       ??0dgCollisionSphere@@QAE@PAVdgMemoryAllocator@@IMABVdgMatrix@@@Z 10076b40 f   physics:dgCollisionSphere.obj
 0001:00075ba0       ??0dgCollisionSphere@@QAE@QAVdgWorld@@P6AXPAX1I@ZQAX@Z 10076ba0 f   physics:dgCollisionSphere.obj
 0001:00075c30       ??1dgCollisionSphere@@UAE@XZ 10076c30 f   physics:dgCollisionSphere.obj
 0001:00075ca0       ?Init@dgCollisionSphere@@IAEXMPAVdgMemoryAllocator@@@Z 10076ca0 f   physics:dgCollisionSphere.obj
 0001:000763f0       ?SupportVertexSimd@dgCollisionSphere@@MBE?AVdgVector@@ABV2@@Z 100773f0 f   physics:dgCollisionSphere.obj
 0001:00076470       ?SupportVertex@dgCollisionSphere@@MBE?AVdgVector@@ABV2@@Z 10077470 f   physics:dgCollisionSphere.obj
 0001:000764f0       ?TesselateTriangle@dgCollisionSphere@@IBEXHABVdgVector@@00AAHPAV2@@Z 100774f0 f   physics:dgCollisionSphere.obj
 0001:00076980       ?SetCollisionBBox@dgCollisionSphere@@MAEXABVdgVector@@0@Z 10077980 f   physics:dgCollisionSphere.obj
 0001:000769c0       ?CalculateSignature@dgCollisionSphere@@MBEHXZ 100779c0 f   physics:dgCollisionSphere.obj
 0001:00076a40       ?CalcAABB@dgCollisionSphere@@MBEXABVdgMatrix@@AAVdgVector@@1@Z 10077a40 f   physics:dgCollisionSphere.obj
 0001:00076b30       ?CalculatePlaneIntersection@dgCollisionSphere@@MBEHABVdgVector@@0QAV2@@Z 10077b30 f   physics:dgCollisionSphere.obj
 0001:00076be0       ?CalculatePlaneIntersectionSimd@dgCollisionSphere@@MBEHABVdgVector@@0QAV2@@Z 10077be0 f   physics:dgCollisionSphere.obj
 0001:00076c90       ?DebugCollision@dgCollisionSphere@@MBEXABVdgMatrix@@P6AXPAXHPBMH@ZQAX@Z 10077c90 f   physics:dgCollisionSphere.obj
 0001:00077080       ?GetVolume@dgCollisionPoint@@UBEMXZ 10078080 f   physics:dgCollisionSphere.obj
 0001:000770c0       ?CalculateInertia@dgCollisionPoint@@UBEXAAVdgVector@@0@Z 100780c0 f   physics:dgCollisionSphere.obj
 0001:00077120       ?SupportVertex@dgCollisionPoint@@UBE?AVdgVector@@ABV2@@Z 10078120 f   physics:dgCollisionSphere.obj
 0001:00077150       ?SupportVertexSimd@dgCollisionPoint@@UBE?AVdgVector@@ABV2@@Z 10078150 f   physics:dgCollisionSphere.obj
 0001:000771b0       ?RayCast@dgCollisionSphere@@MBEMABVdgVector@@0AAVdgContactPoint@@P6AIQBVdgBody@@QBVdgCollision@@QAX@Z24@Z 100781b0 f   physics:dgCollisionSphere.obj
 0001:000773b0       ?RayCastSimd@dgCollisionSphere@@MBEMABVdgVector@@0AAVdgContactPoint@@P6AIQBVdgBody@@QBVdgCollision@@QAX@Z24@Z 100783b0 f   physics:dgCollisionSphere.obj
 0001:000773f0       ?CalculateMassProperties@dgCollisionSphere@@MBEMAAVdgVector@@00@Z 100783f0 f   physics:dgCollisionSphere.obj
 0001:00077550       ?GetCollisionInfo@dgCollisionSphere@@MBEXPAVdgCollisionInfo@@@Z 10078550 f   physics:dgCollisionSphere.obj
 0001:000775c0       ?Serialize@dgCollisionSphere@@MBEXP6AXPAXPBXI@ZQAX@Z 100785c0 f   physics:dgCollisionSphere.obj
 0001:00077640       ??_GdgCollisionSphere@@UAEPAXI@Z 10078640 f i physics:dgCollisionSphere.obj
 0001:00077640       ??_EdgCollisionSphere@@UAEPAXI@Z 10078640 f i physics:dgCollisionSphere.obj
 0001:00077670       ??0dgConvexCollision@@IAE@QAVdgMemoryAllocator@@IABVdgMatrix@@W4dgCollisionID@@@Z 10078670 f   physics:dgConvexCollision.obj
 0001:00077810       ??0dgConvexCollision@@IAE@QAVdgWorld@@P6AXPAX1I@ZQAX@Z 10078810 f   physics:dgConvexCollision.obj
 0001:00077990       ??1dgConvexCollision@@MAE@XZ 10078990 f   physics:dgConvexCollision.obj
 0001:000779f0       ?SerializeLow@dgConvexCollision@@MBEXP6AXPAXPBXI@ZQAX@Z 100789f0 f   physics:dgConvexCollision.obj
 0001:00077a40       ?GetUserData@dgConvexCollision@@MBEPAXXZ 10078a40 f   physics:dgConvexCollision.obj
 0001:00077a60       ?SetUserData@dgConvexCollision@@MAEXQAX@Z 10078a60 f   physics:dgConvexCollision.obj
 0001:00077a80       ?SetVolumeAndCG@dgConvexCollision@@IAEXXZ 10078a80 f   physics:dgConvexCollision.obj
 0001:00078270       ?GetDiscretedAngleStep@dgConvexCollision@@IBEMM@Z 10079270 f   physics:dgConvexCollision.obj
 0001:000782c0       ?SanityCheck@dgConvexCollision@@IBE_NAAVdgPolyhedra@@@Z 100792c0 f   physics:dgConvexCollision.obj
 0001:00078490       ?DebugCollision@dgConvexCollision@@MBEXABVdgMatrix@@P6AXPAXHPBMH@ZQAX@Z 10079490 f   physics:dgConvexCollision.obj
 0001:00078680       ?CalcAABB@dgConvexCollision@@UBEXABVdgMatrix@@AAVdgVector@@1@Z 10079680 f   physics:dgConvexCollision.obj
 0001:00078900       ?CalcAABBSimd@dgConvexCollision@@UBEXABVdgMatrix@@AAVdgVector@@1@Z 10079900 f   physics:dgConvexCollision.obj
 0001:00078a60       ?GetSupportEdge@dgConvexCollision@@IBEPAVdgConvexSimplexEdge@@ABVdgVector@@@Z 10079a60 f   physics:dgConvexCollision.obj
 0001:00078b50       ?CalculateInertia@dgConvexCollision@@CAXPAXHPBMH@Z 10079b50 f   physics:dgConvexCollision.obj
 0001:00078b70       ?CalculateMassProperties@dgConvexCollision@@MBEMAAVdgVector@@00@Z 10079b70 f   physics:dgConvexCollision.obj
 0001:00078bc0       ?CalculateInertia@dgConvexCollision@@EBEXAAVdgVector@@0@Z 10079bc0 f   physics:dgConvexCollision.obj
 0001:00078eb0       ?GetVolume@dgConvexCollision@@EBEMXZ 10079eb0 f   physics:dgConvexCollision.obj
 0001:00078f50       ?GetBoxMinRadius@dgConvexCollision@@EBEMXZ 10079f50 f   physics:dgConvexCollision.obj
 0001:00078f70       ?GetBoxMaxRadius@dgConvexCollision@@EBEMXZ 10079f70 f   physics:dgConvexCollision.obj
 0001:00078f90       ?RayCastClosestFace@dgConvexCollision@@ABEHPAVdgVector@@ABV2@AAM@Z 10079f90 f   physics:dgConvexCollision.obj
 0001:000795d0       ?RayHitBox@dgConvexCollision@@ABE_NABVdgVector@@0@Z 1007a5d0 f   physics:dgConvexCollision.obj
 0001:000797d0       ?CalculateVolumeIntegral@dgConvexCollision@@EBE?AVdgVector@@ABVdgMatrix@@P6AIPAX10AAVdgPlane@@@ZQAX@Z 1007a7d0 f   physics:dgConvexCollision.obj
 0001:000798e0       ?CalculateVolumeIntegral@dgConvexCollision@@IBE?AVdgVector@@ABVdgPlane@@@Z 1007a8e0 f   physics:dgConvexCollision.obj
 0001:0007a1a0       ?SupportVertex@dgConvexCollision@@UBE?AVdgVector@@ABV2@@Z 1007b1a0 f   physics:dgConvexCollision.obj
 0001:0007a3f0       ?SupportVertexSimd@dgConvexCollision@@UBE?AVdgVector@@ABV2@@Z 1007b3f0 f   physics:dgConvexCollision.obj
 0001:0007ab20       ?SanityCheck@dgConvexCollision@@IBE_NHABVdgVector@@QAV2@@Z 1007bb20 f   physics:dgConvexCollision.obj
 0001:0007aef0       ?SimplifyClipPolygon@dgConvexCollision@@ABEHHABVdgVector@@QAV2@@Z 1007bef0 f   physics:dgConvexCollision.obj
 0001:0007b240       ?RectifyConvexSlice@dgConvexCollision@@IBEHHABVdgVector@@QAV2@@Z 1007c240 f   physics:dgConvexCollision.obj
 0001:0007b780       ?CalculatePlaneIntersectionSimd@dgConvexCollision@@UBEHABVdgVector@@0QAV2@@Z 1007c780 f   physics:dgConvexCollision.obj
 0001:0007c8a0       ?CalculatePlaneIntersection@dgConvexCollision@@UBEHABVdgVector@@0QAV2@@Z 1007d8a0 f   physics:dgConvexCollision.obj
 0001:0007d1d0       ?RayCast@dgConvexCollision@@UBEMABVdgVector@@0AAVdgContactPoint@@P6AIQBVdgBody@@QBVdgCollision@@QAX@Z24@Z 1007e1d0 f   physics:dgConvexCollision.obj
 0001:0007e050       ?RayCastSimd@dgConvexCollision@@UBEMABVdgVector@@0AAVdgContactPoint@@P6AIQBVdgBody@@QBVdgCollision@@QAX@Z24@Z 1007f050 f   physics:dgConvexCollision.obj
 0001:0007e090       ?IsTriggerVolume@dgConvexCollision@@UBE_NXZ 1007f090 f   physics:dgConvexCollision.obj
 0001:0007e0b0       ?SetAsTriggerVolume@dgConvexCollision@@MAEX_N@Z 1007f0b0 f   physics:dgConvexCollision.obj
 0001:0007e0e0       ?OOBBTest@dgConvexCollision@@UBE_NABVdgMatrix@@QBV1@QAX@Z 1007f0e0 f   physics:dgConvexCollision.obj
 0001:0007e270       ??_EdgConvexCollision@@MAEPAXI@Z 1007f270 f i physics:dgConvexCollision.obj
 0001:0007e270       ??_GdgConvexCollision@@MAEPAXI@Z 1007f270 f i physics:dgConvexCollision.obj
 0001:0007e2a0       ??1?$dgUpHeap@HM@@QAE@XZ   1007f2a0 f i physics:dgConvexCollision.obj
 0001:0007e2c0       ??$GetMin@M@@YAMMMM@Z      1007f2c0 f i physics:dgConvexCollision.obj
 0001:0007e2f0       ??$Swap@VdgVector@@@@YAXAAVdgVector@@0@Z 1007f2f0 f i physics:dgConvexCollision.obj
 0001:0007e360       ??1?$dgHeapBase@HM@@IAE@XZ 1007f360 f i physics:dgConvexCollision.obj
 0001:0007e390       ?Flush@?$dgHeapBase@HM@@QAEXXZ 1007f390 f i physics:dgConvexCollision.obj
 0001:0007e3b0       ?GetCount@?$dgHeapBase@HM@@QBEHXZ 1007f3b0 f i physics:dgConvexCollision.obj
 0001:0007e3c0       ??A?$dgHeapBase@HM@@QBEABHH@Z 1007f3c0 f i physics:dgConvexCollision.obj
 0001:0007e410       ??0?$dgUpHeap@HM@@QAE@QBXH@Z 1007f410 f i physics:dgConvexCollision.obj
 0001:0007e430       ?Pop@?$dgUpHeap@HM@@QAEXXZ 1007f430 f i physics:dgConvexCollision.obj
 0001:0007e520       ?Push@?$dgUpHeap@HM@@QAEXAAHM@Z 1007f520 f i physics:dgConvexCollision.obj
 0001:0007e620       ??0?$dgHeapBase@HM@@IAE@QBXH@Z 1007f620 f i physics:dgConvexCollision.obj
 0001:0007e660       ?UntransformPlane@dgMatrix@@QBE?AVdgPlane@@ABV2@@Z 1007f660 f i physics:dgConvexCollision.obj
 0001:0007e6c0       ?TransformVectorSimd@dgMatrix@@QBE?AVdgVector@@ABV2@@Z 1007f6c0 f i physics:dgConvexCollision.obj
 0001:0007e800       ??0dgCollisionNull@@QAE@QAVdgMemoryAllocator@@I@Z 1007f800 f   physics:dgCollisionNull.obj
 0001:0007e840       ??0dgCollisionNull@@QAE@QAVdgWorld@@P6AXPAX1I@ZQAX@Z 1007f840 f   physics:dgCollisionNull.obj
 0001:0007e880       ?Serialize@dgCollisionNull@@EBEXP6AXPAXPBXI@ZQAX@Z 1007f880 f   physics:dgCollisionNull.obj
 0001:0007e8b0       ??1dgCollisionNull@@UAE@XZ 1007f8b0 f   physics:dgCollisionNull.obj
 0001:0007e8d0       ?SetCollisionBBox@dgCollisionNull@@EAEXABVdgVector@@0@Z 1007f8d0 f   physics:dgCollisionNull.obj
 0001:0007e900       ?DebugCollision@dgCollisionNull@@MBEXABVdgMatrix@@P6AXPAXHPBMH@ZQAX@Z 1007f900 f   physics:dgCollisionNull.obj
 0001:0007e910       ?CalculateSignature@dgCollisionNull@@EBEHXZ 1007f910 f   physics:dgCollisionNull.obj
 0001:0007e930       ?CalcAABB@dgCollisionNull@@MBEXABVdgMatrix@@AAVdgVector@@1@Z 1007f930 f   physics:dgCollisionNull.obj
 0001:0007e9f0       ?CalcAABBSimd@dgCollisionNull@@MBEXABVdgMatrix@@AAVdgVector@@1@Z 1007f9f0 f   physics:dgCollisionNull.obj
 0001:0007ea20       ?SupportVertex@dgCollisionNull@@MBE?AVdgVector@@ABV2@@Z 1007fa20 f   physics:dgCollisionNull.obj
 0001:0007ea80       ?SupportVertexSimd@dgCollisionNull@@MBE?AVdgVector@@ABV2@@Z 1007fa80 f   physics:dgCollisionNull.obj
 0001:0007eae0       ?GetVolume@dgCollisionNull@@MBEMXZ 1007fae0 f   physics:dgCollisionNull.obj
 0001:0007eaf0       ?RayCast@dgCollisionNull@@MBEMABVdgVector@@0AAVdgContactPoint@@P6AIQBVdgBody@@QBVdgCollision@@QAX@Z24@Z 1007faf0 f   physics:dgCollisionNull.obj
 0001:0007eb10       ?RayCastSimd@dgCollisionNull@@MBEMABVdgVector@@0AAVdgContactPoint@@P6AIQBVdgBody@@QBVdgCollision@@QAX@Z24@Z 1007fb10 f   physics:dgCollisionNull.obj
 0001:0007eb30       ?CalculateVolumeIntegral@dgCollisionNull@@MBE?AVdgVector@@ABVdgMatrix@@P6AIPAX10AAVdgPlane@@@ZQAX@Z 1007fb30 f   physics:dgCollisionNull.obj
 0001:0007eb90       ?CalculateInertia@dgCollisionNull@@MBEXAAVdgVector@@0@Z 1007fb90 f   physics:dgCollisionNull.obj
 0001:0007ebd0       ??_GdgCollisionNull@@UAEPAXI@Z 1007fbd0 f i physics:dgCollisionNull.obj
 0001:0007ebd0       ??_EdgCollisionNull@@UAEPAXI@Z 1007fbd0 f i physics:dgCollisionNull.obj
 0001:0007ec00       ??0dgCollisionBox@@QAE@QAVdgMemoryAllocator@@IMMMABVdgMatrix@@@Z 1007fc00 f   physics:dgCollisionBox.obj
 0001:0007ecb0       ??0dgCollisionBox@@QAE@QAVdgWorld@@P6AXPAX1I@ZQAX@Z 1007fcb0 f   physics:dgCollisionBox.obj
 0001:0007ed80       ?Init@dgCollisionBox@@IAEXMMM@Z 1007fd80 f   physics:dgCollisionBox.obj
 0001:0007f3a0       ??1dgCollisionBox@@UAE@XZ  100803a0 f   physics:dgCollisionBox.obj
 0001:0007f3e0       ?SetCollisionBBox@dgCollisionBox@@MAEXABVdgVector@@0@Z 100803e0 f   physics:dgCollisionBox.obj
 0001:0007f410       ?CalculateSignature@dgCollisionBox@@MBEHXZ 10080410 f   physics:dgCollisionBox.obj
 0001:0007f4c0       ?SupportVertexSimd@dgCollisionBox@@MBE?AVdgVector@@ABV2@@Z 100804c0 f   physics:dgCollisionBox.obj
 0001:0007f550       ?SupportVertex@dgCollisionBox@@MBE?AVdgVector@@ABV2@@Z 10080550 f   physics:dgCollisionBox.obj
 0001:0007f630       ?CalcAABB@dgCollisionBox@@MBEXABVdgMatrix@@AAVdgVector@@1@Z 10080630 f   physics:dgCollisionBox.obj
 0001:0007f8c0       ?CalcAABBSimd@dgCollisionBox@@MBEXABVdgMatrix@@AAVdgVector@@1@Z 100808c0 f   physics:dgCollisionBox.obj
 0001:0007fa40       ?RayCast@dgCollisionBox@@MBEMABVdgVector@@0AAVdgContactPoint@@P6AIQBVdgBody@@QBVdgCollision@@QAX@Z24@Z 10080a40 f   physics:dgCollisionBox.obj
 0001:0007fcf0       ?RayCastSimd@dgCollisionBox@@MBEMABVdgVector@@0AAVdgContactPoint@@P6AIQBVdgBody@@QBVdgCollision@@QAX@Z24@Z 10080cf0 f   physics:dgCollisionBox.obj
 0001:0007fd30       ?CalculateMassProperties@dgCollisionBox@@MBEMAAVdgVector@@00@Z 10080d30 f   physics:dgCollisionBox.obj
 0001:00080070       ?SetBreakImpulse@dgCollisionBox@@MAEXM@Z 10081070 f   physics:dgCollisionBox.obj
 0001:00080090       ?GetBreakImpulse@dgCollisionBox@@MBEMXZ 10081090 f   physics:dgCollisionBox.obj
 0001:000800b0       ?CalculatePlaneIntersection@dgCollisionBox@@MBEHABVdgVector@@0QAV2@@Z 100810b0 f   physics:dgCollisionBox.obj
 0001:00080510       ?CalculatePlaneIntersectionSimd@dgCollisionBox@@MBEHABVdgVector@@0QAV2@@Z 10081510 f   physics:dgCollisionBox.obj
 0001:00080d40       ?GetCollisionInfo@dgCollisionBox@@MBEXPAVdgCollisionInfo@@@Z 10081d40 f   physics:dgCollisionBox.obj
 0001:00080db0       ?Serialize@dgCollisionBox@@MBEXP6AXPAXPBXI@ZQAX@Z 10081db0 f   physics:dgCollisionBox.obj
 0001:00080e30       ??_GdgCollisionBox@@UAEPAXI@Z 10081e30 f i physics:dgCollisionBox.obj
 0001:00080e30       ??_EdgCollisionBox@@UAEPAXI@Z 10081e30 f i physics:dgCollisionBox.obj
 0001:00080e60       ??0dgCollision@@IAE@QAVdgMemoryAllocator@@IABVdgMatrix@@W4dgCollisionID@@@Z 10081e60 f   physics:dgCollision.obj
 0001:00080ed0       ??0dgCollision@@IAE@QAVdgWorld@@P6AXPAX1I@ZQAX@Z 10081ed0 f   physics:dgCollision.obj
 0001:00080f60       ??1dgCollision@@MAE@XZ     10081f60 f   physics:dgCollision.obj
 0001:00080f80       ?Quantize@dgCollision@@SAIM@Z 10081f80 f   physics:dgCollision.obj
 0001:00080fb0       ?MakeCRC@dgCollision@@SAIPAXH@Z 10081fb0 f   physics:dgCollision.obj
 0001:00080fd0       ?SetOffsetMatrix@dgCollision@@QAEXABVdgMatrix@@@Z 10081fd0 f   physics:dgCollision.obj
 0001:000810e0       ?GetUserData@dgCollision@@UBEPAXXZ 100820e0 f   physics:dgCollision.obj
 0001:000810f0       ?SetUserData@dgCollision@@UAEXQAX@Z 100820f0 f   physics:dgCollision.obj
 0001:00081100       ?GetCollisionInfo@dgCollision@@UBEXPAVdgCollisionInfo@@@Z 10082100 f   physics:dgCollision.obj
 0001:00081150       ?SerializeLow@dgCollision@@UBEXP6AXPAXPBXI@ZQAX@Z 10082150 f   physics:dgCollision.obj
 0001:000811b0       ?RayCastSimd@dgCollision@@UBEMABVdgVector@@0AAVdgContactPoint@@P6AIQBVdgBody@@QBV1@QAX@Z24@Z 100821b0 f i physics:dgCollision.obj
 0001:000811f0       ??_EdgCollision@@MAEPAXI@Z 100821f0 f i physics:dgCollision.obj
 0001:000811f0       ??_GdgCollision@@MAEPAXI@Z 100821f0 f i physics:dgCollision.obj
 0001:00081220       ??0dgCollisionEllipse@@QAE@QAVdgMemoryAllocator@@IMMMABVdgMatrix@@@Z 10082220 f   physics:dgCollisionEllipse.obj
 0001:000812d0       ??0dgCollisionEllipse@@QAE@QAVdgWorld@@P6AXPAX1I@ZQAX@Z 100822d0 f   physics:dgCollisionEllipse.obj
 0001:000813b0       ??1dgCollisionEllipse@@UAE@XZ 100823b0 f   physics:dgCollisionEllipse.obj
 0001:000813d0       ?CalculateSignature@dgCollisionEllipse@@EBEHXZ 100823d0 f   physics:dgCollisionEllipse.obj
 0001:00081480       ?SetCollisionBBox@dgCollisionEllipse@@EAEXABVdgVector@@0@Z 10082480 f   physics:dgCollisionEllipse.obj
 0001:000814b0       ?CalcAABB@dgCollisionEllipse@@MBEXABVdgMatrix@@AAVdgVector@@1@Z 100824b0 f   physics:dgCollisionEllipse.obj
 0001:000815d0       ?CalcAABBSimd@dgCollisionEllipse@@MBEXABVdgMatrix@@AAVdgVector@@1@Z 100825d0 f   physics:dgCollisionEllipse.obj
 0001:000816f0       ?SupportVertex@dgCollisionEllipse@@MBE?AVdgVector@@ABV2@@Z 100826f0 f   physics:dgCollisionEllipse.obj
 0001:00081830       ?SupportVertexSimd@dgCollisionEllipse@@MBE?AVdgVector@@ABV2@@Z 10082830 f   physics:dgCollisionEllipse.obj
 0001:00081ad0       ?CalculatePlaneIntersection@dgCollisionEllipse@@EBEHABVdgVector@@0QAV2@@Z 10082ad0 f   physics:dgCollisionEllipse.obj
 0001:00081c20       ?CalculatePlaneIntersectionSimd@dgCollisionEllipse@@EBEHABVdgVector@@0QAV2@@Z 10082c20 f   physics:dgCollisionEllipse.obj
 0001:00081d70       ?DebugCollision@dgCollisionEllipse@@MBEXABVdgMatrix@@P6AXPAXHPBMH@ZQAX@Z 10082d70 f   physics:dgCollisionEllipse.obj
 0001:00081ed0       ?RayCast@dgCollisionEllipse@@MBEMABVdgVector@@0AAVdgContactPoint@@P6AIQBVdgBody@@QBVdgCollision@@QAX@Z24@Z 10082ed0 f   physics:dgCollisionEllipse.obj
 0001:00081fd0       ?RayCastSimd@dgCollisionEllipse@@MBEMABVdgVector@@0AAVdgContactPoint@@P6AIQBVdgBody@@QBVdgCollision@@QAX@Z24@Z 10082fd0 f   physics:dgCollisionEllipse.obj
 0001:000820d0       ?CalculateMassProperties@dgCollisionEllipse@@EBEMAAVdgVector@@00@Z 100830d0 f   physics:dgCollisionEllipse.obj
 0001:00082100       ?GetCollisionInfo@dgCollisionEllipse@@EBEXPAVdgCollisionInfo@@@Z 10083100 f   physics:dgCollisionEllipse.obj
 0001:00082170       ?Serialize@dgCollisionEllipse@@EBEXP6AXPAXPBXI@ZQAX@Z 10083170 f   physics:dgCollisionEllipse.obj
 0001:000821b0       ??_EdgCollisionEllipse@@UAEPAXI@Z 100831b0 f i physics:dgCollisionEllipse.obj
 0001:000821b0       ??_GdgCollisionEllipse@@UAEPAXI@Z 100831b0 f i physics:dgCollisionEllipse.obj
 0001:000821e0       ??0dgCollisionCapsule@@QAE@QAVdgMemoryAllocator@@IMMABVdgMatrix@@@Z 100831e0 f   physics:dgCollisionCapsule.obj
 0001:00082260       ??0dgCollisionCapsule@@QAE@QAVdgWorld@@P6AXPAX1I@ZQAX@Z 10083260 f   physics:dgCollisionCapsule.obj
 0001:00082310       ??1dgCollisionCapsule@@UAE@XZ 10083310 f   physics:dgCollisionCapsule.obj
 0001:00082380       ?Init@dgCollisionCapsule@@AAEXMM@Z 10083380 f   physics:dgCollisionCapsule.obj
 0001:00082b90       ?CalculateSignature@dgCollisionCapsule@@EBEHXZ 10083b90 f   physics:dgCollisionCapsule.obj
 0001:00082c20       ?TesselateTriangle@dgCollisionCapsule@@ABEXHMABVdgVector@@00AAHPAV2@@Z 10083c20 f   physics:dgCollisionCapsule.obj
 0001:000831b0       ?DebugCollision@dgCollisionCapsule@@EBEXABVdgMatrix@@P6AXPAXHPBMH@ZQAX@Z 100841b0 f   physics:dgCollisionCapsule.obj
 0001:00083790       ?SetCollisionBBox@dgCollisionCapsule@@EAEXABVdgVector@@0@Z 10084790 f   physics:dgCollisionCapsule.obj
 0001:000837d0       ?SupportVertexSimd@dgCollisionCapsule@@EBE?AVdgVector@@ABV2@@Z 100847d0 f   physics:dgCollisionCapsule.obj
 0001:000838b0       ?SupportVertex@dgCollisionCapsule@@EBE?AVdgVector@@ABV2@@Z 100848b0 f   physics:dgCollisionCapsule.obj
 0001:00083990       ?RayCast@dgCollisionCapsule@@EBEMABVdgVector@@0AAVdgContactPoint@@P6AIQBVdgBody@@QBVdgCollision@@QAX@Z24@Z 10084990 f   physics:dgCollisionCapsule.obj
 0001:000844c0       ?RayCastSimd@dgCollisionCapsule@@EBEMABVdgVector@@0AAVdgContactPoint@@P6AIQBVdgBody@@QBVdgCollision@@QAX@Z24@Z 100854c0 f   physics:dgCollisionCapsule.obj
 0001:00084500       ?CalculateMassProperties@dgCollisionCapsule@@EBEMAAVdgVector@@00@Z 10085500 f   physics:dgCollisionCapsule.obj
 0001:00084850       ?CalculatePlaneIntersectionSimd@dgCollisionCapsule@@EBEHABVdgVector@@0QAV2@@Z 10085850 f   physics:dgCollisionCapsule.obj
 0001:00084880       ?CalculatePlaneIntersection@dgCollisionCapsule@@EBEHABVdgVector@@0QAV2@@Z 10085880 f   physics:dgCollisionCapsule.obj
 0001:000854d0       ?GetCollisionInfo@dgCollisionCapsule@@EBEXPAVdgCollisionInfo@@@Z 100864d0 f   physics:dgCollisionCapsule.obj
 0001:00085550       ?Serialize@dgCollisionCapsule@@EBEXP6AXPAXPBXI@ZQAX@Z 10086550 f   physics:dgCollisionCapsule.obj
 0001:000855e0       ??_GdgCollisionCapsule@@UAEPAXI@Z 100865e0 f i physics:dgCollisionCapsule.obj
 0001:000855e0       ??_EdgCollisionCapsule@@UAEPAXI@Z 100865e0 f i physics:dgCollisionCapsule.obj
 0001:00085610       ??0dgCollisionCone@@QAE@QAVdgMemoryAllocator@@IMMABVdgMatrix@@@Z 10086610 f   physics:dgCollisionCone.obj
 0001:00085670       ??0dgCollisionCone@@QAE@QAVdgWorld@@P6AXPAX1I@ZQAX@Z 10086670 f   physics:dgCollisionCone.obj
 0001:00085700       ??1dgCollisionCone@@UAE@XZ 10086700 f   physics:dgCollisionCone.obj
 0001:00085770       ?Init@dgCollisionCone@@AAEXMM@Z 10086770 f   physics:dgCollisionCone.obj
 0001:00085c40       ?CalculateSignature@dgCollisionCone@@EBEHXZ 10086c40 f   physics:dgCollisionCone.obj
 0001:00085cd0       ?DebugCollision@dgCollisionCone@@EBEXABVdgMatrix@@P6AXPAXHPBMH@ZQAX@Z 10086cd0 f   physics:dgCollisionCone.obj
 0001:00085f20       ?SetCollisionBBox@dgCollisionCone@@EAEXABVdgVector@@0@Z 10086f20 f   physics:dgCollisionCone.obj
 0001:00085f60       ?SupportVertexSimd@dgCollisionCone@@EBE?AVdgVector@@ABV2@@Z 10086f60 f   physics:dgCollisionCone.obj
 0001:00085f90       ?SupportVertex@dgCollisionCone@@EBE?AVdgVector@@ABV2@@Z 10086f90 f   physics:dgCollisionCone.obj
 0001:000860e0       ?CalculateMassProperties@dgCollisionCone@@EBEMAAVdgVector@@00@Z 100870e0 f   physics:dgCollisionCone.obj
 0001:00086410       ?CalculatePlaneIntersection@dgCollisionCone@@EBEHABVdgVector@@0QAV2@@Z 10087410 f   physics:dgCollisionCone.obj
 0001:00086610       ?CalculatePlaneIntersectionSimd@dgCollisionCone@@EBEHABVdgVector@@0QAV2@@Z 10087610 f   physics:dgCollisionCone.obj
 0001:00086900       ?GetCollisionInfo@dgCollisionCone@@EBEXPAVdgCollisionInfo@@@Z 10087900 f   physics:dgCollisionCone.obj
 0001:00086960       ?Serialize@dgCollisionCone@@EBEXP6AXPAXPBXI@ZQAX@Z 10087960 f   physics:dgCollisionCone.obj
 0001:000869e0       ??_EdgCollisionCone@@UAEPAXI@Z 100879e0 f i physics:dgCollisionCone.obj
 0001:000869e0       ??_GdgCollisionCone@@UAEPAXI@Z 100879e0 f i physics:dgCollisionCone.obj
 0001:00086a10       ??0dgCollisionCylinder@@QAE@QAVdgMemoryAllocator@@IMMABVdgMatrix@@@Z 10087a10 f   physics:dgCollisionCylinder.obj
 0001:00086a70       ??0dgCollisionCylinder@@QAE@QAVdgWorld@@P6AXPAX1I@ZQAX@Z 10087a70 f   physics:dgCollisionCylinder.obj
 0001:00086b00       ?Init@dgCollisionCylinder@@AAEXMM@Z 10087b00 f   physics:dgCollisionCylinder.obj
 0001:00086ff0       ??1dgCollisionCylinder@@UAE@XZ 10087ff0 f   physics:dgCollisionCylinder.obj
 0001:00087060       ?CalculateSignature@dgCollisionCylinder@@EBEHXZ 10088060 f   physics:dgCollisionCylinder.obj
 0001:000870f0       ?SetCollisionBBox@dgCollisionCylinder@@EAEXABVdgVector@@0@Z 100880f0 f   physics:dgCollisionCylinder.obj
 0001:00087130       ?DebugCollision@dgCollisionCylinder@@EBEXABVdgMatrix@@P6AXPAXHPBMH@ZQAX@Z 10088130 f   physics:dgCollisionCylinder.obj
 0001:00087420       ?SupportVertexSimd@dgCollisionCylinder@@EBE?AVdgVector@@ABV2@@Z 10088420 f   physics:dgCollisionCylinder.obj
 0001:00087450       ?SupportVertex@dgCollisionCylinder@@EBE?AVdgVector@@ABV2@@Z 10088450 f   physics:dgCollisionCylinder.obj
 0001:00087570       ?CalculateMassProperties@dgCollisionCylinder@@EBEMAAVdgVector@@00@Z 10088570 f   physics:dgCollisionCylinder.obj
 0001:00087840       ?CalculatePlaneIntersection@dgCollisionCylinder@@EBEHABVdgVector@@0QAV2@@Z 10088840 f   physics:dgCollisionCylinder.obj
 0001:00087a40       ?CalculatePlaneIntersectionSimd@dgCollisionCylinder@@EBEHABVdgVector@@0QAV2@@Z 10088a40 f   physics:dgCollisionCylinder.obj
 0001:00087d30       ?RayCast@dgCollisionCylinder@@EBEMABVdgVector@@0AAVdgContactPoint@@P6AIQBVdgBody@@QBVdgCollision@@QAX@Z24@Z 10088d30 f   physics:dgCollisionCylinder.obj
 0001:00088460       ?RayCastSimd@dgCollisionCylinder@@EBEMABVdgVector@@0AAVdgContactPoint@@P6AIQBVdgBody@@QBVdgCollision@@QAX@Z24@Z 10089460 f   physics:dgCollisionCylinder.obj
 0001:000884a0       ?GetCollisionInfo@dgCollisionCylinder@@EBEXPAVdgCollisionInfo@@@Z 100894a0 f   physics:dgCollisionCylinder.obj
 0001:00088510       ?Serialize@dgCollisionCylinder@@EBEXP6AXPAXPBXI@ZQAX@Z 10089510 f   physics:dgCollisionCylinder.obj
 0001:000885a0       ??_GdgCollisionCylinder@@UAEPAXI@Z 100895a0 f i physics:dgCollisionCylinder.obj
 0001:000885a0       ??_EdgCollisionCylinder@@UAEPAXI@Z 100895a0 f i physics:dgCollisionCylinder.obj
 0001:000885d0       ??0dgCollisionChamferCylinder@@QAE@QAVdgMemoryAllocator@@IMMABVdgMatrix@@@Z 100895d0 f   physics:dgCollisionChamferCylinder.obj
 0001:00088650       ??0dgCollisionChamferCylinder@@QAE@QAVdgWorld@@P6AXPAX1I@ZQAX@Z 10089650 f   physics:dgCollisionChamferCylinder.obj
 0001:00088700       ??1dgCollisionChamferCylinder@@UAE@XZ 10089700 f   physics:dgCollisionChamferCylinder.obj
 0001:00088770       ?Init@dgCollisionChamferCylinder@@IAEXMM@Z 10089770 f   physics:dgCollisionChamferCylinder.obj
 0001:00088f70       ?DebugCollision@dgCollisionChamferCylinder@@MBEXABVdgMatrix@@P6AXPAXHPBMH@ZQAX@Z 10089f70 f   physics:dgCollisionChamferCylinder.obj
 0001:00089360       ?CalculateSignature@dgCollisionChamferCylinder@@MBEHXZ 1008a360 f   physics:dgCollisionChamferCylinder.obj
 0001:000893f0       ?SetCollisionBBox@dgCollisionChamferCylinder@@MAEXABVdgVector@@0@Z 1008a3f0 f   physics:dgCollisionChamferCylinder.obj
 0001:00089430       ?SupportVertexSimd@dgCollisionChamferCylinder@@MBE?AVdgVector@@ABV2@@Z 1008a430 f   physics:dgCollisionChamferCylinder.obj
 0001:00089460       ?SupportVertex@dgCollisionChamferCylinder@@MBE?AVdgVector@@ABV2@@Z 1008a460 f   physics:dgCollisionChamferCylinder.obj
 0001:00089660       ?RayCast@dgCollisionChamferCylinder@@MBEMABVdgVector@@0AAVdgContactPoint@@P6AIQBVdgBody@@QBVdgCollision@@QAX@Z24@Z 1008a660 f   physics:dgCollisionChamferCylinder.obj
 0001:000898e0       ?RayCastSimd@dgCollisionChamferCylinder@@MBEMABVdgVector@@0AAVdgContactPoint@@P6AIQBVdgBody@@QBVdgCollision@@QAX@Z24@Z 1008a8e0 f   physics:dgCollisionChamferCylinder.obj
 0001:00089b60       ?CalculatePlaneIntersectionSimd@dgCollisionChamferCylinder@@MBEHABVdgVector@@0QAV2@@Z 1008ab60 f   physics:dgCollisionChamferCylinder.obj
 0001:00089b90       ?CalculatePlaneIntersection@dgCollisionChamferCylinder@@MBEHABVdgVector@@0QAV2@@Z 1008ab90 f   physics:dgCollisionChamferCylinder.obj
 0001:0008a760       ?GetCollisionInfo@dgCollisionChamferCylinder@@MBEXPAVdgCollisionInfo@@@Z 1008b760 f   physics:dgCollisionChamferCylinder.obj
 0001:0008a7d0       ?Serialize@dgCollisionChamferCylinder@@MBEXP6AXPAXPBXI@ZQAX@Z 1008b7d0 f   physics:dgCollisionChamferCylinder.obj
 0001:0008a860       ??_GdgCollisionChamferCylinder@@UAEPAXI@Z 1008b860 f i physics:dgCollisionChamferCylinder.obj
 0001:0008a860       ??_EdgCollisionChamferCylinder@@UAEPAXI@Z 1008b860 f i physics:dgCollisionChamferCylinder.obj
 0001:0008a890       ??0dgCollisionConvexModifier@@QAE@PAVdgConvexCollision@@PAVdgWorld@@@Z 1008b890 f   physics:dgCollisionConvexModifier.obj
 0001:0008a970       ??0dgCollisionConvexModifier@@QAE@QAVdgWorld@@P6AXPAX1I@ZQAX@Z 1008b970 f   physics:dgCollisionConvexModifier.obj
 0001:0008aa80       ??1dgCollisionConvexModifier@@UAE@XZ 1008ba80 f   physics:dgCollisionConvexModifier.obj
 0001:0008aac0       ?ModifierGetMatrix@dgCollisionConvexModifier@@UBE?AVdgMatrix@@XZ 1008bac0 f   physics:dgCollisionConvexModifier.obj
 0001:0008ab30       ?GetBoxMinRadius@dgCollisionConvexModifier@@EBEMXZ 1008bb30 f   physics:dgCollisionConvexModifier.obj
 0001:0008ab60       ?GetBoxMaxRadius@dgCollisionConvexModifier@@EBEMXZ 1008bb60 f   physics:dgCollisionConvexModifier.obj
 0001:0008ab90       ?ModifierSetMatrix@dgCollisionConvexModifier@@UAEXABVdgMatrix@@@Z 1008bb90 f   physics:dgCollisionConvexModifier.obj
 0001:0008b1d0       ?CalculateSignature@dgCollisionConvexModifier@@EBEHXZ 1008c1d0 f   physics:dgCollisionConvexModifier.obj
 0001:0008b1e0       ?SetCollisionBBox@dgCollisionConvexModifier@@EAEXABVdgVector@@0@Z 1008c1e0 f   physics:dgCollisionConvexModifier.obj
 0001:0008b220       ?CalcAABB@dgCollisionConvexModifier@@MBEXABVdgMatrix@@AAVdgVector@@1@Z 1008c220 f   physics:dgCollisionConvexModifier.obj
 0001:0008b380       ?CalcAABBSimd@dgCollisionConvexModifier@@MBEXABVdgMatrix@@AAVdgVector@@1@Z 1008c380 f   physics:dgCollisionConvexModifier.obj
 0001:0008b4e0       ?SupportVertex@dgCollisionConvexModifier@@MBE?AVdgVector@@ABV2@@Z 1008c4e0 f   physics:dgCollisionConvexModifier.obj
 0001:0008b640       ?SupportVertexSimd@dgCollisionConvexModifier@@MBE?AVdgVector@@ABV2@@Z 1008c640 f   physics:dgCollisionConvexModifier.obj
 0001:0008b8c0       ?CalculatePlaneIntersection@dgCollisionConvexModifier@@EBEHABVdgVector@@0QAV2@@Z 1008c8c0 f   physics:dgCollisionConvexModifier.obj
 0001:0008b9e0       ?CalculatePlaneIntersectionSimd@dgCollisionConvexModifier@@EBEHABVdgVector@@0QAV2@@Z 1008c9e0 f   physics:dgCollisionConvexModifier.obj
 0001:0008ba10       ?DebugCollision@dgCollisionConvexModifier@@MBEXABVdgMatrix@@P6AXPAXHPBMH@ZQAX@Z 1008ca10 f   physics:dgCollisionConvexModifier.obj
 0001:0008bab0       ?RayCast@dgCollisionConvexModifier@@MBEMABVdgVector@@0AAVdgContactPoint@@P6AIQBVdgBody@@QBVdgCollision@@QAX@Z24@Z 1008cab0 f   physics:dgCollisionConvexModifier.obj
 0001:0008bbe0       ?RayCastSimd@dgCollisionConvexModifier@@MBEMABVdgVector@@0AAVdgContactPoint@@P6AIQBVdgBody@@QBVdgCollision@@QAX@Z24@Z 1008cbe0 f   physics:dgCollisionConvexModifier.obj
 0001:0008bd10       ?GetVolume@dgCollisionConvexModifier@@MBEMXZ 1008cd10 f   physics:dgCollisionConvexModifier.obj
 0001:0008bd40       ?CalculateVolumeIntegral@dgCollisionConvexModifier@@MBE?AVdgVector@@ABVdgMatrix@@P6AIPAX10AAVdgPlane@@@ZQAX@Z 1008cd40 f   physics:dgCollisionConvexModifier.obj
 0001:0008c010       ?GetCollisionInfo@dgCollisionConvexModifier@@EBEXPAVdgCollisionInfo@@@Z 1008d010 f   physics:dgCollisionConvexModifier.obj
 0001:0008c060       ?Serialize@dgCollisionConvexModifier@@EBEXP6AXPAXPBXI@ZQAX@Z 1008d060 f   physics:dgCollisionConvexModifier.obj
 0001:0008c0c0       ?OOBBTest@dgCollisionConvexModifier@@MBE_NABVdgMatrix@@QBVdgConvexCollision@@QAX@Z 1008d0c0 f   physics:dgCollisionConvexModifier.obj
 0001:0008c0d0       ??_GdgCollisionConvexModifier@@UAEPAXI@Z 1008d0d0 f i physics:dgCollisionConvexModifier.obj
 0001:0008c0d0       ??_EdgCollisionConvexModifier@@UAEPAXI@Z 1008d0d0 f i physics:dgCollisionConvexModifier.obj
 0001:0008c100       ?Transpose@dgMatrix@@QBE?AV1@XZ 1008d100 f i physics:dgCollisionConvexModifier.obj
 0001:0008c1e0       ??0OOBBTestData@dgCollisionCompound@@QAE@ABVdgMatrix@@@Z 1008d1e0 f   physics:dgCollisionCompound.obj
 0001:0008c520       ??0OOBBTestData@dgCollisionCompound@@QAE@ABVdgMatrix@@ABVdgVector@@1@Z 1008d520 f   physics:dgCollisionCompound.obj
 0001:0008cbe0       ??0dgNodeBase@dgCollisionCompound@@QAE@PAVdgConvexCollision@@H@Z 1008dbe0 f   physics:dgCollisionCompound.obj
 0001:0008cd70       ??0dgNodeBase@dgCollisionCompound@@QAE@PAV01@0H@Z 1008dd70 f   physics:dgCollisionCompound.obj
 0001:0008cf90       ??1dgNodeBase@dgCollisionCompound@@QAE@XZ 1008df90 f   physics:dgCollisionCompound.obj
 0001:0008d030       ?BoxTest@dgNodeBase@dgCollisionCompound@@QBE_NABVOOBBTestData@2@QBV12@@Z 1008e030 f   physics:dgCollisionCompound.obj
 0001:0008d3c0       ?BoxTest@dgNodeBase@dgCollisionCompound@@QBE_NABVOOBBTestData@2@@Z 1008e3c0 f   physics:dgCollisionCompound.obj
 0001:0008d600       ?BoxClosestDistance@dgNodeBase@dgCollisionCompound@@QBEMQBVdgVector@@H@Z 1008e600 f   physics:dgCollisionCompound.obj
 0001:0008d950       ??0dgCollisionCompound@@QAE@PAVdgWorld@@@Z 1008e950 f   physics:dgCollisionCompound.obj
 0001:0008d9b0       ??0dgCollisionCompound@@QAE@HQBQAVdgConvexCollision@@PAVdgWorld@@@Z 1008e9b0 f   physics:dgCollisionCompound.obj
 0001:0008da30       ??0dgCollisionCompound@@QAE@ABV0@@Z 1008ea30 f   physics:dgCollisionCompound.obj
 0001:0008dcb0       ??0dgCollisionCompound@@QAE@QAVdgWorld@@P6AXPAX1I@ZQAX@Z 1008ecb0 f   physics:dgCollisionCompound.obj
 0001:0008e0f0       ??1dgCollisionCompound@@UAE@XZ 1008f0f0 f   physics:dgCollisionCompound.obj
 0001:0008e1a0       ?Init@dgCollisionCompound@@IAEXHQBQAVdgConvexCollision@@@Z 1008f1a0 f   physics:dgCollisionCompound.obj
 0001:0008e2c0       ?LinkParentNodes@dgCollisionCompound@@IAEXXZ 1008f2c0 f   physics:dgCollisionCompound.obj
 0001:0008e3b0       ?SetCollisionBBox@dgCollisionCompound@@MAEXABVdgVector@@0@Z 1008f3b0 f   physics:dgCollisionCompound.obj
 0001:0008e3f0       ?CalculateSignature@dgCollisionCompound@@MBEHXZ 1008f3f0 f   physics:dgCollisionCompound.obj
 0001:0008e430       ?CalcAABB@dgCollisionCompound@@MBEXABVdgMatrix@@AAVdgVector@@1@Z 1008f430 f   physics:dgCollisionCompound.obj
 0001:0008e6d0       ?CalcAABBSimd@dgCollisionCompound@@MBEXABVdgMatrix@@AAVdgVector@@1@Z 1008f6d0 f   physics:dgCollisionCompound.obj
 0001:0008e970       ?DebugCollision@dgCollisionCompound@@MBEXABVdgMatrix@@P6AXPAXHPBMH@ZQAX@Z 1008f970 f   physics:dgCollisionCompound.obj
 0001:0008e9d0       ?RayCast@dgCollisionCompound@@MBEMABVdgVector@@0AAVdgContactPoint@@P6AIQBVdgBody@@QBVdgCollision@@QAX@Z24@Z 1008f9d0 f   physics:dgCollisionCompound.obj
 0001:0008ec80       ?RayCastSimd@dgCollisionCompound@@MBEMABVdgVector@@0AAVdgContactPoint@@P6AIQBVdgBody@@QBVdgCollision@@QAX@Z24@Z 1008fc80 f   physics:dgCollisionCompound.obj
 0001:0008ef30       ?GetVolume@dgCollisionCompound@@MBEMXZ 1008ff30 f   physics:dgCollisionCompound.obj
 0001:0008ef90       ?GetBoxMinRadius@dgCollisionCompound@@MBEMXZ 1008ff90 f   physics:dgCollisionCompound.obj
 0001:0008efb0       ?GetBoxMaxRadius@dgCollisionCompound@@MBEMXZ 1008ffb0 f   physics:dgCollisionCompound.obj
 0001:0008efd0       ?CalculateVolumeIntegral@dgCollisionCompound@@MBE?AVdgVector@@ABVdgMatrix@@P6AIPAX10AAVdgPlane@@@ZQAX@Z 1008ffd0 f   physics:dgCollisionCompound.obj
 0001:0008f120       ?CalculateInertia@dgCollisionCompound@@MBEXAAVdgVector@@0@Z 10090120 f   physics:dgCollisionCompound.obj
 0001:0008f440       ?AddCollision@dgCollisionCompound@@QAEXPAVdgConvexCollision@@@Z 10090440 f   physics:dgCollisionCompound.obj
 0001:0008f480       ?RemoveCollision@dgCollisionCompound@@QAEXPAVdgNodeBase@1@@Z 10090480 f   physics:dgCollisionCompound.obj
 0001:0008f6d0       ?SupportVertex@dgCollisionCompound@@MBE?AVdgVector@@ABV2@@Z 100906d0 f   physics:dgCollisionCompound.obj
 0001:0008fb20       ?GetCollisionInfo@dgCollisionCompound@@MBEXPAVdgCollisionInfo@@@Z 10090b20 f   physics:dgCollisionCompound.obj
 0001:0008fb80       ?Serialize@dgCollisionCompound@@MBEXP6AXPAXPBXI@ZQAX@Z 10090b80 f   physics:dgCollisionCompound.obj
 0001:0008fd30       ?OOBBTest@dgCollisionCompound@@MBE_NABVdgMatrix@@QBVdgConvexCollision@@QAX@Z 10090d30 f   physics:dgCollisionCompound.obj
 0001:0008fd70       ?BuildTopDownTree@dgCollisionCompound@@IAEPAVdgNodeBase@1@HQAPAV21@AAH@Z 10090d70 f   physics:dgCollisionCompound.obj
 0001:00090180       ?BuildTree@dgCollisionCompound@@IAEPAVdgNodeBase@1@HQBQAVdgConvexCollision@@@Z 10091180 f   physics:dgCollisionCompound.obj
 0001:00090240       ?CalculateContacts@dgCollisionCompound@@IBEHQAUdgPair@dgCollidingPairCollector@@AAVdgCollisionParamProxi@@H@Z 10091240 f   physics:dgCollisionCompound.obj
 0001:000903d0       ?CalculateContactsToSingle@dgCollisionCompound@@IBEHQAUdgPair@dgCollidingPairCollector@@AAVdgCollisionParamProxi@@H@Z 100913d0 f   physics:dgCollisionCompound.obj
 0001:00090930       ?CalculateContactsToCompound@dgCollisionCompound@@IBEHQAUdgPair@dgCollidingPairCollector@@AAVdgCollisionParamProxi@@H@Z 10091930 f   physics:dgCollisionCompound.obj
 0001:000910f0       ?CalculateContactsToCollisionTree@dgCollisionCompound@@IBEHQAUdgPair@dgCollidingPairCollector@@AAVdgCollisionParamProxi@@H@Z 100920f0 f   physics:dgCollisionCompound.obj
 0001:00091ea0       ?CalculateContactsToHightField@dgCollisionCompound@@IBEHQAUdgPair@dgCollidingPairCollector@@AAVdgCollisionParamProxi@@H@Z 10092ea0 f   physics:dgCollisionCompound.obj
 0001:000922e0       ?CalculateContactsBruteForce@dgCollisionCompound@@IBEHQAUdgPair@dgCollidingPairCollector@@AAVdgCollisionParamProxi@@H@Z 100932e0 f   physics:dgCollisionCompound.obj
 0001:00092560       ?ClosestDitance@dgCollisionCompound@@IBEHQAVdgBody@@AAVdgTriplex@@011@Z 10093560 f   physics:dgCollisionCompound.obj
 0001:00092b00       ??_GdgNodeBase@dgCollisionCompound@@QAEPAXI@Z 10093b00 f i physics:dgCollisionCompound.obj
 0001:00092b30       ??3dgNodeBase@dgCollisionCompound@@SAXPAX@Z 10093b30 f i physics:dgCollisionCompound.obj
 0001:00092b50       ??_EdgCollisionCompound@@UAEPAXI@Z 10093b50 f i physics:dgCollisionCompound.obj
 0001:00092b50       ??_GdgCollisionCompound@@UAEPAXI@Z 10093b50 f i physics:dgCollisionCompound.obj
 0001:00092b80       ??2dgNodeBase@dgCollisionCompound@@SAPAXIQAVdgMemoryAllocator@@@Z 10093b80 f i physics:dgCollisionCompound.obj
 0001:00092ba0       ??0dgNodeBase@dgCollisionCompound@@QAE@XZ 10093ba0 f i physics:dgCollisionCompound.obj
 0001:00092c00       ??$Swap@PAVdgNodeBase@dgCollisionCompound@@@@YAXAAPAVdgNodeBase@dgCollisionCompound@@0@Z 10093c00 f i physics:dgCollisionCompound.obj
 0001:00092c30       ??0?$dgStack@PAVdgNodeBase@dgCollisionCompound@@@@QAE@H@Z 10093c30 f i physics:dgCollisionCompound.obj
 0001:00092c60       ??1?$dgStack@PAVdgNodeBase@dgCollisionCompound@@@@QAE@XZ 10093c60 f i physics:dgCollisionCompound.obj
 0001:00092c80       ??A?$dgStack@PAVdgNodeBase@dgCollisionCompound@@@@QAEAAPAVdgNodeBase@dgCollisionCompound@@H@Z 10093c80 f i physics:dgCollisionCompound.obj
 0001:00092d00       ??0?$dgTree@PBVdgNodeBase@dgCollisionCompound@@PBV12@@@QAE@QAVdgMemoryAllocator@@@Z 10093d00 f i physics:dgCollisionCompound.obj
 0001:00092d30       ??1?$dgTree@PBVdgNodeBase@dgCollisionCompound@@PBV12@@@QAE@XZ 10093d30 f i physics:dgCollisionCompound.obj
 0001:00092d50       ?GetCount@?$dgTree@PBVdgNodeBase@dgCollisionCompound@@PBV12@@@QBEHXZ 10093d50 f i physics:dgCollisionCompound.obj
 0001:00092d60       ?Find@?$dgTree@PBVdgNodeBase@dgCollisionCompound@@PBV12@@@QBEPAVdgTreeNode@1@PBVdgNodeBase@dgCollisionCompound@@@Z 10093d60 f i physics:dgCollisionCompound.obj
 0001:00092e80       ?Insert@?$dgTree@PBVdgNodeBase@dgCollisionCompound@@PBV12@@@QAEPAVdgTreeNode@1@ABQBVdgNodeBase@dgCollisionCompound@@PBV34@@Z 10093e80 f i physics:dgCollisionCompound.obj
 0001:00092ec0       ?RemoveAll@?$dgTree@PBVdgNodeBase@dgCollisionCompound@@PBV12@@@QAEXXZ 10093ec0 f i physics:dgCollisionCompound.obj
 0001:00092f00       ?GetLeft@dgTreeNode@?$dgTree@PBVdgNodeBase@dgCollisionCompound@@PBV12@@@ABEPAV12@XZ 10093f00 f i physics:dgCollisionCompound.obj
 0001:00092f10       ?GetRight@dgTreeNode@?$dgTree@PBVdgNodeBase@dgCollisionCompound@@PBV12@@@ABEPAV12@XZ 10093f10 f i physics:dgCollisionCompound.obj
 0001:00092f30       ?Insert@?$dgTree@PBVdgNodeBase@dgCollisionCompound@@PBV12@@@QAEPAVdgTreeNode@1@ABQBVdgNodeBase@dgCollisionCompound@@PBV34@AA_N@Z 10093f30 f i physics:dgCollisionCompound.obj
 0001:00093130       ?CompareKeys@?$dgTree@PBVdgNodeBase@dgCollisionCompound@@PBV12@@@ABEHABQBVdgNodeBase@dgCollisionCompound@@0@Z 10094130 f i physics:dgCollisionCompound.obj
 0001:00093170       ??0dgTreeNode@?$dgTree@PBVdgNodeBase@dgCollisionCompound@@PBV12@@@AAE@ABQBVdgNodeBase@dgCollisionCompound@@0PAV01@@Z 10094170 f i physics:dgCollisionCompound.obj
 0001:000931e0       ??0dgCollisionUserMesh@@QAE@PAVdgMemoryAllocator@@ABVdgVector@@1ABVdgUserMeshCreation@@@Z 100941e0 f   physics:dgCollisionUserMesh.obj
 0001:00093290       ??0dgCollisionUserMesh@@QAE@QAVdgWorld@@P6AXPAX1I@ZQAX@Z 10094290 f   physics:dgCollisionUserMesh.obj
 0001:00093300       ??1dgCollisionUserMesh@@UAE@XZ 10094300 f   physics:dgCollisionUserMesh.obj
 0001:00093340       ?Serialize@dgCollisionUserMesh@@EBEXP6AXPAXPBXI@ZQAX@Z 10094340 f   physics:dgCollisionUserMesh.obj
 0001:00093370       ?GetVertexListIndexList@dgCollisionUserMesh@@UBEXABVdgVector@@0AAVdgGetVertexListIndexList@dgCollisionMesh@@@Z 10094370 f   physics:dgCollisionUserMesh.obj
 0001:000933f0       ?GetCollisionInfo@dgCollisionUserMesh@@EBEXPAVdgCollisionInfo@@@Z 100943f0 f   physics:dgCollisionUserMesh.obj
 0001:00093450       ?RayCastSimd@dgCollisionUserMesh@@EBEMABVdgVector@@0AAVdgContactPoint@@P6AIQBVdgBody@@QBVdgCollision@@QAX@Z24@Z 10094450 f   physics:dgCollisionUserMesh.obj
 0001:00093490       ?RayCast@dgCollisionUserMesh@@EBEMABVdgVector@@0AAVdgContactPoint@@P6AIQBVdgBody@@QBVdgCollision@@QAX@Z24@Z 10094490 f   physics:dgCollisionUserMesh.obj
 0001:000935e0       ?GetCollidingFacesSimd@dgCollisionUserMesh@@EBEXQAVdgPolygonMeshDesc@@@Z 100945e0 f   physics:dgCollisionUserMesh.obj
 0001:00093600       ?GetCollidingFaces@dgCollisionUserMesh@@EBEXQAVdgPolygonMeshDesc@@@Z 10094600 f   physics:dgCollisionUserMesh.obj
 0001:00093650       ?DebugCollision@dgCollisionUserMesh@@EBEXABVdgMatrix@@P6AXPAXHPBMH@ZQAX@Z 10094650 f   physics:dgCollisionUserMesh.obj
 0001:00093660       ??_GdgCollisionUserMesh@@UAEPAXI@Z 10094660 f i physics:dgCollisionUserMesh.obj
 0001:00093660       ??_EdgCollisionUserMesh@@UAEPAXI@Z 10094660 f i physics:dgCollisionUserMesh.obj
 0001:00093690       ??0dgCollisionMeshRayHitDesc@@QAE@XZ 10094690 f i physics:dgCollisionUserMesh.obj
 0001:000936e0       ?InitConvexCollision@dgWorld@@CAXXZ 100946e0 f   physics:dgMinkowskiConv.obj
 0001:00094470       ?SphereSphereCollision@dgWorld@@ABEHABVdgVector@@M0MAAVdgCollisionParamProxi@@@Z 10095470 f   physics:dgMinkowskiConv.obj
 0001:00094760       ?CalculateSphereToSphereContacts@dgWorld@@ABEHAAVdgCollisionParamProxi@@@Z 10095760 f   physics:dgMinkowskiConv.obj
 0001:00094840       ?CalculateCapsuleToSphereContacts@dgWorld@@ABEHAAVdgCollisionParamProxi@@@Z 10095840 f   physics:dgMinkowskiConv.obj
 0001:000949b0       ?CalculateCapsuleToCapsuleContacts@dgWorld@@ABEHAAVdgCollisionParamProxi@@@Z 100959b0 f   physics:dgMinkowskiConv.obj
 0001:000955d0       ?CalculateBoxToSphereContacts@dgWorld@@ABEHAAVdgCollisionParamProxi@@@Z 100965d0 f   physics:dgMinkowskiConv.obj
 0001:00097100       ?FilterPolygonEdgeContacts@dgWorld@@ABEHHQAVdgContactPoint@@@Z 10098100 f   physics:dgMinkowskiConv.obj
 0001:000973b0       ?ClosestPoint@dgWorld@@ABEHAAVdgCollisionParamProxi@@@Z 100983b0 f   physics:dgMinkowskiConv.obj
 0001:000974a0       ?CalculateHullToHullContactsSimd@dgWorld@@ABEHAAVdgCollisionParamProxi@@@Z 100984a0 f   physics:dgMinkowskiConv.obj
 0001:00097600       ?CalculateHullToHullContacts@dgWorld@@ABEHAAVdgCollisionParamProxi@@@Z 10098600 f   physics:dgMinkowskiConv.obj
 0001:00097760       ?CalculateConvexToConvexContactsSimd@dgWorld@@ABEHAAVdgCollisionParamProxi@@@Z 10098760 f   physics:dgMinkowskiConv.obj
 0001:00098000       ?CalculateConvexToConvexContacts@dgWorld@@ABEHAAVdgCollisionParamProxi@@@Z 10099000 f   physics:dgMinkowskiConv.obj
 0001:000988a0       ?CalculatePolySoupToSphereContactsDescrete@dgWorld@@ABEHAAVdgCollisionParamProxi@@@Z 100998a0 f   physics:dgMinkowskiConv.obj
 0001:00098f20       ?CalculatePolySoupToElipseContactsDescrete@dgWorld@@ABEHAAVdgCollisionParamProxi@@@Z 10099f20 f   physics:dgMinkowskiConv.obj
 0001:000995e0       ?CalculatePolySoupToSphereContactsContinue@dgWorld@@ABEHAAVdgCollisionParamProxi@@@Z 1009a5e0 f   physics:dgMinkowskiConv.obj
 0001:00099bb0       ?CalculatePolySoupToHullContactsDescreteSimd@dgWorld@@ABEHAAVdgCollisionParamProxi@@@Z 1009abb0 f   physics:dgMinkowskiConv.obj
 0001:0009a050       ?CalculatePolySoupToHullContactsDescrete@dgWorld@@ABEHAAVdgCollisionParamProxi@@@Z 1009b050 f   physics:dgMinkowskiConv.obj
 0001:0009a4f0       ?CalculateConvexToNonConvexContactsContinueSimd@dgWorld@@ABEHAAVdgCollisionParamProxi@@@Z 1009b4f0 f   physics:dgMinkowskiConv.obj
 0001:0009aba0       ?CalculateConvexToNonConvexContactsContinue@dgWorld@@ABEHAAVdgCollisionParamProxi@@@Z 1009bba0 f   physics:dgMinkowskiConv.obj
 0001:0009b250       ?CalculateConvexToNonConvexContactsSimd@dgWorld@@ABEHAAVdgCollisionParamProxi@@@Z 1009c250 f   physics:dgMinkowskiConv.obj
 0001:0009bd40       ?CalculateConvexToNonConvexContacts@dgWorld@@ABEHAAVdgCollisionParamProxi@@@Z 1009cd40 f   physics:dgMinkowskiConv.obj
 0001:0009c830       ?GetRadius@dgCollisionCapsule@@QBEMXZ 1009d830 f i physics:dgMinkowskiConv.obj
 0001:0009c850       ?GetHeight@dgCollisionCapsule@@QBEMXZ 1009d850 f i physics:dgMinkowskiConv.obj
 0001:0009c870       ?CalculateClosestPoints@dgContactSolver@@AAEHXZ 1009d870 f i physics:dgMinkowskiConv.obj
 0001:0009d930       ?CalcSupportVertex@dgContactSolver@@AAEXABVdgVector@@H@Z 1009e930 f i physics:dgMinkowskiConv.obj
 0001:0009dab0       ?ReduceLine@dgContactSolver@@AAE?AVdgVector@@ABV2@@Z 1009eab0 f i physics:dgMinkowskiConv.obj
 0001:0009dc70       ?ReduceTriangle@dgContactSolver@@AAE?AVdgVector@@ABV2@@Z 1009ec70 f i physics:dgMinkowskiConv.obj
 0001:0009e520       ?ReduceTetrahedrum@dgContactSolver@@AAE?AVdgVector@@ABV2@@Z 1009f520 f i physics:dgMinkowskiConv.obj
 0001:0009e970       ?CalcSeparatingPlane@dgContactSolver@@AAE?AW4dgMinkReturnCode@1@AAPAVdgMinkFace@1@ABVdgVector@@@Z 1009f970 f i physics:dgMinkowskiConv.obj
 0001:0009f2f0       ?CheckTetraHedronVolume@dgContactSolver@@ABE_NXZ 100a02f0 f i physics:dgMinkowskiConv.obj
 0001:0009f3d0       ?UpdateSeparatingPlane@dgContactSolver@@AAE?AW4dgMinkReturnCode@1@AAPAVdgMinkFace@1@ABVdgVector@@@Z 100a03d0 f i physics:dgMinkowskiConv.obj
 0001:0009fd50       ?UpdateSeparatingPlaneFallbackSolution@dgContactSolver@@AAE?AW4dgMinkReturnCode@1@AAPAVdgMinkFace@1@ABVdgVector@@@Z 100a0d50 f i physics:dgMinkowskiConv.obj
 0001:000a1950       ??0dgContactSolver@@QAE@AAVdgCollisionParamProxi@@@Z 100a2950 f i physics:dgMinkowskiConv.obj
 0001:000a1b90       ??0dgMinkFace@dgContactSolver@@QAE@XZ 100a2b90 f i physics:dgMinkowskiConv.obj
 0001:000a1bb0       ?HullHullContactsSimd@dgContactSolver@@QAEHH@Z 100a2bb0 f i physics:dgMinkowskiConv.obj
 0001:000a1fd0       ?CalculateContactsSimd@dgContactSolver@@AAEHQAVdgMinkFace@1@HQAVdgContactPoint@@H@Z 100a2fd0 f i physics:dgMinkowskiConv.obj
 0001:000a2d40       ?CalculateContactAlternateMethod@dgContactSolver@@AAEHQAVdgMinkFace@1@HQAVdgContactPoint@@H@Z 100a3d40 f i physics:dgMinkowskiConv.obj
 0001:000a39f0       ?CalculateConvexShapeIntersectionSimd@dgContactSolver@@ABEHABVdgMatrix@@ABVdgVector@@IMHQAV3@H2QAVdgContactPoint@@H@Z 100a49f0 f i physics:dgMinkowskiConv.obj
 0001:000a4a30       ?CalculateConvexShapeIntersectionLine@dgContactSolver@@ABEHABVdgMatrix@@ABVdgVector@@IMHQAV3@H2QAVdgContactPoint@@@Z 100a5a30 f i physics:dgMinkowskiConv.obj
 0001:000a4f50       ?ReduceContacts@dgContactSolver@@ABEPAUdgPerimenterEdge@1@PAU21@H@Z 100a5f50 f i physics:dgMinkowskiConv.obj
 0001:000a5230       ?CalculateConvexShapeIntersection@dgContactSolver@@ABEHABVdgMatrix@@ABVdgVector@@IMHQAV3@H2QAVdgContactPoint@@H@Z 100a6230 f i physics:dgMinkowskiConv.obj
 0001:000a5d90       ?CalcSeparatingPlaneSimd@dgContactSolver@@AAE?AW4dgMinkReturnCode@1@AAPAVdgMinkFace@1@ABVdgVector@@@Z 100a6d90 f i physics:dgMinkowskiConv.obj
 0001:000a6710       ?CalcSupportVertexSimd@dgContactSolver@@AAEXABVdgVector@@H@Z 100a7710 f i physics:dgMinkowskiConv.obj
 0001:000a6840       ?UpdateSeparatingPlaneSimd@dgContactSolver@@AAE?AW4dgMinkReturnCode@1@AAPAVdgMinkFace@1@ABVdgVector@@@Z 100a7840 f i physics:dgMinkowskiConv.obj
 0001:000a79d0       ?CalcFacePlaneSimd@dgContactSolver@@AAE_NPAVdgMinkFace@1@@Z 100a89d0 f i physics:dgMinkowskiConv.obj
 0001:000a79f0       ?CalcFacePlane@dgContactSolver@@AAE_NQAVdgMinkFace@1@@Z 100a89f0 f i physics:dgMinkowskiConv.obj
 0001:000a7b00       ?CalculateClipPlaneSimd@dgContactSolver@@AAEPAVdgMinkFace@1@XZ 100a8b00 f i physics:dgMinkowskiConv.obj
 0001:000a8da0       ??0dgClosestFace@dgContactSolver@@QAE@PAXH@Z 100a9da0 f i physics:dgMinkowskiConv.obj
 0001:000a8dc0       ?NewFace@dgContactSolver@@AAEPAVdgMinkFace@1@XZ 100a9dc0 f i physics:dgMinkowskiConv.obj
 0001:000a8e60       ?HullHullContactsLarge@dgContactSolver@@QAEHH@Z 100a9e60 f i physics:dgMinkowskiConv.obj
 0001:000a9350       ?CalculateContacts@dgContactSolver@@AAEHQAVdgMinkFace@1@HQAVdgContactPoint@@H@Z 100aa350 f i physics:dgMinkowskiConv.obj
 0001:000aa0c0       ?CalcSeparatingPlaneLarge@dgContactSolver@@AAE?AW4dgMinkReturnCode@1@AAPAVdgMinkFace@1@ABVdgBigVector@@@Z 100ab0c0 f i physics:dgMinkowskiConv.obj
 0001:000aaa20       ?CheckTetraHedronVolumeLarge@dgContactSolver@@ABE_NXZ 100aba20 f i physics:dgMinkowskiConv.obj
 0001:000aab20       ?CalcSupportVertexLarge@dgContactSolver@@AAEXABVdgVector@@H@Z 100abb20 f i physics:dgMinkowskiConv.obj
 0001:000aacb0       ?UpdateSeparatingPlaneLarge@dgContactSolver@@AAE?AW4dgMinkReturnCode@1@AAPAVdgMinkFace@1@ABVdgBigVector@@@Z 100abcb0 f i physics:dgMinkowskiConv.obj
 0001:000ab650       ?UpdateSeparatingPlaneFallbackSolutionLarge@dgContactSolver@@AAE?AW4dgMinkReturnCode@1@AAPAVdgMinkFace@1@ABVdgBigVector@@@Z 100ac650 f i physics:dgMinkowskiConv.obj
 0001:000ad3f0       ?ReduceLineLarge@dgContactSolver@@AAE?AVdgBigVector@@ABV2@@Z 100ae3f0 f i physics:dgMinkowskiConv.obj
 0001:000ad5b0       ?ReduceTriangleLarge@dgContactSolver@@AAE?AVdgBigVector@@ABV2@@Z 100ae5b0 f i physics:dgMinkowskiConv.obj
 0001:000ade00       ?ReduceTetrahedrumLarge@dgContactSolver@@AAE?AVdgBigVector@@ABV2@@Z 100aee00 f i physics:dgMinkowskiConv.obj
 0001:000ae180       ?CalcFacePlaneLarge@dgContactSolver@@AAE_NQAVdgMinkFace@1@@Z 100af180 f i physics:dgMinkowskiConv.obj
 0001:000ae2a0       ?CalculateClipPlaneLarge@dgContactSolver@@AAEPAVdgMinkFace@1@XZ 100af2a0 f i physics:dgMinkowskiConv.obj
 0001:000af5f0       ??1?$dgUpHeap@PAUdgPerimenterEdge@dgContactSolver@@M@@QAE@XZ 100b05f0 f i physics:dgMinkowskiConv.obj
 0001:000af610       ??1dgClosestFace@dgContactSolver@@QAE@XZ 100b0610 f i physics:dgMinkowskiConv.obj
 0001:000af630       ??1?$dgDownHeap@PAVdgMinkFace@dgContactSolver@@M@@QAE@XZ 100b0630 f i physics:dgMinkowskiConv.obj
 0001:000af650       ?HullHullContacts@dgContactSolver@@QAEHH@Z 100b0650 f i physics:dgMinkowskiConv.obj
 0001:000afa50       ?CalculateClipPlane@dgContactSolver@@AAEPAVdgMinkFace@1@XZ 100b0a50 f i physics:dgMinkowskiConv.obj
 0001:000b0cf0       ?HullHullContinueContactsSimd@dgContactSolver@@QAEHAAMQAVdgContactPoint@@HHH@Z 100b1cf0 f i physics:dgMinkowskiConv.obj
 0001:000b1960       ?CalculateContactsContinuesSimd@dgContactSolver@@AAEHHQAVdgContactPoint@@HPBVdgVector@@1M@Z 100b2960 f i physics:dgMinkowskiConv.obj
 0001:000b1ce0       ?CalculateVelocitiesSimd@dgContactSolver@@QAEXM@Z 100b2ce0 f i physics:dgMinkowskiConv.obj
 0001:000b1db0       ?CrossProductSimd@dgVector@@QBE?AV1@ABV1@@Z 100b2db0 f i physics:dgMinkowskiConv.obj
 0001:000b1e70       ??0dgBigVector@@QAE@XZ     100b2e70 f i physics:dgMinkowskiConv.obj
 0001:000b1e90       ??0dgPlane@@QAE@ABVdgVector@@00@Z 100b2e90 f i physics:dgMinkowskiConv.obj
 0001:000b1ef0       ?HullHullContinueContacts@dgContactSolver@@QAEHAAMQAVdgContactPoint@@HHH@Z 100b2ef0 f i physics:dgMinkowskiConv.obj
 0001:000b2b40       ?CalculateContactsContinues@dgContactSolver@@AAEHHQAVdgContactPoint@@HPBVdgVector@@1M@Z 100b3b40 f i physics:dgMinkowskiConv.obj
 0001:000b2d90       ?CalculateVelocities@dgContactSolver@@QAEXM@Z 100b3d90 f i physics:dgMinkowskiConv.obj
 0001:000b2e60       ??0dgBigPlane@@QAE@ABVdgBigVector@@00@Z 100b3e60 f i physics:dgMinkowskiConv.obj
 0001:000b2ec0       ?Scale@dgBigPlane@@QBE?AV1@N@Z 100b3ec0 f i physics:dgMinkowskiConv.obj
 0001:000b2f20       ??0dgBigPlane@@QAE@NNNN@Z  100b3f20 f i physics:dgMinkowskiConv.obj
 0001:000b2f60       ??0dgCollisionBoundPlaneCache@@QAE@XZ 100b3f60 f i physics:dgMinkowskiConv.obj
 0001:000b2f90       ?GetShapeClipSize@dgContactSolver@@ABEMQAVdgCollision@@@Z 100b3f90 f i physics:dgMinkowskiConv.obj
 0001:000b2fd0       ?TransformVectorsSimd@dgMatrix@@QBEXQAVdgVector@@QBV2@H@Z 100b3fd0 f i physics:dgMinkowskiConv.obj
 0001:000b3160       ?InverseSimd@dgMatrix@@QBE?AV1@XZ 100b4160 f i physics:dgMinkowskiConv.obj
 0001:000b3500       ??0dgContactSolver@@QAE@AAVdgCollisionParamProxi@@PAVdgCollision@@@Z 100b4500 f i physics:dgMinkowskiConv.obj
 0001:000b3730       ??0dgPolygonMeshDesc@@QAE@XZ 100b4730 f i physics:dgMinkowskiConv.obj
 0001:000b3760       ??0?$dgTemplateVector@N@@QAE@XZ 100b4760 f i physics:dgMinkowskiConv.obj
 0001:000b3770       ??1?$dgHeapBase@PAVdgMinkFace@dgContactSolver@@M@@IAE@XZ 100b4770 f i physics:dgMinkowskiConv.obj
 0001:000b37a0       ?GetCount@?$dgHeapBase@PAVdgMinkFace@dgContactSolver@@M@@QBEHXZ 100b47a0 f i physics:dgMinkowskiConv.obj
 0001:000b37b0       ??A?$dgHeapBase@PAVdgMinkFace@dgContactSolver@@M@@QBEABQAVdgMinkFace@dgContactSolver@@H@Z 100b47b0 f i physics:dgMinkowskiConv.obj
 0001:000b3800       ??0?$dgDownHeap@PAVdgMinkFace@dgContactSolver@@M@@QAE@QBXH@Z 100b4800 f i physics:dgMinkowskiConv.obj
 0001:000b3820       ?Pop@?$dgDownHeap@PAVdgMinkFace@dgContactSolver@@M@@QAEXXZ 100b4820 f i physics:dgMinkowskiConv.obj
 0001:000b3910       ?Push@?$dgDownHeap@PAVdgMinkFace@dgContactSolver@@M@@QAEXAAPAVdgMinkFace@dgContactSolver@@M@Z 100b4910 f i physics:dgMinkowskiConv.obj
 0001:000b3a10       ??1?$dgHeapBase@PAUdgPerimenterEdge@dgContactSolver@@M@@IAE@XZ 100b4a10 f i physics:dgMinkowskiConv.obj
 0001:000b3a40       ?Flush@?$dgHeapBase@PAUdgPerimenterEdge@dgContactSolver@@M@@QAEXXZ 100b4a40 f i physics:dgMinkowskiConv.obj
 0001:000b3a60       ?GetCount@?$dgHeapBase@PAUdgPerimenterEdge@dgContactSolver@@M@@QBEHXZ 100b4a60 f i physics:dgMinkowskiConv.obj
 0001:000b3a70       ??A?$dgHeapBase@PAUdgPerimenterEdge@dgContactSolver@@M@@QBEABQAUdgPerimenterEdge@dgContactSolver@@H@Z 100b4a70 f i physics:dgMinkowskiConv.obj
 0001:000b3ac0       ??0?$dgUpHeap@PAUdgPerimenterEdge@dgContactSolver@@M@@QAE@QBXH@Z 100b4ac0 f i physics:dgMinkowskiConv.obj
 0001:000b3ae0       ?Pop@?$dgUpHeap@PAUdgPerimenterEdge@dgContactSolver@@M@@QAEXXZ 100b4ae0 f i physics:dgMinkowskiConv.obj
 0001:000b3bd0       ?Push@?$dgUpHeap@PAUdgPerimenterEdge@dgContactSolver@@M@@QAEXAAPAUdgPerimenterEdge@dgContactSolver@@M@Z 100b4bd0 f i physics:dgMinkowskiConv.obj
 0001:000b3cd0       ?Remove@?$dgUpHeap@PAUdgPerimenterEdge@dgContactSolver@@M@@QAEXH@Z 100b4cd0 f i physics:dgMinkowskiConv.obj
 0001:000b3dd0       ??$Swap@VdgBigVector@@@@YAXAAVdgBigVector@@0@Z 100b4dd0 f i physics:dgMinkowskiConv.obj
 0001:000b3e20       ??$Swap@VdgContactPoint@@@@YAXAAVdgContactPoint@@0@Z 100b4e20 f i physics:dgMinkowskiConv.obj
 0001:000b3e70       ??0?$dgHeapBase@PAVdgMinkFace@dgContactSolver@@M@@IAE@QBXH@Z 100b4e70 f i physics:dgMinkowskiConv.obj
 0001:000b3eb0       ??0?$dgHeapBase@PAUdgPerimenterEdge@dgContactSolver@@M@@IAE@QBXH@Z 100b4eb0 f i physics:dgMinkowskiConv.obj
 0001:000b3ef0       ?Flush@?$dgHeapBase@PAVdgMinkFace@dgContactSolver@@M@@QAEXXZ 100b4ef0 f i physics:dgMinkowskiConv.obj
 0001:000b3f10       ?dgExpandTraceMessage@@YAXPBDZZ 100b4f10 f   corelib:dgDebug.obj
 0001:000b3f60       ??0dgMemoryAllocator@@QAE@XZ 100b4f60 f   corelib:dgMemory.obj
 0001:000b3fd0       ??0dgMemoryAllocator@@IAE@P6APAXI@ZP6AXPAXI@Z@Z 100b4fd0 f   corelib:dgMemory.obj
 0001:000b4020       ??1dgMemoryAllocator@@QAE@XZ 100b5020 f   corelib:dgMemory.obj
 0001:000b4070       ??2dgMemoryAllocator@@SAPAXI@Z 100b5070 f   corelib:dgMemory.obj
 0001:000b4090       ??3dgMemoryAllocator@@SAXPAX@Z 100b5090 f   corelib:dgMemory.obj
 0001:000b40b0       ?GetMemoryUsed@dgMemoryAllocator@@QBEHXZ 100b50b0 f   corelib:dgMemory.obj
 0001:000b40d0       ?SetAllocatorsCallback@dgMemoryAllocator@@QAEXP6APAXI@ZP6AXPAXI@Z@Z 100b50d0 f   corelib:dgMemory.obj
 0001:000b40f0       ?MallocLow@dgMemoryAllocator@@QAEPAXHH@Z 100b50f0 f   corelib:dgMemory.obj
 0001:000b41e0       ?FreeLow@dgMemoryAllocator@@QAEXPAX@Z 100b51e0 f   corelib:dgMemory.obj
 0001:000b4260       ?Malloc@dgMemoryAllocator@@QAEPAXH@Z 100b5260 f   corelib:dgMemory.obj
 0001:000b44b0       ?Free@dgMemoryAllocator@@QAEXPAX@Z 100b54b0 f   corelib:dgMemory.obj
 0001:000b46c0       ?dgSetGlobalAllocators@@YAXP6APAXI@ZP6AXPAXI@Z@Z 100b56c0 f   corelib:dgMemory.obj
 0001:000b46e0       ?dgGetMemoryUsed@@YAHXZ    100b56e0 f   corelib:dgMemory.obj
 0001:000b46f0       ?dgMallocStack@@YAPAXI@Z   100b56f0 f   corelib:dgMemory.obj
 0001:000b4710       ?dgMallocAligned@@YAPAXIH@Z 100b5710 f   corelib:dgMemory.obj
 0001:000b4730       ?dgFreeStack@@YAXPAX@Z     100b5730 f   corelib:dgMemory.obj
 0001:000b4750       ?dgMalloc@@YAPAXIQAVdgMemoryAllocator@@@Z 100b5750 f   corelib:dgMemory.obj
 0001:000b47a0       ?dgFree@@YAXPAX@Z          100b57a0 f   corelib:dgMemory.obj
 0001:000b47f0       ?SaveInfo@dgMemoryInfo@dgMemoryAllocator@@QAEXQAV2@QAXHAAH@Z 100b57f0 f i corelib:dgMemory.obj
 0001:000b4830       ?GetMemoryUsed@dgGlobalAllocator@@QBEHXZ 100b5830 f i corelib:dgMemory.obj
 0001:000b4890       ?GetInfo@dgListNode@?$dgList@PAVdgMemoryAllocator@@@@QAEAAPAVdgMemoryAllocator@@XZ 100b5890 f i corelib:dgMemory.obj
 0001:000b48a0       ?GetNext@dgListNode@?$dgList@PAVdgMemoryAllocator@@@@QBEPAV12@XZ 100b58a0 f i corelib:dgMemory.obj
 0001:000b48c0       ?GetFirst@?$dgList@PAVdgMemoryAllocator@@@@QBEPAVdgListNode@1@XZ 100b58c0 f i corelib:dgMemory.obj
 0001:000b48e0       ?Append@?$dgList@PAVdgMemoryAllocator@@@@QAEPAVdgListNode@1@ABQAVdgMemoryAllocator@@@Z 100b58e0 f i corelib:dgMemory.obj
 0001:000b49a0       ?Remove@?$dgList@PAVdgMemoryAllocator@@@@QAEXABQAVdgMemoryAllocator@@@Z 100b59a0 f i corelib:dgMemory.obj
 0001:000b49d0       ??2dgListNode@?$dgList@PAVdgMemoryAllocator@@@@CAPAXIQAVdgMemoryAllocator@@@Z 100b59d0 f i corelib:dgMemory.obj
 0001:000b49f0       ??0dgListNode@?$dgList@PAVdgMemoryAllocator@@@@AAE@ABQAVdgMemoryAllocator@@QAV01@1@Z 100b59f0 f i corelib:dgMemory.obj
 0001:000b4a80       ?Find@?$dgList@PAVdgMemoryAllocator@@@@QBEPAVdgListNode@1@ABQAVdgMemoryAllocator@@@Z 100b5a80 f i corelib:dgMemory.obj
 0001:000b4ac0       ?Remove@?$dgList@PAVdgMemoryAllocator@@@@QAEXQAVdgListNode@1@@Z 100b5ac0 f i corelib:dgMemory.obj
 0001:000b4b10       ??_GdgListNode@?$dgList@PAVdgMemoryAllocator@@@@AAEPAXI@Z 100b5b10 f i corelib:dgMemory.obj
 0001:000b4b40       ??3dgListNode@?$dgList@PAVdgMemoryAllocator@@@@CAXPAX@Z 100b5b40 f i corelib:dgMemory.obj
 0001:000b4b60       ??1dgListNode@?$dgList@PAVdgMemoryAllocator@@@@AAE@XZ 100b5b60 f i corelib:dgMemory.obj
 0001:000b4b70       ?Unlink@?$dgList@PAVdgMemoryAllocator@@@@QAEXQAVdgListNode@1@@Z 100b5b70 f i corelib:dgMemory.obj
 0001:000b4c20       ?Unlink@dgListNode@?$dgList@PAVdgMemoryAllocator@@@@AAEXXZ 100b5c20 f i corelib:dgMemory.obj
 0001:000b4c70       ?GetPrev@dgListNode@?$dgList@PAVdgMemoryAllocator@@@@QBEPAV12@XZ 100b5c70 f i corelib:dgMemory.obj
 0001:000b4c90       ?dgAtomicAdd@@YAHQAHH@Z    100b5c90 f i corelib:dgMemory.obj
 0001:000b4cb0       ??0dgGlobalAllocator@@QAE@XZ 100b5cb0 f i corelib:dgMemory.obj
 0001:000b4d00       ?__malloc__@dgGlobalAllocator@@SAPAXI@Z 100b5d00 f i corelib:dgMemory.obj
 0001:000b4d20       ?__free__@dgGlobalAllocator@@SAXPAXI@Z 100b5d20 f i corelib:dgMemory.obj
 0001:000b4d40       ??0?$dgList@PAVdgMemoryAllocator@@@@QAE@QAVdgMemoryAllocator@@@Z 100b5d40 f i corelib:dgMemory.obj
 0001:000b4d80       ?SetAllocator@?$dgList@PAVdgMemoryAllocator@@@@QAEXQAVdgMemoryAllocator@@@Z 100b5d80 f i corelib:dgMemory.obj
 0001:000b4db0       ??1dgGlobalAllocator@@QAE@XZ 100b5db0 f i corelib:dgMemory.obj
 0001:000b4e10       ??1?$dgList@PAVdgMemoryAllocator@@@@QAE@XZ 100b5e10 f i corelib:dgMemory.obj
 0001:000b4e30       ?GetCount@?$dgList@PAVdgMemoryAllocator@@@@QBEHXZ 100b5e30 f i corelib:dgMemory.obj
 0001:000b4e40       ?RemoveAll@?$dgList@PAVdgMemoryAllocator@@@@QAEXXZ 100b5e40 f i corelib:dgMemory.obj
 0001:000b4f00       ?DJBHash@InternalCRC@@YAIQBDH@Z 100b5f00 f   corelib:dgCRC.obj
 0001:000b4f50       ?dgCRC@@YAIQBD@Z           100b5f50 f   corelib:dgCRC.obj
 0001:000b4ff0       ?dgCRC@@YAIQBXHI@Z         100b5ff0 f   corelib:dgCRC.obj
 0001:000b5080       ?dgInverseCRC@@YAPBDI@Z    100b6080 f   corelib:dgCRC.obj
 0001:000b50b0       ?dgHash@@YAIQBXH@Z         100b60b0 f   corelib:dgCRC.obj
 0001:000b50d0       ?dgAbsf@@YAMM@Z            100b60d0 f   corelib:dgTypes.obj
 0001:000b50e0       ?dgSqrt@@YAMM@Z            100b60e0 f   corelib:dgTypes.obj
 0001:000b50f0       ?dgSin@@YAMM@Z             100b60f0 f   corelib:dgTypes.obj
 0001:000b5100       ?dgCos@@YAMM@Z             100b6100 f   corelib:dgTypes.obj
 0001:000b5110       ?dgAsin@@YAMM@Z            100b6110 f   corelib:dgTypes.obj
 0001:000b5130       ?dgAcos@@YAMM@Z            100b6130 f   corelib:dgTypes.obj
 0001:000b5150       ?dgAtan2@@YAMMM@Z          100b6150 f   corelib:dgTypes.obj
 0001:000b5170       ?dgFloor@@YAMM@Z           100b6170 f   corelib:dgTypes.obj
 0001:000b51a0       ?dgFastInt@@YAHM@Z         100b61a0 f   corelib:dgTypes.obj
 0001:000b51d0       ?dgSinCos@@YAXMAAM0@Z      100b61d0 f   corelib:dgTypes.obj
 0001:000b51f0       ?GetMinMax@@YAXAAVdgVector@@0QBMHH@Z 100b61f0 f   corelib:dgTypes.obj
 0001:000b53d0       ?dgGetCpuType@@YA?AW4dgCpuClass@@XZ 100b63d0 f   corelib:dgTypes.obj
 0001:000b55e0       ?dgVertexListToIndexList@@YAHQAMHHHHQAHM@Z 100b65e0 f   corelib:dgTypes.obj
 0001:000b66a0       ??$GetMin@N@@YANNNN@Z      100b76a0 f i corelib:dgTypes.obj
 0001:000b66e0       ??0?$dgStack@M@@QAE@H@Z    100b76e0 f i corelib:dgTypes.obj
 0001:000b6710       ??1?$dgStack@M@@QAE@XZ     100b7710 f i corelib:dgTypes.obj
 0001:000b6730       ??A?$dgStack@M@@QAEAAMH@Z  100b7730 f i corelib:dgTypes.obj
 0001:000b67b0       ??$GetMin@N@@YANNN@Z       100b77b0 f i corelib:dgTypes.obj
 0001:000b67d0       ?dgGetIdentityMatrix@@YAABVdgMatrix@@XZ 100b77d0 f   corelib:dgMatrix.obj
 0001:000b67e0       ?dgGetZeroMatrix@@YAABVdgMatrix@@XZ 100b77e0 f   corelib:dgMatrix.obj
 0001:000b67f0       ??0dgMatrix@@QAE@ABVdgQuaternion@@ABVdgVector@@@Z 100b77f0 f   corelib:dgMatrix.obj
 0001:000b6ab0       ??DdgMatrix@@QBE?AV0@ABV0@@Z 100b7ab0 f   corelib:dgMatrix.obj
 0001:000b7910       ?TransformTriplex@dgMatrix@@QBEXQAXHQBXHH@Z 100b8910 f   corelib:dgMatrix.obj
 0001:000b7a20       ?TransformBBox@dgMatrix@@QBEXABVdgVector@@0AAV2@1@Z 100b8a20 f   corelib:dgMatrix.obj
 0001:000b7ef0       ?Symetric3by3Inverse@dgMatrix@@QBE?AV1@XZ 100b8ef0 f   corelib:dgMatrix.obj
 0001:000b85e0       ?EigenVectors@dgMatrix@@QAEXAAVdgVector@@@Z 100b95e0 f   corelib:dgMatrix.obj
 0001:000b9520       ?CalcPitchYawRoll@dgMatrix@@QBE?AVdgVector@@XZ 100ba520 f   corelib:dgMatrix.obj
 0001:000b98a0       ??0dgPolyhedraDescriptor@@QAE@ABVdgPolyhedra@@@Z 100ba8a0 f   corelib:dgPolyhedra.obj
 0001:000b98e0       ??1dgPolyhedraDescriptor@@QAE@XZ 100ba8e0 f   corelib:dgPolyhedra.obj
 0001:000b9900       ?Update@dgPolyhedraDescriptor@@QAEXABVdgPolyhedra@@@Z 100ba900 f   corelib:dgPolyhedra.obj
 0001:000b9b10       ??0dgPolyhedra@@QAE@QAVdgMemoryAllocator@@@Z 100bab10 f   corelib:dgPolyhedra.obj
 0001:000b9b60       ??0dgPolyhedra@@QAE@ABV0@@Z 100bab60 f   corelib:dgPolyhedra.obj
 0001:000b9d30       ??1dgPolyhedra@@UAE@XZ     100bad30 f   corelib:dgPolyhedra.obj
 0001:000b9d50       ?DeleteAllFace@dgPolyhedra@@QAEXXZ 100bad50 f   corelib:dgPolyhedra.obj
 0001:000b9d90       ?SanityCheck@dgPolyhedra@@QBE_NXZ 100bad90 f   corelib:dgPolyhedra.obj
 0001:000b9da0       ?BeginFace@dgPolyhedra@@QAEXXZ 100bada0 f   corelib:dgPolyhedra.obj
 0001:000b9db0       ?EndFace@dgPolyhedra@@QAEXXZ 100badb0 f   corelib:dgPolyhedra.obj
 0001:000ba0a0       ?AddFace@dgPolyhedra@@QAEPAVdgEdge@@HHH@Z 100bb0a0 f   corelib:dgPolyhedra.obj
 0001:000ba0e0       ?AddFace@dgPolyhedra@@QAEPAVdgEdge@@HQBHQB_J@Z 100bb0e0 f   corelib:dgPolyhedra.obj
 0001:000ba5d0       ?DeleteFace@dgPolyhedra@@QAEXQAVdgEdge@@@Z 100bb5d0 f   corelib:dgPolyhedra.obj
 0001:000ba6c0       ?FindVertexNode@dgPolyhedra@@QBEPAVdgEdge@@H@Z 100bb6c0 f   corelib:dgPolyhedra.obj
 0001:000ba730       ?FindEdgeNode@dgPolyhedra@@QBEPAVdgTreeNode@?$dgTree@VdgEdge@@_J@@HH@Z 100bb730 f   corelib:dgPolyhedra.obj
 0001:000ba770       ?FindEdge@dgPolyhedra@@QBEPAVdgEdge@@HH@Z 100bb770 f   corelib:dgPolyhedra.obj
 0001:000ba7b0       ?AddHalfEdge@dgPolyhedra@@QAEPAVdgEdge@@HH@Z 100bb7b0 f   corelib:dgPolyhedra.obj
 0001:000ba830       ?DeleteEdge@dgPolyhedra@@QAEXQAVdgEdge@@@Z 100bb830 f   corelib:dgPolyhedra.obj
 0001:000ba930       ?DeleteEdge@dgPolyhedra@@QAEXHH@Z 100bb930 f   corelib:dgPolyhedra.obj
 0001:000ba9a0       ?CollapseEdge@dgPolyhedra@@QAEPAVdgEdge@@QAV2@@Z 100bb9a0 f   corelib:dgPolyhedra.obj
 0001:000bae60       ?ChangeEdgeIncidentVertex@dgPolyhedra@@QAEXQAVdgEdge@@H@Z 100bbe60 f   corelib:dgPolyhedra.obj
 0001:000baf20       ?FlipEdge@dgPolyhedra@@QAE_NQAVdgEdge@@@Z 100bbf20 f   corelib:dgPolyhedra.obj
 0001:000bb140       ?SpliteEdge@dgPolyhedra@@QAEPAVdgEdge@@HQAV2@@Z 100bc140 f   corelib:dgPolyhedra.obj
 0001:000bb350       ?SpliteEdgeAndTriangulate@dgPolyhedra@@QAEPAVdgEdge@@HQAV2@@Z 100bc350 f   corelib:dgPolyhedra.obj
 0001:000bb4e0       ?CalculateSphere@dgPolyhedra@@QBE?AVdgSphere@@QBMHQBVdgMatrix@@@Z 100bc4e0 f   corelib:dgPolyhedra.obj
 0001:000bbdf0       ?FaceNormal@dgPolyhedra@@QBE?AVdgVector@@QAVdgEdge@@QBMH@Z 100bcdf0 f   corelib:dgPolyhedra.obj
 0001:000bbfc0       ?BigFaceNormal@dgPolyhedra@@QBE?AVdgBigVector@@QAVdgEdge@@QBMH@Z 100bcfc0 f   corelib:dgPolyhedra.obj
 0001:000bbff0       ?GetMaxIndex@dgPolyhedra@@QBEHXZ 100bcff0 f   corelib:dgPolyhedra.obj
 0001:000bc080       ?GetFaceCount@dgPolyhedra@@QBEHXZ 100bd080 f   corelib:dgPolyhedra.obj
 0001:000bc150       ?GetUnboundedFaceCount@dgPolyhedra@@QBEHXZ 100bd150 f   corelib:dgPolyhedra.obj
 0001:000bc220       ?PackVertex@dgPolyhedra@@QAEHQAMQBMH@Z 100bd220 f   corelib:dgPolyhedra.obj
 0001:000bc260       ?GetBadEdges@dgPolyhedra@@QBEXAAV?$dgList@PAVdgEdge@@@@QBMH@Z 100bd260 f   corelib:dgPolyhedra.obj
 0001:000bcdf0       ?DeleteDegenerateFaces@dgPolyhedra@@QAEXQBMHM@Z 100bddf0 f   corelib:dgPolyhedra.obj
 0001:000bcfb0       ?GetConectedSurface@dgPolyhedra@@QBE_NAAV1@@Z 100bdfb0 f   corelib:dgPolyhedra.obj
 0001:000bd2a0       ?GetCoplanarFaces@dgPolyhedra@@QBEXAAV?$dgList@PAVdgEdge@@@@PAVdgEdge@@QBMHM@Z 100be2a0 f   corelib:dgPolyhedra.obj
 0001:000bd660       ?DeleteOverlapingFaces@dgPolyhedra@@QAEXQBMHM@Z 100be660 f   corelib:dgPolyhedra.obj
 0001:000bdc50       ?InvertWinding@dgPolyhedra@@QAEXXZ 100bec50 f   corelib:dgPolyhedra.obj
 0001:000bde20       ?TriangleList@dgPolyhedra@@QBEHQAIHH@Z 100bee20 f   corelib:dgPolyhedra.obj
 0001:000be150       ?SwapInfo@dgPolyhedra@@QAEXAAV1@@Z 100bf150 f   corelib:dgPolyhedra.obj
 0001:000be1d0       ?GetOpenFaces@dgPolyhedra@@QBEXAAV?$dgList@PAVdgEdge@@@@@Z 100bf1d0 f   corelib:dgPolyhedra.obj
 0001:000be290       ?Optimize@dgPolyhedra@@QAEXQBMHM@Z 100bf290 f   corelib:dgPolyhedra.obj
 0001:000bfdb0       ?Triangulate@dgPolyhedra@@QAEXQBMHQAV1@@Z 100c0db0 f   corelib:dgPolyhedra.obj
 0001:000c17e0       ?ConvexPartition@dgPolyhedra@@QAEXQBMHQAV1@@Z 100c27e0 f   corelib:dgPolyhedra.obj
 0001:000c2cd0       ??_GdgPolyhedra@@UAEPAXI@Z 100c3cd0 f i corelib:dgPolyhedra.obj
 0001:000c2cd0       ??_EdgPolyhedra@@UAEPAXI@Z 100c3cd0 f i corelib:dgPolyhedra.obj
 0001:000c2d00       ??0dgEdge@@QAE@HH_K@Z      100c3d00 f i corelib:dgPolyhedra.obj
 0001:000c2d60       ??0dgPairKey@dgPolyhedra@@QAE@HH@Z 100c3d60 f i corelib:dgPolyhedra.obj
 0001:000c2da0       ?GetVal@dgPairKey@dgPolyhedra@@QBE_JXZ 100c3da0 f i corelib:dgPolyhedra.obj
 0001:000c2dc0       ??1?$dgDownHeap@PAVdgEdge@@M@@QAE@XZ 100c3dc0 f i corelib:dgPolyhedra.obj
 0001:000c2de0       ??4dgPolyhedra@@QAEAAV0@ABV0@@Z 100c3de0 f i corelib:dgPolyhedra.obj
 0001:000c2e50       ??0VertexCache@InternalPolyhedra@@QAE@HQAVdgMemoryAllocator@@@Z 100c3e50 f i corelib:dgPolyhedra.obj
 0001:000c2e80       ?IsInCache@VertexCache@InternalPolyhedra@@QBEHPAVdgEdge@@@Z 100c3e80 f i corelib:dgPolyhedra.obj
 0001:000c2f20       ?AddEdge@VertexCache@InternalPolyhedra@@QAEHPAVdgEdge@@@Z 100c3f20 f i corelib:dgPolyhedra.obj
 0001:000c2f80       ?GetEdge@VertexCache@InternalPolyhedra@@QBEPAVdgEdge@@H@Z 100c3f80 f i corelib:dgPolyhedra.obj
 0001:000c3030       ??1VertexCache@InternalPolyhedra@@QAE@XZ 100c4030 f i corelib:dgPolyhedra.obj
 0001:000c3050       ??0EDGE_HANDLE@InternalPolyhedra@@QAE@PAVdgEdge@@@Z 100c4050 f i corelib:dgPolyhedra.obj
 0001:000c3080       ??1EDGE_HANDLE@InternalPolyhedra@@QAE@XZ 100c4080 f i corelib:dgPolyhedra.obj
 0001:000c30d0       ?Evalue@VERTEX_METRIC_STRUCT@InternalPolyhedra@@QAENAAVdgVector@@@Z 100c40d0 f i corelib:dgPolyhedra.obj
 0001:000c31a0       ??0dgBigPlane@@QAE@XZ      100c41a0 f i corelib:dgPolyhedra.obj
 0001:000c31c0       ??0VERTEX_METRIC_STRUCT@InternalPolyhedra@@QAE@ABVdgBigPlane@@@Z 100c41c0 f i corelib:dgPolyhedra.obj
 0001:000c32b0       ?Accumulate@VERTEX_METRIC_STRUCT@InternalPolyhedra@@QAEXAAU12@@Z 100c42b0 f i corelib:dgPolyhedra.obj
 0001:000c3370       ?Clear@VERTEX_METRIC_STRUCT@InternalPolyhedra@@QAEXXZ 100c4370 f i corelib:dgPolyhedra.obj
 0001:000c3390       ?Accumulate@VERTEX_METRIC_STRUCT@InternalPolyhedra@@QAEXAAVdgBigPlane@@@Z 100c4390 f i corelib:dgPolyhedra.obj
 0001:000c34b0       ??1?$dgDownHeap@PAVdgListNode@?$dgList@UEDGE_HANDLE@InternalPolyhedra@@@@N@@QAE@XZ 100c44b0 f i corelib:dgPolyhedra.obj
 0001:000c34d0       ??0dgDiagonalEdge@InternalPolyhedra@@QAE@QAVdgEdge@@@Z 100c44d0 f i corelib:dgPolyhedra.obj
 0001:000c3500       ??0Iterator@?$dgList@PAVdgEdge@@@@QAE@ABV1@@Z 100c4500 f i corelib:dgPolyhedra.obj
 0001:000c3530       ??1Iterator@?$dgList@PAVdgEdge@@@@QAE@XZ 100c4530 f i corelib:dgPolyhedra.obj
 0001:000c3540       ??BIterator@?$dgList@PAVdgEdge@@@@QBEHXZ 100c4540 f i corelib:dgPolyhedra.obj
 0001:000c3560       ?End@Iterator@?$dgList@PAVdgEdge@@@@QAEXXZ 100c4560 f i corelib:dgPolyhedra.obj
 0001:000c3580       ??FIterator@?$dgList@PAVdgEdge@@@@QAEXH@Z 100c4580 f i corelib:dgPolyhedra.obj
 0001:000c35d0       ??DIterator@?$dgList@PAVdgEdge@@@@QBEAAPAVdgEdge@@XZ 100c45d0 f i corelib:dgPolyhedra.obj
 0001:000c35f0       ?GetInfo@dgListNode@?$dgList@VdgDiagonalEdge@InternalPolyhedra@@@@QAEAAVdgDiagonalEdge@InternalPolyhedra@@XZ 100c45f0 f i corelib:dgPolyhedra.obj
 0001:000c3600       ?GetNext@dgListNode@?$dgList@VdgDiagonalEdge@InternalPolyhedra@@@@QBEPAV12@XZ 100c4600 f i corelib:dgPolyhedra.obj
 0001:000c3620       ??0Iterator@?$dgTree@PAVdgEdge@@H@@QAE@ABV1@@Z 100c4620 f i corelib:dgPolyhedra.obj
 0001:000c3650       ??1Iterator@?$dgTree@PAVdgEdge@@H@@QAE@XZ 100c4650 f i corelib:dgPolyhedra.obj
 0001:000c3660       ?Begin@Iterator@?$dgTree@PAVdgEdge@@H@@QAEXXZ 100c4660 f i corelib:dgPolyhedra.obj
 0001:000c3680       ??BIterator@?$dgTree@PAVdgEdge@@H@@QBEHXZ 100c4680 f i corelib:dgPolyhedra.obj
 0001:000c36a0       ??EIterator@?$dgTree@PAVdgEdge@@H@@QAEXH@Z 100c46a0 f i corelib:dgPolyhedra.obj
 0001:000c36f0       ?GetNode@Iterator@?$dgTree@PAVdgEdge@@H@@QBEPAVdgTreeNode@2@XZ 100c46f0 f i corelib:dgPolyhedra.obj
 0001:000c3700       ?GetInfo@dgTreeNode@?$dgTree@PAVdgEdge@@H@@QAEAAPAVdgEdge@@XZ 100c4700 f i corelib:dgPolyhedra.obj
 0001:000c3720       ?GetInfo@dgListNode@?$dgList@UEDGE_HANDLE@InternalPolyhedra@@@@QAEAAUEDGE_HANDLE@InternalPolyhedra@@XZ 100c4720 f i corelib:dgPolyhedra.obj
 0001:000c3730       ?GetInfo@dgListNode@?$dgList@PAVdgEdge@@@@QAEAAPAVdgEdge@@XZ 100c4730 f i corelib:dgPolyhedra.obj
 0001:000c3740       ?GetPrev@dgListNode@?$dgList@PAVdgEdge@@@@QBEPAV12@XZ 100c4740 f i corelib:dgPolyhedra.obj
 0001:000c3760       ??0?$dgList@PAVdgEdge@@@@QAE@QAVdgMemoryAllocator@@@Z 100c4760 f i corelib:dgPolyhedra.obj
 0001:000c37a0       ??1?$dgList@PAVdgEdge@@@@QAE@XZ 100c47a0 f i corelib:dgPolyhedra.obj
 0001:000c37c0       ?GetCount@?$dgList@PAVdgEdge@@@@QBEHXZ 100c47c0 f i corelib:dgPolyhedra.obj
 0001:000c37d0       ?GetLast@?$dgList@PAVdgEdge@@@@QBEPAVdgListNode@1@XZ 100c47d0 f i corelib:dgPolyhedra.obj
 0001:000c37f0       ?Append@?$dgList@PAVdgEdge@@@@QAEPAVdgListNode@1@ABQAVdgEdge@@@Z 100c47f0 f i corelib:dgPolyhedra.obj
 0001:000c38b0       ?Addtop@?$dgList@PAVdgEdge@@@@QAEPAVdgListNode@1@ABQAVdgEdge@@@Z 100c48b0 f i corelib:dgPolyhedra.obj
 0001:000c3970       ?Remove@?$dgList@PAVdgEdge@@@@QAEXQAVdgListNode@1@@Z 100c4970 f i corelib:dgPolyhedra.obj
 0001:000c39c0       ?RemoveAll@?$dgList@PAVdgEdge@@@@QAEXXZ 100c49c0 f i corelib:dgPolyhedra.obj
 0001:000c3a80       ??0?$dgTree@VdgEdge@@_J@@QAE@QAVdgMemoryAllocator@@@Z 100c4a80 f i corelib:dgPolyhedra.obj
 0001:000c3ab0       ??1?$dgTree@VdgEdge@@_J@@QAE@XZ 100c4ab0 f i corelib:dgPolyhedra.obj
 0001:000c3ad0       ?Find@?$dgTree@VdgEdge@@_J@@QBEPAVdgTreeNode@1@_J@Z 100c4ad0 f i corelib:dgPolyhedra.obj
 0001:000c3c10       ?FindGreaterEqual@?$dgTree@VdgEdge@@_J@@QBEPAVdgTreeNode@1@_J@Z 100c4c10 f i corelib:dgPolyhedra.obj
 0001:000c3cf0       ?Insert@?$dgTree@VdgEdge@@_J@@QAEPAVdgTreeNode@1@ABVdgEdge@@_J@Z 100c4cf0 f i corelib:dgPolyhedra.obj
 0001:000c3d30       ?Insert@?$dgTree@VdgEdge@@_J@@QAEPAVdgTreeNode@1@ABVdgEdge@@_JAA_N@Z 100c4d30 f i corelib:dgPolyhedra.obj
 0001:000c3f50       ?ReplaceKey@?$dgTree@VdgEdge@@_J@@QAEPAVdgTreeNode@1@QAV21@_J@Z 100c4f50 f i corelib:dgPolyhedra.obj
 0001:000c3fb0       ?Remove@?$dgTree@VdgEdge@@_J@@QAEXQAVdgTreeNode@1@@Z 100c4fb0 f i corelib:dgPolyhedra.obj
 0001:000c3ff0       ?SwapInfo@?$dgTree@VdgEdge@@_J@@QAEXAAV1@@Z 100c4ff0 f i corelib:dgPolyhedra.obj
 0001:000c4030       ??$GetMax@M@@YAMMMM@Z      100c5030 f i corelib:dgPolyhedra.obj
 0001:000c4060       ??0?$dgList@VdgDiagonalEdge@InternalPolyhedra@@@@QAE@QAVdgMemoryAllocator@@@Z 100c5060 f i corelib:dgPolyhedra.obj
 0001:000c40a0       ??1?$dgList@VdgDiagonalEdge@InternalPolyhedra@@@@QAE@XZ 100c50a0 f i corelib:dgPolyhedra.obj
 0001:000c40c0       ?GetCount@?$dgList@VdgDiagonalEdge@InternalPolyhedra@@@@QBEHXZ 100c50c0 f i corelib:dgPolyhedra.obj
 0001:000c40d0       ?GetFirst@?$dgList@VdgDiagonalEdge@InternalPolyhedra@@@@QBEPAVdgListNode@1@XZ 100c50d0 f i corelib:dgPolyhedra.obj
 0001:000c40f0       ?Append@?$dgList@VdgDiagonalEdge@InternalPolyhedra@@@@QAEPAVdgListNode@1@ABVdgDiagonalEdge@InternalPolyhedra@@@Z 100c50f0 f i corelib:dgPolyhedra.obj
 0001:000c41b0       ?Remove@?$dgList@VdgDiagonalEdge@InternalPolyhedra@@@@QAEXQAVdgListNode@1@@Z 100c51b0 f i corelib:dgPolyhedra.obj
 0001:000c4200       ??1?$dgHeapBase@PAVdgEdge@@M@@IAE@XZ 100c5200 f i corelib:dgPolyhedra.obj
 0001:000c4230       ?Flush@?$dgHeapBase@PAVdgEdge@@M@@QAEXXZ 100c5230 f i corelib:dgPolyhedra.obj
 0001:000c4250       ?GetCount@?$dgHeapBase@PAVdgEdge@@M@@QBEHXZ 100c5250 f i corelib:dgPolyhedra.obj
 0001:000c4260       ??A?$dgHeapBase@PAVdgEdge@@M@@QBEABQAVdgEdge@@H@Z 100c5260 f i corelib:dgPolyhedra.obj
 0001:000c42b0       ??0?$dgDownHeap@PAVdgEdge@@M@@QAE@QBXH@Z 100c52b0 f i corelib:dgPolyhedra.obj
 0001:000c42d0       ?Pop@?$dgDownHeap@PAVdgEdge@@M@@QAEXXZ 100c52d0 f i corelib:dgPolyhedra.obj
 0001:000c43d0       ?Push@?$dgDownHeap@PAVdgEdge@@M@@QAEXAAPAVdgEdge@@M@Z 100c53d0 f i corelib:dgPolyhedra.obj
 0001:000c44d0       ??0?$dgStack@_K@@QAE@H@Z   100c54d0 f i corelib:dgPolyhedra.obj
 0001:000c4500       ??1?$dgStack@_K@@QAE@XZ    100c5500 f i corelib:dgPolyhedra.obj
 0001:000c4520       ??A?$dgStack@_K@@QAEAA_KH@Z 100c5520 f i corelib:dgPolyhedra.obj
 0001:000c45a0       ??0?$dgStack@PAVdgTreeNode@?$dgTree@VdgEdge@@_J@@@@QAE@H@Z 100c55a0 f i corelib:dgPolyhedra.obj
 0001:000c45d0       ??1?$dgStack@PAVdgTreeNode@?$dgTree@VdgEdge@@_J@@@@QAE@XZ 100c55d0 f i corelib:dgPolyhedra.obj
 0001:000c45f0       ??A?$dgStack@PAVdgTreeNode@?$dgTree@VdgEdge@@_J@@@@QAEAAPAVdgTreeNode@?$dgTree@VdgEdge@@_J@@H@Z 100c55f0 f i corelib:dgPolyhedra.obj
 0001:000c4670       ??0?$dgStack@VdgPolyhedra@@@@QAE@H@Z 100c5670 f i corelib:dgPolyhedra.obj
 0001:000c46a0       ??1?$dgStack@VdgPolyhedra@@@@QAE@XZ 100c56a0 f i corelib:dgPolyhedra.obj
 0001:000c46c0       ??A?$dgStack@VdgPolyhedra@@@@QAEAAVdgPolyhedra@@H@Z 100c56c0 f i corelib:dgPolyhedra.obj
 0001:000c4740       ??0?$dgStack@_J@@QAE@H@Z   100c5740 f i corelib:dgPolyhedra.obj
 0001:000c4770       ??1?$dgStack@_J@@QAE@XZ    100c5770 f i corelib:dgPolyhedra.obj
 0001:000c4790       ??A?$dgStack@_J@@QAEAA_JH@Z 100c5790 f i corelib:dgPolyhedra.obj
 0001:000c4810       ??0?$dgTree@PAVdgEdge@@H@@QAE@QAVdgMemoryAllocator@@@Z 100c5810 f i corelib:dgPolyhedra.obj
 0001:000c4840       ??1?$dgTree@PAVdgEdge@@H@@QAE@XZ 100c5840 f i corelib:dgPolyhedra.obj
 0001:000c4860       ?GetCount@?$dgTree@PAVdgEdge@@H@@QBEHXZ 100c5860 f i corelib:dgPolyhedra.obj
 0001:000c4870       ?Minimum@?$dgTree@PAVdgEdge@@H@@QBEPAVdgTreeNode@1@XZ 100c5870 f i corelib:dgPolyhedra.obj
 0001:000c48a0       ?Insert@?$dgTree@PAVdgEdge@@H@@QAEPAVdgTreeNode@1@ABQAVdgEdge@@H@Z 100c58a0 f i corelib:dgPolyhedra.obj
 0001:000c48e0       ?Remove@?$dgTree@PAVdgEdge@@H@@QAEXQAVdgTreeNode@1@@Z 100c58e0 f i corelib:dgPolyhedra.obj
 0001:000c4920       ??0?$dgList@UEDGE_HANDLE@InternalPolyhedra@@@@QAE@QAVdgMemoryAllocator@@@Z 100c5920 f i corelib:dgPolyhedra.obj
 0001:000c4960       ??1?$dgList@UEDGE_HANDLE@InternalPolyhedra@@@@QAE@XZ 100c5960 f i corelib:dgPolyhedra.obj
 0001:000c4980       ?Addtop@?$dgList@UEDGE_HANDLE@InternalPolyhedra@@@@QAEPAVdgListNode@1@ABUEDGE_HANDLE@InternalPolyhedra@@@Z 100c5980 f i corelib:dgPolyhedra.obj
 0001:000c4a40       ?Remove@?$dgList@UEDGE_HANDLE@InternalPolyhedra@@@@QAEXQAVdgListNode@1@@Z 100c5a40 f i corelib:dgPolyhedra.obj
 0001:000c4a90       ??0?$dgStack@UVERTEX_METRIC_STRUCT@InternalPolyhedra@@@@QAE@H@Z 100c5a90 f i corelib:dgPolyhedra.obj
 0001:000c4ac0       ??1?$dgStack@UVERTEX_METRIC_STRUCT@InternalPolyhedra@@@@QAE@XZ 100c5ac0 f i corelib:dgPolyhedra.obj
 0001:000c4ae0       ??A?$dgStack@UVERTEX_METRIC_STRUCT@InternalPolyhedra@@@@QAEAAUVERTEX_METRIC_STRUCT@InternalPolyhedra@@H@Z 100c5ae0 f i corelib:dgPolyhedra.obj
 0001:000c4b60       ??1?$dgHeapBase@PAVdgListNode@?$dgList@UEDGE_HANDLE@InternalPolyhedra@@@@N@@IAE@XZ 100c5b60 f i corelib:dgPolyhedra.obj
 0001:000c4b90       ?GetCount@?$dgHeapBase@PAVdgListNode@?$dgList@UEDGE_HANDLE@InternalPolyhedra@@@@N@@QBEHXZ 100c5b90 f i corelib:dgPolyhedra.obj
 0001:000c4ba0       ??A?$dgHeapBase@PAVdgListNode@?$dgList@UEDGE_HANDLE@InternalPolyhedra@@@@N@@QBEABQAVdgListNode@?$dgList@UEDGE_HANDLE@InternalPolyhedra@@@@H@Z 100c5ba0 f i corelib:dgPolyhedra.obj
 0001:000c4bf0       ??0?$dgDownHeap@PAVdgListNode@?$dgList@UEDGE_HANDLE@InternalPolyhedra@@@@N@@QAE@QBXH@Z 100c5bf0 f i corelib:dgPolyhedra.obj
 0001:000c4c10       ?Pop@?$dgDownHeap@PAVdgListNode@?$dgList@UEDGE_HANDLE@InternalPolyhedra@@@@N@@QAEXXZ 100c5c10 f i corelib:dgPolyhedra.obj
 0001:000c4d40       ?Push@?$dgDownHeap@PAVdgListNode@?$dgList@UEDGE_HANDLE@InternalPolyhedra@@@@N@@QAEXAAPAVdgListNode@?$dgList@UEDGE_HANDLE@InternalPolyhedra@@@@N@Z 100c5d40 f i corelib:dgPolyhedra.obj
 0001:000c4e60       ??_GdgListNode@?$dgList@PAVdgEdge@@@@AAEPAXI@Z 100c5e60 f i corelib:dgPolyhedra.obj
 0001:000c4e90       ??_GdgListNode@?$dgList@VdgDiagonalEdge@InternalPolyhedra@@@@AAEPAXI@Z 100c5e90 f i corelib:dgPolyhedra.obj
 0001:000c4ec0       ??_GdgListNode@?$dgList@UEDGE_HANDLE@InternalPolyhedra@@@@AAEPAXI@Z 100c5ec0 f i corelib:dgPolyhedra.obj
 0001:000c4ef0       ??2dgListNode@?$dgList@PAVdgEdge@@@@CAPAXIQAVdgMemoryAllocator@@@Z 100c5ef0 f i corelib:dgPolyhedra.obj
 0001:000c4f10       ??3dgListNode@?$dgList@PAVdgEdge@@@@CAXPAX@Z 100c5f10 f i corelib:dgPolyhedra.obj
 0001:000c4f30       ??0dgListNode@?$dgList@PAVdgEdge@@@@AAE@ABQAVdgEdge@@QAV01@1@Z 100c5f30 f i corelib:dgPolyhedra.obj
 0001:000c4fc0       ??1dgListNode@?$dgList@PAVdgEdge@@@@AAE@XZ 100c5fc0 f i corelib:dgPolyhedra.obj
 0001:000c4fd0       ?Unlink@dgListNode@?$dgList@PAVdgEdge@@@@AAEXXZ 100c5fd0 f i corelib:dgPolyhedra.obj
 0001:000c5020       ?GetNext@dgListNode@?$dgList@PAVdgEdge@@@@QBEPAV12@XZ 100c6020 f i corelib:dgPolyhedra.obj
 0001:000c5040       ??0dgTreeNode@?$dgTree@VdgEdge@@_J@@AAE@ABVdgEdge@@AB_JPAV01@@Z 100c6040 f i corelib:dgPolyhedra.obj
 0001:000c50c0       ?GetLeft@dgTreeNode@?$dgTree@VdgEdge@@_J@@ABEPAV12@XZ 100c60c0 f i corelib:dgPolyhedra.obj
 0001:000c50d0       ?GetRight@dgTreeNode@?$dgTree@VdgEdge@@_J@@ABEPAV12@XZ 100c60d0 f i corelib:dgPolyhedra.obj
 0001:000c50f0       ?GetParent@dgTreeNode@?$dgTree@VdgEdge@@_J@@AAEPAV12@XZ 100c60f0 f i corelib:dgPolyhedra.obj
 0001:000c5110       ??2dgListNode@?$dgList@VdgDiagonalEdge@InternalPolyhedra@@@@CAPAXIQAVdgMemoryAllocator@@@Z 100c6110 f i corelib:dgPolyhedra.obj
 0001:000c5130       ??3dgListNode@?$dgList@VdgDiagonalEdge@InternalPolyhedra@@@@CAXPAX@Z 100c6130 f i corelib:dgPolyhedra.obj
 0001:000c5150       ??0dgListNode@?$dgList@VdgDiagonalEdge@InternalPolyhedra@@@@AAE@ABVdgDiagonalEdge@InternalPolyhedra@@QAV01@1@Z 100c6150 f i corelib:dgPolyhedra.obj
 0001:000c51f0       ??1dgListNode@?$dgList@VdgDiagonalEdge@InternalPolyhedra@@@@AAE@XZ 100c61f0 f i corelib:dgPolyhedra.obj
 0001:000c5200       ??2dgListNode@?$dgList@UEDGE_HANDLE@InternalPolyhedra@@@@CAPAXIQAVdgMemoryAllocator@@@Z 100c6200 f i corelib:dgPolyhedra.obj
 0001:000c5220       ??3dgListNode@?$dgList@UEDGE_HANDLE@InternalPolyhedra@@@@CAXPAX@Z 100c6220 f i corelib:dgPolyhedra.obj
 0001:000c5240       ??0dgListNode@?$dgList@UEDGE_HANDLE@InternalPolyhedra@@@@AAE@ABUEDGE_HANDLE@InternalPolyhedra@@QAV01@1@Z 100c6240 f i corelib:dgPolyhedra.obj
 0001:000c52d0       ??0EDGE_HANDLE@InternalPolyhedra@@QAE@ABU01@@Z 100c62d0 f i corelib:dgPolyhedra.obj
 0001:000c5350       ??1dgListNode@?$dgList@UEDGE_HANDLE@InternalPolyhedra@@@@AAE@XZ 100c6350 f i corelib:dgPolyhedra.obj
 0001:000c5370       ?Unlink@?$dgList@PAVdgEdge@@@@QAEXQAVdgListNode@1@@Z 100c6370 f i corelib:dgPolyhedra.obj
 0001:000c5420       ?Insert@?$dgTree@VdgEdge@@_J@@QAEPAVdgTreeNode@1@QAV21@_J@Z 100c6420 f i corelib:dgPolyhedra.obj
 0001:000c55e0       ?Unlink@?$dgTree@VdgEdge@@_J@@QAEXQAVdgTreeNode@1@@Z 100c65e0 f i corelib:dgPolyhedra.obj
 0001:000c5650       ?CompareKeys@?$dgTree@VdgEdge@@_J@@ABEHAB_J0@Z 100c6650 f i corelib:dgPolyhedra.obj
 0001:000c56c0       ??$Swap@PAVdgTreeNode@?$dgTree@VdgEdge@@_J@@@@YAXAAPAVdgTreeNode@?$dgTree@VdgEdge@@_J@@0@Z 100c66c0 f i corelib:dgPolyhedra.obj
 0001:000c56f0       ?RemoveAll@?$dgList@VdgDiagonalEdge@InternalPolyhedra@@@@QAEXXZ 100c66f0 f i corelib:dgPolyhedra.obj
 0001:000c57b0       ?Unlink@?$dgList@VdgDiagonalEdge@InternalPolyhedra@@@@QAEXQAVdgListNode@1@@Z 100c67b0 f i corelib:dgPolyhedra.obj
 0001:000c5860       ??0?$dgHeapBase@PAVdgEdge@@M@@IAE@QBXH@Z 100c6860 f i corelib:dgPolyhedra.obj
 0001:000c58a0       ?Insert@?$dgTree@PAVdgEdge@@H@@QAEPAVdgTreeNode@1@ABQAVdgEdge@@HAA_N@Z 100c68a0 f i corelib:dgPolyhedra.obj
 0001:000c5aa0       ?RemoveAll@?$dgTree@PAVdgEdge@@H@@QAEXXZ 100c6aa0 f i corelib:dgPolyhedra.obj
 0001:000c5ae0       ?RemoveAll@?$dgList@UEDGE_HANDLE@InternalPolyhedra@@@@QAEXXZ 100c6ae0 f i corelib:dgPolyhedra.obj
 0001:000c5ba0       ?Unlink@?$dgList@UEDGE_HANDLE@InternalPolyhedra@@@@QAEXQAVdgListNode@1@@Z 100c6ba0 f i corelib:dgPolyhedra.obj
 0001:000c5c50       ??0?$dgHeapBase@PAVdgListNode@?$dgList@UEDGE_HANDLE@InternalPolyhedra@@@@N@@IAE@QBXH@Z 100c6c50 f i corelib:dgPolyhedra.obj
 0001:000c5c90       ?GetKey@dgTreeNode@?$dgTree@VdgEdge@@_J@@QBEAB_JXZ 100c6c90 f i corelib:dgPolyhedra.obj
 0001:000c5cb0       ?Unlink@dgListNode@?$dgList@VdgDiagonalEdge@InternalPolyhedra@@@@AAEXXZ 100c6cb0 f i corelib:dgPolyhedra.obj
 0001:000c5d00       ?GetPrev@dgListNode@?$dgList@VdgDiagonalEdge@InternalPolyhedra@@@@QBEPAV12@XZ 100c6d00 f i corelib:dgPolyhedra.obj
 0001:000c5d20       ??0dgTreeNode@?$dgTree@PAVdgEdge@@H@@AAE@ABQAVdgEdge@@ABHPAV01@@Z 100c6d20 f i corelib:dgPolyhedra.obj
 0001:000c5d90       ?GetLeft@dgTreeNode@?$dgTree@PAVdgEdge@@H@@ABEPAV12@XZ 100c6d90 f i corelib:dgPolyhedra.obj
 0001:000c5da0       ?GetRight@dgTreeNode@?$dgTree@PAVdgEdge@@H@@ABEPAV12@XZ 100c6da0 f i corelib:dgPolyhedra.obj
 0001:000c5dc0       ?Unlink@dgListNode@?$dgList@UEDGE_HANDLE@InternalPolyhedra@@@@AAEXXZ 100c6dc0 f i corelib:dgPolyhedra.obj
 0001:000c5e10       ?GetNext@dgListNode@?$dgList@UEDGE_HANDLE@InternalPolyhedra@@@@QBEPAV12@XZ 100c6e10 f i corelib:dgPolyhedra.obj
 0001:000c5e30       ?GetPrev@dgListNode@?$dgList@UEDGE_HANDLE@InternalPolyhedra@@@@QBEPAV12@XZ 100c6e30 f i corelib:dgPolyhedra.obj
 0001:000c5e50       ?CompareKeys@?$dgTree@PAVdgEdge@@H@@ABEHABH0@Z 100c6e50 f i corelib:dgPolyhedra.obj
 0001:000c5e90       ?Flush@?$dgHeapBase@PAVdgListNode@?$dgList@UEDGE_HANDLE@InternalPolyhedra@@@@N@@QAEXXZ 100c6e90 f i corelib:dgPolyhedra.obj
 0001:000c5eb0       ?Minimum@dgRedBackNode@@QBEPAV1@XZ 100c6eb0 f   corelib:dgTree.obj
 0001:000c5ee0       ?Maximum@dgRedBackNode@@QBEPAV1@XZ 100c6ee0 f   corelib:dgTree.obj
 0001:000c5f10       ?Prev@dgRedBackNode@@QBEPAV1@XZ 100c6f10 f   corelib:dgTree.obj
 0001:000c5f70       ?Next@dgRedBackNode@@QBEPAV1@XZ 100c6f70 f   corelib:dgTree.obj
 0001:000c5fd0       ?RotateLeft@dgRedBackNode@@QAEXQAPAV1@@Z 100c6fd0 f   corelib:dgTree.obj
 0001:000c6070       ?RotateRight@dgRedBackNode@@QAEXQAPAV1@@Z 100c7070 f   corelib:dgTree.obj
 0001:000c6120       ?InsertFixup@dgRedBackNode@@QAEXQAPAV1@@Z 100c7120 f   corelib:dgTree.obj
 0001:000c6330       ?RemoveFixup@dgRedBackNode@@QAEXQAV1@QAPAV1@@Z 100c7330 f   corelib:dgTree.obj
 0001:000c6640       ?Unlink@dgRedBackNode@@QAEXQAPAV1@@Z 100c7640 f   corelib:dgTree.obj
 0001:000c68d0       ?Remove@dgRedBackNode@@QAEXQAPAV1@@Z 100c78d0 f   corelib:dgTree.obj
 0001:000c6920       ?RemoveAllLow@dgRedBackNode@@QAEXXZ 100c7920 f   corelib:dgTree.obj
 0001:000c6990       ?RemoveAll@dgRedBackNode@@QAEXXZ 100c7990 f   corelib:dgTree.obj
 0001:000c69d0       ?GetColor@dgRedBackNode@@QBE?AW4REDBLACK_COLOR@1@XZ 100c79d0 f i corelib:dgTree.obj
 0001:000c69f0       ??_GdgRedBackNode@@QAEPAXI@Z 100c79f0 f i corelib:dgTree.obj
 0001:000c6a20       ??3dgRedBackNode@@SAXPAX@Z 100c7a20 f i corelib:dgTree.obj
 0001:000c6a40       ??1dgRedBackNode@@QAE@XZ   100c7a40 f i corelib:dgTree.obj
 0001:000c6a50       ??0dgThreads@@QAE@XZ       100c7a50 f   corelib:dgThreads.obj
 0001:000c6b40       ??1dgThreads@@QAE@XZ       100c7b40 f   corelib:dgThreads.obj
 0001:000c6b60       ?GetThreadCount@dgThreads@@QBEHXZ 100c7b60 f   corelib:dgThreads.obj
 0001:000c6b90       ?ClearTimers@dgThreads@@QAEXXZ 100c7b90 f   corelib:dgThreads.obj
 0001:000c6bd0       ?SetPerfomanceCounter@dgThreads@@QAEXP6AIXZ@Z 100c7bd0 f   corelib:dgThreads.obj
 0001:000c6bf0       ?GetPerfomanceTicks@dgThreads@@QBEII@Z 100c7bf0 f   corelib:dgThreads.obj
 0001:000c6c20       ?CreateThreaded@dgThreads@@QAEXH@Z 100c7c20 f   corelib:dgThreads.obj
 0001:000c6d30       ?DestroydgThreads@dgThreads@@QAEXXZ 100c7d30 f   corelib:dgThreads.obj
 0001:000c6e90       ?SubmitJob@dgThreads@@QAEHQAVdgWorkerThread@@@Z 100c7e90 f   corelib:dgThreads.obj
 0001:000c6f70       ?ThreadExecute@dgThreads@@CGIPAX@Z 100c7f70 f   corelib:dgThreads.obj
 0001:000c6fa0       ?GetWork@dgThreads@@AAEHPAPAVdgWorkerThread@@@Z 100c7fa0 f   corelib:dgThreads.obj
 0001:000c7040       ?DoWork@dgThreads@@AAEXH@Z 100c8040 f   corelib:dgThreads.obj
 0001:000c7140       ?SynchronizationBarrier@dgThreads@@QAEXXZ 100c8140 f   corelib:dgThreads.obj
 0001:000c7170       ?CalculateChunkSizes@dgThreads@@QBEXHQAH@Z 100c8170 f   corelib:dgThreads.obj
 0001:000c71f0       ?dgGetLock@dgThreads@@QBEXXZ 100c81f0 f   corelib:dgThreads.obj
 0001:000c7230       ?dgReleaseLock@dgThreads@@QBEXXZ 100c8230 f   corelib:dgThreads.obj
 0001:000c7250       ?dgGetIndirectLock@dgThreads@@QAEXPAH@Z 100c8250 f   corelib:dgThreads.obj
 0001:000c7270       ?dgReleaseIndirectLock@dgThreads@@QAEXPAH@Z 100c8270 f   corelib:dgThreads.obj
 0001:000c7290       ?dgSpinUnlock@@YAXPAH@Z    100c8290 f i corelib:dgThreads.obj
 0001:000c72a0       ??0FastRayTest@@QAE@ABVdgVector@@0@Z 100c82a0 f   corelib:dgIntersections.obj
 0001:000c7690       ?BoxTestSimd@FastRayTest@@QBEHABVdgVector@@0@Z 100c8690 f   corelib:dgIntersections.obj
 0001:000c7980       ?BoxTest@FastRayTest@@QBEHABVdgVector@@0@Z 100c8980 f   corelib:dgIntersections.obj
 0001:000c7b00       ?PolygonIntersectSimd@FastRayTest@@QBEMABVdgVector@@QBMHQBHH@Z 100c8b00 f   corelib:dgIntersections.obj
 0001:000c82b0       ?PolygonIntersect@FastRayTest@@QBEMABVdgVector@@QBMHQBHH@Z 100c92b0 f   corelib:dgIntersections.obj
 0001:000c84e0       ?dgRayBoxClip@@YA_NAAVdgVector@@0ABV1@1@Z 100c94e0 f   corelib:dgIntersections.obj
 0001:000c88a0       ?dgPointToRayDistance@@YA?AVdgVector@@ABV1@00@Z 100c98a0 f   corelib:dgIntersections.obj
 0001:000c8960       ?dgRayToRayDistance@@YAXABVdgVector@@000AAV1@1@Z 100c9960 f   corelib:dgIntersections.obj
 0001:000c8d00       ?dgPointToTriangleDistance@@YA?AVdgVector@@ABV1@000@Z 100c9d00 f   corelib:dgIntersections.obj
 0001:000c93e0       ?dgPointToTriangleDistance@@YA?AVdgBigVector@@ABV1@000@Z 100ca3e0 f   corelib:dgIntersections.obj
 0001:000c9a80       ?dgPointToPolygonDistance@@YA_NABVdgVector@@QBMHQBHHMAAV1@@Z 100caa80 f   corelib:dgIntersections.obj
 0001:000c9c50       ?LineTriangleIntersection@@YA?AVdgBigVector@@ABV1@0000@Z 100cac50 f   corelib:dgIntersections.obj
 0001:000ca2f0       ??0dgHugeVector@@QAE@ABVdgBigVector@@@Z 100cb2f0 f i corelib:dgIntersections.obj
 0001:000ca400       ??0dgHugeVector@@QAE@ABV?$dgTemplateVector@VdgGoogol@@@@@Z 100cb400 f i corelib:dgIntersections.obj
 0001:000ca430       ??1?$dgTemplateVector@VdgGoogol@@@@QAE@XZ 100cb430 f i corelib:dgIntersections.obj
 0001:000ca470       ??1dgHugeVector@@QAE@XZ    100cb470 f i corelib:dgIntersections.obj
 0001:000ca490       ??0?$dgTemplateVector@VdgGoogol@@@@QAE@XZ 100cb490 f i corelib:dgIntersections.obj
 0001:000ca4d0       ??G?$dgTemplateVector@VdgGoogol@@@@QBE?AV0@ABV0@@Z 100cb4d0 f i corelib:dgIntersections.obj
 0001:000ca5c0       ??L?$dgTemplateVector@VdgGoogol@@@@QBE?AVdgGoogol@@ABV0@@Z 100cb5c0 f i corelib:dgIntersections.obj
 0001:000ca680       ??D?$dgTemplateVector@VdgGoogol@@@@QBE?AV0@ABV0@@Z 100cb680 f i corelib:dgIntersections.obj
 0001:000ca840       ??0?$dgTemplateVector@VdgGoogol@@@@QAE@VdgGoogol@@000@Z 100cb840 f i corelib:dgIntersections.obj
 0001:000ca900       ??0dgPolyhedraMassProperties@@QAE@XZ 100cb900 f   corelib:dgPolyhedraMassProperties.obj
 0001:000ca920       ?AddCGFace@dgPolyhedraMassProperties@@QAEXHPBVdgVector@@@Z 100cb920 f   corelib:dgPolyhedraMassProperties.obj
 0001:000cab60       ?AddInertiaFace@dgPolyhedraMassProperties@@QAEXHPBM@Z 100cbb60 f   corelib:dgPolyhedraMassProperties.obj
 0001:000caee0       ?AddInertiaAndCrossFace@dgPolyhedraMassProperties@@QAEXHPBM@Z 100cbee0 f   corelib:dgPolyhedraMassProperties.obj
 0001:000cb3d0       ?MassProperties@dgPolyhedraMassProperties@@QAEMAAVdgVector@@00@Z 100cc3d0 f   corelib:dgPolyhedraMassProperties.obj
 0001:000cb4c0       ??0dgConvexHull3DFace@@QAE@XZ 100cc4c0 f   corelib:dgConvexHull3d.obj
 0001:000cb500       ?Evalue@dgConvexHull3DFace@@ABENQBVdgBigVector@@ABV2@@Z 100cc500 f   corelib:dgConvexHull3d.obj
 0001:000cb8f0       ?GetPlaneEquation@dgConvexHull3DFace@@ABE?AVdgBigPlane@@QBVdgBigVector@@@Z 100cc8f0 f   corelib:dgConvexHull3d.obj
 0001:000cb9b0       ??0dgConvexHull3d@@IAE@QAVdgMemoryAllocator@@@Z 100cc9b0 f   corelib:dgConvexHull3d.obj
 0001:000cba00       ??0dgConvexHull3d@@QAE@QAVdgMemoryAllocator@@QBMHHM@Z 100cca00 f   corelib:dgConvexHull3d.obj
 0001:000cbc40       ??1dgConvexHull3d@@UAE@XZ  100ccc40 f   corelib:dgConvexHull3d.obj
 0001:000cbc70       ?ConvexCompareVertex@dgConvexHull3d@@KAHQBVdgBigVector@@0QAX@Z 100ccc70 f   corelib:dgConvexHull3d.obj
 0001:000cbcf0       ?BuildTree@dgConvexHull3d@@IBEPAVdgAABBPointTree3d@@QAV2@QAVdgBigVector@@HHQAPADAAH@Z 100cccf0 f   corelib:dgConvexHull3d.obj
 0001:000cc5c0       ?InitVertexArray@dgConvexHull3d@@MAEHQAVdgBigVector@@0QBMHHQAXH@Z 100cd5c0 f   corelib:dgConvexHull3d.obj
 0001:000cce80       ?TetrahedrumVolume@dgConvexHull3d@@IBENABVdgBigVector@@000@Z 100cde80 f   corelib:dgConvexHull3d.obj
 0001:000ccf20       ?TessellateTriangle@dgConvexHull3d@@IBEXHABVdgVector@@00AAHQAVdgBigVector@@1@Z 100cdf20 f   corelib:dgConvexHull3d.obj
 0001:000cd450       ?SupportVertex@dgConvexHull3d@@IBEHQAPAVdgAABBPointTree3d@@QBVdgBigVector@@ABV3@@Z 100ce450 f   corelib:dgConvexHull3d.obj
 0001:000cdbc0       ?BuildNormalList@dgConvexHull3d@@IBEHQAVdgBigVector@@@Z 100cebc0 f   corelib:dgConvexHull3d.obj
 0001:000cde20       ?AddFace@dgConvexHull3d@@MAEPAVdgListNode@?$dgList@VdgConvexHull3DFace@@@@HHH@Z 100cee20 f   corelib:dgConvexHull3d.obj
 0001:000cde70       ?DeleteFace@dgConvexHull3d@@MAEXQAVdgListNode@?$dgList@VdgConvexHull3DFace@@@@@Z 100cee70 f   corelib:dgConvexHull3d.obj
 0001:000cde90       ?Sanity@dgConvexHull3d@@IBE_NXZ 100cee90 f   corelib:dgConvexHull3d.obj
 0001:000cdea0       ?CalculateConvexHull@dgConvexHull3d@@IAEXPAVdgAABBPointTree3d@@QAVdgBigVector@@1HM@Z 100ceea0 f   corelib:dgConvexHull3d.obj
 0001:000ce8f0       ??_EdgConvexHull3d@@UAEPAXI@Z 100cf8f0 f i corelib:dgConvexHull3d.obj
 0001:000ce8f0       ??_GdgConvexHull3d@@UAEPAXI@Z 100cf8f0 f i corelib:dgConvexHull3d.obj
 0001:000ce920       ??2@YAPAXIPAX@Z            100cf920 f i corelib:dgConvexHull3d.obj
 0001:000ce930       ??0dgAABBPointTree3d@@QAE@XZ 100cf930 f i corelib:dgConvexHull3d.obj
 0001:000ce970       ??0dgAABBPointTree3dClump@@QAE@XZ 100cf970 f i corelib:dgConvexHull3d.obj
 0001:000ce990       ??3?$dgList@VdgConvexHull3DFace@@@@SAXPAX@Z 100cf990 f i corelib:dgConvexHull3d.obj
 0001:000ce9b0       ?GetInfo@dgListNode@?$dgList@PAVdgListNode@?$dgList@VdgConvexHull3DFace@@@@@@QAEAAPAV1?$dgList@VdgConvexHull3DFace@@@@XZ 100cf9b0 f i corelib:dgConvexHull3d.obj
 0001:000ce9c0       ??A?$dgTemplateVector@N@@QBEABNH@Z 100cf9c0 f i corelib:dgConvexHull3d.obj
 0001:000cea30       ?CompProduct@?$dgTemplateVector@N@@QBE?AV1@ABV1@@Z 100cfa30 f i corelib:dgConvexHull3d.obj
 0001:000cea90       ??0?$dgList@VdgConvexHull3DFace@@@@QAE@QAVdgMemoryAllocator@@@Z 100cfa90 f i corelib:dgConvexHull3d.obj
 0001:000cead0       ??1?$dgList@VdgConvexHull3DFace@@@@QAE@XZ 100cfad0 f i corelib:dgConvexHull3d.obj
 0001:000ceaf0       ?GetAllocator@?$dgList@VdgConvexHull3DFace@@@@QBEPAVdgMemoryAllocator@@XZ 100cfaf0 f i corelib:dgConvexHull3d.obj
 0001:000ceb10       ?Append@?$dgList@VdgConvexHull3DFace@@@@QAEPAVdgListNode@1@XZ 100cfb10 f i corelib:dgConvexHull3d.obj
 0001:000cebd0       ?Remove@?$dgList@VdgConvexHull3DFace@@@@QAEXQAVdgListNode@1@@Z 100cfbd0 f i corelib:dgConvexHull3d.obj
 0001:000cec20       ??0?$dgArray@VdgVector@@@@QAE@HQAVdgMemoryAllocator@@@Z 100cfc20 f i corelib:dgConvexHull3d.obj
 0001:000cec60       ??1?$dgArray@VdgVector@@@@QAE@XZ 100cfc60 f i corelib:dgConvexHull3d.obj
 0001:000cec90       ??A?$dgArray@VdgVector@@@@QAEAAVdgVector@@H@Z 100cfc90 f i corelib:dgConvexHull3d.obj
 0001:000cecf0       ??0?$dgStack@VdgBigVector@@@@QAE@H@Z 100cfcf0 f i corelib:dgConvexHull3d.obj
 0001:000ced20       ??1?$dgStack@VdgBigVector@@@@QAE@XZ 100cfd20 f i corelib:dgConvexHull3d.obj
 0001:000ced40       ??A?$dgStack@VdgBigVector@@@@QAEAAVdgBigVector@@H@Z 100cfd40 f i corelib:dgConvexHull3d.obj
 0001:000cedc0       ??0?$dgStack@VdgAABBPointTree3dClump@@@@QAE@H@Z 100cfdc0 f i corelib:dgConvexHull3d.obj
 0001:000cedf0       ??1?$dgStack@VdgAABBPointTree3dClump@@@@QAE@XZ 100cfdf0 f i corelib:dgConvexHull3d.obj
 0001:000cee10       ?GetSizeInBytes@?$dgStack@VdgAABBPointTree3dClump@@@@QBEHXZ 100cfe10 f i corelib:dgConvexHull3d.obj
 0001:000cee30       ??A?$dgStack@VdgAABBPointTree3dClump@@@@QAEAAVdgAABBPointTree3dClump@@H@Z 100cfe30 f i corelib:dgConvexHull3d.obj
 0001:000ceeb0       ??$GetMax@N@@YANNN@Z       100cfeb0 f i corelib:dgConvexHull3d.obj
 0001:000ceed0       ??$dgSort@VdgBigVector@@@@YAXQAVdgBigVector@@HP6AHQBV0@1QAX@Z2@Z 100cfed0 f i corelib:dgConvexHull3d.obj
 0001:000cf2a0       ??0?$dgList@PAVdgListNode@?$dgList@VdgConvexHull3DFace@@@@@@QAE@QAVdgMemoryAllocator@@@Z 100d02a0 f i corelib:dgConvexHull3d.obj
 0001:000cf2e0       ??1?$dgList@PAVdgListNode@?$dgList@VdgConvexHull3DFace@@@@@@QAE@XZ 100d02e0 f i corelib:dgConvexHull3d.obj
 0001:000cf300       ?GetCount@?$dgList@PAVdgListNode@?$dgList@VdgConvexHull3DFace@@@@@@QBEHXZ 100d0300 f i corelib:dgConvexHull3d.obj
 0001:000cf310       ?GetFirst@?$dgList@PAVdgListNode@?$dgList@VdgConvexHull3DFace@@@@@@QBEPAVdgListNode@1@XZ 100d0310 f i corelib:dgConvexHull3d.obj
 0001:000cf330       ?Append@?$dgList@PAVdgListNode@?$dgList@VdgConvexHull3DFace@@@@@@QAEPAVdgListNode@1@ABQAV2?$dgList@VdgConvexHull3DFace@@@@@Z 100d0330 f i corelib:dgConvexHull3d.obj
 0001:000cf3f0       ?Addtop@?$dgList@PAVdgListNode@?$dgList@VdgConvexHull3DFace@@@@@@QAEPAVdgListNode@1@ABQAV2?$dgList@VdgConvexHull3DFace@@@@@Z 100d03f0 f i corelib:dgConvexHull3d.obj
 0001:000cf4b0       ?Remove@?$dgList@PAVdgListNode@?$dgList@VdgConvexHull3DFace@@@@@@QAEXABQAVdgListNode@?$dgList@VdgConvexHull3DFace@@@@@Z 100d04b0 f i corelib:dgConvexHull3d.obj
 0001:000cf4e0       ??0?$dgStack@PAVdgListNode@?$dgList@VdgConvexHull3DFace@@@@@@QAE@H@Z 100d04e0 f i corelib:dgConvexHull3d.obj
 0001:000cf510       ??1?$dgStack@PAVdgListNode@?$dgList@VdgConvexHull3DFace@@@@@@QAE@XZ 100d0510 f i corelib:dgConvexHull3d.obj
 0001:000cf530       ?GetElementsCount@?$dgStack@PAVdgListNode@?$dgList@VdgConvexHull3DFace@@@@@@QBEHXZ 100d0530 f i corelib:dgConvexHull3d.obj
 0001:000cf550       ??A?$dgStack@PAVdgListNode@?$dgList@VdgConvexHull3DFace@@@@@@QAEAAPAVdgListNode@?$dgList@VdgConvexHull3DFace@@@@H@Z 100d0550 f i corelib:dgConvexHull3d.obj
 0001:000cf5d0       ??_GdgListNode@?$dgList@VdgConvexHull3DFace@@@@AAEPAXI@Z 100d05d0 f i corelib:dgConvexHull3d.obj
 0001:000cf600       ??2dgListNode@?$dgList@VdgConvexHull3DFace@@@@CAPAXIQAVdgMemoryAllocator@@@Z 100d0600 f i corelib:dgConvexHull3d.obj
 0001:000cf620       ??3dgListNode@?$dgList@VdgConvexHull3DFace@@@@CAXPAX@Z 100d0620 f i corelib:dgConvexHull3d.obj
 0001:000cf640       ??0dgListNode@?$dgList@VdgConvexHull3DFace@@@@AAE@QAV01@0@Z 100d0640 f i corelib:dgConvexHull3d.obj
 0001:000cf6d0       ??1dgListNode@?$dgList@VdgConvexHull3DFace@@@@AAE@XZ 100d06d0 f i corelib:dgConvexHull3d.obj
 0001:000cf6e0       ??2dgListNode@?$dgList@PAVdgListNode@?$dgList@VdgConvexHull3DFace@@@@@@CAPAXIQAVdgMemoryAllocator@@@Z 100d06e0 f i corelib:dgConvexHull3d.obj
 0001:000cf700       ??0dgListNode@?$dgList@PAVdgListNode@?$dgList@VdgConvexHull3DFace@@@@@@AAE@ABQAV0?$dgList@VdgConvexHull3DFace@@@@QAV01@1@Z 100d0700 f i corelib:dgConvexHull3d.obj
 0001:000cf790       ?RemoveAll@?$dgList@VdgConvexHull3DFace@@@@QAEXXZ 100d0790 f i corelib:dgConvexHull3d.obj
 0001:000cf850       ?Unlink@?$dgList@VdgConvexHull3DFace@@@@QAEXQAVdgListNode@1@@Z 100d0850 f i corelib:dgConvexHull3d.obj
 0001:000cf900       ?Find@?$dgList@PAVdgListNode@?$dgList@VdgConvexHull3DFace@@@@@@QBEPAVdgListNode@1@ABQAV2?$dgList@VdgConvexHull3DFace@@@@@Z 100d0900 f i corelib:dgConvexHull3d.obj
 0001:000cf940       ?Remove@?$dgList@PAVdgListNode@?$dgList@VdgConvexHull3DFace@@@@@@QAEXQAVdgListNode@1@@Z 100d0940 f i corelib:dgConvexHull3d.obj
 0001:000cf990       ?RemoveAll@?$dgList@PAVdgListNode@?$dgList@VdgConvexHull3DFace@@@@@@QAEXXZ 100d0990 f i corelib:dgConvexHull3d.obj
 0001:000cfa50       ??_GdgListNode@?$dgList@PAVdgListNode@?$dgList@VdgConvexHull3DFace@@@@@@AAEPAXI@Z 100d0a50 f i corelib:dgConvexHull3d.obj
 0001:000cfa80       ?Unlink@dgListNode@?$dgList@VdgConvexHull3DFace@@@@AAEXXZ 100d0a80 f i corelib:dgConvexHull3d.obj
 0001:000cfad0       ?GetPrev@dgListNode@?$dgList@VdgConvexHull3DFace@@@@QBEPAV12@XZ 100d0ad0 f i corelib:dgConvexHull3d.obj
 0001:000cfaf0       ??3dgListNode@?$dgList@PAVdgListNode@?$dgList@VdgConvexHull3DFace@@@@@@CAXPAX@Z 100d0af0 f i corelib:dgConvexHull3d.obj
 0001:000cfb10       ??1dgListNode@?$dgList@PAVdgListNode@?$dgList@VdgConvexHull3DFace@@@@@@AAE@XZ 100d0b10 f i corelib:dgConvexHull3d.obj
 0001:000cfb20       ?Unlink@dgListNode@?$dgList@PAVdgListNode@?$dgList@VdgConvexHull3DFace@@@@@@AAEXXZ 100d0b20 f i corelib:dgConvexHull3d.obj
 0001:000cfb70       ?GetNext@dgListNode@?$dgList@PAVdgListNode@?$dgList@VdgConvexHull3DFace@@@@@@QBEPAV12@XZ 100d0b70 f i corelib:dgConvexHull3d.obj
 0001:000cfb90       ?Unlink@?$dgList@PAVdgListNode@?$dgList@VdgConvexHull3DFace@@@@@@QAEXQAVdgListNode@1@@Z 100d0b90 f i corelib:dgConvexHull3d.obj
 0001:000cfc40       ?GetPrev@dgListNode@?$dgList@PAVdgListNode@?$dgList@VdgConvexHull3DFace@@@@@@QBEPAV12@XZ 100d0c40 f i corelib:dgConvexHull3d.obj
 0001:000cfc60       ??0dgDelaunayTetrahedralization@@QAE@QAVdgMemoryAllocator@@QBMHHM@Z 100d0c60 f   corelib:dgDelaunayTetrahedralization.obj
 0001:000cff30       ??1dgDelaunayTetrahedralization@@UAE@XZ 100d0f30 f   corelib:dgDelaunayTetrahedralization.obj
 0001:000cff50       ?AddVertex@dgDelaunayTetrahedralization@@UAEHABVdgBigVector@@@Z 100d0f50 f   corelib:dgDelaunayTetrahedralization.obj
 0001:000cffe0       ?CompareVertexByIndex@dgDelaunayTetrahedralization@@KAHQBVdgHullVector@@0QAX@Z 100d0fe0 f   corelib:dgDelaunayTetrahedralization.obj
 0001:000d0020       ?SortVertexArray@dgDelaunayTetrahedralization@@IAEXXZ 100d1020 f   corelib:dgDelaunayTetrahedralization.obj
 0001:000d0110       ?RemoveUpperHull@dgDelaunayTetrahedralization@@QAEXXZ 100d1110 f   corelib:dgDelaunayTetrahedralization.obj
 0001:000d01c0       ?GetTetraVolume@dgDelaunayTetrahedralization@@IBENQBVdgConvexHull4dTetraherum@@@Z 100d11c0 f   corelib:dgDelaunayTetrahedralization.obj
 0001:000d05e0       ??_GdgDelaunayTetrahedralization@@UAEPAXI@Z 100d15e0 f i corelib:dgDelaunayTetrahedralization.obj
 0001:000d05e0       ??_EdgDelaunayTetrahedralization@@UAEPAXI@Z 100d15e0 f i corelib:dgDelaunayTetrahedralization.obj
 0001:000d0610       ??A?$dgArray@VdgHullVector@@@@QAEAAVdgHullVector@@H@Z 100d1610 f i corelib:dgDelaunayTetrahedralization.obj
 0001:000d0670       ??$dgSort@VdgHullVector@@@@YAXQAVdgHullVector@@HP6AHQBV0@1QAX@Z2@Z 100d1670 f i corelib:dgDelaunayTetrahedralization.obj
 0001:000d0a40       ??0dgTetrahedrumPlane@dgConvexHull4dTetraherum@@QAE@ABVdgBigVector@@000@Z 100d1a40 f   corelib:dgConvexHull4d.obj
 0001:000d0b60       ?Evalue@dgTetrahedrumPlane@dgConvexHull4dTetraherum@@QBENABVdgBigVector@@@Z 100d1b60 f   corelib:dgConvexHull4d.obj
 0001:000d0b90       ??0dgConvexHull4dTetraherum@@QAE@XZ 100d1b90 f   corelib:dgConvexHull4d.obj
 0001:000d0bc0       ?Init@dgConvexHull4dTetraherum@@AAEXQBVdgHullVector@@HHHH@Z 100d1bc0 f   corelib:dgConvexHull4d.obj
 0001:000d0d90       ?Evalue@dgConvexHull4dTetraherum@@QBENQBVdgHullVector@@ABVdgBigVector@@@Z 100d1d90 f   corelib:dgConvexHull4d.obj
 0001:000d1260       ?GetPlaneEquation@dgConvexHull4dTetraherum@@QBE?AVdgTetrahedrumPlane@1@QBVdgHullVector@@@Z 100d2260 f   corelib:dgConvexHull4d.obj
 0001:000d12d0       ??0dgConvexHull4d@@IAE@QAVdgMemoryAllocator@@@Z 100d22d0 f   corelib:dgConvexHull4d.obj
 0001:000d1330       ??0dgConvexHull4d@@QAE@QAVdgMemoryAllocator@@QBVdgBigVector@@HM@Z 100d2330 f   corelib:dgConvexHull4d.obj
 0001:000d13b0       ??1dgConvexHull4d@@UAE@XZ  100d23b0 f   corelib:dgConvexHull4d.obj
 0001:000d13e0       ?BuildHull@dgConvexHull4d@@IAEXQAVdgMemoryAllocator@@QBVdgBigVector@@HM@Z 100d23e0 f   corelib:dgConvexHull4d.obj
 0001:000d14e0       ?TessellateTriangle@dgConvexHull4d@@IBEXHABVdgVector@@00AAHQAVdgBigVector@@1@Z 100d24e0 f   corelib:dgConvexHull4d.obj
 0001:000d1a10       ?BuildNormalList@dgConvexHull4d@@IBEHQAVdgBigVector@@@Z 100d2a10 f   corelib:dgConvexHull4d.obj
 0001:000d1c70       ?SupportVertex@dgConvexHull4d@@IBEHQAPAVdgAABBPointTree4d@@QBVdgHullVector@@ABVdgBigVector@@@Z 100d2c70 f   corelib:dgConvexHull4d.obj
 0001:000d24a0       ?ConvexCompareVertex@dgConvexHull4d@@KAHQBVdgHullVector@@0QAX@Z 100d34a0 f   corelib:dgConvexHull4d.obj
 0001:000d2520       ?BuildTree@dgConvexHull4d@@IBEPAVdgAABBPointTree4d@@QAV2@QAVdgHullVector@@HHQAPADAAH@Z 100d3520 f   corelib:dgConvexHull4d.obj
 0001:000d2ed0       ?InitVertexArray@dgConvexHull4d@@MAEHQAVdgHullVector@@QBVdgBigVector@@HQAXH@Z 100d3ed0 f   corelib:dgConvexHull4d.obj
 0001:000d36a0       ?AddFace@dgConvexHull4d@@MAEPAVdgListNode@?$dgList@VdgConvexHull4dTetraherum@@@@HHHH@Z 100d46a0 f   corelib:dgConvexHull4d.obj
 0001:000d3700       ?DeleteFace@dgConvexHull4d@@MAEXQAVdgListNode@?$dgList@VdgConvexHull4dTetraherum@@@@@Z 100d4700 f   corelib:dgConvexHull4d.obj
 0001:000d3720       ?Sanity@dgConvexHull4d@@IBE_NXZ 100d4720 f   corelib:dgConvexHull4d.obj
 0001:000d37a0       ?LinkSibling@dgConvexHull4d@@IBEXPAVdgListNode@?$dgList@VdgConvexHull4dTetraherum@@@@0@Z 100d47a0 f   corelib:dgConvexHull4d.obj
 0001:000d38d0       ?InsertNewVertex@dgConvexHull4d@@IAEXHQAVdgListNode@?$dgList@VdgConvexHull4dTetraherum@@@@AAV?$dgList@PAVdgListNode@?$dgList@VdgConvexHull4dTetraherum@@@@@@1@Z 100d48d0 f   corelib:dgConvexHull4d.obj
 0001:000d3dc0       ?CalculateConvexHull@dgConvexHull4d@@IAEXPAVdgAABBPointTree4d@@QAVdgHullVector@@HM@Z 100d4dc0 f   corelib:dgConvexHull4d.obj
 0001:000d4070       ?FindFacingNode@dgConvexHull4d@@IAEPAVdgListNode@?$dgList@VdgConvexHull4dTetraherum@@@@ABVdgBigVector@@@Z 100d5070 f   corelib:dgConvexHull4d.obj
 0001:000d4390       ?AddVertex@dgConvexHull4d@@MAEHABVdgBigVector@@@Z 100d5390 f   corelib:dgConvexHull4d.obj
 0001:000d44d0       ??_GdgConvexHull4d@@UAEPAXI@Z 100d54d0 f i corelib:dgConvexHull4d.obj
 0001:000d44d0       ??_EdgConvexHull4d@@UAEPAXI@Z 100d54d0 f i corelib:dgConvexHull4d.obj
 0001:000d4500       ??0dgAABBPointTree4d@@QAE@XZ 100d5500 f i corelib:dgConvexHull4d.obj
 0001:000d4540       ??0dgAABBPointTree4dClump@@QAE@XZ 100d5540 f i corelib:dgConvexHull4d.obj
 0001:000d4560       ??4dgHullVector@@QAEXABVdgBigVector@@@Z 100d5560 f i corelib:dgConvexHull4d.obj
 0001:000d45b0       ??1?$dgDownHeap@PAVdgListNode@?$dgList@VdgConvexHull4dTetraherum@@@@N@@QAE@XZ 100d55b0 f i corelib:dgConvexHull4d.obj
 0001:000d45d0       ??0Iterator@?$dgTree@PAVdgListNode@?$dgList@VdgConvexHull4dTetraherum@@@@PAV12@@@QAE@ABV1@@Z 100d55d0 f i corelib:dgConvexHull4d.obj
 0001:000d4600       ??1Iterator@?$dgTree@PAVdgListNode@?$dgList@VdgConvexHull4dTetraherum@@@@PAV12@@@QAE@XZ 100d5600 f i corelib:dgConvexHull4d.obj
 0001:000d4610       ?Begin@Iterator@?$dgTree@PAVdgListNode@?$dgList@VdgConvexHull4dTetraherum@@@@PAV12@@@QAEXXZ 100d5610 f i corelib:dgConvexHull4d.obj
 0001:000d4630       ??BIterator@?$dgTree@PAVdgListNode@?$dgList@VdgConvexHull4dTetraherum@@@@PAV12@@@QBEHXZ 100d5630 f i corelib:dgConvexHull4d.obj
 0001:000d4650       ??EIterator@?$dgTree@PAVdgListNode@?$dgList@VdgConvexHull4dTetraherum@@@@PAV12@@@QAEXH@Z 100d5650 f i corelib:dgConvexHull4d.obj
 0001:000d46a0       ?GetNode@Iterator@?$dgTree@PAVdgListNode@?$dgList@VdgConvexHull4dTetraherum@@@@PAV12@@@QBEPAVdgTreeNode@2@XZ 100d56a0 f i corelib:dgConvexHull4d.obj
 0001:000d46b0       ?GetInfo@dgTreeNode@?$dgTree@PAVdgListNode@?$dgList@VdgConvexHull4dTetraherum@@@@PAV12@@@QAEAAPAVdgListNode@?$dgList@VdgConvexHull4dTetraherum@@@@XZ 100d56b0 f i corelib:dgConvexHull4d.obj
 0001:000d46d0       ?Sub4@?$dgTemplateVector@N@@QBE?AV1@ABV1@@Z 100d56d0 f i corelib:dgConvexHull4d.obj
 0001:000d4730       ?DotProduct4@?$dgTemplateVector@N@@QBENABV1@@Z 100d5730 f i corelib:dgConvexHull4d.obj
 0001:000d4780       ?CrossProduct4@?$dgTemplateVector@N@@QBE?AV1@ABV1@0@Z 100d5780 f i corelib:dgConvexHull4d.obj
 0001:000d49c0       ?CompProduct4@?$dgTemplateVector@N@@QBE?AV1@ABV1@@Z 100d59c0 f i corelib:dgConvexHull4d.obj
 0001:000d4a20       ??0?$dgList@VdgConvexHull4dTetraherum@@@@QAE@QAVdgMemoryAllocator@@@Z 100d5a20 f i corelib:dgConvexHull4d.obj
 0001:000d4a60       ??1?$dgList@VdgConvexHull4dTetraherum@@@@QAE@XZ 100d5a60 f i corelib:dgConvexHull4d.obj
 0001:000d4a80       ?Append@?$dgList@VdgConvexHull4dTetraherum@@@@QAEPAVdgListNode@1@XZ 100d5a80 f i corelib:dgConvexHull4d.obj
 0001:000d4b40       ?Remove@?$dgList@VdgConvexHull4dTetraherum@@@@QAEXQAVdgListNode@1@@Z 100d5b40 f i corelib:dgConvexHull4d.obj
 0001:000d4b90       ??0?$dgArray@VdgHullVector@@@@QAE@HQAVdgMemoryAllocator@@@Z 100d5b90 f i corelib:dgConvexHull4d.obj
 0001:000d4bd0       ??1?$dgArray@VdgHullVector@@@@QAE@XZ 100d5bd0 f i corelib:dgConvexHull4d.obj
 0001:000d4c00       ??0?$dgStack@VdgHullVector@@@@QAE@H@Z 100d5c00 f i corelib:dgConvexHull4d.obj
 0001:000d4c30       ??1?$dgStack@VdgHullVector@@@@QAE@XZ 100d5c30 f i corelib:dgConvexHull4d.obj
 0001:000d4c50       ??A?$dgStack@VdgHullVector@@@@QAEAAVdgHullVector@@H@Z 100d5c50 f i corelib:dgConvexHull4d.obj
 0001:000d4cd0       ??0?$dgStack@VdgAABBPointTree4dClump@@@@QAE@H@Z 100d5cd0 f i corelib:dgConvexHull4d.obj
 0001:000d4d00       ??1?$dgStack@VdgAABBPointTree4dClump@@@@QAE@XZ 100d5d00 f i corelib:dgConvexHull4d.obj
 0001:000d4d20       ?GetSizeInBytes@?$dgStack@VdgAABBPointTree4dClump@@@@QBEHXZ 100d5d20 f i corelib:dgConvexHull4d.obj
 0001:000d4d40       ??A?$dgStack@VdgAABBPointTree4dClump@@@@QAEAAVdgAABBPointTree4dClump@@H@Z 100d5d40 f i corelib:dgConvexHull4d.obj
 0001:000d4dc0       ??$Swap@VdgHullVector@@@@YAXAAVdgHullVector@@0@Z 100d5dc0 f i corelib:dgConvexHull4d.obj
 0001:000d4e10       ?GetLast@?$dgList@PAVdgListNode@?$dgList@VdgConvexHull4dTetraherum@@@@@@QBEPAVdgListNode@1@XZ 100d5e10 f i corelib:dgConvexHull4d.obj
 0001:000d4e30       ?Addtop@?$dgList@PAVdgListNode@?$dgList@VdgConvexHull4dTetraherum@@@@@@QAEPAVdgListNode@1@ABQAV2?$dgList@VdgConvexHull4dTetraherum@@@@@Z 100d5e30 f i corelib:dgConvexHull4d.obj
 0001:000d4ef0       ?Remove@?$dgList@PAVdgListNode@?$dgList@VdgConvexHull4dTetraherum@@@@@@QAEXABQAVdgListNode@?$dgList@VdgConvexHull4dTetraherum@@@@@Z 100d5ef0 f i corelib:dgConvexHull4d.obj
 0001:000d4f20       ??0?$dgTree@PAVdgListNode@?$dgList@VdgConvexHull4dTetraherum@@@@PAV12@@@QAE@QAVdgMemoryAllocator@@@Z 100d5f20 f i corelib:dgConvexHull4d.obj
 0001:000d4f50       ??1?$dgTree@PAVdgListNode@?$dgList@VdgConvexHull4dTetraherum@@@@PAV12@@@QAE@XZ 100d5f50 f i corelib:dgConvexHull4d.obj
 0001:000d4f70       ?Minimum@?$dgTree@PAVdgListNode@?$dgList@VdgConvexHull4dTetraherum@@@@PAV12@@@QBEPAVdgTreeNode@1@XZ 100d5f70 f i corelib:dgConvexHull4d.obj
 0001:000d4fa0       ?Find@?$dgTree@PAVdgListNode@?$dgList@VdgConvexHull4dTetraherum@@@@PAV12@@@QBEPAVdgTreeNode@1@PAVdgListNode@?$dgList@VdgConvexHull4dTetraherum@@@@@Z 100d5fa0 f i corelib:dgConvexHull4d.obj
 0001:000d50c0       ?Insert@?$dgTree@PAVdgListNode@?$dgList@VdgConvexHull4dTetraherum@@@@PAV12@@@QAEPAVdgTreeNode@1@ABQAVdgListNode@?$dgList@VdgConvexHull4dTetraherum@@@@PAV34@@Z 100d60c0 f i corelib:dgConvexHull4d.obj
 0001:000d5100       ??1?$dgHeapBase@PAVdgListNode@?$dgList@VdgConvexHull4dTetraherum@@@@N@@IAE@XZ 100d6100 f i corelib:dgConvexHull4d.obj
 0001:000d5130       ?Value@?$dgHeapBase@PAVdgListNode@?$dgList@VdgConvexHull4dTetraherum@@@@N@@QBENH@Z 100d6130 f i corelib:dgConvexHull4d.obj
 0001:000d5150       ?GetCount@?$dgHeapBase@PAVdgListNode@?$dgList@VdgConvexHull4dTetraherum@@@@N@@QBEHXZ 100d6150 f i corelib:dgConvexHull4d.obj
 0001:000d5160       ?GetMaxCount@?$dgHeapBase@PAVdgListNode@?$dgList@VdgConvexHull4dTetraherum@@@@N@@QBEHXZ 100d6160 f i corelib:dgConvexHull4d.obj
 0001:000d5180       ??A?$dgHeapBase@PAVdgListNode@?$dgList@VdgConvexHull4dTetraherum@@@@N@@QBEABQAVdgListNode@?$dgList@VdgConvexHull4dTetraherum@@@@H@Z 100d6180 f i corelib:dgConvexHull4d.obj
 0001:000d51d0       ??0?$dgDownHeap@PAVdgListNode@?$dgList@VdgConvexHull4dTetraherum@@@@N@@QAE@QBXH@Z 100d61d0 f i corelib:dgConvexHull4d.obj
 0001:000d51f0       ?Pop@?$dgDownHeap@PAVdgListNode@?$dgList@VdgConvexHull4dTetraherum@@@@N@@QAEXXZ 100d61f0 f i corelib:dgConvexHull4d.obj
 0001:000d5320       ?Push@?$dgDownHeap@PAVdgListNode@?$dgList@VdgConvexHull4dTetraherum@@@@N@@QAEXAAPAVdgListNode@?$dgList@VdgConvexHull4dTetraherum@@@@N@Z 100d6320 f i corelib:dgConvexHull4d.obj
 0001:000d5440       ?Remove@?$dgDownHeap@PAVdgListNode@?$dgList@VdgConvexHull4dTetraherum@@@@N@@QAEXH@Z 100d6440 f i corelib:dgConvexHull4d.obj
 0001:000d5570       ??_GdgListNode@?$dgList@VdgConvexHull4dTetraherum@@@@AAEPAXI@Z 100d6570 f i corelib:dgConvexHull4d.obj
 0001:000d55a0       ??2dgListNode@?$dgList@VdgConvexHull4dTetraherum@@@@CAPAXIQAVdgMemoryAllocator@@@Z 100d65a0 f i corelib:dgConvexHull4d.obj
 0001:000d55c0       ??3dgListNode@?$dgList@VdgConvexHull4dTetraherum@@@@CAXPAX@Z 100d65c0 f i corelib:dgConvexHull4d.obj
 0001:000d55e0       ??0dgListNode@?$dgList@VdgConvexHull4dTetraherum@@@@AAE@QAV01@0@Z 100d65e0 f i corelib:dgConvexHull4d.obj
 0001:000d5670       ??1dgListNode@?$dgList@VdgConvexHull4dTetraherum@@@@AAE@XZ 100d6670 f i corelib:dgConvexHull4d.obj
 0001:000d5680       ?GetLeft@dgTreeNode@?$dgTree@PAVdgListNode@?$dgList@VdgConvexHull4dTetraherum@@@@PAV12@@@ABEPAV12@XZ 100d6680 f i corelib:dgConvexHull4d.obj
 0001:000d5690       ?GetRight@dgTreeNode@?$dgTree@PAVdgListNode@?$dgList@VdgConvexHull4dTetraherum@@@@PAV12@@@ABEPAV12@XZ 100d6690 f i corelib:dgConvexHull4d.obj
 0001:000d56b0       ?RemoveAll@?$dgList@VdgConvexHull4dTetraherum@@@@QAEXXZ 100d66b0 f i corelib:dgConvexHull4d.obj
 0001:000d5770       ?Unlink@?$dgList@VdgConvexHull4dTetraherum@@@@QAEXQAVdgListNode@1@@Z 100d6770 f i corelib:dgConvexHull4d.obj
 0001:000d5820       ?Find@?$dgList@PAVdgListNode@?$dgList@VdgConvexHull4dTetraherum@@@@@@QBEPAVdgListNode@1@ABQAV2?$dgList@VdgConvexHull4dTetraherum@@@@@Z 100d6820 f i corelib:dgConvexHull4d.obj
 0001:000d5860       ?Insert@?$dgTree@PAVdgListNode@?$dgList@VdgConvexHull4dTetraherum@@@@PAV12@@@QAEPAVdgTreeNode@1@ABQAVdgListNode@?$dgList@VdgConvexHull4dTetraherum@@@@PAV34@AA_N@Z 100d6860 f i corelib:dgConvexHull4d.obj
 0001:000d5a60       ?RemoveAll@?$dgTree@PAVdgListNode@?$dgList@VdgConvexHull4dTetraherum@@@@PAV12@@@QAEXXZ 100d6a60 f i corelib:dgConvexHull4d.obj
 0001:000d5aa0       ?CompareKeys@?$dgTree@PAVdgListNode@?$dgList@VdgConvexHull4dTetraherum@@@@PAV12@@@ABEHABQAVdgListNode@?$dgList@VdgConvexHull4dTetraherum@@@@0@Z 100d6aa0 f i corelib:dgConvexHull4d.obj
 0001:000d5ae0       ??0?$dgHeapBase@PAVdgListNode@?$dgList@VdgConvexHull4dTetraherum@@@@N@@IAE@QBXH@Z 100d6ae0 f i corelib:dgConvexHull4d.obj
 0001:000d5b20       ?Unlink@dgListNode@?$dgList@VdgConvexHull4dTetraherum@@@@AAEXXZ 100d6b20 f i corelib:dgConvexHull4d.obj
 0001:000d5b70       ?GetPrev@dgListNode@?$dgList@VdgConvexHull4dTetraherum@@@@QBEPAV12@XZ 100d6b70 f i corelib:dgConvexHull4d.obj
 0001:000d5b90       ??0dgTreeNode@?$dgTree@PAVdgListNode@?$dgList@VdgConvexHull4dTetraherum@@@@PAV12@@@AAE@ABQAVdgListNode@?$dgList@VdgConvexHull4dTetraherum@@@@0PAV01@@Z 100d6b90 f i corelib:dgConvexHull4d.obj
 0001:000d5c00       ?Flush@?$dgHeapBase@PAVdgListNode@?$dgList@VdgConvexHull4dTetraherum@@@@N@@QAEXXZ 100d6c00 f i corelib:dgConvexHull4d.obj
 0001:000d64a0       ??0dgAABBPolygonSoup@@IAE@XZ 100d74a0 f   corelib:dgAABBPolygonSoup.obj
 0001:000d64f0       ??1dgAABBPolygonSoup@@MAE@XZ 100d74f0 f   corelib:dgAABBPolygonSoup.obj
 0001:000d6540       ?GetRootNode@dgAABBPolygonSoup@@IBEPAXXZ 100d7540 f   corelib:dgAABBPolygonSoup.obj
 0001:000d6560       ?GetBackNode@dgAABBPolygonSoup@@IBEPAXQBX@Z 100d7560 f   corelib:dgAABBPolygonSoup.obj
 0001:000d65b0       ?GetFrontNode@dgAABBPolygonSoup@@IBEPAXQBX@Z 100d75b0 f   corelib:dgAABBPolygonSoup.obj
 0001:000d6600       ?GetNodeAABB@dgAABBPolygonSoup@@IBEXQBXAAVdgVector@@1@Z 100d7600 f   corelib:dgAABBPolygonSoup.obj
 0001:000d6700       ?ForAllSectorsSimd@dgAABBPolygonSoup@@MBEXABVdgVector@@0P6A?AW4dgIntersectStatus@@PAXQBMHQBHH@ZQAX@Z 100d7700 f   corelib:dgAABBPolygonSoup.obj
 0001:000d6750       ?ForAllSectors@dgAABBPolygonSoup@@MBEXABVdgVector@@0P6A?AW4dgIntersectStatus@@PAXQBMHQBHH@ZQAX@Z 100d7750 f   corelib:dgAABBPolygonSoup.obj
 0001:000d67a0       ?ForAllSectorsSupportVectex@dgAABBPolygonSoup@@MBE?AVdgVector@@ABV2@@Z 100d77a0 f   corelib:dgAABBPolygonSoup.obj
 0001:000d6810       ?GetAABB@dgAABBPolygonSoup@@UBEXAAVdgVector@@0@Z 100d7810 f   corelib:dgAABBPolygonSoup.obj
 0001:000d6930       ?ForAllSectorsRayHit@dgAABBPolygonSoup@@MBEXABVFastRayTest@@P6AMPAXQBMHQBHH@ZQAX@Z 100d7930 f   corelib:dgAABBPolygonSoup.obj
 0001:000d6980       ?ForAllSectorsRayHitSimd@dgAABBPolygonSoup@@MBEXABVFastRayTest@@P6AMPAXQBMHQBHH@ZQAX@Z 100d7980 f   corelib:dgAABBPolygonSoup.obj
 0001:000d69d0       ?Serialize@dgAABBPolygonSoup@@UBEXP6AXPAXPBXI@ZQAX@Z 100d79d0 f   corelib:dgAABBPolygonSoup.obj
 0001:000d6a90       ?Deserialize@dgAABBPolygonSoup@@UAEXP6AXPAX0I@ZQAX@Z 100d7a90 f   corelib:dgAABBPolygonSoup.obj
 0001:000d6bc0       ?CalculateThisFaceEdgeNormals@dgAABBPolygonSoup@@CA?AW4dgIntersectStatus@@PAXQBMHQBHH@Z 100d7bc0 f   corelib:dgAABBPolygonSoup.obj
 0001:000d6d80       ?CalculateAllFaceEdgeNormals@dgAABBPolygonSoup@@CA?AW4dgIntersectStatus@@PAXQBMHQBHH@Z 100d7d80 f   corelib:dgAABBPolygonSoup.obj
 0001:000d6fe0       ?CalculateFaceMaxSize@dgAABBPolygonSoup@@IBEMQAVdgTriplex@@HQBH@Z 100d7fe0 f   corelib:dgAABBPolygonSoup.obj
 0001:000d7290       ?Create@dgAABBPolygonSoup@@IAEXABVdgPolygonSoupDatabaseBuilder@@_N@Z 100d8290 f   corelib:dgAABBPolygonSoup.obj
 0001:000d7850       ??0dgPolygonSoupDatabase@@IAE@PBD@Z 100d8850 f i corelib:dgAABBPolygonSoup.obj
 0001:000d7890       ??_EdgPolygonSoupDatabase@@MAEPAXI@Z 100d8890 f i corelib:dgAABBPolygonSoup.obj
 0001:000d7890       ??_GdgPolygonSoupDatabase@@MAEPAXI@Z 100d8890 f i corelib:dgAABBPolygonSoup.obj
 0001:000d78c0       ??1dgPolygonSoupDatabase@@MAE@XZ 100d88c0 f i corelib:dgAABBPolygonSoup.obj
 0001:000d78f0       ?ForAllSectorsSimd@dgPolygonSoupDatabase@@MBEXABVdgVector@@0P6A?AW4dgIntersectStatus@@PAXQBMHQBHH@ZQAX@Z 100d88f0 f i corelib:dgAABBPolygonSoup.obj
 0001:000d7920       ?ForAllSectors@dgPolygonSoupDatabase@@MBEXABVdgVector@@0P6A?AW4dgIntersectStatus@@PAXQBMHQBHH@ZQAX@Z 100d8920 f i corelib:dgAABBPolygonSoup.obj
 0001:000d7950       ?GetAABB@dgPolygonSoupDatabase@@UBEXAAVdgVector@@0@Z 100d8950 f i corelib:dgAABBPolygonSoup.obj
 0001:000d7960       ?ForAllSectorsRayHit@dgPolygonSoupDatabase@@MBEXABVFastRayTest@@P6AMPAXQBMHQBHH@ZQAX@Z 100d8960 f i corelib:dgAABBPolygonSoup.obj
 0001:000d7990       ?ForAllSectorsRayHitSimd@dgPolygonSoupDatabase@@MBEXABVFastRayTest@@P6AMPAXQBMHQBHH@ZQAX@Z 100d8990 f i corelib:dgAABBPolygonSoup.obj
 0001:000d79d0       ??_GdgAABBPolygonSoup@@MAEPAXI@Z 100d89d0 f i corelib:dgAABBPolygonSoup.obj
 0001:000d79d0       ??_EdgAABBPolygonSoup@@MAEPAXI@Z 100d89d0 f i corelib:dgAABBPolygonSoup.obj
 0001:000d7a00       ?IsLeaf@TreeNode@dgAABBTree@@QBEIXZ 100d8a00 f i corelib:dgAABBPolygonSoup.obj
 0001:000d7a20       ?GetNode@TreeNode@dgAABBTree@@QBEPAV2@PBX@Z 100d8a20 f i corelib:dgAABBPolygonSoup.obj
 0001:000d7a40       ?ForAllSectorsSimd@dgAABBTree@@QBEXQBHQBMABVdgVector@@2P6A?AW4dgIntersectStatus@@PAX1H0H@ZQAX@Z 100d8a40 f i corelib:dgAABBPolygonSoup.obj
 0001:000d7c70       ?GetCount@TreeNode@dgAABBTree@@QBEIXZ 100d8c70 f i corelib:dgAABBPolygonSoup.obj
 0001:000d7cc0       ?GetIndex@TreeNode@dgAABBTree@@QBEIXZ 100d8cc0 f i corelib:dgAABBPolygonSoup.obj
 0001:000d7d00       ?BoxIntersectSimd@dgAABBTree@@QBEHQBVdgTriplex@@ABVdgVector@@1@Z 100d8d00 f i corelib:dgAABBPolygonSoup.obj
 0001:000d7e20       ?ForAllSectors@dgAABBTree@@QBEXQBHQBMABVdgVector@@2P6A?AW4dgIntersectStatus@@PAX1H0H@ZQAX@Z 100d8e20 f i corelib:dgAABBPolygonSoup.obj
 0001:000d8050       ?BoxIntersect@dgAABBTree@@QBEHQBVdgTriplex@@ABVdgVector@@1@Z 100d9050 f i corelib:dgAABBPolygonSoup.obj
 0001:000d80f0       ?ForAllSectorsSupportVertex@dgAABBTree@@QBE?AVdgVector@@ABV2@QBHQBM@Z 100d90f0 f i corelib:dgAABBPolygonSoup.obj
 0001:000d8970       ?ForAllSectorsRayHit@dgAABBTree@@QBEXABVFastRayTest@@PBHPBMP6AMPAXQBMHQBHH@ZQAX@Z 100d9970 f i corelib:dgAABBPolygonSoup.obj
 0001:000d8ca0       ?RayTest@dgAABBTree@@QBEHABVFastRayTest@@QBVdgTriplex@@@Z 100d9ca0 f i corelib:dgAABBPolygonSoup.obj
 0001:000d8e60       ?ForAllSectorsRayHitSimd@dgAABBTree@@QBEXABVFastRayTest@@PBHPBMP6AMPAXQBMHQBHH@ZQAX@Z 100d9e60 f i corelib:dgAABBPolygonSoup.obj
 0001:000d9190       ?RayTestSimd@dgAABBTree@@QBEHABVFastRayTest@@QBVdgTriplex@@@Z 100da190 f i corelib:dgAABBPolygonSoup.obj
 0001:000d9570       ??0AdjacentdFaces@@QAE@XZ  100da570 f i corelib:dgAABBPolygonSoup.obj
 0001:000d9590       ??0TreeNode@dgAABBTree@@QAE@II@Z 100da590 f i corelib:dgAABBPolygonSoup.obj
 0001:000d95e0       ?CalcExtends@dgAABBTree@@QAEXQAVdgTriplex@@HQBH@Z 100da5e0 f i corelib:dgAABBPolygonSoup.obj
 0001:000d97d0       ?BuildBottomUp@dgAABBTree@@QAEHQAVdgMemoryAllocator@@HQAV1@QAVdgTriplex@@AAH@Z 100da7d0 f i corelib:dgAABBPolygonSoup.obj
 0001:000da060       ??2dgConstructionTree@dgAABBTree@@SAPAXIQAVdgMemoryAllocator@@@Z 100db060 f i corelib:dgAABBPolygonSoup.obj
 0001:000da080       ??0dgConstructionTree@dgAABBTree@@QAE@XZ 100db080 f i corelib:dgAABBPolygonSoup.obj
 0001:000da0b0       ??0dgConstructionTree@dgAABBTree@@QAE@QAV01@0@Z 100db0b0 f i corelib:dgAABBPolygonSoup.obj
 0001:000da210       ?BuildTree@dgAABBTree@@QAEHPAVdgConstructionTree@1@QAV1@1QAVdgTriplex@@AAH@Z 100db210 f i corelib:dgAABBPolygonSoup.obj
 0001:000da480       ??0TreeNode@dgAABBTree@@QAE@I@Z 100db480 f i corelib:dgAABBPolygonSoup.obj
 0001:000da4d0       ?BuildTopDown@dgAABBTree@@QAEHQAVdgMemoryAllocator@@HQAV1@QAVdgTriplex@@AAH@Z 100db4d0 f i corelib:dgAABBPolygonSoup.obj
 0001:000da590       ?BuildTree@dgAABBTree@@QAEPAVdgConstructionTree@1@QAVdgMemoryAllocator@@HHQAV1@QBVdgTriplex@@@Z 100db590 f i corelib:dgAABBPolygonSoup.obj
 0001:000da800       ?GetAxis@dgAABBTree@@ABEHPAPAVdgConstructionTree@1@H@Z 100db800 f i corelib:dgAABBPolygonSoup.obj
 0001:000da9a0       ?CompareBox@dgAABBTree@@CAHQBVdgConstructionTree@1@0QAX@Z 100db9a0 f i corelib:dgAABBPolygonSoup.obj
 0001:000daa20       ??_GdgConstructionTree@dgAABBTree@@QAEPAXI@Z 100dba20 f i corelib:dgAABBPolygonSoup.obj
 0001:000daa50       ??3dgConstructionTree@dgAABBTree@@SAXPAX@Z 100dba50 f i corelib:dgAABBPolygonSoup.obj
 0001:000daa70       ??1dgConstructionTree@dgAABBTree@@QAE@XZ 100dba70 f i corelib:dgAABBPolygonSoup.obj
 0001:000daaf0       ??1?$dgDownHeap@VdgHeapNodePair@dgAABBTree@@M@@QAE@XZ 100dbaf0 f i corelib:dgAABBPolygonSoup.obj
 0001:000dab10       ??A?$dgArray@VdgTriplex@@@@QBEABVdgTriplex@@H@Z 100dbb10 f i corelib:dgAABBPolygonSoup.obj
 0001:000dab70       ??A?$dgArray@H@@QBEABHH@Z  100dbb70 f i corelib:dgAABBPolygonSoup.obj
 0001:000dabd0       ??0?$dgStack@VdgAABBTree@@@@QAE@H@Z 100dbbd0 f i corelib:dgAABBPolygonSoup.obj
 0001:000dac00       ??1?$dgStack@VdgAABBTree@@@@QAE@XZ 100dbc00 f i corelib:dgAABBPolygonSoup.obj
 0001:000dac20       ??A?$dgStack@VdgAABBTree@@@@QAEAAVdgAABBTree@@H@Z 100dbc20 f i corelib:dgAABBPolygonSoup.obj
 0001:000daca0       ??0?$dgStack@VdgHeapNodePair@dgAABBTree@@@@QAE@H@Z 100dbca0 f i corelib:dgAABBPolygonSoup.obj
 0001:000dacd0       ??1?$dgStack@VdgHeapNodePair@dgAABBTree@@@@QAE@XZ 100dbcd0 f i corelib:dgAABBPolygonSoup.obj
 0001:000dacf0       ?GetSizeInBytes@?$dgStack@VdgHeapNodePair@dgAABBTree@@@@QBEHXZ 100dbcf0 f i corelib:dgAABBPolygonSoup.obj
 0001:000dad10       ??A?$dgStack@VdgHeapNodePair@dgAABBTree@@@@QAEAAVdgHeapNodePair@dgAABBTree@@H@Z 100dbd10 f i corelib:dgAABBPolygonSoup.obj
 0001:000dad90       ??0?$dgStack@PAVdgConstructionTree@dgAABBTree@@@@QAE@H@Z 100dbd90 f i corelib:dgAABBPolygonSoup.obj
 0001:000dadc0       ??1?$dgStack@PAVdgConstructionTree@dgAABBTree@@@@QAE@XZ 100dbdc0 f i corelib:dgAABBPolygonSoup.obj
 0001:000dade0       ??A?$dgStack@PAVdgConstructionTree@dgAABBTree@@@@QAEAAPAVdgConstructionTree@dgAABBTree@@H@Z 100dbde0 f i corelib:dgAABBPolygonSoup.obj
 0001:000dae60       ??1?$dgHeapBase@VdgHeapNodePair@dgAABBTree@@M@@IAE@XZ 100dbe60 f i corelib:dgAABBPolygonSoup.obj
 0001:000dae90       ?Flush@?$dgHeapBase@VdgHeapNodePair@dgAABBTree@@M@@QAEXXZ 100dbe90 f i corelib:dgAABBPolygonSoup.obj
 0001:000daeb0       ?Value@?$dgHeapBase@VdgHeapNodePair@dgAABBTree@@M@@QBEMH@Z 100dbeb0 f i corelib:dgAABBPolygonSoup.obj
 0001:000daed0       ?GetCount@?$dgHeapBase@VdgHeapNodePair@dgAABBTree@@M@@QBEHXZ 100dbed0 f i corelib:dgAABBPolygonSoup.obj
 0001:000daee0       ?GetMaxCount@?$dgHeapBase@VdgHeapNodePair@dgAABBTree@@M@@QBEHXZ 100dbee0 f i corelib:dgAABBPolygonSoup.obj
 0001:000daf00       ??A?$dgHeapBase@VdgHeapNodePair@dgAABBTree@@M@@QBEABVdgHeapNodePair@dgAABBTree@@H@Z 100dbf00 f i corelib:dgAABBPolygonSoup.obj
 0001:000daf50       ??0?$dgDownHeap@VdgHeapNodePair@dgAABBTree@@M@@QAE@QBXH@Z 100dbf50 f i corelib:dgAABBPolygonSoup.obj
 0001:000daf70       ?Pop@?$dgDownHeap@VdgHeapNodePair@dgAABBTree@@M@@QAEXXZ 100dbf70 f i corelib:dgAABBPolygonSoup.obj
 0001:000db0a0       ?Push@?$dgDownHeap@VdgHeapNodePair@dgAABBTree@@M@@QAEXAAVdgHeapNodePair@dgAABBTree@@M@Z 100dc0a0 f i corelib:dgAABBPolygonSoup.obj
 0001:000db1c0       ?Sort@?$dgDownHeap@VdgHeapNodePair@dgAABBTree@@M@@QAEXXZ 100dc1c0 f i corelib:dgAABBPolygonSoup.obj
 0001:000db330       ??$dgSortIndirect@VdgConstructionTree@dgAABBTree@@@@YAXQAPAVdgConstructionTree@dgAABBTree@@HP6AHQBV01@1QAX@Z2@Z 100dc330 f i corelib:dgAABBPolygonSoup.obj
 0001:000db6b0       ??$Swap@VdgAABBTree@@@@YAXAAVdgAABBTree@@0@Z 100dc6b0 f i corelib:dgAABBPolygonSoup.obj
 0001:000db710       ?Resize@?$dgArray@VdgTriplex@@@@QBEXH@Z 100dc710 f i corelib:dgAABBPolygonSoup.obj
 0001:000db890       ?Resize@?$dgArray@H@@QBEXH@Z 100dc890 f i corelib:dgAABBPolygonSoup.obj
 0001:000db9f0       ??0?$dgHeapBase@VdgHeapNodePair@dgAABBTree@@M@@IAE@QBXH@Z 100dc9f0 f i corelib:dgAABBPolygonSoup.obj
 0001:000dba30       ??0dgPolygonSoupDatabaseBuilder@@QAE@QAVdgMemoryAllocator@@@Z 100dca30 f   corelib:dgPolygonSoupBuilder.obj
 0001:000dbac0       ??1dgPolygonSoupDatabaseBuilder@@QAE@XZ 100dcac0 f   corelib:dgPolygonSoupBuilder.obj
 0001:000dbb10       ?Begin@dgPolygonSoupDatabaseBuilder@@QAEXXZ 100dcb10 f   corelib:dgPolygonSoupBuilder.obj
 0001:000dbb50       ?AddMesh@dgPolygonSoupDatabaseBuilder@@QAEXQBMHHHQBH11ABVdgMatrix@@@Z 100dcb50 f   corelib:dgPolygonSoupBuilder.obj
 0001:000dbe70       ?SingleFaceFixup@dgPolygonSoupDatabaseBuilder@@QAEXXZ 100dce70 f   corelib:dgPolygonSoupBuilder.obj
 0001:000dbf30       ?EndAndOptimize@dgPolygonSoupDatabaseBuilder@@AAEX_N@Z 100dcf30 f   corelib:dgPolygonSoupBuilder.obj
 0001:000dc070       ?OptimizeByGroupID@dgPolygonSoupDatabaseBuilder@@AAEXXZ 100dd070 f   corelib:dgPolygonSoupBuilder.obj
 0001:000dc480       ?OptimizeByGroupID@dgPolygonSoupDatabaseBuilder@@AAEXAAV1@HH0@Z 100dd480 f   corelib:dgPolygonSoupBuilder.obj
 0001:000dca70       ?OptimizeByIndividualFaces@dgPolygonSoupDatabaseBuilder@@AAEXXZ 100dda70 f   corelib:dgPolygonSoupBuilder.obj
 0001:000dcbd0       ?End@dgPolygonSoupDatabaseBuilder@@QAEX_N@Z 100ddbd0 f   corelib:dgPolygonSoupBuilder.obj
 0001:000dcea0       ?Optimize@dgPolygonSoupDatabaseBuilder@@AAEX_N@Z 100ddea0 f   corelib:dgPolygonSoupBuilder.obj
 0001:000dd990       ?FilterFace@dgPolygonSoupDatabaseBuilder@@AAEHHQAH@Z 100de990 f   corelib:dgPolygonSoupBuilder.obj
 0001:000de520       ?AddConvexFace@dgPolygonSoupDatabaseBuilder@@AAEHHQAH0@Z 100df520 f   corelib:dgPolygonSoupBuilder.obj
 0001:000df080       ??0VertexArray@dgPolygonSoupDatabaseBuilder@@QAE@QAVdgMemoryAllocator@@@Z 100e0080 f i corelib:dgPolygonSoupBuilder.obj
 0001:000df0b0       ??0IndexArray@dgPolygonSoupDatabaseBuilder@@QAE@QAVdgMemoryAllocator@@@Z 100e00b0 f i corelib:dgPolygonSoupBuilder.obj
 0001:000df0e0       ??1IndexArray@dgPolygonSoupDatabaseBuilder@@QAE@XZ 100e00e0 f i corelib:dgPolygonSoupBuilder.obj
 0001:000df100       ??1VertexArray@dgPolygonSoupDatabaseBuilder@@QAE@XZ 100e0100 f i corelib:dgPolygonSoupBuilder.obj
 0001:000df120       ??0dgPolySoupFilterAllocator@@QAE@QAVdgMemoryAllocator@@@Z 100e0120 f i corelib:dgPolygonSoupBuilder.obj
 0001:000df150       ??1dgPolySoupFilterAllocator@@UAE@XZ 100e0150 f i corelib:dgPolygonSoupBuilder.obj
 0001:000df170       ?AddFilterFace@dgPolySoupFilterAllocator@@QAEHIQAH@Z 100e0170 f i corelib:dgPolygonSoupBuilder.obj
 0001:000df2c0       ??_EdgPolySoupFilterAllocator@@UAEPAXI@Z 100e02c0 f i corelib:dgPolygonSoupBuilder.obj
 0001:000df2c0       ??_GdgPolySoupFilterAllocator@@UAEPAXI@Z 100e02c0 f i corelib:dgPolygonSoupBuilder.obj
 0001:000df2f0       ??0?$dgArray@VdgTriplex@@@@QAE@HQAVdgMemoryAllocator@@@Z 100e02f0 f i corelib:dgPolygonSoupBuilder.obj
 0001:000df330       ??1?$dgArray@VdgTriplex@@@@QAE@XZ 100e0330 f i corelib:dgPolygonSoupBuilder.obj
 0001:000df360       ??A?$dgArray@VdgTriplex@@@@QAEAAVdgTriplex@@H@Z 100e0360 f i corelib:dgPolygonSoupBuilder.obj
 0001:000df3c0       ??0?$dgArray@H@@QAE@HQAVdgMemoryAllocator@@@Z 100e03c0 f i corelib:dgPolygonSoupBuilder.obj
 0001:000df400       ??1?$dgArray@H@@QAE@XZ     100e0400 f i corelib:dgPolygonSoupBuilder.obj
 0001:000df430       ??A?$dgArray@H@@QAEAAHH@Z  100e0430 f i corelib:dgPolygonSoupBuilder.obj
 0001:000df490       ??0?$dgTree@HH@@QAE@QAVdgMemoryAllocator@@@Z 100e0490 f i corelib:dgPolygonSoupBuilder.obj
 0001:000df4c0       ??1?$dgTree@HH@@QAE@XZ     100e04c0 f i corelib:dgPolygonSoupBuilder.obj
 0001:000df4e0       ?Find@?$dgTree@HH@@QBEPAVdgTreeNode@1@H@Z 100e04e0 f i corelib:dgPolygonSoupBuilder.obj
 0001:000df600       ?Insert@?$dgTree@HH@@QAEPAVdgTreeNode@1@ABHH@Z 100e0600 f i corelib:dgPolygonSoupBuilder.obj
 0001:000df640       ?GetLeft@dgTreeNode@?$dgTree@HH@@ABEPAV12@XZ 100e0640 f i corelib:dgPolygonSoupBuilder.obj
 0001:000df650       ?GetRight@dgTreeNode@?$dgTree@HH@@ABEPAV12@XZ 100e0650 f i corelib:dgPolygonSoupBuilder.obj
 0001:000df670       ?Insert@?$dgTree@HH@@QAEPAVdgTreeNode@1@ABHHAA_N@Z 100e0670 f i corelib:dgPolygonSoupBuilder.obj
 0001:000df870       ?RemoveAll@?$dgTree@HH@@QAEXXZ 100e0870 f i corelib:dgPolygonSoupBuilder.obj
 0001:000df8b0       ?CompareKeys@?$dgTree@HH@@ABEHABH0@Z 100e08b0 f i corelib:dgPolygonSoupBuilder.obj
 0001:000df8f0       ??0dgTreeNode@?$dgTree@HH@@AAE@ABH0PAV01@@Z 100e08f0 f i corelib:dgPolygonSoupBuilder.obj
 0001:000df960       ??0dgQuaternion@@QAE@ABVdgMatrix@@@Z 100e0960 f   corelib:dgQuaternion.obj
 0001:000dfdf0       ??0dgQuaternion@@QAE@ABVdgVector@@M@Z 100e0df0 f   corelib:dgQuaternion.obj
 0001:000dfed0       ?CalcAverageOmega@dgQuaternion@@QBE?AVdgVector@@ABV1@M@Z 100e0ed0 f   corelib:dgQuaternion.obj
 0001:000dff30       ?Slerp@dgQuaternion@@QBE?AV1@ABV1@M@Z 100e0f30 f   corelib:dgQuaternion.obj
 0001:000dff70       ?GetIdentitySphere@@YAABVdgSphere@@XZ 100e0f70 f   corelib:dgSphere.obj
 0001:000dff80       ??0dgSphere@@QAE@XZ        100e0f80 f   corelib:dgSphere.obj
 0001:000dffd0       ??0dgSphere@@QAE@ABVdgQuaternion@@ABVdgVector@@1@Z 100e0fd0 f   corelib:dgSphere.obj
 0001:000e0050       ??0dgSphere@@QAE@ABVdgMatrix@@ABVdgVector@@@Z 100e1050 f   corelib:dgSphere.obj
 0001:000e00b0       ?SetDimensions@dgSphere@@QAEXQBMHQBHHPBVdgMatrix@@@Z 100e10b0 f   corelib:dgSphere.obj
 0001:000e0f20       ?SetDimensions@dgSphere@@QAEXQBMHHPBVdgMatrix@@@Z 100e1f20 f   corelib:dgSphere.obj
 0001:000e1840       ?SetDimensions@dgSphere@@QAEXMMM@Z 100e2840 f i corelib:dgSphere.obj
 0001:000e18e0       ?sqrt@@YAMM@Z              100e28e0 f i corelib:dgSphere.obj
 0001:000e1900       _sqrtf                     100e2900 f i corelib:dgSphere.obj
 0001:000e1920       ?Determinant2x2@@YANQAY01$$CBNQAN@Z 100e2920 f   corelib:dgSmallDeterminant.obj
 0001:000e1990       ?Determinant2x2@@YA?AVdgGoogol@@QAY01$$CBV1@@Z 100e2990 f   corelib:dgSmallDeterminant.obj
 0001:000e1a10       ?Determinant3x3@@YANQAY02$$CBNQAN@Z 100e2a10 f   corelib:dgSmallDeterminant.obj
 0001:000e1b40       ?Determinant3x3@@YA?AVdgGoogol@@QAY02$$CBV1@@Z 100e2b40 f   corelib:dgSmallDeterminant.obj
 0001:000e1dc0       ?Determinant4x4@@YANQAY03$$CBNQAN@Z 100e2dc0 f   corelib:dgSmallDeterminant.obj
 0001:000e1f10       ?Determinant4x4@@YA?AVdgGoogol@@QAY03$$CBV1@@Z 100e2f10 f   corelib:dgSmallDeterminant.obj
 0001:000e21b0       ??0dgGoogol@@QAE@XZ        100e31b0 f   corelib:dgGoogol.obj
 0001:000e21e0       ??0dgGoogol@@QAE@N@Z       100e31e0 f   corelib:dgGoogol.obj
 0001:000e2210       ??1dgGoogol@@QAE@XZ        100e3210 f   corelib:dgGoogol.obj
 0001:000e2220       ?GetAproximateValue@dgGoogol@@QBENXZ 100e3220 f   corelib:dgGoogol.obj
 0001:000e2270       ?InitFloatFloat@dgGoogol@@QAEXN@Z 100e3270 f   corelib:dgGoogol.obj
 0001:000e2340       ??HdgGoogol@@QBE?AV0@ABV0@@Z 100e3340 f   corelib:dgGoogol.obj
 0001:000e2550       ??GdgGoogol@@QBE?AV0@ABV0@@Z 100e3550 f   corelib:dgGoogol.obj
 0001:000e25e0       ??DdgGoogol@@QBE?AV0@ABV0@@Z 100e35e0 f   corelib:dgGoogol.obj
 0001:000e26d0       ?AddFloat@dgGoogol@@ABEXNNAAN0@Z 100e36d0 f i corelib:dgGoogol.obj
 0001:000e2720       ?PackFloat@dgGoogol@@AAEXXZ 100e3720 f i corelib:dgGoogol.obj
 0001:000e2960       ?ScaleFloat@dgGoogol@@ABE?AV1@N@Z 100e3960 f i corelib:dgGoogol.obj
 0001:000e2b90       ?MulFloat@dgGoogol@@ABEXNNAAN0@Z 100e3b90 f i corelib:dgGoogol.obj
 0001:000e2c10       ?SplitFloat@dgGoogol@@ABEXNAAN0@Z 100e3c10 f i corelib:dgGoogol.obj
 0001:000e2c50       _strlen                    100e3c50 f   LIBCMTD:strlen.obj
 0001:000e2ce0       __fpmath                   100e3ce0 f   LIBCMTD:_fpinit_.obj
 0001:000e2d10       __fpclear                  100e3d10 f   LIBCMTD:_fpinit_.obj
 0001:000e2d20       __cfltcvt_init             100e3d20 f   LIBCMTD:_fpinit_.obj
 0001:000e2d90       ___setfflag                100e3d90 f   LIBCMTD:_fpinit_.obj
 0001:000e2db0       __ftol2_sse                100e3db0 f   LIBCMTD:ftol2.obj
 0001:000e2db9       __ftol2_pentium4           100e3db9 f   LIBCMTD:ftol2.obj
 0001:000e2dcc       __ftol2_sse_excpt          100e3dcc f   LIBCMTD:ftol2.obj
 0001:000e2de6       __ftol2                    100e3de6 f   LIBCMTD:ftol2.obj
 0001:000e2e60       _ceil                      100e3e60 f   LIBCMTD:_ceil_pentium4_.obj
 0001:000e2ea0       __ceil_pentium4            100e3ea0 f   LIBCMTD:_ceil_pentium4_.obj
 0001:000e2f80       __CrtSetReportHookW2       100e3f80 f   LIBCMTD:dbgrptw.obj
 0001:000e32a0       __CrtDbgReportW            100e42a0 f   LIBCMTD:dbgrptw.obj
 0001:000e32e0       __CrtDbgReportWV           100e42e0 f i LIBCMTD:dbgrptw.obj
 0001:000e3310       ___crtMessageWindowW       100e4310 f   LIBCMTD:dbgrptw.obj
 0001:000e3710       __invoke_watson_if_error   100e4710 f i LIBCMTD:dbgrptw.obj
 0001:000e3740       __invoke_watson_if_oneof   100e4740 f i LIBCMTD:dbgrptw.obj
 0001:000e3790       ?_CrtDbgReportW@@YAHHPBGH00ZZ 100e4790 f   LIBCMTD:dbgrptw.obj
 0001:000e37d0       __copysign                 100e47d0 f   LIBCMTD:_ieeemisc_.obj
 0001:000e3810       __chgsign                  100e4810 f   LIBCMTD:_ieeemisc_.obj
 0001:000e3850       __scalb                    100e4850 f   LIBCMTD:_ieeemisc_.obj
 0001:000e3870       __logb                     100e4870 f   LIBCMTD:_ieeemisc_.obj
 0001:000e39a0       __nextafter                100e49a0 f   LIBCMTD:_ieeemisc_.obj
 0001:000e3cc0       __finite                   100e4cc0 f   LIBCMTD:_ieeemisc_.obj
 0001:000e3ce0       __isnan                    100e4ce0 f   LIBCMTD:_ieeemisc_.obj
 0001:000e3d30       __fpclass                  100e4d30 f   LIBCMTD:_ieeemisc_.obj
 0001:000e3e00       _malloc                    100e4e00 f   LIBCMTD:dbgmalloc.obj
 0001:000e3e30       _free                      100e4e30 f   LIBCMTD:dbgfree.obj
 0001:000e3e50       _memset                    100e4e50 f   LIBCMTD:memset.obj
 0001:000e3ed0       __CRT_INIT@12              100e4ed0 f   LIBCMTD:dllcrt0.obj
 0001:000e40a0       __DllMainCRTStartup@12     100e50a0 f   LIBCMTD:dllcrt0.obj
 0001:000e4290       _sprintf                   100e5290 f   LIBCMTD:sprintf.obj
 0001:000e4410       __sprintf_l                100e5410 f   LIBCMTD:sprintf.obj
 0001:000e4440       _sprintf_s                 100e5440 f   LIBCMTD:sprintf.obj
 0001:000e4470       __sprintf_s_l              100e5470 f   LIBCMTD:sprintf.obj
 0001:000e44a0       __snprintf_s               100e54a0 f   LIBCMTD:sprintf.obj
 0001:000e44d0       __snprintf_s_l             100e54d0 f   LIBCMTD:sprintf.obj
 0001:000e4500       __sprintf_p                100e5500 f   LIBCMTD:sprintf.obj
 0001:000e4530       __sprintf_p_l              100e5530 f   LIBCMTD:sprintf.obj
 0001:000e4560       __scprintf                 100e5560 f   LIBCMTD:sprintf.obj
 0001:000e4580       __scprintf_p               100e5580 f   LIBCMTD:sprintf.obj
 0001:000e45a0       __scprintf_l               100e55a0 f   LIBCMTD:sprintf.obj
 0001:000e45d0       __scprintf_p_l             100e55d0 f   LIBCMTD:sprintf.obj
 0001:000e4600       __statusfp2                100e5600 f   LIBCMTD:_ieee87_.obj
 0001:000e4640       __statusfp                 100e5640 f   LIBCMTD:_ieee87_.obj
 0001:000e4690       __clearfp                  100e5690 f   LIBCMTD:_ieee87_.obj
 0001:000e46e0       ___control87_2             100e56e0 f   LIBCMTD:_ieee87_.obj
 0001:000e4790       __controlfp                100e5790 f   LIBCMTD:_ieee87_.obj
 0001:000e47b0       __control87                100e57b0 f i LIBCMTD:_ieee87_.obj
 0001:000e4860       __set_controlfp            100e5860 f   LIBCMTD:_ieee87_.obj
 0001:000e48f0       __fpreset                  100e58f0 f   LIBCMTD:_ieee87_.obj
 0001:000e50b0       __alloca_probe             100e60b0     LIBCMTD:chkstk.obj
 0001:000e50b0       __chkstk                   100e60b0 f   LIBCMTD:chkstk.obj
 0001:000e50e0       __purecall                 100e60e0 f   LIBCMTD:purevirt.obj
 0001:000e5120       __set_purecall_handler     100e6120 f   LIBCMTD:purevirt.obj
 0001:000e5160       __get_purecall_handler     100e6160 f   LIBCMTD:purevirt.obj
 0001:000e5180       ??3@YAXPAX@Z               100e6180 f   LIBCMTD:dbgdel.obj
 0001:000e5270       _log                       100e6270 f   LIBCMTD:_log_.obj
 0001:000e52b0       __CIlog                    100e62b0 f   LIBCMTD:_log_.obj
 0001:000e52eb       __CIlog_default            100e62eb f   LIBCMTD:_log_.obj
 0001:000e52ff       __log_default              100e62ff     LIBCMTD:_log_.obj
 0001:000e53c0       _pow                       100e63c0 f   LIBCMTD:_pow_.obj
 0001:000e5400       __CIpow                    100e6400 f   LIBCMTD:_pow_.obj
 0001:000e543b       __CIpow_default            100e643b f   LIBCMTD:_pow_.obj
 0001:000e5454       __pow_default              100e6454     LIBCMTD:_pow_.obj
 0001:000e5650       _memcpy                    100e6650 f   LIBCMTD:memcpy.obj
 0001:000e59c0       __allmul                   100e69c0 f   LIBCMTD:llmul.obj
 0001:000e5a00       __allshl                   100e6a00 f   LIBCMTD:llshl.obj
 0001:000e5a20       __CIsqrt                   100e6a20 f   LIBCMTD:_sqrt_.obj
 0001:000e5a34       _sqrt                      100e6a34     LIBCMTD:_sqrt_.obj
 0001:000e5ae0       _strcpy                    100e6ae0 f   LIBCMTD:strcat.obj
 0001:000e5af0       _strcat                    100e6af0 f   LIBCMTD:strcat.obj
 0001:000e5be0       _fabs                      100e6be0 f   LIBCMTD:_fabs_.obj
 0001:000e5ce0       __vsprintf_l               100e6ce0 f   LIBCMTD:vsprintf.obj
 0001:000e5e60       _vsprintf                  100e6e60 f   LIBCMTD:vsprintf.obj
 0001:000e5e80       __vscprintf_helper         100e6e80 f   LIBCMTD:vsprintf.obj
 0001:000e5f40       __vscprintf                100e6f40 f   LIBCMTD:vsprintf.obj
 0001:000e5f60       __vscprintf_l              100e6f60 f   LIBCMTD:vsprintf.obj
 0001:000e5f80       __vscprintf_p              100e6f80 f   LIBCMTD:vsprintf.obj
 0001:000e5fa0       __vscprintf_p_l            100e6fa0 f   LIBCMTD:vsprintf.obj
 0001:000e5fc0       __onexit                   100e6fc0 f   LIBCMTD:onexit.obj
 0001:000e6190       _atexit                    100e7190 f   LIBCMTD:onexit.obj
 0001:000e61b0       ___onexitinit              100e71b0 f   LIBCMTD:onexit.obj
 0001:000e6214       __except_handler3          100e7214 f   LIBCMTD:exsup3.obj
 0001:000e6312       __seh_longjmp_unwind@4     100e7312 f   LIBCMTD:exsup3.obj
 0001:000e6330       __beginthreadex            100e7330 f   LIBCMTD:threadex.obj
 0001:000e65d0       __endthreadex              100e75d0 f   LIBCMTD:threadex.obj
 0001:000e6620       __setdefaultprecision      100e7620 f   LIBCMTD:fp8.obj
 0001:000e6660       __ms_p5_test_fdiv          100e7660 f   LIBCMTD:_testfdiv_.obj
 0001:000e66b0       __ms_p5_mp_test_fdiv       100e76b0 f   LIBCMTD:_testfdiv_.obj
 0001:000e6700       __forcdecpt                100e7700 f   LIBCMTD:cvt.obj
 0001:000e6720       __forcdecpt_l              100e7720 f   LIBCMTD:cvt.obj
 0001:000e67e0       ??0_LocaleUpdate@@QAE@PAUlocaleinfo_struct@@@Z 100e77e0 f i LIBCMTD:cvt.obj
 0001:000e68c0       ??1_LocaleUpdate@@QAE@XZ   100e78c0 f i LIBCMTD:cvt.obj
 0001:000e68f0       ?GetLocaleT@_LocaleUpdate@@QAEPAUlocaleinfo_struct@@XZ 100e78f0 f i LIBCMTD:cvt.obj
 0001:000e6900       __cropzeros                100e7900 f   LIBCMTD:cvt.obj
 0001:000e6920       __cropzeros_l              100e7920 f   LIBCMTD:cvt.obj
 0001:000e6a30       __positive                 100e7a30 f   LIBCMTD:cvt.obj
 0001:000e6a60       __fassign_l                100e7a60 f   LIBCMTD:cvt.obj
 0001:000e6ac0       __fassign                  100e7ac0 f   LIBCMTD:cvt.obj
 0001:000e6ae0       __cftoe_l                  100e7ae0 f   LIBCMTD:cvt.obj
 0001:000e7030       __cftoe                    100e8030 f   LIBCMTD:cvt.obj
 0001:000e7060       __cftoa_l                  100e8060 f   LIBCMTD:cvt.obj
 0001:000e7840       ?strrchr@@YAPADPADH@Z      100e8840 f i LIBCMTD:cvt.obj
 0001:000e7860       __cftoa                    100e8860 f   LIBCMTD:cvt.obj
 0001:000e7890       __cftof_l                  100e8890 f   LIBCMTD:cvt.obj
 0001:000e7ca0       __cftof                    100e8ca0 f   LIBCMTD:cvt.obj
 0001:000e7cd0       __cftog_l                  100e8cd0 f   LIBCMTD:cvt.obj
 0001:000e7f00       __cftog                    100e8f00 f   LIBCMTD:cvt.obj
 0001:000e7f30       __cfltcvt_l                100e8f30 f   LIBCMTD:cvt.obj
 0001:000e7ff0       __cfltcvt                  100e8ff0 f   LIBCMTD:cvt.obj
 0001:000e8050       __initp_misc_cfltcvt_tab   100e9050 f   LIBCMTD:cmiscdat.obj
 0001:000e80a0       __get_sse2_info            100e90a0 f   LIBCMTD:cpu_disp.obj
 0001:000e81d0       ___sse2_available_init     100e91d0 f   LIBCMTD:cpu_disp.obj
 0001:000e81f0       ___libm_setusermatherr     100e91f0 f   LIBCMTD:_libm_error_.obj
 0001:000e8230       ___libm_error_support      100e9230 f   LIBCMTD:_libm_error_.obj
 0001:000e8d70       __sse2_mathfcns_init       100e9d70 f   LIBCMTD:_mathfcns_.obj
 0001:000e8d90       __set_SSE2_enable          100e9d90 f   LIBCMTD:_mathfcns_.obj
 0001:000e8db0       __ceil_default             100e9db0 f   LIBCMTD:_ceil_.obj
 0001:000e8ef0       __mtinitlocks              100e9ef0 f   LIBCMTD:mlock.obj
 0001:000e8f80       __mtdeletelocks            100e9f80 f   LIBCMTD:mlock.obj
 0001:000e9040       __mtinitlocknum            100ea040 f   LIBCMTD:mlock.obj
 0001:000e9190       __lock                     100ea190 f   LIBCMTD:mlock.obj
 0001:000e91d0       __unlock                   100ea1d0 f   LIBCMTD:mlock.obj
 0001:000e91f0       __lockerr_exit             100ea1f0 f   LIBCMTD:mlock.obj
 0001:000e9210       __malloc_dbg               100ea210 f   LIBCMTD:dbgheap.obj
 0001:000e9240       __nh_malloc                100ea240 f   LIBCMTD:dbgheap.obj
 0001:000e9260       __nh_malloc_dbg            100ea260 f   LIBCMTD:dbgheap.obj
 0001:000e9330       __heap_alloc               100ea330 f   LIBCMTD:dbgheap.obj
 0001:000e9700       __heap_alloc_dbg           100ea700 f   LIBCMTD:dbgheap.obj
 0001:000e9760       __calloc_dbg_impl          100ea760 f   LIBCMTD:dbgheap.obj
 0001:000e9830       __calloc_dbg               100ea830 f   LIBCMTD:dbgheap.obj
 0001:000e9890       __recalloc                 100ea890 f   LIBCMTD:dbgheap.obj
 0001:000e98c0       __realloc_dbg              100ea8c0 f   LIBCMTD:dbgheap.obj
 0001:000e9f60       __recalloc_dbg             100eaf60 f   LIBCMTD:dbgheap.obj
 0001:000ea060       __expand                   100eb060 f   LIBCMTD:dbgheap.obj
 0001:000ea090       __expand_dbg               100eb090 f   LIBCMTD:dbgheap.obj
 0001:000ea1a0       __free_nolock              100eb1a0 f   LIBCMTD:dbgheap.obj
 0001:000ea1c0       __free_dbg                 100eb1c0 f   LIBCMTD:dbgheap.obj
 0001:000ea240       __free_dbg_nolock          100eb240 f   LIBCMTD:dbgheap.obj
 0001:000ea720       __msize                    100eb720 f   LIBCMTD:dbgheap.obj
 0001:000ea740       __msize_dbg                100eb740 f   LIBCMTD:dbgheap.obj
 0001:000ea930       __CrtSetBreakAlloc         100eb930 f   LIBCMTD:dbgheap.obj
 0001:000ea950       __CrtSetDbgBlockType       100eb950 f   LIBCMTD:dbgheap.obj
 0001:000eaa40       __CrtSetAllocHook          100eba40 f   LIBCMTD:dbgheap.obj
 0001:000eaa60       __CrtGetAllocHook          100eba60 f   LIBCMTD:dbgheap.obj
 0001:000eaac0       __CrtCheckMemory           100ebac0 f   LIBCMTD:dbgheap.obj
 0001:000eaf20       __CrtSetDbgFlag            100ebf20 f   LIBCMTD:dbgheap.obj
 0001:000eb070       __CrtDoForAllClientObjects 100ec070 f   LIBCMTD:dbgheap.obj
 0001:000eb190       __CrtIsValidPointer        100ec190 f   LIBCMTD:dbgheap.obj
 0001:000eb1a0       __CrtIsValidHeapPointer    100ec1a0 f   LIBCMTD:dbgheap.obj
 0001:000eb240       __CrtIsMemoryBlock         100ec240 f   LIBCMTD:dbgheap.obj
 0001:000eb3b0       __CrtReportBlockType       100ec3b0 f   LIBCMTD:dbgheap.obj
 0001:000eb3e0       __CrtSetDumpClient         100ec3e0 f   LIBCMTD:dbgheap.obj
 0001:000eb400       __CrtGetDumpClient         100ec400 f   LIBCMTD:dbgheap.obj
 0001:000eb410       __CrtMemCheckpoint         100ec410 f   LIBCMTD:dbgheap.obj
 0001:000eb630       __CrtMemDifference         100ec630 f   LIBCMTD:dbgheap.obj
 0001:000eb850       __CrtMemDumpAllObjectsSince 100ec850 f   LIBCMTD:dbgheap.obj
 0001:000ebd40       __CrtDumpMemoryLeaks       100ecd40 f   LIBCMTD:dbgheap.obj
 0001:000ebdb0       __CrtMemDumpStatistics     100ecdb0 f   LIBCMTD:dbgheap.obj
 0001:000ebec0       __aligned_malloc           100ecec0 f   LIBCMTD:dbgheap.obj
 0001:000ebee0       __aligned_malloc_dbg       100ecee0 f   LIBCMTD:dbgheap.obj
 0001:000ebf10       __aligned_realloc          100ecf10 f   LIBCMTD:dbgheap.obj
 0001:000ebf40       __aligned_recalloc         100ecf40 f   LIBCMTD:dbgheap.obj
 0001:000ebf70       __aligned_realloc_dbg      100ecf70 f   LIBCMTD:dbgheap.obj
 0001:000ebfa0       __aligned_recalloc_dbg     100ecfa0 f   LIBCMTD:dbgheap.obj
 0001:000ebfd0       __aligned_offset_malloc    100ecfd0 f   LIBCMTD:dbgheap.obj
 0001:000ebff0       __aligned_offset_malloc_dbg 100ecff0 f   LIBCMTD:dbgheap.obj
 0001:000ec190       __aligned_offset_realloc   100ed190 f   LIBCMTD:dbgheap.obj
 0001:000ec1c0       __aligned_offset_recalloc  100ed1c0 f   LIBCMTD:dbgheap.obj
 0001:000ec1f0       __aligned_offset_realloc_dbg 100ed1f0 f   LIBCMTD:dbgheap.obj
 0001:000ec4c0       __aligned_offset_recalloc_dbg 100ed4c0 f   LIBCMTD:dbgheap.obj
 0001:000ec5d0       __aligned_free             100ed5d0 f   LIBCMTD:dbgheap.obj
 0001:000ec5f0       __aligned_free_dbg         100ed5f0 f   LIBCMTD:dbgheap.obj
 0001:000ec6a0       __CrtSetDebugFillThreshold 100ed6a0 f   LIBCMTD:dbgheap.obj
 0001:000ec6c0       __CrtSetCheckCount         100ed6c0 f   LIBCMTD:dbgheap.obj
 0001:000ec6e0       __CrtGetCheckCount         100ed6e0 f   LIBCMTD:dbgheap.obj
 0001:000ec6f0       __aligned_msize            100ed6f0 f   LIBCMTD:dbgheap.obj
 0001:000ec710       __aligned_msize_dbg        100ed710 f   LIBCMTD:dbgheap.obj
 0001:000ec820       __CrtDbgBreak              100ed820 f   LIBCMTD:dbgrptt.obj
 0001:000ec830       __CrtSetReportMode         100ed830 f   LIBCMTD:dbgrptt.obj
 0001:000ec970       __CrtSetReportFile         100ed970 f   LIBCMTD:dbgrptt.obj
 0001:000eca70       __CrtSetReportHook         100eda70 f   LIBCMTD:dbgrptt.obj
 0001:000eca90       __CrtGetReportHook         100eda90 f   LIBCMTD:dbgrptt.obj
 0001:000ecaa0       __VCrtDbgReportA           100edaa0 f   LIBCMTD:dbgrptt.obj
 0001:000ed2d0       __VCrtDbgReportW           100ee2d0 f   LIBCMTD:dbgrptt.obj
 0001:000edc00       __initp_misc_invarg        100eec00 f   LIBCMTD:invarg.obj
 0001:000edc10       __invalid_parameter        100eec10 f   LIBCMTD:invarg.obj
 0001:000edc80       __invoke_watson            100eec80 f   LIBCMTD:invarg.obj
 0001:000eddd0       __set_invalid_parameter_handler 100eedd0 f   LIBCMTD:invarg.obj
 0001:000ede20       __get_invalid_parameter_handler 100eee20 f   LIBCMTD:invarg.obj
 0001:000ede50       ?_invalid_parameter@@YAXPBG00II@Z 100eee50 f   LIBCMTD:invarg.obj
 0001:000ede80       ?_invoke_watson@@YAXPBG00II@Z 100eee80 f   LIBCMTD:invarg.obj
 0001:000edeb0       __dosmaperr                100eeeb0 f   LIBCMTD:dosmap.obj
 0001:000edee0       __get_errno_from_oserr     100eeee0 f   LIBCMTD:dosmap.obj
 0001:000edf60       __set_errno                100eef60 f   LIBCMTD:dosmap.obj
 0001:000edf90       __get_errno                100eef90 f   LIBCMTD:dosmap.obj
 0001:000ee010       __set_doserrno             100ef010 f   LIBCMTD:dosmap.obj
 0001:000ee040       __get_doserrno             100ef040 f   LIBCMTD:dosmap.obj
 0001:000ee0c0       __errno                    100ef0c0 f   LIBCMTD:dosmap.obj
 0001:000ee0f0       ___doserrno                100ef0f0 f   LIBCMTD:dosmap.obj
 0001:000ee120       __except_handler4          100ef120 f   LIBCMTD:chandler4.obj
 0001:000ee340       __crt_waiting_on_module_handle 100ef340 f   LIBCMTD:crt0dat.obj
 0001:000ee3a0       __cinit                    100ef3a0 f   LIBCMTD:crt0dat.obj
 0001:000ee440       _exit                      100ef440 f   LIBCMTD:crt0dat.obj
 0001:000ee460       __exit                     100ef460 f   LIBCMTD:crt0dat.obj
 0001:000ee480       __cexit                    100ef480 f   LIBCMTD:crt0dat.obj
 0001:000ee4a0       __c_exit                   100ef4a0 f   LIBCMTD:crt0dat.obj
 0001:000ee4c0       __amsg_exit                100ef4c0 f   LIBCMTD:crt0dat.obj
 0001:000ee500       ___freeCrtMemory           100ef500 f   LIBCMTD:crt0dat.obj
 0001:000ee850       ___crtCorExitProcess       100ef850 f   LIBCMTD:crt0dat.obj
 0001:000ee890       ___crtExitProcess          100ef890 f   LIBCMTD:crt0dat.obj
 0001:000ee8b0       __lockexit                 100ef8b0 f   LIBCMTD:crt0dat.obj
 0001:000ee8d0       __unlockexit               100ef8d0 f   LIBCMTD:crt0dat.obj
 0001:000ee8f0       __init_pointers            100ef8f0 f   LIBCMTD:crt0dat.obj
 0001:000ee9b0       __initterm_e               100ef9b0 f   LIBCMTD:crt0dat.obj
 0001:000ee9f0       __get_wpgmptr              100ef9f0 f   LIBCMTD:crt0dat.obj
 0001:000eeae0       __get_pgmptr               100efae0 f   LIBCMTD:crt0dat.obj
 0001:000eebd0       __initp_misc_winsig        100efbd0 f   LIBCMTD:winsig.obj
 0001:000eec00       _signal                    100efc00 f   LIBCMTD:winsig.obj
 0001:000ef0a0       _raise                     100f00a0 f   LIBCMTD:winsig.obj
 0001:000ef410       ___get_sigabrt             100f0410 f   LIBCMTD:winsig.obj
 0001:000ef430       ___fpecode                 100f0430 f   LIBCMTD:winsig.obj
 0001:000ef440       ___pxcptinfoptrs           100f0440 f   LIBCMTD:winsig.obj
 0001:000ef450       ___crtMessageBoxW          100f0450 f   LIBCMTD:crtmboxw.obj
 0001:000ef670       __swprintf                 100f0670 f   LIBCMTD:swprintf.obj
 0001:000ef840       ___swprintf_l              100f0840 f   LIBCMTD:swprintf.obj
 0001:000ef870       _swprintf_s                100f0870 f   LIBCMTD:swprintf.obj
 0001:000ef8a0       __snwprintf_s              100f08a0 f   LIBCMTD:swprintf.obj
 0001:000ef8d0       __swprintf_p               100f08d0 f   LIBCMTD:swprintf.obj
 0001:000ef900       __swprintf_s_l             100f0900 f   LIBCMTD:swprintf.obj
 0001:000ef930       __snwprintf_s_l            100f0930 f   LIBCMTD:swprintf.obj
 0001:000ef960       __swprintf_p_l             100f0960 f   LIBCMTD:swprintf.obj
 0001:000ef990       __scwprintf                100f0990 f   LIBCMTD:swprintf.obj
 0001:000ef9b0       __scwprintf_p              100f09b0 f   LIBCMTD:swprintf.obj
 0001:000ef9d0       __scwprintf_l              100f09d0 f   LIBCMTD:swprintf.obj
 0001:000efa00       __scwprintf_p_l            100f0a00 f   LIBCMTD:swprintf.obj
 0001:000efa30       _memcpy_s                  100f0a30 f   LIBCMTD:memcpy_s.obj
 0001:000efbc0       _wcslen                    100f0bc0 f   LIBCMTD:wcslen.obj
 0001:000efbf0       _wcscpy_s                  100f0bf0 f   LIBCMTD:wcscpy_s.obj
 0001:000efed0       @__security_check_cookie@4 100f0ed0 f   LIBCMTD:secchk.obj
 0001:000efee0       _ldexp                     100f0ee0 f   LIBCMTD:_ldexp_.obj
 0001:000f01a0       __set_exp                  100f11a0 f   LIBCMTD:_util_.obj
 0001:000f01e0       __get_exp                  100f11e0 f   LIBCMTD:_util_.obj
 0001:000f0210       __add_exp                  100f1210 f   LIBCMTD:_util_.obj
 0001:000f0250       __set_bexp                 100f1250 f   LIBCMTD:_util_.obj
 0001:000f0280       __sptype                   100f1280 f   LIBCMTD:_util_.obj
 0001:000f0300       __decomp                   100f1300 f   LIBCMTD:_util_.obj
 0001:000f0420       __handle_qnan1             100f1420 f   LIBCMTD:_fpexcept_.obj
 0001:000f0480       __handle_qnan2             100f1480 f   LIBCMTD:_fpexcept_.obj
 0001:000f04f0       __except1                  100f14f0 f   LIBCMTD:_fpexcept_.obj
 0001:000f05f0       __except2                  100f15f0 f   LIBCMTD:_fpexcept_.obj
 0001:000f0700       __raise_exc_ex             100f1700 f   LIBCMTD:_fpexcept_.obj
 0001:000f0c30       __raise_exc                100f1c30 f   LIBCMTD:_fpexcept_.obj
 0001:000f0c60       __raise_excf               100f1c60 f   LIBCMTD:_fpexcept_.obj
 0001:000f0c90       __handle_exc               100f1c90 f   LIBCMTD:_fpexcept_.obj
 0001:000f0fa0       __umatherr                 100f1fa0 f   LIBCMTD:_fpexcept_.obj
 0001:000f1040       __set_errno_from_matherr   100f2040 f   LIBCMTD:_fpexcept_.obj
 0001:000f10d0       __errcode                  100f20d0 f   LIBCMTD:_fpexcept_.obj
 0001:000f1140       __statfp                   100f2140 f   LIBCMTD:_fpctrl_.obj
 0001:000f1160       __clrfp                    100f2160 f   LIBCMTD:_fpctrl_.obj
 0001:000f1180       __ctrlfp                   100f2180 f   LIBCMTD:_fpctrl_.obj
 0001:000f11b0       __set_statfp               100f21b0 f   LIBCMTD:_fpctrl_.obj
 0001:000f1220       ___get_fpsr_sse2           100f2220 f   LIBCMTD:_fpctrl_.obj
 0001:000f1250       ___set_fpsr_sse2           100f2250 f   LIBCMTD:_fpctrl_.obj
 0001:000f1330       ___fclrf_sse2              100f2330 f   LIBCMTD:_fpctrl_.obj
 0001:000f1350       ___statfp_sse2             100f2350 f   LIBCMTD:_fpctrl_.obj
 0001:000f1380       ___clrfp_sse2              100f2380 f   LIBCMTD:_fpctrl_.obj
 0001:000f13c0       ___ctrlfp_sse2             100f23c0 f   LIBCMTD:_fpctrl_.obj
 0001:000f1420       ___set_statfp_sse2         100f2420 f   LIBCMTD:_fpctrl_.obj
 0001:000f1450       __VEC_memzero              100f2450 f   LIBCMTD:p4_memset.obj
 0001:000f1540       __encode_pointer           100f2540 f   LIBCMTD:tidtable.obj
 0001:000f15e0       __crt_wait_module_handle   100f25e0 f i LIBCMTD:tidtable.obj
 0001:000f1610       __encoded_null             100f2610 f   LIBCMTD:tidtable.obj
 0001:000f1630       __decode_pointer           100f2630 f   LIBCMTD:tidtable.obj
 0001:000f16d0       ___crtTlsAlloc@4           100f26d0 f   LIBCMTD:tidtable.obj
 0001:000f16e0       ___fls_getvalue@4          100f26e0 f   LIBCMTD:tidtable.obj
 0001:000f1700       ___get_flsindex            100f2700 f   LIBCMTD:tidtable.obj
 0001:000f1710       ___set_flsgetvalue         100f2710 f   LIBCMTD:tidtable.obj
 0001:000f1760       ___fls_setvalue@8          100f2760 f   LIBCMTD:tidtable.obj
 0001:000f1790       __mtinit                   100f2790 f   LIBCMTD:tidtable.obj
 0001:000f19a0       __mtterm                   100f29a0 f   LIBCMTD:tidtable.obj
 0001:000f1a00       __initptd                  100f2a00 f   LIBCMTD:tidtable.obj
 0001:000f1b60       __getptd_noexit            100f2b60 f   LIBCMTD:tidtable.obj
 0001:000f1c20       __getptd                   100f2c20 f   LIBCMTD:tidtable.obj
 0001:000f1c50       __freefls@4                100f2c50 f   LIBCMTD:tidtable.obj
 0001:000f1e60       __freeptd                  100f2e60 f   LIBCMTD:tidtable.obj
 0001:000f1ee0       ___threadid                100f2ee0 f   LIBCMTD:tidtable.obj
 0001:000f1ef0       ___threadhandle            100f2ef0 f   LIBCMTD:tidtable.obj
 0001:000f1f00       __ioinit                   100f2f00 f   LIBCMTD:ioinit.obj
 0001:000f23a0       __ioterm                   100f33a0 f   LIBCMTD:ioinit.obj
 0001:000f2440       __setenvp                  100f3440 f   LIBCMTD:stdenvp.obj
 0001:000f25e0       __setargv                  100f35e0 f   LIBCMTD:stdargv.obj
 0001:000f2700       __set_pgmptr               100f3700 f i LIBCMTD:stdargv.obj
 0001:000f2a70       ___crtGetEnvironmentStringsA 100f3a70 f   LIBCMTD:a_env.obj
 0001:000f2c90       __RTC_Initialize           100f3c90 f   LIBCMTD:_initsect_.obj
 0001:000f2cc0       __RTC_Terminate            100f3cc0 f   LIBCMTD:_initsect_.obj
 0001:000f2cf0       ___heap_select             100f3cf0 f   LIBCMTD:heapinit.obj
 0001:000f2d10       __heap_init                100f3d10 f   LIBCMTD:heapinit.obj
 0001:000f2d90       __heap_term                100f3d90 f   LIBCMTD:heapinit.obj
 0001:000f2e30       __get_heap_handle          100f3e30 f   LIBCMTD:heapinit.obj
 0001:000f2e70       ___security_init_cookie    100f3e70 f   LIBCMTD:gs_support.obj
 0001:000f2f50       __initp_misc_winxfltr      100f3f50 f   LIBCMTD:winxfltr.obj
 0001:000f2f60       ___CppXcptFilter           100f3f60 f   LIBCMTD:winxfltr.obj
 0001:000f2f90       __XcptFilter               100f3f90 f   LIBCMTD:winxfltr.obj
 0001:000f31c0       __flsbuf                   100f41c0 f   LIBCMTD:_flsbuf.obj
 0001:000f3480       __output_l                 100f4480 f   LIBCMTD:output.obj
 0001:000f48b0       _get_int_arg               100f58b0 f i LIBCMTD:output.obj
 0001:000f48d0       _get_int64_arg             100f58d0 f i LIBCMTD:output.obj
 0001:000f48f0       _get_short_arg             100f58f0 f i LIBCMTD:output.obj
 0001:000f4910       __vsnprintf_helper         100f5910 f   LIBCMTD:vsnprnc.obj
 0001:000f4ae0       __vsnprintf_c              100f5ae0 f   LIBCMTD:vsnprnc.obj
 0001:000f4b30       __vsnprintf_c_l            100f5b30 f   LIBCMTD:vsnprnc.obj
 0001:000f4b80       __vsprintf_s_l             100f5b80 f   LIBCMTD:vsnprnc.obj
 0001:000f4df0       _vsprintf_s                100f5df0 f   LIBCMTD:vsnprnc.obj
 0001:000f4e20       __vsnprintf_s_l            100f5e20 f   LIBCMTD:vsnprnc.obj
 0001:000f51c0       __vsnprintf_s              100f61c0 f   LIBCMTD:vsnprnc.obj
 0001:000f51f0       __vsprintf_p               100f61f0 f   LIBCMTD:vsnprnc.obj
 0001:000f5240       __vsprintf_p_l             100f6240 f   LIBCMTD:vsnprnc.obj
 0001:000f5290       __controlfp_s              100f6290 f   LIBCMTD:_contrlfp_.obj
 0001:000f5370       _abort                     100f6370 f   LIBCMTD:abort.obj
 0001:000f54b0       __set_abort_behavior       100f64b0 f   LIBCMTD:abort.obj
 0001:000f54e0       __FF_MSGBANNER             100f64e0 f   LIBCMTD:crt0msg.obj
 0001:000f5530       __NMSG_WRITE               100f6530 f   LIBCMTD:crt0msg.obj
 0001:000f57d0       __GET_RTERRMSG             100f67d0 f   LIBCMTD:crt0msg.obj
 0001:000f5820       ___getlocaleinfo           100f6820 f   LIBCMTD:inithelp.obj
 0001:000f5ac0       __initp_misc_purevirt      100f6ac0 f   LIBCMTD:inithelp.obj
 0001:000f5ad0       __CIlog_pentium4           100f6ad0 f   LIBCMTD:_log_pentium4_.obj
 0001:000f5ae8       __log_pentium4             100f6ae8     LIBCMTD:_log_pentium4_.obj
 0001:000f5d51       __fFEXP                    100f6d51     LIBCMTD:_87tran_.obj
 0001:000f5db8       __rtinfpopse               100f6db8     LIBCMTD:_87tran_.obj
 0001:000f5dba       __rtinfnpopse              100f6dba     LIBCMTD:_87tran_.obj
 0001:000f5dca       __fFLN                     100f6dca     LIBCMTD:_87tran_.obj
 0001:000f5e7f       __rtinfpop                 100f6e7f     LIBCMTD:_87tran_.obj
 0001:000f5e81       __rtinfnpop                100f6e81     LIBCMTD:_87tran_.obj
 0001:000f5e9e       __ffexpm1                  100f6e9e     LIBCMTD:_87tran_.obj
 0001:000f5f50       __trandisp1                100f6f50 f   LIBCMTD:_87disp_.obj
 0001:000f5fb7       __trandisp2                100f6fb7 f   LIBCMTD:_87disp_.obj
 0001:000f6043       __rttospopde               100f7043     LIBCMTD:_87disp_.obj
 0001:000f6048       __rttospop                 100f7048     LIBCMTD:_87disp_.obj
 0001:000f604a       __rtnospop                 100f704a     LIBCMTD:_87disp_.obj
 0001:000f604c       __rttosnpop                100f704c     LIBCMTD:_87disp_.obj
 0001:000f604d       __rtnospopde               100f704d     LIBCMTD:_87disp_.obj
 0001:000f6054       __rtzeropop                100f7054     LIBCMTD:_87disp_.obj
 0001:000f6056       __rtzeronpop               100f7056     LIBCMTD:_87disp_.obj
 0001:000f605b       __rtonepop                 100f705b     LIBCMTD:_87disp_.obj
 0001:000f605d       __rtonenpop                100f705d     LIBCMTD:_87disp_.obj
 0001:000f6062       __tosnan1                  100f7062     LIBCMTD:_87disp_.obj
 0001:000f608d       __nosnan2                  100f708d     LIBCMTD:_87disp_.obj
 0001:000f608f       __tosnan2                  100f708f     LIBCMTD:_87disp_.obj
 0001:000f60b7       __nan2                     100f70b7     LIBCMTD:_87disp_.obj
 0001:000f60f6       __rtindfpop                100f70f6     LIBCMTD:_87disp_.obj
 0001:000f60f8       __rtindfnpop               100f70f8     LIBCMTD:_87disp_.obj
 0001:000f6109       __rttosnpopde              100f7109     LIBCMTD:_87disp_.obj
 0001:000f6113       __rtchsifneg               100f7113     LIBCMTD:_87disp_.obj
 0001:000f6120       __twoToTOS                 100f7120 f   LIBCMTD:_common_.obj
 0001:000f6135       __load_CW                  100f7135 f   LIBCMTD:_common_.obj
 0001:000f614c       __convertTOStoQNaN         100f714c f   LIBCMTD:_common_.obj
 0001:000f6165       __fload_withFB             100f7165 f   LIBCMTD:_common_.obj
 0001:000f61a8       __checkTOS_withFB          100f71a8 f   LIBCMTD:_common_.obj
 0001:000f61be       __fast_exit                100f71be f   LIBCMTD:_common_.obj
 0001:000f61cb       __math_exit                100f71cb f   LIBCMTD:_common_.obj
 0001:000f61f5       __check_overflow_exit      100f71f5 f   LIBCMTD:_common_.obj
 0001:000f6209       __check_range_exit         100f7209 f   LIBCMTD:_common_.obj
 0001:000f62b0       __startTwoArgErrorHandling 100f72b0 f   LIBCMTD:_genexcep_.obj
 0001:000f62c7       __startOneArgErrorHandling 100f72c7 f   LIBCMTD:_genexcep_.obj
 0001:000f6310       __CIpow_pentium4           100f7310 f   LIBCMTD:_pow_pentium4_.obj
 0001:000f6329       __pow_pentium4             100f7329     LIBCMTD:_pow_pentium4_.obj
 0001:000f6e70       __powhlp                   100f7e70 f   LIBCMTD:_powhlp_.obj
 0001:000f7020       __d_inttype                100f8020 f   LIBCMTD:_powhlp_.obj
 0001:000f70b0       __VEC_memcpy               100f80b0 f   LIBCMTD:p4_memcpy.obj
 0001:000f7230       __validate_param_reuseA    100f8230 f   LIBCMTD:outputp.obj
 0001:000f74a0       __output_p_l               100f84a0 f   LIBCMTD:outputp.obj
 0001:000fb060       _get_crtdouble_arg         100fc060 f i LIBCMTD:outputp.obj
 0001:000fb080       _CallDestructExceptionObject 100fc080 f   LIBCMTD:calldtor.obj
 0001:000fb0c0       __global_unwind2           100fc0c0 f   LIBCMTD:exsup.obj
 0001:000fb125       __local_unwind2            100fc125 f   LIBCMTD:exsup.obj
 0001:000fb1a9       __abnormal_termination     100fc1a9 f   LIBCMTD:exsup.obj
 0001:000fb1cc       __NLG_Notify1              100fc1cc f   LIBCMTD:exsup.obj
 0001:000fb1d5       __NLG_Notify               100fc1d5 f   LIBCMTD:exsup.obj
 0001:000fb1ec       __NLG_Dispatch             100fc1ec     LIBCMTD:exsup.obj
 0001:000fb1ec       __NLG_Dispatch2            100fc1ec     LIBCMTD:exsup.obj
 0001:000fb1f4       __NLG_Call                 100fc1f4 f   LIBCMTD:exsup.obj
 0001:000fb1f6       __NLG_Return2              100fc1f6     LIBCMTD:exsup.obj
 0001:000fb200       __ValidateEH3RN            100fc200 f   LIBCMTD:eh3valid.obj
 0001:000fb830       __ValidateImageBase        100fc830 f   LIBCMTD:pesect.obj
 0001:000fb890       __FindPESection            100fc890 f   LIBCMTD:pesect.obj
 0001:000fb910       __IsNonwritableInCurrentImage 100fc910 f   LIBCMTD:pesect.obj
 0001:000fba30       __isalpha_l                100fca30 f i LIBCMTD:_ctype.obj
 0001:000fbac0       _isalpha                   100fcac0 f i LIBCMTD:_ctype.obj
 0001:000fbb00       __isupper_l                100fcb00 f i LIBCMTD:_ctype.obj
 0001:000fbb80       _isupper                   100fcb80 f i LIBCMTD:_ctype.obj
 0001:000fbbb0       __islower_l                100fcbb0 f i LIBCMTD:_ctype.obj
 0001:000fbc30       _islower                   100fcc30 f i LIBCMTD:_ctype.obj
 0001:000fbc60       __isdigit_l                100fcc60 f i LIBCMTD:_ctype.obj
 0001:000fbce0       _isdigit                   100fcce0 f i LIBCMTD:_ctype.obj
 0001:000fbd10       __isxdigit_l               100fcd10 f i LIBCMTD:_ctype.obj
 0001:000fbda0       _isxdigit                  100fcda0 f i LIBCMTD:_ctype.obj
 0001:000fbde0       __isspace_l                100fcde0 f i LIBCMTD:_ctype.obj
 0001:000fbe60       _isspace                   100fce60 f i LIBCMTD:_ctype.obj
 0001:000fbe90       __ispunct_l                100fce90 f i LIBCMTD:_ctype.obj
 0001:000fbf10       _ispunct                   100fcf10 f i LIBCMTD:_ctype.obj
 0001:000fbf40       __isalnum_l                100fcf40 f i LIBCMTD:_ctype.obj
 0001:000fbfd0       _isalnum                   100fcfd0 f i LIBCMTD:_ctype.obj
 0001:000fc010       __isprint_l                100fd010 f i LIBCMTD:_ctype.obj
 0001:000fc0a0       _isprint                   100fd0a0 f i LIBCMTD:_ctype.obj
 0001:000fc0e0       __isgraph_l                100fd0e0 f i LIBCMTD:_ctype.obj
 0001:000fc170       _isgraph                   100fd170 f i LIBCMTD:_ctype.obj
 0001:000fc1b0       __iscntrl_l                100fd1b0 f i LIBCMTD:_ctype.obj
 0001:000fc230       _iscntrl                   100fd230 f i LIBCMTD:_ctype.obj
 0001:000fc260       ___isascii                 100fd260 f i LIBCMTD:_ctype.obj
 0001:000fc280       ___toascii                 100fd280 f i LIBCMTD:_ctype.obj
 0001:000fc290       __iscsymf_l                100fd290 f i LIBCMTD:_ctype.obj
 0001:000fc2d0       ___iscsymf                 100fd2d0 f i LIBCMTD:_ctype.obj
 0001:000fc310       __iscsym_l                 100fd310 f i LIBCMTD:_ctype.obj
 0001:000fc350       ___iscsym                  100fd350 f i LIBCMTD:_ctype.obj
 0001:000fc390       __tolower                  100fd390 f   LIBCMTD:tolower.obj
 0001:000fc3a0       __tolower_l                100fd3a0 f   LIBCMTD:tolower.obj
 0001:000fc580       _tolower                   100fd580 f   LIBCMTD:tolower.obj
 0001:000fc5d0       ___updatetmbcinfo          100fd5d0 f   LIBCMTD:mbctype.obj
 0001:000fc6e0       __setmbcp                  100fd6e0 f   LIBCMTD:mbctype.obj
 0001:000fca90       __setmbcp_nolock           100fda90 f   LIBCMTD:mbctype.obj
 0001:000fd280       __getmbcp                  100fe280 f   LIBCMTD:mbctype.obj
 0001:000fd2f0       ___initmbctable            100fe2f0 f   LIBCMTD:mbctype.obj
 0001:000fd320       ____setlc_active_func      100fe320 f   LIBCMTD:setlocal.obj
 0001:000fd330       ____unguarded_readlc_active_add_func 100fe330 f   LIBCMTD:setlocal.obj
 0001:000fd340       ___freetlocinfo            100fe340 f   LIBCMTD:setlocal.obj
 0001:000fd620       ___addlocaleref            100fe620 f   LIBCMTD:setlocal.obj
 0001:000fd740       ___removelocaleref         100fe740 f   LIBCMTD:setlocal.obj
 0001:000fd870       ___updatetlocinfo          100fe870 f   LIBCMTD:setlocal.obj
 0001:000fd9c0       __configthreadlocale       100fe9c0 f   LIBCMTD:setlocal.obj
 0001:000fdad0       __locterm                  100fead0 f   LIBCMTD:setlocal.obj
 0001:000fdb70       __free_locale              100feb70 f   LIBCMTD:setlocal.obj
 0001:000fdcb0       ___free_locale             100fecb0 f   LIBCMTD:setlocal.obj
 0001:000fdcd0       __create_locale            100fecd0 f   LIBCMTD:setlocal.obj
 0001:000fdf00       ___create_locale           100fef00 f   LIBCMTD:setlocal.obj
 0001:000fdf20       __get_current_locale       100fef20 f   LIBCMTD:setlocal.obj
 0001:000fe040       ___get_current_locale      100ff040 f   LIBCMTD:setlocal.obj
 0001:000fe050       _setlocale                 100ff050 f   LIBCMTD:setlocal.obj
 0001:000fef60       __expandlocale             100fff60 f   LIBCMTD:setlocal.obj
 0001:000ff210       ___init_dummy              10100210 f   LIBCMTD:setlocal.obj
 0001:000ff220       __strcats                  10100220 f   LIBCMTD:setlocal.obj
 0001:000ff2a0       ___lc_strtolc              101002a0 f   LIBCMTD:setlocal.obj
 0001:000ff4a0       ___lc_lctostr              101004a0 f   LIBCMTD:setlocal.obj
 0001:000ff540       __atodbl_l                 10100540 f   LIBCMTD:atodbl.obj
 0001:000ff650       __atodbl                   10100650 f   LIBCMTD:atodbl.obj
 0001:000ff670       __atoldbl_l                10100670 f   LIBCMTD:atodbl.obj
 0001:000ff780       __atoldbl                  10100780 f   LIBCMTD:atodbl.obj
 0001:000ff7a0       __atoflt_l                 101007a0 f   LIBCMTD:atodbl.obj
 0001:000ff8b0       __atoflt                   101008b0 f   LIBCMTD:atodbl.obj
 0001:000ff8d0       __fptostr                  101008d0 f   LIBCMTD:_fptostr.obj
 0001:000ffb80       __fltout2                  10100b80 f   LIBCMTD:_cfout_.obj
 0001:000ffc30       ___dtold                   10100c30 f   LIBCMTD:_cfout_.obj
 0001:000ffd90       _memmove                   10100d90 f   LIBCMTD:memmove.obj
 0001:00100100       __set_output_format        10101100 f   LIBCMTD:outputformat.obj
 0001:00100180       __get_output_format        10101180 f   LIBCMTD:outputformat.obj
 0001:00100190       _strcpy_s                  10101190 f   LIBCMTD:strcpy_s.obj
 0001:00100470       __allrem                   10101470 f   LIBCMTD:llrem.obj
 0001:00100530       __alldiv                   10101530 f   LIBCMTD:lldiv.obj
 0001:001005e0       __aullshr                  101015e0 f   LIBCMTD:ullshr.obj
 0001:00100600       _strrchr                   10101600 f   LIBCMTD:strrchr.obj
 0001:00100630       __fptrap                   10101630 f   LIBCMTD:crt0fp.obj
 0001:00100650       __matherr                  10101650 f   LIBCMTD:_matherr_.obj
 0001:00100660       __frnd                     10101660 f   LIBCMTD:_frnd_.obj
 0001:00100680       __initp_misc_initcrit      10101680 f   LIBCMTD:initcrit.obj
 0001:00100690       ___crtInitCritSecAndSpinCount 10101690 f   LIBCMTD:initcrit.obj
 0001:00100740       __initp_heap_handler       10101740 f   LIBCMTD:handler.obj
 0001:00100750       ?_set_new_handler@@YAP6AHI@ZP6AHI@Z@Z 10101750 f   LIBCMTD:handler.obj
 0001:001007a0       ?_set_new_handler@@YAP6AHI@ZH@Z 101017a0 f   LIBCMTD:handler.obj
 0001:001007e0       ?_query_new_handler@@YAP6AHI@ZXZ 101017e0 f   LIBCMTD:handler.obj
 0001:00100800       __callnewh                 10101800 f   LIBCMTD:handler.obj
 0001:00100840       _V6_HeapAlloc              10101840 f   LIBCMTD:malloc.obj
 0001:001008e0       __malloc_base              101018e0 f   LIBCMTD:malloc.obj
 0001:00100970       __heap_alloc_base          10101970 f i LIBCMTD:malloc.obj
 0001:00100a30       __CrtSetReportHook2        10101a30 f   LIBCMTD:dbgrpt.obj
 0001:00100d50       __CrtDbgReport             10101d50 f   LIBCMTD:dbgrpt.obj
 0001:00100d90       __CrtDbgReportV            10101d90 f i LIBCMTD:dbgrpt.obj
 0001:00100dc0       ___crtMessageWindowA       10101dc0 f   LIBCMTD:dbgrpt.obj
 0001:001011c0       __CrtDefaultAllocHook      101021c0 f   LIBCMTD:dbghook.obj
 0001:001011d0       __crt_debugger_hook        101021d0 f   LIBCMTD:dbghook.obj
 0001:001011f0       __expand_base              101021f0 f   LIBCMTD:expand.obj
 0001:001014c0       __realloc_base             101024c0 f   LIBCMTD:realloc.obj
 0001:00101860       __free_base                10102860 f   LIBCMTD:free.obj
 0001:00101990       __heapchk                  10102990 f   LIBCMTD:heapchk.obj
 0001:00101a60       __heapset                  10102a60 f   LIBCMTD:heapchk.obj
 0001:00101a70       __get_sbh_threshold        10102a70 f   LIBCMTD:sbheap.obj
 0001:00101ac0       __set_sbh_threshold        10102ac0 f   LIBCMTD:sbheap.obj
 0001:00101c50       __set_amblksiz             10102c50 f   LIBCMTD:sbheap.obj
 0001:00101d60       __get_amblksiz             10102d60 f   LIBCMTD:sbheap.obj
 0001:00101e50       ___sbh_heap_init           10102e50 f   LIBCMTD:sbheap.obj
 0001:00101ec0       ___sbh_find_block          10102ec0 f   LIBCMTD:sbheap.obj
 0001:00101f20       ___sbh_verify_block        10102f20 f   LIBCMTD:sbheap.obj
 0001:00101f80       ___sbh_free_block          10102f80 f   LIBCMTD:sbheap.obj
 0001:00102540       ___sbh_alloc_block         10103540 f   LIBCMTD:sbheap.obj
 0001:00102a60       ___sbh_alloc_new_region    10103a60 f   LIBCMTD:sbheap.obj
 0001:00102b70       ___sbh_alloc_new_group     10103b70 f   LIBCMTD:sbheap.obj
 0001:00102d60       ___sbh_resize_block        10103d60 f   LIBCMTD:sbheap.obj
 0001:00103330       ___sbh_heapmin             10104330 f   LIBCMTD:sbheap.obj
 0001:00103460       ___sbh_heap_check          10104460 f   LIBCMTD:sbheap.obj
 0001:00103950       __chvalidator              10104950 f   LIBCMTD:isctype.obj
 0001:001039a0       __chvalidator_l            101049a0 f   LIBCMTD:isctype.obj
 0001:00103a50       __isctype_l                10104a50 f   LIBCMTD:isctype.obj
 0001:00103b70       __isctype                  10104b70 f   LIBCMTD:isctype.obj
 0001:00103bb0       __mbstowcs_l_helper        10104bb0 f   LIBCMTD:mbstowcs.obj
 0001:00103f00       __mbstowcs_l               10104f00 f   LIBCMTD:mbstowcs.obj
 0001:00103f20       _mbstowcs                  10104f20 f   LIBCMTD:mbstowcs.obj
 0001:00103f70       __mbstowcs_s_l             10104f70 f   LIBCMTD:mbstowcs.obj
 0001:001042f0       _mbstowcs_s                101052f0 f   LIBCMTD:mbstowcs.obj
 0001:00104320       _strcat_s                  10105320 f   LIBCMTD:strcat_s.obj
 0001:00104700       __itoa_s                   10105700 f   LIBCMTD:xtoas.obj
 0001:00104ad0       __ltoa_s                   10105ad0 f   LIBCMTD:xtoas.obj
 0001:00104b10       __ultoa_s                  10105b10 f   LIBCMTD:xtoas.obj
 0001:00104b30       __i64toa_s                 10105b30 f   LIBCMTD:xtoas.obj
 0001:00104f30       __ui64toa_s                10105f30 f   LIBCMTD:xtoas.obj
 0001:00104f50       __wcstombs_l_helper        10105f50 f   LIBCMTD:wcstombs.obj
 0001:00105440       __wcstombs_l               10106440 f   LIBCMTD:wcstombs.obj
 0001:00105460       _wcstombs                  10106460 f   LIBCMTD:wcstombs.obj
 0001:00105480       __wcstombs_s_l             10106480 f   LIBCMTD:wcstombs.obj
 0001:001057b0       _wcstombs_s                101067b0 f   LIBCMTD:wcstombs.obj
 0001:001057e0       _wcscat_s                  101067e0 f   LIBCMTD:wcscat_s.obj
 0001:00105bd0       __vswprintf_helper         10106bd0 f   LIBCMTD:vswprnc.obj
 0001:00105e00       __vswprintf_c              10106e00 f   LIBCMTD:vswprnc.obj
 0001:00105e50       __vswprintf_c_l            10106e50 f   LIBCMTD:vswprnc.obj
 0001:00105ea0       __vswprintf_s_l            10106ea0 f   LIBCMTD:vswprnc.obj
 0001:00106110       _vswprintf_s               10107110 f   LIBCMTD:vswprnc.obj
 0001:00106140       __vsnwprintf_s_l           10107140 f   LIBCMTD:vswprnc.obj
 0001:001064f0       __vsnwprintf_s             101074f0 f   LIBCMTD:vswprnc.obj
 0001:00106520       __vswprintf_p              10107520 f   LIBCMTD:vswprnc.obj
 0001:00106570       __vswprintf_p_l            10107570 f   LIBCMTD:vswprnc.obj
 0001:001065c0       __itow_s                   101075c0 f   LIBCMTD:xtows.obj
 0001:001069a0       __ltow_s                   101079a0 f   LIBCMTD:xtows.obj
 0001:001069e0       __ultow_s                  101079e0 f   LIBCMTD:xtows.obj
 0001:00106a00       __i64tow_s                 10107a00 f   LIBCMTD:xtows.obj
 0001:00106e20       __ui64tow_s                10107e20 f   LIBCMTD:xtows.obj
 0001:00106e40       __local_unwind4            10107e40 f   LIBCMTD:exsup4.obj
 0001:00106f16       __seh_longjmp_unwind4@4    10107f16 f   LIBCMTD:exsup4.obj
 0001:00106f32       @_EH4_CallFilterFunc@8     10107f32 f   LIBCMTD:exsup4.obj
 0001:00106f49       @_EH4_TransferToHandler@8  10107f49 f   LIBCMTD:exsup4.obj
 0001:00106f62       @_EH4_GlobalUnwind@4       10107f62 f   LIBCMTD:exsup4.obj
 0001:00106f7c       @_EH4_LocalUnwind@16       10107f7c f   LIBCMTD:exsup4.obj
 0001:00106fa0       __initp_eh_hooks           10107fa0 f   LIBCMTD:hooks.obj
 0001:00106fc0       ?terminate@@YAXXZ          10107fc0 f   LIBCMTD:hooks.obj
 0001:00107040       ?unexpected@@YAXXZ         10108040 f   LIBCMTD:hooks.obj
 0001:00107070       ?_inconsistency@@YAXXZ     10108070 f   LIBCMTD:hooks.obj
 0001:00107100       __initp_misc_rand_s        10108100 f   LIBCMTD:rand_s.obj
 0001:00107110       _rand_s                    10108110 f   LIBCMTD:rand_s.obj
 0001:00107330       __woutput_l                10108330 f   LIBCMTD:woutput.obj
 0001:00108500       __vswprintf_l              10109500 f   LIBCMTD:vswprint.obj
 0001:001086d0       __vswprintf                101096d0 f   LIBCMTD:vswprint.obj
 0001:001086f0       ___vswprintf_l             101096f0 f   LIBCMTD:vswprint.obj
 0001:00108710       __vscwprintf_helper        10109710 f   LIBCMTD:vswprint.obj
 0001:001087d0       __vscwprintf               101097d0 f   LIBCMTD:vswprint.obj
 0001:001087f0       __vscwprintf_l             101097f0 f   LIBCMTD:vswprint.obj
 0001:00108810       __vscwprintf_p             10109810 f   LIBCMTD:vswprint.obj
 0001:00108830       __vscwprintf_p_l           10109830 f   LIBCMTD:vswprint.obj
 0001:00108850       ___report_gsfailure        10109850 f   LIBCMTD:gs_report.obj
 0001:00108960       __ismbbkalnum_l            10109960 f   LIBCMTD:ismbbyte.obj
 0001:00108980       __ismbbkalnum              10109980 f   LIBCMTD:ismbbyte.obj
 0001:001089a0       __ismbbkprint_l            101099a0 f   LIBCMTD:ismbbyte.obj
 0001:001089c0       __ismbbkprint              101099c0 f   LIBCMTD:ismbbyte.obj
 0001:001089e0       __ismbbkpunct_l            101099e0 f   LIBCMTD:ismbbyte.obj
 0001:00108a00       __ismbbkpunct              10109a00 f   LIBCMTD:ismbbyte.obj
 0001:00108a20       __ismbbalnum_l             10109a20 f   LIBCMTD:ismbbyte.obj
 0001:00108a40       __ismbbalnum               10109a40 f   LIBCMTD:ismbbyte.obj
 0001:00108a60       __ismbbalpha_l             10109a60 f   LIBCMTD:ismbbyte.obj
 0001:00108a80       __ismbbalpha               10109a80 f   LIBCMTD:ismbbyte.obj
 0001:00108aa0       __ismbbgraph_l             10109aa0 f   LIBCMTD:ismbbyte.obj
 0001:00108ac0       __ismbbgraph               10109ac0 f   LIBCMTD:ismbbyte.obj
 0001:00108ae0       __ismbbprint_l             10109ae0 f   LIBCMTD:ismbbyte.obj
 0001:00108b00       __ismbbprint               10109b00 f   LIBCMTD:ismbbyte.obj
 0001:00108b20       __ismbbpunct_l             10109b20 f   LIBCMTD:ismbbyte.obj
 0001:00108b40       __ismbbpunct               10109b40 f   LIBCMTD:ismbbyte.obj
 0001:00108b60       __ismbblead_l              10109b60 f   LIBCMTD:ismbbyte.obj
 0001:00108b80       __ismbblead                10109b80 f   LIBCMTD:ismbbyte.obj
 0001:00108ba0       __ismbbtrail_l             10109ba0 f   LIBCMTD:ismbbyte.obj
 0001:00108bc0       __ismbbtrail               10109bc0 f   LIBCMTD:ismbbyte.obj
 0001:00108be0       __ismbbkana_l              10109be0 f   LIBCMTD:ismbbyte.obj
 0001:00108c50       __ismbbkana                10109c50 f   LIBCMTD:ismbbyte.obj
 0001:00108d40       __lseeki64                 10109d40 f   LIBCMTD:lseeki64.obj
 0001:00108f90       __lseeki64_nolock          10109f90 f   LIBCMTD:lseeki64.obj
 0001:00109080       __write                    1010a080 f   LIBCMTD:write.obj
 0001:001092b0       __write_nolock             1010a2b0 f   LIBCMTD:write.obj
 0001:00109df0       __getbuf                   1010adf0 f   LIBCMTD:_getbuf.obj
 0001:00109eb0       __isatty                   1010aeb0 f   LIBCMTD:isatty.obj
 0001:00109f90       ___iob_func                1010af90 f   LIBCMTD:_file.obj
 0001:00109fa0       ___initstdio               1010afa0 f   LIBCMTD:_file.obj
 0001:0010a0f0       ___endstdio                1010b0f0 f   LIBCMTD:_file.obj
 0001:0010a120       __lock_file                1010b120 f   LIBCMTD:_file.obj
 0001:0010a180       __lock_file2               1010b180 f   LIBCMTD:_file.obj
 0001:0010a1c0       __unlock_file              1010b1c0 f   LIBCMTD:_file.obj
 0001:0010a220       __unlock_file2             1010b220 f   LIBCMTD:_file.obj
 0001:0010a260       __fileno                   1010b260 f   LIBCMTD:fileno.obj
 0001:0010a2e0       _printf                    1010b2e0 f   LIBCMTD:printf.obj
 0001:0010a420       __printf_l                 1010b420 f   LIBCMTD:printf.obj
 0001:0010a450       __printf_s_l               1010b450 f   LIBCMTD:printf.obj
 0001:0010a480       _printf_s                  1010b480 f   LIBCMTD:printf.obj
 0001:0010a4b0       __printf_p_l               1010b4b0 f   LIBCMTD:printf.obj
 0001:0010a4e0       __printf_p                 1010b4e0 f   LIBCMTD:printf.obj
 0001:0010a510       __set_printf_count_output  1010b510 f   LIBCMTD:printf.obj
 0001:0010a560       __get_printf_count_output  1010b560 f   LIBCMTD:printf.obj
 0001:0010a580       __wctomb_s_l               1010b580 f   LIBCMTD:wctomb.obj
 0001:0010a880       _wctomb_s                  1010b880 f   LIBCMTD:wctomb.obj
 0001:0010a8b0       __wctomb_l                 1010b8b0 f   LIBCMTD:wctomb.obj
 0001:0010a930       _wctomb                    1010b930 f   LIBCMTD:wctomb.obj
 0001:0010a980       __isleadbyte_l             1010b980 f i LIBCMTD:_wctype.obj
 0001:0010a9d0       _isleadbyte                1010b9d0 f i LIBCMTD:_wctype.obj
 0001:0010a9f0       __iswalpha_l               1010b9f0 f i LIBCMTD:_wctype.obj
 0001:0010aa10       _iswalpha                  1010ba10 f i LIBCMTD:_wctype.obj
 0001:0010aa30       __iswupper_l               1010ba30 f i LIBCMTD:_wctype.obj
 0001:0010aa50       _iswupper                  1010ba50 f i LIBCMTD:_wctype.obj
 0001:0010aa70       __iswlower_l               1010ba70 f i LIBCMTD:_wctype.obj
 0001:0010aa90       _iswlower                  1010ba90 f i LIBCMTD:_wctype.obj
 0001:0010aab0       __iswdigit_l               1010bab0 f i LIBCMTD:_wctype.obj
 0001:0010aad0       _iswdigit                  1010bad0 f i LIBCMTD:_wctype.obj
 0001:0010aaf0       __iswxdigit_l              1010baf0 f i LIBCMTD:_wctype.obj
 0001:0010ab10       _iswxdigit                 1010bb10 f i LIBCMTD:_wctype.obj
 0001:0010ab30       __iswspace_l               1010bb30 f i LIBCMTD:_wctype.obj
 0001:0010ab50       _iswspace                  1010bb50 f i LIBCMTD:_wctype.obj
 0001:0010ab70       __iswpunct_l               1010bb70 f i LIBCMTD:_wctype.obj
 0001:0010ab90       _iswpunct                  1010bb90 f i LIBCMTD:_wctype.obj
 0001:0010abb0       __iswalnum_l               1010bbb0 f i LIBCMTD:_wctype.obj
 0001:0010abd0       _iswalnum                  1010bbd0 f i LIBCMTD:_wctype.obj
 0001:0010abf0       __iswprint_l               1010bbf0 f i LIBCMTD:_wctype.obj
 0001:0010ac10       _iswprint                  1010bc10 f i LIBCMTD:_wctype.obj
 0001:0010ac30       __iswgraph_l               1010bc30 f i LIBCMTD:_wctype.obj
 0001:0010ac50       _iswgraph                  1010bc50 f i LIBCMTD:_wctype.obj
 0001:0010ac70       __iswcntrl_l               1010bc70 f i LIBCMTD:_wctype.obj
 0001:0010ac90       _iswcntrl                  1010bc90 f i LIBCMTD:_wctype.obj
 0001:0010acb0       _iswascii                  1010bcb0 f i LIBCMTD:_wctype.obj
 0001:0010acd0       __iswcsym_l                1010bcd0 f i LIBCMTD:_wctype.obj
 0001:0010ad10       ___iswcsym                 1010bd10 f i LIBCMTD:_wctype.obj
 0001:0010ad50       __iswcsymf_l               1010bd50 f i LIBCMTD:_wctype.obj
 0001:0010ad90       ___iswcsymf                1010bd90 f i LIBCMTD:_wctype.obj
 0001:0010add0       __aulldiv                  1010bdd0 f   LIBCMTD:ulldiv.obj
 0001:0010ae40       __aullrem                  1010be40 f   LIBCMTD:ullrem.obj
 0001:0010aec0       __output_s_l               1010bec0 f   LIBCMTD:outputs.obj
 0001:0010c450       __set_error_mode           1010d450 f   LIBCMTD:errmode.obj
 0001:0010c510       ___set_app_type            1010d510 f   LIBCMTD:errmode.obj
 0001:0010c520       ___get_app_type            1010d520 f   LIBCMTD:errmode.obj
 0001:0010c530       ___crtMessageBoxA          1010d530 f   LIBCMTD:crtmbox.obj
 0001:0010c750       _strncpy_s                 1010d750 f   LIBCMTD:strncpy_s.obj
 0001:0010cb40       ___crtGetLocaleInfoW       1010db40 f   LIBCMTD:w_loc.obj
 0001:0010cbb0       ___crtGetLocaleInfoA       1010dbb0 f   LIBCMTD:a_loc.obj
 0001:0010cd90       __MarkAllocaS              1010dd90 f i LIBCMTD:a_loc.obj
 0001:0010cdc0       __freea                    1010ddc0 f i LIBCMTD:a_loc.obj
 0001:0010ce30       _fdiv_main_routine         1010de30 f   LIBCMTD:_adj_fdiv_.obj
 0001:0010cf47       __adj_fdiv_r               1010df47 f   LIBCMTD:_adj_fdiv_.obj
 0001:0010d3e6       __fdivp_sti_st             1010e3e6 f   LIBCMTD:_adj_fdiv_.obj
 0001:0010d3f9       __fdivrp_sti_st            1010e3f9 f   LIBCMTD:_adj_fdiv_.obj
 0001:0010d40c       __adj_fdiv_m32             1010e40c f   LIBCMTD:_adj_fdiv_.obj
 0001:0010d458       __adj_fdiv_m64             1010e458 f   LIBCMTD:_adj_fdiv_.obj
 0001:0010d4a4       __adj_fdiv_m16i            1010e4a4 f   LIBCMTD:_adj_fdiv_.obj
 0001:0010d4d8       __adj_fdiv_m32i            1010e4d8 f   LIBCMTD:_adj_fdiv_.obj
 0001:0010d50c       __adj_fdivr_m32            1010e50c f   LIBCMTD:_adj_fdiv_.obj
 0001:0010d558       __adj_fdivr_m64            1010e558 f   LIBCMTD:_adj_fdiv_.obj
 0001:0010d5a4       __adj_fdivr_m16i           1010e5a4 f   LIBCMTD:_adj_fdiv_.obj
 0001:0010d5d8       __adj_fdivr_m32i           1010e5d8 f   LIBCMTD:_adj_fdiv_.obj
 0001:0010d60c       __safe_fdiv                1010e60c f   LIBCMTD:_adj_fdiv_.obj
 0001:0010d621       __safe_fdivr               1010e621 f   LIBCMTD:_adj_fdiv_.obj
 0001:0010d636       __fprem_common             1010e636 f   LIBCMTD:_adj_fdiv_.obj
 0001:0010d83c       __adj_fprem                1010e83c f   LIBCMTD:_adj_fdiv_.obj
 0001:0010d8ee       __fprem1_common            1010e8ee f   LIBCMTD:_adj_fdiv_.obj
 0001:0010daf4       __adj_fprem1               1010eaf4 f   LIBCMTD:_adj_fdiv_.obj
 0001:0010dba9       __safe_fprem               1010eba9 f   LIBCMTD:_adj_fdiv_.obj
 0001:0010dbaf       __safe_fprem1              1010ebaf f   LIBCMTD:_adj_fdiv_.obj
 0001:0010dbb5       __adj_fpatan               1010ebb5 f   LIBCMTD:_adj_fdiv_.obj
 0001:0010dbb8       __adj_fptan                1010ebb8 f   LIBCMTD:_adj_fdiv_.obj
 0001:0010dbc0       __87except                 1010ebc0 f   LIBCMTD:_87except_.obj
 0001:0010dd70       _strtol                    1010ed70 f   LIBCMTD:strtol.obj
 0001:0010e2a0       __strtol_l                 1010f2a0 f   LIBCMTD:strtol.obj
 0001:0010e2d0       _strtoul                   1010f2d0 f   LIBCMTD:strtol.obj
 0001:0010e320       __strtoul_l                1010f320 f   LIBCMTD:strtol.obj
 0001:0010e350       ___crtLCMapStringA         1010f350 f   LIBCMTD:a_map.obj
 0001:0010e900       ?_JumpToContinuation@@YGXPAXPAUEHRegistrationNode@@@Z 1010f900 f   LIBCMTD:_trnsctrl_.obj
 0001:0010e940       ?_CallMemberFunction0@@YGXPAX0@Z 1010f940 f   LIBCMTD:_trnsctrl_.obj
 0001:0010e950       ?_CallMemberFunction1@@YGXPAX00@Z 1010f950 f   LIBCMTD:_trnsctrl_.obj
 0001:0010e960       ?_CallMemberFunction2@@YGXPAX00H@Z 1010f960 f   LIBCMTD:_trnsctrl_.obj
 0001:0010e970       ?_UnwindNestedFrames@@YGXPAUEHRegistrationNode@@PAUEHExceptionRecord@@@Z 1010f970 f   LIBCMTD:_trnsctrl_.obj
 0001:0010e9d0       ___CxxFrameHandler         1010f9d0 f   LIBCMTD:_trnsctrl_.obj
 0001:0010ea10       ___CxxFrameHandler3        1010fa10 f   LIBCMTD:_trnsctrl_.obj
 0001:0010ea50       ___CxxFrameHandler2        1010fa50 f   LIBCMTD:_trnsctrl_.obj
 0001:0010ea90       ___CxxLongjmpUnwind@4      1010fa90 f   LIBCMTD:_trnsctrl_.obj
 0001:0010eac0       ?_CallCatchBlock2@@YAPAXPAUEHRegistrationNode@@PBU_s_FuncInfo@@PAXHK@Z 1010fac0 f   LIBCMTD:_trnsctrl_.obj
 0001:0010eb80       ?_CallSETranslator@@YAHPAUEHExceptionRecord@@PAUEHRegistrationNode@@PAX2PBU_s_FuncInfo@@H1@Z 1010fb80 f   LIBCMTD:_trnsctrl_.obj
 0001:0010ed20       ?_GetRangeOfTrysToCheck@@YAPBU_s_TryBlockMapEntry@@PBU_s_FuncInfo@@HHPAI1@Z 1010fd20 f   LIBCMTD:_trnsctrl_.obj
 0001:0010eda0       __CreateFrameInfo          1010fda0 f   LIBCMTD:_trnsctrl_.obj
 0001:0010edd0       __IsExceptionObjectToBeDestroyed 1010fdd0 f   LIBCMTD:_trnsctrl_.obj
 0001:0010ee00       __FindAndUnlinkFrame       1010fe00 f   LIBCMTD:_trnsctrl_.obj
 0001:0010ee60       ___crtGetStringTypeA       1010fe60 f   LIBCMTD:a_str.obj
 0001:0010f0f0       ___pwctype_func            101100f0 f   LIBCMTD:ctype.obj
 0001:0010f100       ___pctype_func             10110100 f   LIBCMTD:ctype.obj
 0001:0010f150       ___init_time               10110150 f   LIBCMTD:inittime.obj
 0001:0010f870       ___free_lc_time            10110870 f   LIBCMTD:inittime.obj
 0001:0010fb80       ___init_numeric            10110b80 f   LIBCMTD:initnum.obj
 0001:0010fee0       ___free_lconv_num          10110ee0 f   LIBCMTD:initnum.obj
 0001:0010ff50       ___init_monetary           10110f50 f   LIBCMTD:initmon.obj
 0001:00110450       ___free_lconv_mon          10111450 f   LIBCMTD:initmon.obj
 0001:00110540       ___init_ctype              10111540 f   LIBCMTD:initctyp.obj
 0001:00110af0       ____mb_cur_max_func        10111af0 f   LIBCMTD:initctyp.obj
 0001:00110b40       ____mb_cur_max_l_func      10111b40 f   LIBCMTD:initctyp.obj
 0001:00110b70       ____lc_codepage_func       10111b70 f   LIBCMTD:initctyp.obj
 0001:00110bc0       ____lc_collate_cp_func     10111bc0 f   LIBCMTD:initctyp.obj
 0001:00110c10       ____lc_handle_func         10111c10 f   LIBCMTD:initctyp.obj
 0001:00110c60       ___init_collate            10111c60 f   LIBCMTD:initcoll.obj
 0001:00110c70       __Getdays_l                10111c70 f   LIBCMTD:strftime.obj
 0001:00110e30       __Getdays                  10111e30 f   LIBCMTD:strftime.obj
 0001:00110e50       __Getmonths_l              10111e50 f   LIBCMTD:strftime.obj
 0001:00111010       __Getmonths                10112010 f   LIBCMTD:strftime.obj
 0001:00111030       __Gettnames_l              10112030 f   LIBCMTD:strftime.obj
 0001:001115a0       __Gettnames                101125a0 f   LIBCMTD:strftime.obj
 0001:001115c0       __strftime_l               101125c0 f   LIBCMTD:strftime.obj
 0001:001115f0       _strftime                  101125f0 f   LIBCMTD:strftime.obj
 0001:00111620       __Strftime                 10112620 f   LIBCMTD:strftime.obj
 0001:00111650       __Strftime_l               10112650 f   LIBCMTD:strftime.obj
 0001:00113460       _localeconv                10114460 f   LIBCMTD:lconv.obj
 0001:001134b0       _strcmp                    101144b0 f   LIBCMTD:strcmp.obj
 0001:00113540       _strcspn                   10114540 f   LIBCMTD:strcspn.obj
 0001:00113590       _strncmp                   10114590 f   LIBCMTD:strncmp.obj
 0001:00113710       _strpbrk                   10114710 f   LIBCMTD:strpbrk.obj
 0001:00113750       _memcmp                    10114750 f   LIBCMTD:memcmp.obj
 0001:001141c0       ___get_qualified_locale    101151c0 f   LIBCMTD:getqloc.obj
 0001:00115060       __ld12tod                  10116060 f   LIBCMTD:_intrncvt_.obj
 0001:00115080       __ld12cvt                  10116080 f i LIBCMTD:_intrncvt_.obj
 0001:001152d0       __RoundMan                 101162d0 f i LIBCMTD:_intrncvt_.obj
 0001:001153b0       __ZeroTail                 101163b0 f i LIBCMTD:_intrncvt_.obj
 0001:00115440       __IncMan                   10116440 f i LIBCMTD:_intrncvt_.obj
 0001:001154f0       ___addl                    101164f0 f i LIBCMTD:_intrncvt_.obj
 0001:00115530       __CopyMan                  10116530 f i LIBCMTD:_intrncvt_.obj
 0001:00115580       __FillZeroMan              10116580 f i LIBCMTD:_intrncvt_.obj
 0001:001155c0       __IsZeroMan                101165c0 f i LIBCMTD:_intrncvt_.obj
 0001:00115600       __ShrMan                   10116600 f i LIBCMTD:_intrncvt_.obj
 0001:001156f0       __ld12tof                  101166f0 f   LIBCMTD:_intrncvt_.obj
 0001:00115710       __ld12told                 10116710 f   LIBCMTD:_intrncvt_.obj
 0001:001157c0       ___strgtold12_l            101167c0 f   LIBCMTD:_strgtold_.obj
 0001:00116270       ___multtenpow12            10117270 f i LIBCMTD:_strgtold_.obj
 0001:00116350       ___ld12mul                 10117350 f i LIBCMTD:_strgtold_.obj
 0001:00116750       ___shl_12                  10117750 f i LIBCMTD:_strgtold_.obj
 0001:001167c0       ___shr_12                  101177c0 f i LIBCMTD:_strgtold_.obj
 0001:00116830       ___STRINGTOLD_L            10117830 f   LIBCMTD:_strgtold_.obj
 0001:001168a0       _$I10_OUTPUT               101178a0 f   LIBCMTD:_x10fout_.obj
 0001:00116e50       ___add_12                  10117e50 f i LIBCMTD:_x10fout_.obj
 0001:00116f00       __woutput_s_l              10117f00 f   LIBCMTD:woutputs.obj
 0001:00118230       __validate_param_reuseW    10119230 f   LIBCMTD:woutputp.obj
 0001:001184a0       __woutput_p_l              101194a0 f   LIBCMTD:woutputp.obj
 0001:0011bc00       __mbtowc_l                 1011cc00 f   LIBCMTD:mbtowc.obj
 0001:0011be20       _mbtowc                    1011ce20 f   LIBCMTD:mbtowc.obj
 0001:0011be40       _fputwc                    1011ce40 f   LIBCMTD:fputwc.obj
 0001:0011bf40       __fputwc_nolock            1011cf40 f   LIBCMTD:fputwc.obj
 0001:0011c230       _putwc                     1011d230 f   LIBCMTD:fputwc.obj
 0001:0011c250       __alloc_osfhnd             1011d250 f   LIBCMTD:osfinfo.obj
 0001:0011c500       __set_osfhnd               1011d500 f   LIBCMTD:osfinfo.obj
 0001:0011c5d0       __free_osfhnd              1011d5d0 f   LIBCMTD:osfinfo.obj
 0001:0011c6c0       __get_osfhandle            1011d6c0 f   LIBCMTD:osfinfo.obj
 0001:0011c830       __open_osfhandle           1011d830 f   LIBCMTD:osfinfo.obj
 0001:0011ca60       ___lock_fhandle            1011da60 f   LIBCMTD:osfinfo.obj
 0001:0011cb60       __unlock_fhandle           1011db60 f   LIBCMTD:osfinfo.obj
 0001:0011cb90       __putwch                   1011db90 f   LIBCMTD:putwch.obj
 0001:0011cc20       __putwch_nolock            1011dc20 f   LIBCMTD:putwch.obj
 0001:0011cd20       __cputws                   1011dd20 f   LIBCMTD:putwch.obj
 0001:0011ce70       _DebuggerKnownHandle       1011de70 f   LIBCMTD:_error_.obj
 0001:0011cf30       ?_RTC_Failure@@YAXPAXH@Z   1011df30 f   LIBCMTD:_error_.obj
 0001:0011d240       ?_RTC_StackFailure@@YAXPAXPBD@Z 1011e240 f   LIBCMTD:_error_.obj
 0001:0011d340       ?_RTC_AllocaFailure@@YAXPAXPAU_RTC_ALLOCA_NODE@@H@Z 1011e340 f   LIBCMTD:_error_.obj
 0001:0011d4f0       __RTC_UninitUse            1011e4f0 f   LIBCMTD:_error_.obj
 0001:0011d5e0       __fcloseall                1011e5e0 f   LIBCMTD:closeall.obj
 0001:0011d710       _fflush                    1011e710 f   LIBCMTD:fflush.obj
 0001:0011d7b0       __fflush_nolock            1011e7b0 f   LIBCMTD:fflush.obj
 0001:0011d810       __flush                    1011e810 f   LIBCMTD:fflush.obj
 0001:0011d8d0       __flushall                 1011e8d0 f   LIBCMTD:fflush.obj
 0001:0011daa0       __stbuf                    1011eaa0 f   LIBCMTD:_sftbuf.obj
 0001:0011dc00       __ftbuf                    1011ec00 f   LIBCMTD:_sftbuf.obj
 0001:0011dc90       _vprintf_helper            1011ec90 f   LIBCMTD:vprintf.obj
 0001:0011ddb0       __vprintf_l                1011edb0 f   LIBCMTD:vprintf.obj
 0001:0011ddd0       __vprintf_s_l              1011edd0 f   LIBCMTD:vprintf.obj
 0001:0011ddf0       __vprintf_p_l              1011edf0 f   LIBCMTD:vprintf.obj
 0001:0011de10       _vprintf                   1011ee10 f   LIBCMTD:vprintf.obj
 0001:0011de30       _vprintf_s                 1011ee30 f   LIBCMTD:vprintf.obj
 0001:0011de50       __vprintf_p                1011ee50 f   LIBCMTD:vprintf.obj
 0001:0011de70       __iswctype_l               1011ee70 f   LIBCMTD:iswctype.obj
 0001:0011df20       _iswctype                  1011ef20 f   LIBCMTD:iswctype.obj
 0001:0011dfb0       _is_wctype                 1011efb0 f   LIBCMTD:iswctype.obj
 0001:0011dfd0       ___ansicp                  1011efd0 f   LIBCMTD:convrtcp.obj
 0001:0011e030       ___convertcp               1011f030 f   LIBCMTD:convrtcp.obj
 0001:0011e280       ___InternalCxxFrameHandler 1011f280 f   LIBCMTD:frame.obj
 0001:0011e880       ??0bad_exception@std@@QAE@PBD@Z 1011f880 f i LIBCMTD:frame.obj
 0001:0011e8b0       ??1bad_exception@std@@UAE@XZ 1011f8b0 f i LIBCMTD:frame.obj
 0001:0011e8d0       ??_Gbad_exception@std@@UAEPAXI@Z 1011f8d0 f i LIBCMTD:frame.obj
 0001:0011e8d0       ??_Ebad_exception@std@@UAEPAXI@Z 1011f8d0 f i LIBCMTD:frame.obj
 0001:0011e900       ??0bad_exception@std@@QAE@ABV01@@Z 1011f900 f i LIBCMTD:frame.obj
 0001:0011eab0       ___TypeMatch               1011fab0 f   LIBCMTD:frame.obj
 0001:0011eb60       ___FrameUnwindFilter       1011fb60 f   LIBCMTD:frame.obj
 0001:0011ebe0       ___FrameUnwindToState      1011fbe0 f   LIBCMTD:frame.obj
 0001:0011f120       ___BuildCatchObjectHelper  10120120 f   LIBCMTD:frame.obj
 0001:0011f390       ___BuildCatchObject        10120390 f   LIBCMTD:frame.obj
 0001:0011f4a0       ___DestructExceptionObject 101204a0 f   LIBCMTD:frame.obj
 0001:0011f550       ___AdjustPointer           10120550 f   LIBCMTD:frame.obj
 0001:0011f5a0       ?__uncaught_exception@@YA_NXZ 101205a0 f   LIBCMTD:frame.obj
 0001:0011f5c0       ___CxxExceptionFilter      101205c0 f   LIBCMTD:frame.obj
 0001:0011f7b0       ___CxxRegisterExceptionObject 101207b0 f   LIBCMTD:frame.obj
 0001:0011f8e0       ___CxxDetectRethrow        101208e0 f   LIBCMTD:frame.obj
 0001:0011f970       ___CxxUnregisterExceptionObject 10120970 f   LIBCMTD:frame.obj
 0001:0011faf0       ___CxxQueryExceptionSize   10120af0 f   LIBCMTD:frame.obj
 0001:0011fb00       ___CxxCallUnwindDtor       10120b00 f   LIBCMTD:frame.obj
 0001:0011fb80       ___CxxCallUnwindDelDtor    10120b80 f   LIBCMTD:frame.obj
 0001:0011fc00       ___CxxCallUnwindStdDelDtor 10120c00 f   LIBCMTD:frame.obj
 0001:0011fc80       ___CxxCallUnwindVecDtor    10120c80 f   LIBCMTD:frame.obj
 0001:0011feb0       ?_is_exception_typeof@@YAHABVtype_info@@PAU_EXCEPTION_POINTERS@@@Z 10120eb0 f   LIBCMTD:frame.obj
 0001:0011ff90       __CallSettingFrame@12      10120f90 f   LIBCMTD:lowhelpr.obj
 0001:0011ffb7       __NLG_Return               10120fb7     LIBCMTD:lowhelpr.obj
 0001:0011ffe0       __get_daylight             10120fe0 f   LIBCMTD:timeset.obj
 0001:00120060       __get_dstbias              10121060 f   LIBCMTD:timeset.obj
 0001:001200e0       __get_timezone             101210e0 f   LIBCMTD:timeset.obj
 0001:00120160       __get_tzname               10121160 f   LIBCMTD:timeset.obj
 0001:00120330       ___daylight                10121330 f   LIBCMTD:timeset.obj
 0001:00120340       ___dstbias                 10121340 f   LIBCMTD:timeset.obj
 0001:00120350       ___timezone                10121350 f   LIBCMTD:timeset.obj
 0001:00120360       ___tzname                  10121360 f   LIBCMTD:timeset.obj
 0001:00120370       ___tzset                   10121370 f   LIBCMTD:tzset.obj
 0001:00120410       __tzset                    10121410 f   LIBCMTD:tzset.obj
 0001:001209c0       __set_daylight             101219c0 f i LIBCMTD:tzset.obj
 0001:001209e0       __set_dstbias              101219e0 f i LIBCMTD:tzset.obj
 0001:00120a00       __set_timezone             10121a00 f i LIBCMTD:tzset.obj
 0001:00120a20       __isindst                  10121a20 f   LIBCMTD:tzset.obj
 0001:001210d0       __stricmp_l                101220d0 f   LIBCMTD:stricmp.obj
 0001:00121280       ___ascii_stricmp           10122280 f   LIBCMTD:stricmp.obj
 0001:00121300       __stricmp                  10122300 f   LIBCMTD:stricmp.obj
 0001:00121410       __strnicmp_l               10122410 f   LIBCMTD:strnicmp.obj
 0001:00121650       __strnicmp                 10122650 f   LIBCMTD:strnicmp.obj
 0001:001217e0       _atol                      101227e0 f   LIBCMTD:atox.obj
 0001:00121800       __atol_l                   10122800 f   LIBCMTD:atox.obj
 0001:00121820       _atoi                      10122820 f   LIBCMTD:atox.obj
 0001:00121840       __atoi_l                   10122840 f   LIBCMTD:atox.obj
 0001:00121860       __atoi64                   10122860 f   LIBCMTD:atox.obj
 0001:00121880       __atoi64_l                 10122880 f   LIBCMTD:atox.obj
 0001:001218a0       ___mtold12                 101228a0 f   LIBCMTD:_mantold_.obj
 0001:00121a00       _wcstol                    10122a00 f   LIBCMTD:wcstol.obj
 0001:00121e80       __wcstol_l                 10122e80 f   LIBCMTD:wcstol.obj
 0001:00121eb0       _wcstoul                   10122eb0 f   LIBCMTD:wcstol.obj
 0001:00121f00       __wcstoul_l                10122f00 f   LIBCMTD:wcstol.obj
 0001:00121f30       __flswbuf                  10122f30 f   LIBCMTD:_flswbuf.obj
 0001:00122210       ___initconin               10123210 f   LIBCMTD:initcon.obj
 0001:00122240       ___initconout              10123240 f   LIBCMTD:initcon.obj
 0001:00122270       ___termcon                 10123270 f   LIBCMTD:initcon.obj
 0001:001222c0       ?_RTC_GetSrcLine@@YAHPAEPA_WKPAH1K@Z 101232c0 f   LIBCMTD:_pdblkup_.obj
 0001:00122760       __RTC_NumErrors            10123760 f   LIBCMTD:_userapi_.obj
 0001:00122770       __RTC_GetErrDesc           10123770 f   LIBCMTD:_userapi_.obj
 0001:00122790       __RTC_SetErrorType         10123790 f   LIBCMTD:_userapi_.obj
 0001:001227c0       __RTC_SetErrorFunc         101237c0 f   LIBCMTD:_userapi_.obj
 0001:001227e0       __RTC_SetErrorFuncW        101237e0 f   LIBCMTD:_userapi_.obj
 0001:00122800       ?_RTC_GetErrorFunc@@YAP6AHHPBDH00ZZPBX@Z 10123800 f   LIBCMTD:_userapi_.obj
 0001:00122810       ?_RTC_GetErrorFuncW@@YAP6AHHPB_WH00ZZPBX@Z 10123810 f   LIBCMTD:_userapi_.obj
 0001:00122820       _fclose                    10123820 f   LIBCMTD:fclose.obj
 0001:00122930       __fclose_nolock            10123930 f   LIBCMTD:fclose.obj
 0001:00122a30       __commit                   10123a30 f   LIBCMTD:commit.obj
 0001:00122c50       ___crtGetStringTypeW       10123c50 f   LIBCMTD:w_str.obj
 0001:00122cd0       ?_ValidateRead@@YAHPBXI@Z  10123cd0 f   LIBCMTD:validate.obj
 0001:00122d00       ?_ValidateWrite@@YAHPAXI@Z 10123d00 f   LIBCMTD:validate.obj
 0001:00122d30       ?_ValidateExecute@@YAHP6GHXZ@Z 10123d30 f   LIBCMTD:validate.obj
 0001:00122d60       __CxxThrowException@8      10123d60 f   LIBCMTD:throw.obj
 0001:00122dc0       ?name@type_info@@QBEPBDPAU__type_info_node@@@Z 10123dc0 f   LIBCMTD:typinfo.obj
 0001:00122de0       ??1type_info@@UAE@XZ       10123de0 f   LIBCMTD:typinfo.obj
 0001:00122e10       ??_Gtype_info@@UAEPAXI@Z   10123e10 f i LIBCMTD:typinfo.obj
 0001:00122e10       ??_Etype_info@@UAEPAXI@Z   10123e10 f i LIBCMTD:typinfo.obj
 0001:00122e40       ?_name_internal_method@type_info@@QBEPBDPAU__type_info_node@@@Z 10123e40 f   LIBCMTD:typinfo.obj
 0001:00122e60       ?_type_info_dtor_internal_method@type_info@@QAEXXZ 10123e60 f   LIBCMTD:typinfo.obj
 0001:00122e80       ??8type_info@@QBE_NABV0@@Z 10123e80 f   LIBCMTD:typinfo.obj
 0001:00122eb0       ??9type_info@@QBE_NABV0@@Z 10123eb0 f   LIBCMTD:typinfo.obj
 0001:00122ee0       ?before@type_info@@QBEHABV1@@Z 10123ee0 f   LIBCMTD:typinfo.obj
 0001:00122f10       ?raw_name@type_info@@QBEPBDXZ 10123f10 f   LIBCMTD:typinfo.obj
 0001:00122f30       ??0type_info@@AAE@ABV0@@Z  10123f30 f   LIBCMTD:typinfo.obj
 0001:00122f50       ??4type_info@@AAEAAV0@ABV0@@Z 10123f50 f   LIBCMTD:typinfo.obj
 0001:00122f70       ??0exception@std@@QAE@XZ   10123f70 f   LIBCMTD:stdexcpt.obj
 0001:00122fa0       ??_Gexception@std@@UAEPAXI@Z 10123fa0 f i LIBCMTD:stdexcpt.obj
 0001:00122fa0       ??_Eexception@std@@UAEPAXI@Z 10123fa0 f i LIBCMTD:stdexcpt.obj
 0001:00122fd0       ??0exception@std@@QAE@ABQBD@Z 10123fd0 f   LIBCMTD:stdexcpt.obj
 0001:00123060       ??0exception@std@@QAE@ABQBDH@Z 10124060 f   LIBCMTD:stdexcpt.obj
 0001:00123090       ??0exception@std@@QAE@ABV01@@Z 10124090 f   LIBCMTD:stdexcpt.obj
 0001:00123130       ??4exception@std@@QAEAAV01@ABV01@@Z 10124130 f   LIBCMTD:stdexcpt.obj
 0001:001231e0       ??1exception@std@@UAE@XZ   101241e0 f   LIBCMTD:stdexcpt.obj
 0001:00123210       ?what@exception@std@@UBEPBDXZ 10124210 f   LIBCMTD:stdexcpt.obj
 0001:00123240       ??0bad_cast@std@@QAE@PBD@Z 10124240 f   LIBCMTD:stdexcpt.obj
 0001:00123270       ??_Gbad_cast@std@@UAEPAXI@Z 10124270 f i LIBCMTD:stdexcpt.obj
 0001:00123270       ??_Ebad_cast@std@@UAEPAXI@Z 10124270 f i LIBCMTD:stdexcpt.obj
 0001:001232a0       ??0bad_cast@std@@QAE@ABV01@@Z 101242a0 f   LIBCMTD:stdexcpt.obj
 0001:001232d0       ??1bad_cast@std@@UAE@XZ    101242d0 f   LIBCMTD:stdexcpt.obj
 0001:001232f0       ??0bad_typeid@std@@QAE@PBD@Z 101242f0 f   LIBCMTD:stdexcpt.obj
 0001:00123320       ??_Gbad_typeid@std@@UAEPAXI@Z 10124320 f i LIBCMTD:stdexcpt.obj
 0001:00123320       ??_Ebad_typeid@std@@UAEPAXI@Z 10124320 f i LIBCMTD:stdexcpt.obj
 0001:00123350       ??0bad_typeid@std@@QAE@ABV01@@Z 10124350 f   LIBCMTD:stdexcpt.obj
 0001:00123380       ??1bad_typeid@std@@UAE@XZ  10124380 f   LIBCMTD:stdexcpt.obj
 0001:001233a0       ??0__non_rtti_object@std@@QAE@PBD@Z 101243a0 f   LIBCMTD:stdexcpt.obj
 0001:001233d0       ??_G__non_rtti_object@std@@UAEPAXI@Z 101243d0 f i LIBCMTD:stdexcpt.obj
 0001:001233d0       ??_E__non_rtti_object@std@@UAEPAXI@Z 101243d0 f i LIBCMTD:stdexcpt.obj
 0001:00123400       ??0__non_rtti_object@std@@QAE@ABV01@@Z 10124400 f   LIBCMTD:stdexcpt.obj
 0001:00123430       ??1__non_rtti_object@std@@UAE@XZ 10124430 f   LIBCMTD:stdexcpt.obj
 0001:00123450       _getenv                    10124450 f   LIBCMTD:getenv.obj
 0001:001235a0       __getenv_helper_nolock     101245a0 f   LIBCMTD:getenv.obj
 0001:001236c0       _getenv_s                  101246c0 f   LIBCMTD:getenv.obj
 0001:001238f0       __dupenv_s                 101248f0 f   LIBCMTD:getenv.obj
 0001:00123920       __dupenv_s_dbg             10124920 f   LIBCMTD:getenv.obj
 0001:00123b70       ___ascii_strnicmp          10124b70 f   LIBCMTD:_strnicm.obj
 0001:00123be0       __strtoi64                 10124be0 f   LIBCMTD:strtoq.obj
 0001:00124150       __strtoi64_l               10125150 f   LIBCMTD:strtoq.obj
 0001:00124180       __strtoui64                10125180 f   LIBCMTD:strtoq.obj
 0001:001241d0       __strtoui64_l              101251d0 f   LIBCMTD:strtoq.obj
 0001:00124200       __wchartodigit             10125200 f   LIBCMTD:wchtodig.obj
 0001:00124530       __close                    10125530 f   LIBCMTD:close.obj
 0001:00124740       __close_nolock             10125740 f   LIBCMTD:close.obj
 0001:00124810       __freebuf                  10125810 f   LIBCMTD:_freebuf.obj
 0001:001248a0       ?_Type_info_dtor@type_info@@CAXPAV1@@Z 101258a0 f   LIBCMTD:typname.obj
 0001:001249b0       ?_Name_base@type_info@@CAPBDPBV1@PAU__type_info_node@@@Z 101259b0 f   LIBCMTD:typname.obj
 0001:00124b50       ?_Type_info_dtor_internal@type_info@@CAXPAV1@@Z 10125b50 f   LIBCMTD:typname.obj
 0001:00124c60       ___unDNameHelper           10125c60 f   LIBCMTD:typname.obj
 0001:00124ca0       ?_Name_base_internal@type_info@@CAPBDPBV1@PAU__type_info_node@@@Z 10125ca0 f   LIBCMTD:typname.obj
 0001:00124e60       ___clean_type_info_names_internal 10125e60 f   LIBCMTD:typname.obj
 0001:00124f20       _strnlen                   10125f20 f   LIBCMTD:strlen_s.obj
 0001:00124f60       __mbsnbicoll_l             10125f60 f   LIBCMTD:mbsnbico.obj
 0001:001251a0       __mbsnbicoll               101261a0 f   LIBCMTD:mbsnbico.obj
 0001:001251c0       ___wtomb_environ           101261c0 f   LIBCMTD:wtombenv.obj
 0001:001252b0       ___unDName                 101262b0 f   LIBCMTD:undname.obj
 0001:00125390       ?Constructor@HeapManager@@QAEXP6APAXI@ZP6AXPAX@Z@Z 10126390 f i LIBCMTD:undname.obj
 0001:001253d0       ?Destructor@HeapManager@@QAEXXZ 101263d0 f i LIBCMTD:undname.obj
 0001:00125420       ___unDNameEx               10126420 f   LIBCMTD:undname.obj
 0001:00125500       ??0UnDecorator@@QAE@PADPBDHP6APADJ@ZK@Z 10126500 f i LIBCMTD:undname.obj
 0001:001255a0       ??BUnDecorator@@QAEPADXZ   101265a0 f i LIBCMTD:undname.obj
 0001:001257d0       ?dbGetString@DName@@QBEPADXZ 101267d0 f   LIBCMTD:undname.obj
 0001:00125800       ?getDecoratedName@UnDecorator@@CA?AVDName@@XZ 10126800 f   LIBCMTD:undname.obj
 0001:00125b10       ?getSymbolName@UnDecorator@@CA?AVDName@@XZ 10126b10 f i LIBCMTD:undname.obj
 0001:00125b90       ?getZName@UnDecorator@@CA?AVDName@@_N0@Z 10126b90 f   LIBCMTD:undname.obj
 0001:00125e30       ?getOperatorName@UnDecorator@@CA?AVDName@@_NPA_N@Z 10126e30 f i LIBCMTD:undname.obj
 0001:001267a0       ?getStringEncoding@UnDecorator@@CA?AVDName@@PADH@Z 101277a0 f   LIBCMTD:undname.obj
 0001:001268a0       ?getScope@UnDecorator@@CA?AVDName@@XZ 101278a0 f   LIBCMTD:undname.obj
 0001:00126c80       ?getSignedDimension@UnDecorator@@CA?AVDName@@XZ 10127c80 f   LIBCMTD:undname.obj
 0001:00126d00       ?getDimension@UnDecorator@@CA?AVDName@@_N@Z 10127d00 f   LIBCMTD:undname.obj
 0001:00126fb0       ?getNumberOfDimensions@UnDecorator@@CAHXZ 10127fb0 f   LIBCMTD:undname.obj
 0001:001270b0       ?getTemplateName@UnDecorator@@CA?AVDName@@_N@Z 101280b0 f   LIBCMTD:undname.obj
 0001:00127270       ?getTemplateArgumentList@UnDecorator@@CA?AVDName@@XZ 10128270 f   LIBCMTD:undname.obj
 0001:001274f0       ?getTemplateConstant@UnDecorator@@CA?AVDName@@XZ 101284f0 f   LIBCMTD:undname.obj
 0001:00127980       ?composeDeclaration@UnDecorator@@CA?AVDName@@ABV2@@Z 10128980 f i LIBCMTD:undname.obj
 0001:00128f80       ?getTypeEncoding@UnDecorator@@CAHXZ 10129f80 f i LIBCMTD:undname.obj
 0001:001299c0       ?getBasedType@UnDecorator@@CA?AVDName@@XZ 1012a9c0 f   LIBCMTD:undname.obj
 0001:00129a80       ?getScopedName@UnDecorator@@CA?AVDName@@XZ 1012aa80 f   LIBCMTD:undname.obj
 0001:00129ba0       ?getCallingConvention@UnDecorator@@CA?AVDName@@XZ 1012aba0 f   LIBCMTD:undname.obj
 0001:00129d00       ?getReturnType@UnDecorator@@CA?AVDName@@PAV2@@Z 1012ad00 f   LIBCMTD:undname.obj
 0001:00129d50       ?getDataType@UnDecorator@@CA?AVDName@@PAV2@@Z 1012ad50 f   LIBCMTD:undname.obj
 0001:00129e60       ?getPrimaryDataType@UnDecorator@@CA?AVDName@@ABV2@@Z 1012ae60 f   LIBCMTD:undname.obj
 0001:0012a110       ?getArgumentTypes@UnDecorator@@CA?AVDName@@XZ 1012b110 f   LIBCMTD:undname.obj
 0001:0012a270       ?getArgumentList@UnDecorator@@CA?AVDName@@XZ 1012b270 f   LIBCMTD:undname.obj
 0001:0012a3c0       ?getThrowTypes@UnDecorator@@CA?AVDName@@XZ 1012b3c0 f   LIBCMTD:undname.obj
 0001:0012a470       ?getBasicDataType@UnDecorator@@CA?AVDName@@ABV2@@Z 1012b470 f   LIBCMTD:undname.obj
 0001:0012aa20       ?getECSUDataType@UnDecorator@@CA?AVDName@@XZ 1012ba20 f   LIBCMTD:undname.obj
 0001:0012abf0       ?getECSUName@UnDecorator@@CA?AVDName@@XZ 1012bbf0 f i LIBCMTD:undname.obj
 0001:0012ac10       ?getEnumType@UnDecorator@@CA?AVDName@@XZ 1012bc10 f i LIBCMTD:undname.obj
 0001:0012ad60       ?getFunctionIndirectType@UnDecorator@@CA?AVDName@@ABV2@@Z 1012bd60 f   LIBCMTD:undname.obj
 0001:0012b1a0       ?getPtrRefType@UnDecorator@@CA?AVDName@@ABV2@0D@Z 1012c1a0 f   LIBCMTD:undname.obj
 0001:0012b300       ?getExtendedDataIndirectType@UnDecorator@@CA?AVDName@@AADAA_NH@Z 1012c300 f   LIBCMTD:undname.obj
 0001:0012b510       ?getDataIndirectType@UnDecorator@@CA?AVDName@@ABV2@D0H@Z 1012c510 f   LIBCMTD:undname.obj
 0001:0012bc10       ?getPtrRefDataType@UnDecorator@@CA?AVDName@@ABV2@H@Z 1012cc10 f i LIBCMTD:undname.obj
 0001:0012bd50       ?getArrayType@UnDecorator@@CA?AVDName@@ABV2@@Z 1012cd50 f i LIBCMTD:undname.obj
 0001:0012bf80       ?getLexicalFrame@UnDecorator@@CA?AVDName@@XZ 1012cf80 f i LIBCMTD:undname.obj
 0001:0012bfc0       ?getThisType@UnDecorator@@CA?AVDName@@XZ 1012cfc0 f i LIBCMTD:undname.obj
 0001:0012c000       ?getPointerType@UnDecorator@@CA?AVDName@@ABV2@0@Z 1012d000 f i LIBCMTD:undname.obj
 0001:0012c020       ?getPointerTypeArray@UnDecorator@@CA?AVDName@@ABV2@0@Z 1012d020 f i LIBCMTD:undname.obj
 0001:0012c040       ?getReferenceType@UnDecorator@@CA?AVDName@@ABV2@0@Z 1012d040 f i LIBCMTD:undname.obj
 0001:0012c060       ?getDisplacement@UnDecorator@@CA?AVDName@@XZ 1012d060 f i LIBCMTD:undname.obj
 0001:0012c080       ?getCallIndex@UnDecorator@@CA?AVDName@@XZ 1012d080 f i LIBCMTD:undname.obj
 0001:0012c0a0       ?getGuardNumber@UnDecorator@@CA?AVDName@@XZ 1012d0a0 f i LIBCMTD:undname.obj
 0001:0012c0c0       ?getVbTableType@UnDecorator@@CA?AVDName@@ABV2@@Z 1012d0c0 f i LIBCMTD:undname.obj
 0001:0012c0e0       ?getVCallThunkType@UnDecorator@@CA?AVDName@@XZ 1012d0e0 f i LIBCMTD:undname.obj
 0001:0012c140       ?getVfTableType@UnDecorator@@CA?AVDName@@ABV2@@Z 1012d140 f i LIBCMTD:undname.obj
 0001:0012c300       ?getStorageConvention@UnDecorator@@CA?AVDName@@XZ 1012d300 f i LIBCMTD:undname.obj
 0001:0012c320       ?getDataIndirectType@UnDecorator@@CA?AVDName@@XZ 1012d320 f i LIBCMTD:undname.obj
 0001:0012c360       ?getVdispMapType@UnDecorator@@CA?AVDName@@ABV2@@Z 1012d360 f i LIBCMTD:undname.obj
 0001:0012c3d0       ?getExternalDataType@UnDecorator@@CA?AVDName@@ABV2@@Z 1012d3d0 f i LIBCMTD:undname.obj
 0001:0012c460       ?doMSKeywords@UnDecorator@@SAHXZ 1012d460 f i LIBCMTD:undname.obj
 0001:0012c480       ?doPtr64@UnDecorator@@SAHXZ 1012d480 f i LIBCMTD:undname.obj
 0001:0012c4a0       ?doFunctionReturns@UnDecorator@@SAHXZ 1012d4a0 f i LIBCMTD:undname.obj
 0001:0012c4c0       ?doAllocationModel@UnDecorator@@SAHXZ 1012d4c0 f i LIBCMTD:undname.obj
 0001:0012c4e0       ?doAllocationLanguage@UnDecorator@@SAHXZ 1012d4e0 f i LIBCMTD:undname.obj
 0001:0012c500       ?doThisTypes@UnDecorator@@SAHXZ 1012d500 f i LIBCMTD:undname.obj
 0001:0012c520       ?doAccessSpecifiers@UnDecorator@@SAHXZ 1012d520 f i LIBCMTD:undname.obj
 0001:0012c540       ?doThrowTypes@UnDecorator@@SAHXZ 1012d540 f i LIBCMTD:undname.obj
 0001:0012c560       ?doMemberTypes@UnDecorator@@SAHXZ 1012d560 f i LIBCMTD:undname.obj
 0001:0012c580       ?doNameOnly@UnDecorator@@SAHXZ 1012d580 f i LIBCMTD:undname.obj
 0001:0012c5a0       ?doTypeOnly@UnDecorator@@SAHXZ 1012d5a0 f i LIBCMTD:undname.obj
 0001:0012c5c0       ?haveTemplateParameters@UnDecorator@@SAHXZ 1012d5c0 f i LIBCMTD:undname.obj
 0001:0012c5e0       ?doEcsu@UnDecorator@@SAHXZ 1012d5e0 f i LIBCMTD:undname.obj
 0001:0012c600       ?doEllipsis@UnDecorator@@SAHXZ 1012d600 f i LIBCMTD:undname.obj
 0001:0012c620       ?UScore@UnDecorator@@SAPBDW4Tokens@@@Z 1012d620 f   LIBCMTD:undname.obj
 0001:0012c650       ?doUnderScore@UnDecorator@@SAHXZ 1012d650 f i LIBCMTD:undname.obj
 0001:0012c670       ??2@YAPAXIAAVHeapManager@@H@Z 1012d670 f i LIBCMTD:undname.obj
 0001:0012c690       ?getMemory@HeapManager@@QAEPAXIH@Z 1012d690 f   LIBCMTD:undname.obj
 0001:0012c7a0       ??0Block@HeapManager@@QAE@XZ 1012d7a0 f i LIBCMTD:undname.obj
 0001:0012c7c0       ??H@YA?AVDName@@DABV0@@Z   1012d7c0 f i LIBCMTD:undname.obj
 0001:0012c7f0       ??H@YA?AVDName@@W4DNameStatus@@ABV0@@Z 1012d7f0 f i LIBCMTD:undname.obj
 0001:0012c820       ??H@YA?AVDName@@PBDABV0@@Z 1012d820 f i LIBCMTD:undname.obj
 0001:0012c850       ??0DName@@QAE@XZ           1012d850 f i LIBCMTD:undname.obj
 0001:0012c910       ??0DName@@QAE@D@Z          1012d910 f   LIBCMTD:undname.obj
 0001:0012c9f0       ??0DName@@QAE@ABV0@@Z      1012d9f0 f i LIBCMTD:undname.obj
 0001:0012ca20       ??0DName@@QAE@PAV0@@Z      1012da20 f   LIBCMTD:undname.obj
 0001:0012cb50       ??0DName@@QAE@PBD@Z        1012db50 f   LIBCMTD:undname.obj
 0001:0012cc30       ??0DName@@QAE@AAPBDD@Z     1012dc30 f   LIBCMTD:undname.obj
 0001:0012cef0       ?doNoIdentCharCheck@UnDecorator@@SAHXZ 1012def0 f i LIBCMTD:undname.obj
 0001:0012cf10       ??0DName@@QAE@_K@Z         1012df10 f   LIBCMTD:undname.obj
 0001:0012d050       ??0DName@@QAE@_J@Z         1012e050 f   LIBCMTD:undname.obj
 0001:0012d1d0       ??0DName@@QAE@W4DNameStatus@@@Z 1012e1d0 f   LIBCMTD:undname.obj
 0001:0012d2f0       ?isValid@DName@@QBEHXZ     1012e2f0 f i LIBCMTD:undname.obj
 0001:0012d320       ?isEmpty@DName@@QBEHXZ     1012e320 f i LIBCMTD:undname.obj
 0001:0012d340       ?status@DName@@QBE?AW4DNameStatus@@XZ 1012e340 f i LIBCMTD:undname.obj
 0001:0012d360       ?setPtrRef@DName@@QAEAAV1@XZ 1012e360 f i LIBCMTD:undname.obj
 0001:0012d390       ?isPtrRef@DName@@QBEHXZ    1012e390 f i LIBCMTD:undname.obj
 0001:0012d3b0       ?isUDC@DName@@QBEHXZ       1012e3b0 f i LIBCMTD:undname.obj
 0001:0012d3f0       ?setIsUDC@DName@@QAEXXZ    1012e3f0 f i LIBCMTD:undname.obj
 0001:0012d420       ?isUDTThunk@DName@@QBEHXZ  1012e420 f i LIBCMTD:undname.obj
 0001:0012d460       ?setIsArray@DName@@QAEXXZ  1012e460 f i LIBCMTD:undname.obj
 0001:0012d480       ?isArray@DName@@QBEHXZ     1012e480 f i LIBCMTD:undname.obj
 0001:0012d4a0       ?isNoTE@DName@@QBEHXZ      1012e4a0 f i LIBCMTD:undname.obj
 0001:0012d4c0       ?setIsNoTE@DName@@QAEXXZ   1012e4c0 f i LIBCMTD:undname.obj
 0001:0012d4e0       ?isPinPtr@DName@@QBEHXZ    1012e4e0 f i LIBCMTD:undname.obj
 0001:0012d500       ?setIsPinPtr@DName@@QAEXXZ 1012e500 f i LIBCMTD:undname.obj
 0001:0012d520       ?isComArray@DName@@QBEHXZ  1012e520 f i LIBCMTD:undname.obj
 0001:0012d540       ?setIsComArray@DName@@QAEXXZ 1012e540 f i LIBCMTD:undname.obj
 0001:0012d560       ?isVCallThunk@DName@@QBEHXZ 1012e560 f i LIBCMTD:undname.obj
 0001:0012d580       ?setIsVCallThunk@DName@@QAEXXZ 1012e580 f i LIBCMTD:undname.obj
 0001:0012d5a0       ?length@DName@@QBEHXZ      1012e5a0 f i LIBCMTD:undname.obj
 0001:0012d5d0       ?getLastChar@DName@@QBEDXZ 1012e5d0 f i LIBCMTD:undname.obj
 0001:0012d600       ?getString@DName@@QBEPADPADH@Z 1012e600 f i LIBCMTD:undname.obj
 0001:0012d690       ?getString@DName@@QBEPADPAD0@Z 1012e690 f i LIBCMTD:undname.obj
 0001:0012d6d0       ??HDName@@QBE?AV0@D@Z      1012e6d0 f   LIBCMTD:undname.obj
 0001:0012d710       ??HDName@@QBE?AV0@PBD@Z    1012e710 f   LIBCMTD:undname.obj
 0001:0012d750       ??HDName@@QBE?AV0@ABV0@@Z  1012e750 f   LIBCMTD:undname.obj
 0001:0012d790       ??HDName@@QBE?AV0@PAV0@@Z  1012e790 f   LIBCMTD:undname.obj
 0001:0012d7d0       ??HDName@@QBE?AV0@W4DNameStatus@@@Z 1012e7d0 f   LIBCMTD:undname.obj
 0001:0012d810       ?append@DName@@AAEXPAVDNameNode@@@Z 1012e810 f   LIBCMTD:undname.obj
 0001:0012d8a0       ??YDName@@QAEAAV0@D@Z      1012e8a0 f   LIBCMTD:undname.obj
 0001:0012d930       ??YDName@@QAEAAV0@PBD@Z    1012e930 f   LIBCMTD:undname.obj
 0001:0012d9d0       ??YDName@@QAEAAV0@ABV0@@Z  1012e9d0 f   LIBCMTD:undname.obj
 0001:0012da40       ??YDName@@QAEAAV0@PAV0@@Z  1012ea40 f   LIBCMTD:undname.obj
 0001:0012db00       ??YDName@@QAEAAV0@W4DNameStatus@@@Z 1012eb00 f   LIBCMTD:undname.obj
 0001:0012db70       ??_5DName@@QAEAAV0@ABV0@@Z 1012eb70 f   LIBCMTD:undname.obj
 0001:0012dbd0       ??4DName@@QAEAAV0@D@Z      1012ebd0 f i LIBCMTD:undname.obj
 0001:0012dcb0       ??4DName@@QAEAAV0@PBD@Z    1012ecb0 f   LIBCMTD:undname.obj
 0001:0012dd90       ??4DName@@QAEAAV0@ABV0@@Z  1012ed90 f   LIBCMTD:undname.obj
 0001:0012ddc0       ??4DName@@QAEAAV0@PAV0@@Z  1012edc0 f   LIBCMTD:undname.obj
 0001:0012df00       ??4DName@@QAEAAV0@W4DNameStatus@@@Z 1012ef00 f   LIBCMTD:undname.obj
 0001:0012e000       ?doPchar@DName@@AAEXPBDH@Z 1012f000 f   LIBCMTD:undname.obj
 0001:0012e140       ?isFull@Replicator@@QBEHXZ 1012f140 f i LIBCMTD:undname.obj
 0001:0012e160       ??0Replicator@@QAE@XZ      1012f160 f i LIBCMTD:undname.obj
 0001:0012e180       ??YReplicator@@QAEAAV0@ABVDName@@@Z 1012f180 f   LIBCMTD:undname.obj
 0001:0012e210       ??AReplicator@@QBE?AVDName@@H@Z 1012f210 f   LIBCMTD:undname.obj
 0001:0012e280       ??0DNameNode@@IAE@XZ       1012f280 f   LIBCMTD:undname.obj
 0001:0012e2a0       ??0charNode@@QAE@D@Z       1012f2a0 f   LIBCMTD:undname.obj
 0001:0012e2d0       ?length@charNode@@UBEHXZ   1012f2d0 f i LIBCMTD:undname.obj
 0001:0012e2f0       ?getLastChar@charNode@@UBEDXZ 1012f2f0 f i LIBCMTD:undname.obj
 0001:0012e310       ?getString@charNode@@UBEPADPAD0@Z 1012f310 f i LIBCMTD:undname.obj
 0001:0012e340       ??0pcharNode@@QAE@PBDH@Z   1012f340 f   LIBCMTD:undname.obj
 0001:0012e3d0       ?length@pcharNode@@UBEHXZ  1012f3d0 f i LIBCMTD:undname.obj
 0001:0012e3f0       ?getLastChar@pcharNode@@UBEDXZ 1012f3f0 f i LIBCMTD:undname.obj
 0001:0012e430       ?getString@pcharNode@@UBEPADPAD0@Z 1012f430 f i LIBCMTD:undname.obj
 0001:0012e460       ?getStringHelper@@YAPADPAD00H@Z 1012f460 f i LIBCMTD:undname.obj
 0001:0012e4a0       ??0pDNameNode@@QAE@PAVDName@@@Z 1012f4a0 f   LIBCMTD:undname.obj
 0001:0012e500       ?length@pDNameNode@@UBEHXZ 1012f500 f i LIBCMTD:undname.obj
 0001:0012e540       ?getLastChar@pDNameNode@@UBEDXZ 1012f540 f i LIBCMTD:undname.obj
 0001:0012e570       ?getString@pDNameNode@@UBEPADPAD0@Z 1012f570 f i LIBCMTD:undname.obj
 0001:0012e5b0       ??0DNameStatusNode@@AAE@W4DNameStatus@@@Z 1012f5b0 f   LIBCMTD:undname.obj
 0001:0012e600       ?length@DNameStatusNode@@UBEHXZ 1012f600 f i LIBCMTD:undname.obj
 0001:0012e620       ?getLastChar@DNameStatusNode@@UBEDXZ 1012f620 f i LIBCMTD:undname.obj
 0001:0012e640       ?getString@DNameStatusNode@@UBEPADPAD0@Z 1012f640 f i LIBCMTD:undname.obj
 0001:0012e680       ?make@DNameStatusNode@@SAPAV1@W4DNameStatus@@@Z 1012f680 f i LIBCMTD:undname.obj
 0001:0012e730       ??0pairNode@@QAE@PAVDNameNode@@0@Z 1012f730 f   LIBCMTD:undname.obj
 0001:0012e770       ?length@pairNode@@UBEHXZ   1012f770 f i LIBCMTD:undname.obj
 0001:0012e7c0       ?getLastChar@pairNode@@UBEDXZ 1012f7c0 f i LIBCMTD:undname.obj
 0001:0012e810       ?getString@pairNode@@UBEPADPAD0@Z 1012f810 f i LIBCMTD:undname.obj
 0001:0012e950       ___crtCompareStringA       1012f950 f   LIBCMTD:a_cmp.obj
 0001:0012ef10       __strnicoll_l              1012ff10 f   LIBCMTD:strnicol.obj
 0001:0012f160       __strnicoll                10130160 f   LIBCMTD:strnicol.obj
 0001:0012f1a0       ___crtsetenv               101301a0 f   LIBCMTD:setenv.obj
 0001:0012f820       __mbschr_l                 10130820 f   LIBCMTD:mbschr.obj
 0001:0012f9b0       __mbschr                   101309b0 f   LIBCMTD:mbschr.obj
 0001:0012f9e0       _strchr                    101309e0 f   LIBCMTD:strchr.obj
 0001:0012f9e6       ___from_strstr_to_strchr   101309e6     LIBCMTD:strchr.obj
 0001:0012fa9e       _OutputDebugStringA@4      10130a9e f   kernel32:KERNEL32.dll
 0001:0012faa4       _InterlockedExchangeAdd@8  10130aa4 f   kernel32:KERNEL32.dll
 0001:0012faaa       _GetSystemInfo@4           10130aaa f   kernel32:KERNEL32.dll
 0001:0012fab0       _InitializeCriticalSection@4 10130ab0 f   kernel32:KERNEL32.dll
 0001:0012fab6       _CreateEventA@16           10130ab6 f   kernel32:KERNEL32.dll
 0001:0012fabc       _CreateSemaphoreA@16       10130abc f   kernel32:KERNEL32.dll
 0001:0012fac2       _CloseHandle@4             10130ac2 f   kernel32:KERNEL32.dll
 0001:0012fac8       _WaitForMultipleObjects@16 10130ac8 f   kernel32:KERNEL32.dll
 0001:0012face       _DeleteCriticalSection@4   10130ace f   kernel32:KERNEL32.dll
 0001:0012fad4       _SetEvent@4                10130ad4 f   kernel32:KERNEL32.dll
 0001:0012fada       _Sleep@4                   10130ada f   kernel32:KERNEL32.dll
 0001:0012fae0       _LeaveCriticalSection@4    10130ae0 f   kernel32:KERNEL32.dll
 0001:0012fae6       _ReleaseSemaphore@12       10130ae6 f   kernel32:KERNEL32.dll
 0001:0012faec       _EnterCriticalSection@4    10130aec f   kernel32:KERNEL32.dll
 0001:0012faf2       _WaitForSingleObject@8     10130af2 f   kernel32:KERNEL32.dll
 0001:0012faf8       _InterlockedIncrement@4    10130af8 f   kernel32:KERNEL32.dll
 0001:0012fafe       _InterlockedDecrement@4    10130afe f   kernel32:KERNEL32.dll
 0001:0012fb04       _InterlockedExchange@8     10130b04 f   kernel32:KERNEL32.dll
 0001:0012fb0a       _GetModuleFileNameW@12     10130b0a f   kernel32:KERNEL32.dll
 0001:0012fb10       _GetCurrentThreadId@0      10130b10 f   kernel32:KERNEL32.dll
 0001:0012fb16       _GetCommandLineA@0         10130b16 f   kernel32:KERNEL32.dll
 0001:0012fb1c       _GetLastError@0            10130b1c f   kernel32:KERNEL32.dll
 0001:0012fb22       _CreateThread@24           10130b22 f   kernel32:KERNEL32.dll
 0001:0012fb28       _ExitThread@4              10130b28 f   kernel32:KERNEL32.dll
 0001:0012fb2e       _GetProcAddress@8          10130b2e f   kernel32:KERNEL32.dll
 0001:0012fb34       _GetModuleHandleA@4        10130b34 f   kernel32:KERNEL32.dll
 0001:0012fb3a       _FatalAppExitA@8           10130b3a f   kernel32:KERNEL32.dll
 0001:0012fb40       _HeapValidate@12           10130b40 f   kernel32:KERNEL32.dll
 0001:0012fb46       _IsBadReadPtr@8            10130b46 f   kernel32:KERNEL32.dll
 0001:0012fb4c       _DebugBreak@0              10130b4c f   kernel32:KERNEL32.dll
 0001:0012fb52       _GetStdHandle@4            10130b52 f   kernel32:KERNEL32.dll
 0001:0012fb58       _WriteFile@20              10130b58 f   kernel32:KERNEL32.dll
 0001:0012fb5e       _WriteConsoleW@20          10130b5e f   kernel32:KERNEL32.dll
 0001:0012fb64       _GetFileType@4             10130b64 f   kernel32:KERNEL32.dll
 0001:0012fb6a       _OutputDebugStringW@4      10130b6a f   kernel32:KERNEL32.dll
 0001:0012fb70       _TerminateProcess@8        10130b70 f   kernel32:KERNEL32.dll
 0001:0012fb76       _GetCurrentProcess@0       10130b76 f   kernel32:KERNEL32.dll
 0001:0012fb7c       _UnhandledExceptionFilter@4 10130b7c f   kernel32:KERNEL32.dll
 0001:0012fb82       _SetUnhandledExceptionFilter@4 10130b82 f   kernel32:KERNEL32.dll
 0001:0012fb88       _IsDebuggerPresent@0       10130b88 f   kernel32:KERNEL32.dll
 0001:0012fb8e       _GetModuleHandleW@4        10130b8e f   kernel32:KERNEL32.dll
 0001:0012fb94       _ExitProcess@4             10130b94 f   kernel32:KERNEL32.dll
 0001:0012fb9a       _SetConsoleCtrlHandler@8   10130b9a f   kernel32:KERNEL32.dll
 0001:0012fba0       _LoadLibraryW@4            10130ba0 f   kernel32:KERNEL32.dll
 0001:0012fba6       _RaiseException@16         10130ba6 f   kernel32:KERNEL32.dll
 0001:0012fbac       _TlsGetValue@4             10130bac f   kernel32:KERNEL32.dll
 0001:0012fbb2       _TlsAlloc@0                10130bb2 f   kernel32:KERNEL32.dll
 0001:0012fbb8       _TlsSetValue@8             10130bb8 f   kernel32:KERNEL32.dll
 0001:0012fbbe       _TlsFree@4                 10130bbe f   kernel32:KERNEL32.dll
 0001:0012fbc4       _SetLastError@4            10130bc4 f   kernel32:KERNEL32.dll
 0001:0012fbca       _GetCurrentThread@0        10130bca f   kernel32:KERNEL32.dll
 0001:0012fbd0       _SetHandleCount@4          10130bd0 f   kernel32:KERNEL32.dll
 0001:0012fbd6       _GetStartupInfoA@4         10130bd6 f   kernel32:KERNEL32.dll
 0001:0012fbdc       _GetModuleFileNameA@12     10130bdc f   kernel32:KERNEL32.dll
 0001:0012fbe2       _FreeEnvironmentStringsA@4 10130be2 f   kernel32:KERNEL32.dll
 0001:0012fbe8       _GetEnvironmentStrings@0   10130be8 f   kernel32:KERNEL32.dll
 0001:0012fbee       _FreeEnvironmentStringsW@4 10130bee f   kernel32:KERNEL32.dll
 0001:0012fbf4       _WideCharToMultiByte@32    10130bf4 f   kernel32:KERNEL32.dll
 0001:0012fbfa       _GetEnvironmentStringsW@0  10130bfa f   kernel32:KERNEL32.dll
 0001:0012fc00       _HeapDestroy@4             10130c00 f   kernel32:KERNEL32.dll
 0001:0012fc06       _HeapCreate@12             10130c06 f   kernel32:KERNEL32.dll
 0001:0012fc0c       _HeapFree@12               10130c0c f   kernel32:KERNEL32.dll
 0001:0012fc12       _VirtualFree@12            10130c12 f   kernel32:KERNEL32.dll
 0001:0012fc18       _QueryPerformanceCounter@4 10130c18 f   kernel32:KERNEL32.dll
 0001:0012fc1e       _GetTickCount@0            10130c1e f   kernel32:KERNEL32.dll
 0001:0012fc24       _GetCurrentProcessId@0     10130c24 f   kernel32:KERNEL32.dll
 0001:0012fc2a       _GetSystemTimeAsFileTime@4 10130c2a f   kernel32:KERNEL32.dll
 0001:0012fc30       _RtlUnwind@16              10130c30 f   kernel32:KERNEL32.dll
 0001:0012fc36       _VirtualQuery@12           10130c36 f   kernel32:KERNEL32.dll
 0001:0012fc3c       _GetACP@0                  10130c3c f   kernel32:KERNEL32.dll
 0001:0012fc42       _GetOEMCP@0                10130c42 f   kernel32:KERNEL32.dll
 0001:0012fc48       _GetCPInfo@8               10130c48 f   kernel32:KERNEL32.dll
 0001:0012fc4e       _IsValidCodePage@4         10130c4e f   kernel32:KERNEL32.dll
 0001:0012fc54       _InitializeCriticalSectionAndSpinCount@8 10130c54 f   kernel32:KERNEL32.dll
 0001:0012fc5a       _HeapAlloc@12              10130c5a f   kernel32:KERNEL32.dll
 0001:0012fc60       _HeapSize@12               10130c60 f   kernel32:KERNEL32.dll
 0001:0012fc66       _HeapReAlloc@16            10130c66 f   kernel32:KERNEL32.dll
 0001:0012fc6c       _VirtualAlloc@16           10130c6c f   kernel32:KERNEL32.dll
 0001:0012fc72       _MultiByteToWideChar@24    10130c72 f   kernel32:KERNEL32.dll
 0001:0012fc78       _FreeLibrary@4             10130c78 f   kernel32:KERNEL32.dll
 0001:0012fc7e       _LoadLibraryA@4            10130c7e f   kernel32:KERNEL32.dll
 0001:0012fc84       _SetFilePointer@16         10130c84 f   kernel32:KERNEL32.dll
 0001:0012fc8a       _GetConsoleCP@0            10130c8a f   kernel32:KERNEL32.dll
 0001:0012fc90       _GetConsoleMode@8          10130c90 f   kernel32:KERNEL32.dll
 0001:0012fc96       _GetLocaleInfoW@16         10130c96 f   kernel32:KERNEL32.dll
 0001:0012fc9c       _GetLocaleInfoA@16         10130c9c f   kernel32:KERNEL32.dll
 0001:0012fca2       _LCMapStringA@24           10130ca2 f   kernel32:KERNEL32.dll
 0001:0012fca8       _LCMapStringW@24           10130ca8 f   kernel32:KERNEL32.dll
 0001:0012fcae       _GetStringTypeA@20         10130cae f   kernel32:KERNEL32.dll
 0001:0012fcb4       _GetStringTypeW@16         10130cb4 f   kernel32:KERNEL32.dll
 0001:0012fcba       _GetTimeFormatA@24         10130cba f   kernel32:KERNEL32.dll
 0001:0012fcc0       _GetDateFormatA@24         10130cc0 f   kernel32:KERNEL32.dll
 0001:0012fcc6       _IsValidLocale@8           10130cc6 f   kernel32:KERNEL32.dll
 0001:0012fccc       _EnumSystemLocalesA@8      10130ccc f   kernel32:KERNEL32.dll
 0001:0012fcd2       _GetUserDefaultLCID@0      10130cd2 f   kernel32:KERNEL32.dll
 0001:0012fcd8       _SetStdHandle@8            10130cd8 f   kernel32:KERNEL32.dll
 0001:0012fcde       _WriteConsoleA@20          10130cde f   kernel32:KERNEL32.dll
 0001:0012fce4       _GetConsoleOutputCP@0      10130ce4 f   kernel32:KERNEL32.dll
 0001:0012fcea       _lstrlenA@4                10130cea f   kernel32:KERNEL32.dll
 0001:0012fcf0       _GetTimeZoneInformation@4  10130cf0 f   kernel32:KERNEL32.dll
 0001:0012fcf6       _CreateFileA@28            10130cf6 f   kernel32:KERNEL32.dll
 0001:0012fcfc       _GetProcessHeap@0          10130cfc f   kernel32:KERNEL32.dll
 0001:0012fd02       _FlushFileBuffers@4        10130d02 f   kernel32:KERNEL32.dll
 0001:0012fd08       _CompareStringA@24         10130d08 f   kernel32:KERNEL32.dll
 0001:0012fd0e       _CompareStringW@24         10130d0e f   kernel32:KERNEL32.dll
 0001:0012fd14       _SetEnvironmentVariableA@8 10130d14 f   kernel32:KERNEL32.dll
 0002:00000000       ___xc_a                    1017e000     LIBCMTD:crt0init.obj
 0002:00000268       ___xc_z                    1017e268     LIBCMTD:crt0init.obj
 0002:0000036c       ___xi_a                    1017e36c     LIBCMTD:crt0init.obj
 0002:00000588       ___xi_z                    1017e588     LIBCMTD:crt0init.obj
 0002:0000068c       ___xp_a                    1017e68c     LIBCMTD:crt0init.obj
 0002:000009a0       ___xp_z                    1017e9a0     LIBCMTD:crt0init.obj
 0002:00000aa4       ___xt_a                    1017eaa4     LIBCMTD:crt0init.obj
 0002:00000ba8       ___xt_z                    1017eba8     LIBCMTD:crt0init.obj
 0002:00001de8       __real@42c80000            1017fde8     Newton.obj
 0002:00001dec       __real@c2c80000            1017fdec     Newton.obj
 0002:00001df0       __real@3f800000            1017fdf0     Newton.obj
 0002:00001df8       __real@3ddb7cdfe0000000    1017fdf8     Newton.obj
 0002:00001e04       __real@3a83126f            1017fe04     Newton.obj
 0002:00001e08       __real@3c888889            1017fe08     Newton.obj
 0002:00001e10       __real@3ff0000000000000    1017fe10     Newton.obj
 0002:00001e1c       __real@426fffff            1017fe1c     Newton.obj
 0002:00001e20       __real@4479ffff            1017fe20     Newton.obj
 0002:00001e24       __real@00000000            1017fe24     Newton.obj
 0002:00001e28       __real@3e000000            1017fe28     Newton.obj
 0002:00001e2c       __real@3c23d70a            1017fe2c     Newton.obj
 0002:00001e30       __real@40000000            1017fe30     Newton.obj
 0002:00001e38       __real@3f847ae140000000    1017fe38     Newton.obj
 0002:00001e44       __real@3f333333            1017fe44     Newton.obj
 0002:00001e48       __real@bf800000            1017fe48     Newton.obj
 0002:00001e50       __real@0000000000000000    1017fe50     Newton.obj
 0002:00001e60       __real@3eb0c6f7a0000000    1017fe60     Newton.obj
 0002:00001e70       __real@3ee4f8b580000000    1017fe70     Newton.obj
 0002:00001e7c       __real@58aa87bf            1017fe7c     Newton.obj
 0002:00001e80       __real@3f50624de0000000    1017fe80     Newton.obj
 0002:00001e90       __real@4059000000000000    1017fe90     Newton.obj
 0002:00001ea0       __real@42fc6bf520000000    1017fea0     Newton.obj
 0002:00001eb0       __real@3e45798ee0000000    1017feb0     Newton.obj
 0002:00001ec0       __real@3f91df45c0000000    1017fec0     Newton.obj
 0002:00001ed0       __real@3feff7cee0000000    1017fed0     Newton.obj
 0002:00001ee0       ??_C@_1FC@CDAHNMJI@?$AAc?$AA?3?$AA?2?$AAn?$AAe?$AAw?$AAt?$AAo?$AAn?$AA_?$AA2?$AA0?$AA0?$AA?2?$AA3?$AAd?$AAl?$AAi?$AAb?$AA?2?$AAs?$AAd?$AAk?$AA?2?$AAc?$AAo?$AAr?$AAe?$AAl?$AAi?$AAb?$AA?2@ 1017fee0     Newton.obj
 0002:00001f48       ??_C@_1EK@IMIPNHCJ@?$AA?$CI?$AAd?$AAg?$AAU?$AAn?$AAs?$AAi?$AAg?$AAn?$AAe?$AAd?$AA6?$AA4?$AA?5?$AA?$CI?$AA?$CG?$AAm?$AA_?$AAi?$AAn?$AAf?$AAo?$AA?$CJ?$AA?5?$AA?$CG?$AA?5?$AA0?$AAx?$AA0?$AAf?$AA?$CJ?$AA?5@ 1017ff48     Newton.obj
 0002:00001fa0       ??_C@_1FG@DPADFPDA@?$AAc?$AA?3?$AA?2?$AAn?$AAe?$AAw?$AAt?$AAo?$AAn?$AA_?$AA2?$AA0?$AA0?$AA?2?$AA3?$AAd?$AAl?$AAi?$AAb?$AA?2?$AAs?$AAd?$AAk?$AA?2?$AAc?$AAo?$AAr?$AAe?$AAl?$AAi?$AAb?$AA?2@ 1017ffa0     Newton.obj
 0002:00002008       ??_C@_1DA@JDEKGPJE@?$AAd?$AAg?$AAC?$AAh?$AAe?$AAc?$AAk?$AAV?$AAe?$AAc?$AAt?$AAo?$AAr?$AA?5?$AA?$CI?$AA?$CI?$AA?$CK?$AAt?$AAh?$AAi?$AAs?$AA?$CJ?$AA?$CJ?$AA?$AA@ 10180008     Newton.obj
 0002:00002048       ??_C@_1JK@PNNLFPPH@?$AA?$CI?$AAd?$AAg?$AAA?$AAb?$AAs?$AAf?$AA?5?$AA?$CI?$AAm?$AA_?$AAr?$AAi?$AAg?$AAh?$AAt?$AA?5?$AA?$CF?$AA?5?$AA?$CI?$AAm?$AA_?$AAf?$AAr?$AAo?$AAn?$AAt?$AA?5?$AA?$CK?$AA?5?$AAm?$AA_@ 10180048     Newton.obj
 0002:00002100       ??_C@_1II@JNGBILOA@?$AA?$CI?$AAd?$AAg?$AAA?$AAb?$AAs?$AAf?$AA?5?$AA?$CI?$AAm?$AA_?$AAr?$AAi?$AAg?$AAh?$AAt?$AA?5?$AA?$CF?$AA?5?$AAm?$AA_?$AAr?$AAi?$AAg?$AAh?$AAt?$AA?$CJ?$AA?5?$AA?9?$AA?5?$AAd?$AAg@ 10180100     Newton.obj
 0002:000021a8       ??_C@_1HM@GJAKGBDD@?$AA?$CI?$AAd?$AAg?$AAA?$AAb?$AAs?$AAf?$AA?5?$AA?$CI?$AAm?$AA_?$AAu?$AAp?$AA?5?$AA?$CF?$AA?5?$AAm?$AA_?$AAu?$AAp?$AA?$CJ?$AA?5?$AA?9?$AA?5?$AAd?$AAg?$AAF?$AAl?$AAo?$AAa?$AAt?$AA3@ 101801a8     Newton.obj
 0002:00002240       ??_C@_1FG@EINKGDAC@?$AAc?$AA?3?$AA?2?$AAn?$AAe?$AAw?$AAt?$AAo?$AAn?$AA_?$AA2?$AA0?$AA0?$AA?2?$AA3?$AAd?$AAl?$AAi?$AAb?$AA?2?$AAs?$AAd?$AAk?$AA?2?$AAc?$AAo?$AAr?$AAe?$AAl?$AAi?$AAb?$AA?2@ 10180240     Newton.obj
 0002:000022a8       ??_C@_1II@FFGMHNGG@?$AA?$CI?$AAd?$AAg?$AAA?$AAb?$AAs?$AAf?$AA?5?$AA?$CI?$AAm?$AA_?$AAf?$AAr?$AAo?$AAn?$AAt?$AA?5?$AA?$CF?$AA?5?$AAm?$AA_?$AAf?$AAr?$AAo?$AAn?$AAt?$AA?$CJ?$AA?5?$AA?9?$AA?5?$AAd?$AAg@ 101802a8     Newton.obj
 0002:00002350       __real@3fe276c8c0000000    10180350     Newton.obj
 0002:0000235c       ??_C@_1O@ILILCEBJ@?$AAi?$AA?5?$AA?$DO?$AA?$DN?$AA?5?$AA0?$AA?$AA@ 1018035c     Newton.obj
 0002:0000236c       ??_C@_1M@NEALEACL@?$AAi?$AA?5?$AA?$DM?$AA?5?$AA4?$AA?$AA@ 1018036c     Newton.obj
 0002:00002380       ??_C@_1FM@OAIKGLAI@?$AAc?$AA?3?$AA?2?$AAn?$AAe?$AAw?$AAt?$AAo?$AAn?$AA_?$AA2?$AA0?$AA0?$AA?2?$AA3?$AAd?$AAl?$AAi?$AAb?$AA?2?$AAs?$AAd?$AAk?$AA?2?$AAc?$AAo?$AAr?$AAe?$AAl?$AAi?$AAb?$AA?2@ 10180380     Newton.obj
 0002:000023f0       ??_C@_1DA@PEKPEHMI@?$AAm?$AA_?$AAe?$AAd?$AAg?$AAe?$AAM?$AAa?$AAr?$AAk?$AA?5?$AA?$DM?$AA?5?$AA0?$AAx?$AA7?$AAf?$AAf?$AAf?$AAf?$AAf?$AAf?$AAf?$AA?$AA@ 101803f0     Newton.obj
 0002:00002430       __real@3f947ae140000000    10180430     Newton.obj
 0002:00002440       __real@3f1a36e2e0000000    10180440     Newton.obj
 0002:000033d0       ??_7NewtonUserJoint@@6B@   101813d0     NewtonClass.obj
 0002:0000340c       __real@58635fa9            1018140c     NewtonClass.obj
 0002:00003410       __real@d8635fa9            10181410     NewtonClass.obj
 0002:00003414       __real@ba83126f            10181414     NewtonClass.obj
 0002:00003418       __real@4058c00000000000    10181418     NewtonClass.obj
 0002:00003424       ??_C@_1M@IHBNDPOD@?$AAm?$AA_?$AAp?$AAt?$AAr?$AA?$AA@ 10181424     NewtonClass.obj
 0002:00003438       ??_C@_1HA@CCBMCHMB@?$AAc?$AA?3?$AA?2?$AAn?$AAe?$AAw?$AAt?$AAo?$AAn?$AA_?$AA2?$AA0?$AA0?$AA?2?$AA3?$AAd?$AAl?$AAi?$AAb?$AA?2?$AAs?$AAd?$AAk?$AA?2?$AAp?$AAh?$AAy?$AAs?$AAi?$AAc?$AAs?$AA?2@ 10181438     NewtonClass.obj
 0002:000034c0       ??_C@_13COJANIEC@?$AA0?$AA?$AA@ 101814c0     NewtonClass.obj
 0002:000034c4       ??_C@_0P@GHFPNOJB@bad?5allocation?$AA@ 101814c4     physics:dgWorld.obj
 0002:000034e0       __real@3dcccccd            101814e0     physics:dgWorld.obj
 0002:000034e4       __real@3fb33333            101814e4     physics:dgWorld.obj
 0002:000034e8       __real@3fc00000            101814e8     physics:dgWorld.obj
 0002:000034ec       __real@3c23d70b            101814ec     physics:dgWorld.obj
 0002:000034f0       __real@3e800000            101814f0     physics:dgWorld.obj
 0002:000034f8       ??_7dgCollisionPoint@@6B@  101814f8     physics:dgWorld.obj
 0002:00003574       __real@501502f9            10181574     physics:dgWorld.obj
 0002:00003578       ??_C@_04IABPNMKE@simd?$AA@ 10181578     physics:dgWorld.obj
 0002:00003580       ??_C@_03MKEPLMIM@x87?$AA@  10181580     physics:dgWorld.obj
 0002:00003588       ??_C@_1EK@JJJDNOME@?$AAd?$AAg?$AAB?$AAo?$AAd?$AAy?$AAC?$AAo?$AAl?$AAl?$AAi?$AAs?$AAi?$AAo?$AAn?$AAL?$AAi?$AAs?$AAt?$AA?3?$AA?3?$AAG?$AAe?$AAt?$AAC?$AAo?$AAu?$AAn?$AAt?$AA?$CI?$AA?$CJ?$AA?5@ 10181588     physics:dgWorld.obj
 0002:000035d8       ??_C@_1FC@BAACEGC@?$AAm?$AAe?$AA?4?$AAG?$AAe?$AAt?$AAF?$AAi?$AAr?$AAs?$AAt?$AA?$CI?$AA?$CJ?$AA?9?$AA?$DO?$AAG?$AAe?$AAt?$AAI?$AAn?$AAf?$AAo?$AA?$CI?$AA?$CJ?$AA?4?$AAG?$AAe?$AAt?$AAC?$AAo?$AAu?$AAn@ 101815d8     physics:dgWorld.obj
 0002:00003630       ??_C@_1EC@DHKPNDAL@?$AA?4?$AA?4?$AA?2?$AA?4?$AA?4?$AA?2?$AA?4?$AA?4?$AA?2?$AAs?$AAd?$AAk?$AA?2?$AAp?$AAh?$AAy?$AAs?$AAi?$AAc?$AAs?$AA?2?$AAd?$AAg?$AAW?$AAo?$AAr?$AAl?$AAd?$AA?4?$AAc?$AAp?$AAp@ 10181630     physics:dgWorld.obj
 0002:00003678       ??_C@_1IK@FBKAMGPG@?$AAd?$AAg?$AAB?$AAo?$AAd?$AAy?$AAM?$AAa?$AAs?$AAt?$AAe?$AAr?$AAL?$AAi?$AAs?$AAt?$AA?3?$AA?3?$AAG?$AAe?$AAt?$AAF?$AAi?$AAr?$AAs?$AAt?$AA?$CI?$AA?$CJ?$AA?9?$AA?$DO?$AAG?$AAe@ 10181678     physics:dgWorld.obj
 0002:00003704       __real@58e35fa9            10181704     physics:dgWorld.obj
 0002:00003708       __real@3dd60419            10181708     physics:dgWorld.obj
 0002:00003710       ??_C@_1EC@ICCOIKME@?$AA?$CI?$AAd?$AAg?$AAU?$AAn?$AAs?$AAi?$AAg?$AAn?$AAe?$AAd?$AA6?$AA4?$AA?5?$AA?$CI?$AAb?$AAo?$AAd?$AAy?$AA?$CJ?$AA?5?$AA?$CG?$AA?5?$AA0?$AAx?$AAf?$AA?$CJ?$AA?5?$AA?$DN?$AA?$DN?$AA?5?$AA0@ 10181710     physics:dgWorld.obj
 0002:00003754       ??_C@_1BE@BMACBLPL@?$AAc?$AAo?$AAl?$AAl?$AAi?$AAs?$AAi?$AAo?$AAn?$AA?$AA@ 10181754     physics:dgWorld.obj
 0002:00003768       __real@3ca3d70a            10181768     physics:dgWorld.obj
 0002:0000376c       ??_C@_1CE@OCAGGPEK@?$AAb?$AAo?$AAd?$AAy?$AA?9?$AA?$DO?$AAm?$AA_?$AAc?$AAo?$AAl?$AAl?$AAi?$AAs?$AAi?$AAo?$AAn?$AA?$AA@ 1018176c     physics:dgWorld.obj
 0002:00003790       ??_C@_1CM@OCIJBPJL@?$AAm?$AA_?$AAn?$AAu?$AAm?$AAb?$AAe?$AAr?$AAO?$AAf?$AAT?$AAh?$AAe?$AAa?$AAd?$AAs?$AA?5?$AA?$DO?$AA?$DN?$AA?5?$AA1?$AA?$AA@ 10181790     physics:dgWorld.obj
 0002:000037bc       ??_C@_1CA@FKFNLNJ@?$AAm?$AA_?$AAi?$AAn?$AAU?$AAp?$AAd?$AAa?$AAt?$AAe?$AA?5?$AA?$DN?$AA?$DN?$AA?5?$AA0?$AA?$AA@ 101817bc     physics:dgWorld.obj
 0002:000037dc       ??_C@_1BO@NBLPCMLH@?$AAb?$AAo?$AAd?$AAy?$AA0?$AA?5?$AA?$CB?$AA?$DN?$AA?5?$AAb?$AAo?$AAd?$AAy?$AA1?$AA?$AA@ 101817dc     physics:dgWorld.obj
 0002:000037fc       ??_C@_1M@OIAIJOBD@?$AAb?$AAo?$AAd?$AAy?$AA0?$AA?$AA@ 101817fc     physics:dgWorld.obj
 0002:00003808       ??_C@_19EFPOFDIJ@?$AAb?$AAo?$AAd?$AAy?$AA?$AA@ 10181808     physics:dgWorld.obj
 0002:00003814       ??_C@_1DE@PINLMFAK@?$AAi?$AAn?$AAd?$AAe?$AAx?$AA?5?$AA?$DM?$AA?5?$AAD?$AAG?$AA_?$AAR?$AAE?$AAC?$AAU?$AAR?$AAS?$AAI?$AAV?$AAE?$AA_?$AAS?$AAI?$AAZ?$AAE?$AA?$AA@ 10181814     physics:dgWorld.obj
 0002:00003848       ??_C@_1DA@MHEAPLEG@?$AAb?$AAo?$AAd?$AAy?$AA?5?$AA?$CB?$AA?$DN?$AA?5?$AAm?$AA_?$AAs?$AAe?$AAn?$AAt?$AAi?$AAo?$AAn?$AAe?$AAl?$AAB?$AAo?$AAd?$AAy?$AA?$AA@ 10181848     physics:dgWorld.obj
 0002:00003878       ??_C@_1FC@JBMHHHCK@?$AAc?$AA?3?$AA?2?$AAn?$AAe?$AAw?$AAt?$AAo?$AAn?$AA_?$AA2?$AA0?$AA0?$AA?2?$AA3?$AAd?$AAl?$AAi?$AAb?$AA?2?$AAs?$AAd?$AAk?$AA?2?$AAc?$AAo?$AAr?$AAe?$AAl?$AAi?$AAb?$AA?2@ 10181878     physics:dgWorld.obj
 0002:000038cc       ??_C@_1BK@LKMNECAF@?$AAm?$AA_?$AAc?$AAo?$AAu?$AAn?$AAt?$AA?5?$AA?$DN?$AA?$DN?$AA?5?$AA0?$AA?$AA@ 101818cc     physics:dgWorld.obj
 0002:000038e8       ??_7dgWorkerThread@@6B@    101818e8     physics:dgWorld.obj
 0002:000038f0       ??_C@_1FO@HJAMEBAD@?$AA?4?$AA?4?$AA?2?$AA?4?$AA?4?$AA?2?$AA?4?$AA?4?$AA?2?$AAs?$AAd?$AAk?$AA?2?$AAp?$AAh?$AAy?$AAs?$AAi?$AAc?$AAs?$AA?2?$AAd?$AAg?$AAB?$AAr?$AAo?$AAa?$AAd?$AAP?$AAh?$AAa?$AAs@ 101818f0     physics:dgBroadPhaseCollision.obj
 0002:00003950       ??_C@_1CA@GLNLFIMP@?$AAG?$AAe?$AAt?$AAC?$AAo?$AAu?$AAn?$AAt?$AA?$CI?$AA?$CJ?$AA?5?$AA?$DN?$AA?$DN?$AA?5?$AA0?$AA?$AA@ 10181950     physics:dgBroadPhaseCollision.obj
 0002:00003970       ??_C@_19EFANFLCA@?$AAn?$AAo?$AAd?$AAe?$AA?$AA@ 10181970     physics:dgBroadPhaseCollision.obj
 0002:00003980       ??_C@_1EA@PHHFFPM@?$AAl?$AAi?$AAn?$AAe?$AA?4?$AAm?$AA_?$AAb?$AAo?$AAx?$AAL?$AA0?$AA?$FL?$AAm?$AA_?$AAi?$AAn?$AAd?$AAe?$AAx?$AA?$FN?$AA?5?$AA?$DM?$AA?$DN?$AA?5?$AAm?$AAa?$AAx?$AAV?$AAa?$AAl?$AA?$AA@ 10181980     physics:dgBroadPhaseCollision.obj
 0002:000039c0       ??_C@_1DM@NDMBHPPP@?$AA?$CB?$AAb?$AAo?$AAd?$AAy?$AA?9?$AA?$DO?$AAm?$AA_?$AAc?$AAo?$AAl?$AAl?$AAi?$AAs?$AAi?$AAo?$AAn?$AAC?$AAe?$AAl?$AAl?$AA?4?$AAm?$AA_?$AAc?$AAe?$AAl?$AAl?$AA?$AA@ 101819c0     physics:dgBroadPhaseCollision.obj
 0002:000039fc       ??_C@_1DK@ONJJLKBC@?$AAb?$AAo?$AAd?$AAy?$AA?9?$AA?$DO?$AAm?$AA_?$AAc?$AAo?$AAl?$AAl?$AAi?$AAs?$AAi?$AAo?$AAn?$AAC?$AAe?$AAl?$AAl?$AA?4?$AAm?$AA_?$AAc?$AAe?$AAl?$AAl?$AA?$AA@ 101819fc     physics:dgBroadPhaseCollision.obj
 0002:00003a38       ??_C@_1BK@FBPKPJAG@?$AAm?$AA_?$AAc?$AAo?$AAu?$AAn?$AAt?$AA?5?$AA?$DO?$AA?$DN?$AA?5?$AA0?$AA?$AA@ 10181a38     physics:dgBroadPhaseCollision.obj
 0002:00003a54       ??_C@_1BI@PKPDJDDM@?$AA?$CB?$AAG?$AAe?$AAt?$AAC?$AAo?$AAu?$AAn?$AAt?$AA?$CI?$AA?$CJ?$AA?$AA@ 10181a54     physics:dgBroadPhaseCollision.obj
 0002:00003a6c       __real@447a0000            10181a6c     physics:dgBroadPhaseCollision.obj
 0002:00003a70       __real@c47a0000            10181a70     physics:dgBroadPhaseCollision.obj
 0002:00003a74       ??_7dgBroadPhaseApplyExternalForce@@6B@ 10181a74     physics:dgBroadPhaseCollision.obj
 0002:00003a7c       ??_7dgBroadPhaseCellPairsWorkerThread@@6B@ 10181a7c     physics:dgBroadPhaseCollision.obj
 0002:00003a84       ??_7dgBroadPhaseMaterialCallbackWorkerThread@@6B@ 10181a84     physics:dgBroadPhaseCollision.obj
 0002:00003a8c       ??_7dgBroadPhaseCalculateContactsWorkerThread@@6B@ 10181a8c     physics:dgBroadPhaseCollision.obj
 0002:00003a94       ??_C@_1DM@PJPFHIBL@?$AAm?$AA_?$AAl?$AAa?$AAy?$AAe?$AAr?$AAM?$AAa?$AAp?$AA?$FL?$AAi?$AA?$FN?$AA?4?$AAG?$AAe?$AAt?$AAC?$AAo?$AAu?$AAn?$AAt?$AA?$CI?$AA?$CJ?$AA?5?$AA?$DN?$AA?$DN?$AA?5?$AA0?$AA?$AA@ 10181a94     physics:dgBroadPhaseCollision.obj
 0002:00003ad0       __real@3f000000            10181ad0     physics:dgBroadPhaseCollision.obj
 0002:00003ad4       __real@43000000            10181ad4     physics:dgBroadPhaseCollision.obj
 0002:00003ad8       __real@3f7fbe77            10181ad8     physics:dgBroadPhaseCollision.obj
 0002:00003adc       __real@3c800000            10181adc     physics:dgBroadPhaseCollision.obj
 0002:00003ae0       __real@3f99999a            10181ae0     physics:dgBroadPhaseCollision.obj
 0002:00003ae4       ??_C@_1CM@IIKMBBJF@?$AAi?$AAn?$AAd?$AAe?$AAx?$AA?5?$AA?$DN?$AA?$DN?$AA?5?$AAc?$AAo?$AAn?$AAt?$AAa?$AAc?$AAt?$AAC?$AAo?$AAu?$AAn?$AAt?$AA?$AA@ 10181ae4     physics:dgBroadPhaseCollision.obj
 0002:00003b10       ??_C@_1EM@OLIAFOJM@?$AAb?$AAo?$AAd?$AAy?$AA?9?$AA?$DO?$AAm?$AA_?$AAi?$AAn?$AAv?$AAM?$AAa?$AAs?$AAs?$AA?4?$AAm?$AA_?$AAw?$AA?5?$AA?$DO?$AA?5?$AAd?$AAg?$AAF?$AAl?$AAo?$AAa?$AAt?$AA3?$AA2?$AA?$CI@ 10181b10     physics:dgBroadPhaseCollision.obj
 0002:00003b60       ??_C@_1BJK@BJNAOAON@?$AAb?$AAo?$AAd?$AAy?$AA?9?$AA?$DO?$AAm?$AA_?$AAc?$AAo?$AAl?$AAl?$AAi?$AAs?$AAi?$AAo?$AAn?$AA?9?$AA?$DO?$AAI?$AAs?$AAT?$AAy?$AAp?$AAe?$AA?$CI?$AAd?$AAg?$AAC?$AAo?$AAl?$AAl@ 10181b60     physics:dgBroadPhaseCollision.obj
 0002:00003cfc       __real@38d1b717            10181cfc     physics:dgBroadPhaseCollision.obj
 0002:00003d00       ??_C@_1DG@MDIEFPOL@?$AAc?$AAo?$AAn?$AAt?$AAa?$AAc?$AAt?$AAI?$AAn?$AAd?$AAe?$AAx?$AA?5?$AA?$DM?$AA?5?$AAc?$AAo?$AAn?$AAt?$AAa?$AAc?$AAt?$AAS?$AAi?$AAz?$AAe?$AA?$AA@ 10181d00     physics:dgBroadPhaseCollision.obj
 0002:00003d38       ??_C@_1GI@GIJIHCPK@?$AAp?$AAa?$AAi?$AAr?$AA?4?$AAm?$AA_?$AAc?$AAo?$AAn?$AAt?$AAa?$AAc?$AAt?$AAC?$AAo?$AAu?$AAn?$AAt?$AA?5?$AA?$DM?$AA?$DN?$AA?5?$AA?$CI?$AAD?$AAG?$AA_?$AAC?$AAO?$AAN?$AAS?$AAT@ 10181d38     physics:dgBroadPhaseCollision.obj
 0002:00003da0       ??_C@_1CM@KEMNMPHD@?$AAc?$AAe?$AAl?$AAl?$AA?9?$AA?$DO?$AAm?$AA_?$AAl?$AAa?$AAs?$AAt?$AAS?$AAo?$AAr?$AAt?$AAA?$AAr?$AAr?$AAa?$AAy?$AA?$AA@ 10181da0     physics:dgBroadPhaseCollision.obj
 0002:00003dcc       __real@3f8ccccd            10181dcc     physics:dgBroadPhaseCollision.obj
 0002:00003dd0       __real@322bcc77            10181dd0     physics:dgBroadPhaseCollision.obj
 0002:00003dd4       ??_C@_1BK@MKKPHAPO@?$AAc?$AAe?$AAl?$AAl?$AA?4?$AAm?$AA_?$AAc?$AAo?$AAu?$AAn?$AAt?$AA?$AA@ 10181dd4     physics:dgBroadPhaseCollision.obj
 0002:00003df0       ??_C@_1II@MLILGNIF@?$AAm?$AAa?$AAs?$AAt?$AAe?$AAr?$AAL?$AAi?$AAs?$AAt?$AA?4?$AAG?$AAe?$AAt?$AAF?$AAi?$AAr?$AAs?$AAt?$AA?$CI?$AA?$CJ?$AA?9?$AA?$DO?$AAG?$AAe?$AAt?$AAI?$AAn?$AAf?$AAo?$AA?$CI?$AA?$CJ@ 10181df0     physics:dgBroadPhaseCollision.obj
 0002:00003e78       ??_C@_1BO@IHOIJOM@?$AAS?$AAa?$AAn?$AAi?$AAt?$AAy?$AAC?$AAh?$AAe?$AAc?$AAk?$AA?5?$AA?$CI?$AA?$CJ?$AA?$AA@ 10181e78     physics:dgBroadPhaseCollision.obj
 0002:00003e98       ??_C@_1CC@JGAIKKLL@?$AA?$CB?$AAm?$AA_?$AAf?$AAi?$AAr?$AAs?$AAt?$AA?9?$AA?$DO?$AAm?$AA_?$AAp?$AAr?$AAe?$AAv?$AA?$AA@ 10181e98     physics:dgBroadPhaseCollision.obj
 0002:00003ebc       ??_C@_1BA@DPNDDMAE@?$AAm?$AA_?$AAf?$AAi?$AAr?$AAs?$AAt?$AA?$AA@ 10181ebc     physics:dgBroadPhaseCollision.obj
 0002:00003ecc       ??_C@_1CA@DOMNDHPO@?$AA?$CB?$AAm?$AA_?$AAl?$AAa?$AAs?$AAt?$AA?9?$AA?$DO?$AAm?$AA_?$AAn?$AAe?$AAx?$AAt?$AA?$AA@ 10181ecc     physics:dgBroadPhaseCollision.obj
 0002:00003eec       ??_C@_1O@OFPNLAEI@?$AAm?$AA_?$AAl?$AAa?$AAs?$AAt?$AA?$AA@ 10181eec     physics:dgBroadPhaseCollision.obj
 0002:00003efc       ??_C@_1BK@FGIOLLGP@?$AAn?$AAo?$AAd?$AAe?$AA?5?$AA?$CB?$AA?$DN?$AA?5?$AAr?$AAo?$AAo?$AAt?$AA?$AA@ 10181efc     physics:dgBroadPhaseCollision.obj
 0002:00003f18       ??_C@_19PKPNPKHP@?$AAr?$AAo?$AAo?$AAt?$AA?$AA@ 10181f18     physics:dgBroadPhaseCollision.obj
 0002:00003f28       ??_C@_1EG@BMMEDIOC@?$AAC?$AAo?$AAm?$AAp?$AAa?$AAr?$AAe?$AAK?$AAe?$AAy?$AAs?$AA?5?$AA?$CI?$AAp?$AAt?$AAr?$AA?9?$AA?$DO?$AAm?$AA_?$AAk?$AAe?$AAy?$AA?0?$AA?5?$AAk?$AAe?$AAy?$AA?$CJ?$AA?5?$AA?$DN?$AA?$DN@ 10181f28     physics:dgBroadPhaseCollision.obj
 0002:00003f70       ??_C@_1EG@KEHIFPIH@?$AAC?$AAo?$AAm?$AAp?$AAa?$AAr?$AAe?$AAK?$AAe?$AAy?$AAs?$AA?5?$AA?$CI?$AAp?$AAt?$AAr?$AA?9?$AA?$DO?$AAm?$AA_?$AAk?$AAe?$AAy?$AA?0?$AA?5?$AAk?$AAe?$AAy?$AA?$CJ?$AA?5?$AA?$DN?$AA?$DN@ 10181f70     physics:dgBroadPhaseCollision.obj
 0002:00003fb8       ??_C@_1EI@LDJFLLLF@?$AAC?$AAo?$AAm?$AAp?$AAa?$AAr?$AAe?$AAK?$AAe?$AAy?$AAs?$AA?5?$AA?$CI?$AAp?$AAt?$AAr?$AA?9?$AA?$DO?$AAm?$AA_?$AAk?$AAe?$AAy?$AA?0?$AA?5?$AAk?$AAe?$AAy?$AA?$CJ?$AA?5?$AA?$DN?$AA?$DN@ 10181fb8     physics:dgBroadPhaseCollision.obj
 0002:00004000       ??_C@_1DM@NFANGFEF@?$AA?$CG?$AAr?$AAe?$AAt?$AAn?$AAo?$AAd?$AAe?$AA?9?$AA?$DO?$AAG?$AAe?$AAt?$AAI?$AAn?$AAf?$AAo?$AA?5?$AA?$CI?$AA?$CJ?$AA?5?$AA?$DN?$AA?$DN?$AA?5?$AA?$CG?$AAi?$AAn?$AAf?$AAo?$AA?$AA@ 10182000     physics:dgBroadPhaseCollision.obj
 0002:0000403c       ??_C@_1CK@MKDPNEDG@?$AAr?$AAe?$AAt?$AAn?$AAo?$AAd?$AAe?$AA?9?$AA?$DO?$AAI?$AAs?$AAI?$AAn?$AAT?$AAr?$AAe?$AAe?$AA?5?$AA?$CI?$AA?$CJ?$AA?$AA@ 1018203c     physics:dgBroadPhaseCollision.obj
 0002:00004068       ??_C@_1EG@JEFAAEMN@?$AAn?$AAo?$AAd?$AAe?$AA?9?$AA?$DO?$AAG?$AAe?$AAt?$AAP?$AAr?$AAe?$AAv?$AA?$CI?$AA?$CJ?$AA?5?$AA?$CB?$AA?$DN?$AA?5?$AAn?$AAo?$AAd?$AAe?$AA?9?$AA?$DO?$AAG?$AAe?$AAt?$AAN?$AAe?$AAx?$AAt@ 10182068     physics:dgBroadPhaseCollision.obj
 0002:000040b0       ??_C@_1BI@IFCFADMF@?$AAm?$AA_?$AAa?$AAl?$AAl?$AAo?$AAc?$AAa?$AAt?$AAo?$AAr?$AA?$AA@ 101820b0     physics:dgBroadPhaseCollision.obj
 0002:000040c8       ??_7dgSolverWorlkerThreads@@6B@ 101820c8     physics:dgWorldDynamicUpdate.obj
 0002:000040d0       ??_7dgParallelSolverClear@@6B@ 101820d0     physics:dgWorldDynamicUpdate.obj
 0002:000040d8       ??_7dgParallelSolverBodyInertia@@6B@ 101820d8     physics:dgWorldDynamicUpdate.obj
 0002:000040e0       ??_7dgParallelSolverUpdateVeloc@@6B@ 101820e0     physics:dgWorldDynamicUpdate.obj
 0002:000040e8       ??_7dgParallelSolverUpdateForce@@6B@ 101820e8     physics:dgWorldDynamicUpdate.obj
 0002:000040f0       ??_7dgParallelSolverCalculateForces@@6B@ 101820f0     physics:dgWorldDynamicUpdate.obj
 0002:000040f8       ??_7dgParallelSolverInitInternalForces@@6B@ 101820f8     physics:dgWorldDynamicUpdate.obj
 0002:00004100       ??_7dgParallelSolverBuildJacobianRows@@6B@ 10182100     physics:dgWorldDynamicUpdate.obj
 0002:00004108       ??_7dgParallelSolverJointAcceleration@@6B@ 10182108     physics:dgWorldDynamicUpdate.obj
 0002:00004110       ??_7dgParallelSolverInitFeedbackUpdate@@6B@ 10182110     physics:dgWorldDynamicUpdate.obj
 0002:00004118       ??_7dgParallelSolverBuildJacobianMatrix@@6B@ 10182118     physics:dgWorldDynamicUpdate.obj
 0002:00004120       __real@3d4ccccd            10182120     physics:dgWorldDynamicUpdate.obj
 0002:00004128       ??_C@_1GA@MACEKHJI@?$AA?$CB?$AAm?$AA_?$AAi?$AAs?$AAl?$AAa?$AAn?$AAd?$AAA?$AAr?$AAr?$AAa?$AAy?$AA?$FL?$AAm?$AA_?$AAi?$AAs?$AAl?$AAa?$AAn?$AAd?$AAs?$AA?$FN?$AA?4?$AAm?$AA_?$AAi?$AAs?$AAC?$AAo@ 10182128     physics:dgWorldDynamicUpdate.obj
 0002:00004188       ??_C@_1HI@NNFFOOPN@?$AAn?$AAo?$AAd?$AAe?$AA?9?$AA?$DO?$AAG?$AAe?$AAt?$AAI?$AAn?$AAf?$AAo?$AA?$CI?$AA?$CJ?$AA?4?$AAG?$AAe?$AAt?$AAB?$AAo?$AAd?$AAy?$AA?$CI?$AA?$CJ?$AA?9?$AA?$DO?$AAm?$AA_?$AAi?$AAn?$AAv@ 10182188     physics:dgWorldDynamicUpdate.obj
 0002:00004200       ??_C@_1FM@KCOJDKEJ@?$AA?4?$AA?4?$AA?2?$AA?4?$AA?4?$AA?2?$AA?4?$AA?4?$AA?2?$AAs?$AAd?$AAk?$AA?2?$AAp?$AAh?$AAy?$AAs?$AAi?$AAc?$AAs?$AA?2?$AAd?$AAg?$AAW?$AAo?$AAr?$AAl?$AAd?$AAD?$AAy?$AAn?$AAa@ 10182200     physics:dgWorldDynamicUpdate.obj
 0002:00004260       ??_C@_1HO@PLNBCEKC@?$AAm?$AAe?$AA?4?$AAG?$AAe?$AAt?$AAF?$AAi?$AAr?$AAs?$AAt?$AA?$CI?$AA?$CJ?$AA?9?$AA?$DO?$AAG?$AAe?$AAt?$AAI?$AAn?$AAf?$AAo?$AA?$CI?$AA?$CJ?$AA?4?$AAG?$AAe?$AAt?$AAB?$AAo?$AAd?$AAy@ 10182260     physics:dgWorldDynamicUpdate.obj
 0002:000042e0       ??_C@_1BO@JBEOGDBL@?$AAp?$AAa?$AAi?$AAr?$AA?4?$AAm?$AA_?$AAc?$AAo?$AAn?$AAt?$AAa?$AAc?$AAt?$AA?$AA@ 101822e0     physics:dgWorldDynamicUpdate.obj
 0002:00004300       ??_C@_1CC@NMGBAKDJ@?$AAc?$AAo?$AAn?$AAt?$AAa?$AAc?$AAt?$AA?9?$AA?$DO?$AAm?$AA_?$AAb?$AAo?$AAd?$AAy?$AA1?$AA?$AA@ 10182300     physics:dgWorldDynamicUpdate.obj
 0002:00004324       ??_C@_1CC@GENNGNFM@?$AAc?$AAo?$AAn?$AAt?$AAa?$AAc?$AAt?$AA?9?$AA?$DO?$AAm?$AA_?$AAb?$AAo?$AAd?$AAy?$AA0?$AA?$AA@ 10182324     physics:dgWorldDynamicUpdate.obj
 0002:00004348       __real@40800000            10182348     physics:dgWorldDynamicUpdate.obj
 0002:0000434c       ??_C@_1DA@BOHIOHFH@?$AAd?$AAi?$AAs?$AAt?$AA?5?$AA?$DO?$AA?5?$AAd?$AAg?$AAF?$AAl?$AAo?$AAa?$AAt?$AA3?$AA2?$AA?5?$AA?$CI?$AA0?$AA?4?$AA0?$AAf?$AA?$CJ?$AA?$AA@ 1018234c     physics:dgWorldDynamicUpdate.obj
 0002:00004380       ??_C@_1EI@KEEBECEA@?$AAb?$AAo?$AAd?$AAy?$AA?9?$AA?$DO?$AAm?$AA_?$AAm?$AAa?$AAs?$AAs?$AA?4?$AAm?$AA_?$AAw?$AA?5?$AA?$DO?$AA?5?$AAd?$AAg?$AAF?$AAl?$AAo?$AAa?$AAt?$AA3?$AA2?$AA?5?$AA?$CI?$AA0?$AA?4@ 10182380     physics:dgWorldDynamicUpdate.obj
 0002:000043c8       ??_C@_1FC@PBDLAJMC@?$AA?$CI?$AAd?$AAg?$AAU?$AAn?$AAs?$AAi?$AAg?$AAn?$AAe?$AAd?$AA6?$AA4?$AA?5?$AA?$CI?$AAm?$AA_?$AAb?$AAo?$AAd?$AAy?$AAA?$AAr?$AAr?$AAa?$AAy?$AA?$CJ?$AA?5?$AA?$CG?$AA?5?$AA0?$AAx@ 101823c8     physics:dgWorldDynamicUpdate.obj
 0002:00004420       ??_C@_1FG@NKLDEJCN@?$AA?$CI?$AAd?$AAg?$AAU?$AAn?$AAs?$AAi?$AAg?$AAn?$AAe?$AAd?$AA6?$AA4?$AA?5?$AA?$CI?$AAm?$AA_?$AAi?$AAs?$AAl?$AAa?$AAn?$AAd?$AAA?$AAr?$AAr?$AAa?$AAy?$AA?$CJ?$AA?5?$AA?$CG?$AA?5@ 10182420     physics:dgWorldDynamicUpdate.obj
 0002:00004478       ??_C@_1FM@GMGJJDEK@?$AA?$CI?$AAd?$AAg?$AAU?$AAn?$AAs?$AAi?$AAg?$AAn?$AAe?$AAd?$AA6?$AA4?$AA?$CI?$AAm?$AA_?$AAc?$AAo?$AAn?$AAs?$AAt?$AAr?$AAa?$AAi?$AAn?$AAt?$AAA?$AAr?$AAr?$AAa?$AAy?$AA?$CJ@ 10182478     physics:dgWorldDynamicUpdate.obj
 0002:000044d8       ??_C@_1FC@IOCBOGAA@?$AA?$CI?$AAd?$AAg?$AAU?$AAn?$AAs?$AAi?$AAg?$AAn?$AAe?$AAd?$AA6?$AA4?$AA?$CI?$AAa?$AAc?$AAc?$AAe?$AAl?$AAI?$AAs?$AAM?$AAo?$AAt?$AAo?$AAr?$AA?$CJ?$AA?5?$AA?$CG?$AA?5?$AA0?$AAx@ 101824d8     physics:dgWorldDynamicUpdate.obj
 0002:00004530       ??_C@_1FK@NFABCNJH@?$AA?$CI?$AAd?$AAg?$AAU?$AAn?$AAs?$AAi?$AAg?$AAn?$AAe?$AAd?$AA6?$AA4?$AA?$CI?$AAn?$AAo?$AAr?$AAm?$AAa?$AAl?$AAF?$AAo?$AAr?$AAc?$AAe?$AAI?$AAn?$AAd?$AAe?$AAx?$AA?$CJ?$AA?5@ 10182530     physics:dgWorldDynamicUpdate.obj
 0002:00004590       ??_C@_1FE@HDMNFCD@?$AA?$CI?$AAd?$AAg?$AAU?$AAn?$AAs?$AAi?$AAg?$AAn?$AAe?$AAd?$AA6?$AA4?$AA?$CI?$AAf?$AAo?$AAr?$AAc?$AAe?$AAF?$AAe?$AAe?$AAd?$AAb?$AAa?$AAc?$AAk?$AA?$CJ?$AA?5?$AA?$CG?$AA?5?$AA0@ 10182590     physics:dgWorldDynamicUpdate.obj
 0002:000045e8       ??_C@_1HC@LLELBKDC@?$AA?$CI?$AAd?$AAg?$AAU?$AAn?$AAs?$AAi?$AAg?$AAn?$AAe?$AAd?$AA6?$AA4?$AA?$CI?$AAu?$AAp?$AAp?$AAe?$AAr?$AAB?$AAo?$AAu?$AAn?$AAd?$AAF?$AAr?$AAi?$AAc?$AAt?$AAi?$AAo?$AAn@ 101825e8     physics:dgWorldDynamicUpdate.obj
 0002:00004660       ??_C@_1HC@GBFJHIJK@?$AA?$CI?$AAd?$AAg?$AAU?$AAn?$AAs?$AAi?$AAg?$AAn?$AAe?$AAd?$AA6?$AA4?$AA?$CI?$AAl?$AAo?$AAw?$AAe?$AAr?$AAB?$AAo?$AAu?$AAn?$AAd?$AAF?$AAr?$AAi?$AAc?$AAt?$AAi?$AAo?$AAn@ 10182660     physics:dgWorldDynamicUpdate.obj
 0002:000046d8       ??_C@_1GC@HLCKOBKB@?$AA?$CI?$AAd?$AAg?$AAU?$AAn?$AAs?$AAi?$AAg?$AAn?$AAe?$AAd?$AA6?$AA4?$AA?$CI?$AAp?$AAe?$AAn?$AAe?$AAt?$AAr?$AAa?$AAt?$AAi?$AAo?$AAn?$AAS?$AAt?$AAi?$AAf?$AAf?$AAn?$AAe@ 101826d8     physics:dgWorldDynamicUpdate.obj
 0002:00004740       ??_C@_1FI@PJDHHJIM@?$AA?$CI?$AAd?$AAg?$AAU?$AAn?$AAs?$AAi?$AAg?$AAn?$AAe?$AAd?$AA6?$AA4?$AA?$CI?$AAc?$AAo?$AAo?$AAr?$AAd?$AAe?$AAn?$AAa?$AAt?$AAe?$AAA?$AAc?$AAc?$AAe?$AAl?$AA?$CJ?$AA?5?$AA?$CG@ 10182740     physics:dgWorldDynamicUpdate.obj
 0002:00004798       ??_C@_1FA@HKOLNDGP@?$AA?$CI?$AAd?$AAg?$AAU?$AAn?$AAs?$AAi?$AAg?$AAn?$AAe?$AAd?$AA6?$AA4?$AA?$CI?$AAi?$AAn?$AAv?$AAD?$AAJ?$AAM?$AAi?$AAn?$AAv?$AAJ?$AAt?$AA?$CJ?$AA?5?$AA?$CG?$AA?5?$AA0?$AAx?$AA0@ 10182798     physics:dgWorldDynamicUpdate.obj
 0002:000047e8       ??_C@_1FA@NAGEEDJL@?$AA?$CI?$AAd?$AAg?$AAU?$AAn?$AAs?$AAi?$AAg?$AAn?$AAe?$AAd?$AA6?$AA4?$AA?$CI?$AAr?$AAe?$AAs?$AAt?$AAi?$AAt?$AAu?$AAt?$AAi?$AAo?$AAn?$AA?$CJ?$AA?5?$AA?$CG?$AA?5?$AA0?$AAx?$AA0@ 101827e8     physics:dgWorldDynamicUpdate.obj
 0002:00004838       ??_C@_1FA@OOKELIPG@?$AA?$CI?$AAd?$AAg?$AAU?$AAn?$AAs?$AAi?$AAg?$AAn?$AAe?$AAd?$AA6?$AA4?$AA?$CI?$AAp?$AAe?$AAn?$AAe?$AAt?$AAr?$AAa?$AAt?$AAi?$AAo?$AAn?$AA?$CJ?$AA?5?$AA?$CG?$AA?5?$AA0?$AAx?$AA0@ 10182838     physics:dgWorldDynamicUpdate.obj
 0002:00004888       ??_C@_1EK@FNIAMEON@?$AA?$CI?$AAd?$AAg?$AAU?$AAn?$AAs?$AAi?$AAg?$AAn?$AAe?$AAd?$AA6?$AA4?$AA?$CI?$AAd?$AAi?$AAa?$AAg?$AAD?$AAa?$AAm?$AAp?$AA?$CJ?$AA?5?$AA?$CG?$AA?5?$AA0?$AAx?$AA0?$AAf?$AA?$CJ?$AA?5@ 10182888     physics:dgWorldDynamicUpdate.obj
 0002:000048d8       ??_C@_1EO@CODLCIAH@?$AA?$CI?$AAd?$AAg?$AAU?$AAn?$AAs?$AAi?$AAg?$AAn?$AAe?$AAd?$AA6?$AA4?$AA?$CI?$AAd?$AAe?$AAl?$AAt?$AAa?$AAF?$AAo?$AAr?$AAc?$AAe?$AA?$CJ?$AA?5?$AA?$CG?$AA?5?$AA0?$AAx?$AA0?$AAf@ 101828d8     physics:dgWorldDynamicUpdate.obj
 0002:00004928       ??_C@_1EO@IFCFLNAO@?$AA?$CI?$AAd?$AAg?$AAU?$AAn?$AAs?$AAi?$AAg?$AAn?$AAe?$AAd?$AA6?$AA4?$AA?$CI?$AAd?$AAe?$AAl?$AAt?$AAa?$AAA?$AAc?$AAc?$AAe?$AAl?$AA?$CJ?$AA?5?$AA?$CG?$AA?5?$AA0?$AAx?$AA0?$AAf@ 10182928     physics:dgWorldDynamicUpdate.obj
 0002:00004978       ??_C@_1EE@HFLOCGIE@?$AA?$CI?$AAd?$AAg?$AAU?$AAn?$AAs?$AAi?$AAg?$AAn?$AAe?$AAd?$AA6?$AA4?$AA?$CI?$AAa?$AAc?$AAc?$AAe?$AAl?$AA?$CJ?$AA?5?$AA?$CG?$AA?5?$AA0?$AAx?$AA0?$AAf?$AA?$CJ?$AA?5?$AA?$DN?$AA?$DN?$AA?5@ 10182978     physics:dgWorldDynamicUpdate.obj
 0002:000049c0       ??_C@_1EE@NOKALDIN@?$AA?$CI?$AAd?$AAg?$AAU?$AAn?$AAs?$AAi?$AAg?$AAn?$AAe?$AAd?$AA6?$AA4?$AA?$CI?$AAf?$AAo?$AAr?$AAc?$AAe?$AA?$CJ?$AA?5?$AA?$CG?$AA?5?$AA0?$AAx?$AA0?$AAf?$AA?$CJ?$AA?5?$AA?$DN?$AA?$DN?$AA?5@ 101829c0     physics:dgWorldDynamicUpdate.obj
 0002:00004a08       ??_C@_1EE@FODGDJML@?$AA?$CI?$AAd?$AAg?$AAU?$AAn?$AAs?$AAi?$AAg?$AAn?$AAe?$AAd?$AA6?$AA4?$AA?$CI?$AAJ?$AAM?$AAi?$AAn?$AAv?$AA?$CJ?$AA?5?$AA?$CG?$AA?5?$AA0?$AAx?$AA0?$AAf?$AA?$CJ?$AA?5?$AA?$DN?$AA?$DN?$AA?5@ 10182a08     physics:dgWorldDynamicUpdate.obj
 0002:00004a4c       ??_C@_1DO@OKIJPGOM@?$AA?$CI?$AAd?$AAg?$AAU?$AAn?$AAs?$AAi?$AAg?$AAn?$AAe?$AAd?$AA6?$AA4?$AA?$CI?$AAJ?$AAt?$AA?$CJ?$AA?5?$AA?$CG?$AA?5?$AA0?$AAx?$AA0?$AAf?$AA?$CJ?$AA?5?$AA?$DN?$AA?$DN?$AA?5?$AA0?$AA?$AA@ 10182a4c     physics:dgWorldDynamicUpdate.obj
 0002:00004a90       ??_C@_1FE@NBMMFAIG@?$AA?$CI?$AAd?$AAg?$AAU?$AAn?$AAs?$AAi?$AAg?$AAn?$AAe?$AAd?$AA6?$AA4?$AA?$CI?$AAi?$AAn?$AAt?$AAe?$AAr?$AAn?$AAa?$AAl?$AAV?$AAe?$AAl?$AAo?$AAc?$AA?$CJ?$AA?5?$AA?$CG?$AA?5?$AA0@ 10182a90     physics:dgWorldDynamicUpdate.obj
 0002:00004ae8       ??_C@_1FG@NLEJHBJI@?$AA?$CI?$AAd?$AAg?$AAU?$AAn?$AAs?$AAi?$AAg?$AAn?$AAe?$AAd?$AA6?$AA4?$AA?$CI?$AAi?$AAn?$AAt?$AAe?$AAr?$AAn?$AAa?$AAl?$AAF?$AAo?$AAr?$AAc?$AAe?$AAs?$AA?$CJ?$AA?5?$AA?$CG?$AA?5@ 10182ae8     physics:dgWorldDynamicUpdate.obj
 0002:00004b40       ??_C@_1OO@LIGLDACN@?$AA?$CI?$AA?$CI?$AA?$CI?$AAd?$AAg?$AAI?$AAn?$AAt?$AA8?$AA?5?$AA?$CK?$AA?$CJ?$AA?$CG?$AAt?$AAr?$AAe?$AAa?$AAd?$AAL?$AAo?$AAc?$AAk?$AAs?$AA?$FL?$AAn?$AAe?$AAw?$AAC?$AAo?$AAu?$AAn?$AAt@ 10182b40     physics:dgWorldDynamicUpdate.obj
 0002:00004c30       ??_C@_1CI@OIEHBPCD@?$AAc?$AAo?$AAn?$AAs?$AAt?$AAr?$AAa?$AAi?$AAn?$AAt?$AA?9?$AA?$DO?$AAm?$AA_?$AAb?$AAo?$AAd?$AAy?$AA1?$AA?$AA@ 10182c30     physics:dgWorldDynamicUpdate.obj
 0002:00004c58       ??_C@_1CI@FAPLHIEG@?$AAc?$AAo?$AAn?$AAs?$AAt?$AAr?$AAa?$AAi?$AAn?$AAt?$AA?9?$AA?$DO?$AAm?$AA_?$AAb?$AAo?$AAd?$AAy?$AA0?$AA?$AA@ 10182c58     physics:dgWorldDynamicUpdate.obj
 0002:00004c80       ??_C@_1MO@CFIABINL@?$AA?$CI?$AAc?$AAo?$AAn?$AAs?$AAt?$AAr?$AAa?$AAi?$AAn?$AAt?$AA?9?$AA?$DO?$AAm?$AA_?$AAb?$AAo?$AAd?$AAy?$AA0?$AA?5?$AA?$DN?$AA?$DN?$AA?5?$AAm?$AA_?$AAw?$AAo?$AAr?$AAl?$AAd?$AA?9@ 10182c80     physics:dgWorldDynamicUpdate.obj
 0002:00004d50       ??_C@_1CG@PJILLGLK@?$AAb?$AAo?$AAd?$AAy?$AA?9?$AA?$DO?$AAm?$AA_?$AAm?$AAa?$AAs?$AAt?$AAe?$AAr?$AAN?$AAo?$AAd?$AAe?$AA?$AA@ 10182d50     physics:dgWorldDynamicUpdate.obj
 0002:00004d78       ??_C@_1FC@BNNDKFKK@?$AAd?$AAg?$AAI?$AAn?$AAt?$AA3?$AA2?$AA?5?$AA?$CI?$AAb?$AAo?$AAd?$AAy?$AA?9?$AA?$DO?$AAm?$AA_?$AAd?$AAy?$AAn?$AAa?$AAm?$AAi?$AAc?$AAs?$AAL?$AAr?$AAu?$AA?$CJ?$AA?5?$AA?$DN?$AA?$DN@ 10182d78     physics:dgWorldDynamicUpdate.obj
 0002:00004dd0       ??_C@_1HO@DDICFMNC@?$AAd?$AAg?$AAI?$AAn?$AAt?$AA3?$AA2?$AA?5?$AA?$CI?$AAm?$AA_?$AAw?$AAo?$AAr?$AAl?$AAd?$AA?9?$AA?$DO?$AAm?$AA_?$AAs?$AAe?$AAn?$AAt?$AAi?$AAo?$AAn?$AAe?$AAl?$AAB?$AAo?$AAd@ 10182dd0     physics:dgWorldDynamicUpdate.obj
 0002:00004e50       ??_C@_1EO@KPEFEBLO@?$AAm?$AA_?$AAw?$AAo?$AAr?$AAl?$AAd?$AA?9?$AA?$DO?$AAm?$AA_?$AAs?$AAe?$AAn?$AAt?$AAi?$AAo?$AAn?$AAe?$AAl?$AAB?$AAo?$AAd?$AAy?$AA?9?$AA?$DO?$AAm?$AA_?$AAi?$AAn?$AAd?$AAe@ 10182e50     physics:dgWorldDynamicUpdate.obj
 0002:00004ea0       ??_C@_1BK@JLEADMJE@?$AAh?$AAe?$AAa?$AAv?$AAi?$AAe?$AAs?$AAt?$AAB?$AAo?$AAd?$AAy?$AA?$AA@ 10182ea0     physics:dgWorldDynamicUpdate.obj
 0002:00004ec0       ??_C@_1FG@MENMJKFD@?$AAd?$AAg?$AAI?$AAn?$AAt?$AA3?$AA2?$AA?5?$AA?$CI?$AAb?$AAo?$AAd?$AAy?$AA?9?$AA?$DO?$AAm?$AA_?$AAd?$AAy?$AAn?$AAa?$AAm?$AAi?$AAc?$AAs?$AAL?$AAr?$AAu?$AA?$CJ?$AA?5?$AA?$DN?$AA?$DN@ 10182ec0     physics:dgWorldDynamicUpdate.obj
 0002:00004f18       ??_C@_1GC@OPNEJCKO@?$AAd?$AAg?$AAI?$AAn?$AAt?$AA3?$AA2?$AA?5?$AA?$CI?$AAc?$AAo?$AAn?$AAs?$AAt?$AAr?$AAa?$AAi?$AAn?$AAt?$AA?9?$AA?$DO?$AAm?$AA_?$AAd?$AAy?$AAn?$AAa?$AAm?$AAi?$AAc?$AAs?$AAL@ 10182f18     physics:dgWorldDynamicUpdate.obj
 0002:00004f7c       ??_C@_1DA@EOOLEIEM@?$AAb?$AAo?$AAd?$AAy?$AA?5?$AA?$DN?$AA?$DN?$AA?5?$AAc?$AAe?$AAl?$AAl?$AA?4?$AAm?$AA_?$AAb?$AAo?$AAd?$AAy?$AAN?$AAo?$AAd?$AAe?$AA?$AA@ 10182f7c     physics:dgWorldDynamicUpdate.obj
 0002:00004fac       ??_C@_1CM@LBCGOMJK@?$AAs?$AAr?$AAc?$AAB?$AAo?$AAd?$AAy?$AA?9?$AA?$DO?$AAm?$AA_?$AAm?$AAa?$AAs?$AAt?$AAe?$AAr?$AAN?$AAo?$AAd?$AAe?$AA?$AA@ 10182fac     physics:dgWorldDynamicUpdate.obj
 0002:00004fd8       ??_C@_1FI@PPFGEKKI@?$AAd?$AAg?$AAI?$AAn?$AAt?$AA3?$AA2?$AA?5?$AA?$CI?$AAs?$AAr?$AAc?$AAB?$AAo?$AAd?$AAy?$AA?9?$AA?$DO?$AAm?$AA_?$AAd?$AAy?$AAn?$AAa?$AAm?$AAi?$AAc?$AAs?$AAL?$AAr?$AAu?$AA?$CJ@ 10182fd8     physics:dgWorldDynamicUpdate.obj
 0002:00005030       ??_C@_1FE@KDFNNLGP@?$AAs?$AAr?$AAc?$AAB?$AAo?$AAd?$AAy?$AA?9?$AA?$DO?$AAm?$AA_?$AAi?$AAn?$AAv?$AAM?$AAa?$AAs?$AAs?$AA?4?$AAm?$AA_?$AAw?$AA?5?$AA?$DO?$AA?5?$AAd?$AAg?$AAF?$AAl?$AAo?$AAa?$AAt@ 10183030     physics:dgWorldDynamicUpdate.obj
 0002:00005084       ??_C@_1BA@KHPBLNIB@?$AAs?$AAr?$AAc?$AAB?$AAo?$AAd?$AAy?$AA?$AA@ 10183084     physics:dgWorldDynamicUpdate.obj
 0002:00005094       __real@42700000            10183094     physics:dgWorldDynamicUpdate.obj
 0002:00005098       __real@3f7ff972            10183098     physics:dgWorldDynamicUpdate.obj
 0002:0000509c       __real@3f666666            1018309c     physics:dgWorldDynamicUpdate.obj
 0002:000050a0       ??_C@_1FE@LGCGGBMH@?$AA?$CI?$AAr?$AAo?$AAw?$AAC?$AAo?$AAu?$AAn?$AAt?$AA?5?$AA?$CG?$AA?5?$AA?$CI?$AAD?$AAG?$AA_?$AAS?$AAI?$AAM?$AAD?$AA_?$AAW?$AAO?$AAR?$AAD?$AA_?$AAS?$AAI?$AAZ?$AAE?$AA?5?$AA?9@ 101830a0     physics:dgWorldDynamicUpdate.obj
 0002:000050f8       ??_C@_1HE@PJNFGLMO@?$AAc?$AAo?$AAn?$AAs?$AAt?$AAr?$AAa?$AAi?$AAn?$AAt?$AAP?$AAa?$AAr?$AAa?$AAm?$AAs?$AA?4?$AAm?$AA_?$AAj?$AAo?$AAi?$AAn?$AAt?$AAS?$AAt?$AAi?$AAf?$AAf?$AAn?$AAe?$AAs@ 101830f8     physics:dgWorldDynamicUpdate.obj
 0002:00005170       ??_C@_1HA@PKOCAFKK@?$AAc?$AAo?$AAn?$AAs?$AAt?$AAr?$AAa?$AAi?$AAn?$AAt?$AAP?$AAa?$AAr?$AAa?$AAm?$AAs?$AA?4?$AAm?$AA_?$AAj?$AAo?$AAi?$AAn?$AAt?$AAS?$AAt?$AAi?$AAf?$AAf?$AAn?$AAe?$AAs@ 10183170     physics:dgWorldDynamicUpdate.obj
 0002:000051e0       ??_C@_1FO@BOCJMMGO@?$AAc?$AAo?$AAn?$AAs?$AAt?$AAr?$AAa?$AAi?$AAn?$AAt?$AAP?$AAa?$AAr?$AAa?$AAm?$AAs?$AA?4?$AAm?$AA_?$AAf?$AAo?$AAr?$AAc?$AAe?$AAB?$AAo?$AAu?$AAn?$AAd?$AAs?$AA?$FL?$AAi@ 101831e0     physics:dgWorldDynamicUpdate.obj
 0002:00005240       ??_C@_1EO@JMBCDEMB@?$AAc?$AAo?$AAn?$AAs?$AAt?$AAr?$AAa?$AAi?$AAn?$AAt?$AA?9?$AA?$DO?$AAm?$AA_?$AAi?$AAn?$AAd?$AAe?$AAx?$AA?5?$AA?$DN?$AA?$DN?$AA?5?$AAd?$AAg?$AAU?$AAn?$AAs?$AAi?$AAg?$AAn?$AAe@ 10183240     physics:dgWorldDynamicUpdate.obj
 0002:00005290       ??_C@_1DM@OEHDKDHA@?$AAd?$AAo?$AAf?$AA?5?$AA?$DM?$AA?$DN?$AA?5?$AAD?$AAG?$AA_?$AAC?$AAO?$AAN?$AAS?$AAT?$AAR?$AAA?$AAI?$AAN?$AAT?$AA_?$AAM?$AAA?$AAX?$AA_?$AAR?$AAO?$AAW?$AAS?$AA?$AA@ 10183290     physics:dgWorldDynamicUpdate.obj
 0002:000052cc       ??_C@_1DA@KODFPJGN@?$AAd?$AAi?$AAa?$AAg?$AA?5?$AA?$DO?$AA?5?$AAd?$AAg?$AAF?$AAl?$AAo?$AAa?$AAt?$AA3?$AA2?$AA?5?$AA?$CI?$AA0?$AA?4?$AA0?$AAf?$AA?$CJ?$AA?$AA@ 101832cc     physics:dgWorldDynamicUpdate.obj
 0002:00005300       ??_C@_1EK@GHHCKKMO@?$AAd?$AAi?$AAa?$AAg?$AAD?$AAa?$AAm?$AAp?$AA?$FL?$AAi?$AAn?$AAd?$AAe?$AAx?$AA?$FN?$AA?5?$AA?$DM?$AA?$DN?$AA?5?$AAd?$AAg?$AAF?$AAl?$AAo?$AAa?$AAt?$AA3?$AA2?$AA?$CI?$AA1?$AA0?$AA0@ 10183300     physics:dgWorldDynamicUpdate.obj
 0002:00005350       ??_C@_1EG@MPFCENIH@?$AAd?$AAi?$AAa?$AAg?$AAD?$AAa?$AAm?$AAp?$AA?$FL?$AAi?$AAn?$AAd?$AAe?$AAx?$AA?$FN?$AA?5?$AA?$DO?$AA?$DN?$AA?5?$AAd?$AAg?$AAF?$AAl?$AAo?$AAa?$AAt?$AA3?$AA2?$AA?$CI?$AA0?$AA?4?$AA1@ 10183350     physics:dgWorldDynamicUpdate.obj
 0002:00005398       ??_C@_1FC@HDMNEIPN@?$AAt?$AAm?$AAp?$AAA?$AAc?$AAc?$AAe?$AAl?$AA?4?$AAm?$AA1?$AA2?$AA8?$AA_?$AAf?$AA3?$AA2?$AA?$FL?$AA3?$AA?$FN?$AA?5?$AA?$DN?$AA?$DN?$AA?5?$AAd?$AAg?$AAF?$AAl?$AAo?$AAa?$AAt?$AA3@ 10183398     physics:dgWorldDynamicUpdate.obj
 0002:000053f0       ??_C@_1HK@ECEOPHFK@?$AA?$CI?$AAd?$AAg?$AAU?$AAn?$AAs?$AAi?$AAg?$AAn?$AAe?$AAd?$AA6?$AA4?$AA?5?$AA?$CI?$AA?$CG?$AAb?$AAo?$AAd?$AAy?$AA1?$AA?9?$AA?$DO?$AAm?$AA_?$AAi?$AAn?$AAv?$AAW?$AAo?$AAr?$AAl@ 101833f0     physics:dgWorldDynamicUpdate.obj
 0002:00005470       ??_C@_1HK@ILCPBGBP@?$AA?$CI?$AAd?$AAg?$AAU?$AAn?$AAs?$AAi?$AAg?$AAn?$AAe?$AAd?$AA6?$AA4?$AA?5?$AA?$CI?$AA?$CG?$AAb?$AAo?$AAd?$AAy?$AA0?$AA?9?$AA?$DO?$AAm?$AA_?$AAi?$AAn?$AAv?$AAW?$AAo?$AAr?$AAl@ 10183470     physics:dgWorldDynamicUpdate.obj
 0002:000054ec       ??_C@_1BO@OKOLCLND@?$AAm?$AA1?$AA?5?$AA?$DM?$AA?5?$AAb?$AAo?$AAd?$AAy?$AAC?$AAo?$AAu?$AAn?$AAt?$AA?$AA@ 101834ec     physics:dgWorldDynamicUpdate.obj
 0002:0000550c       ??_C@_1BA@JCNCAMPO@?$AAm?$AA1?$AA?5?$AA?$DO?$AA?$DN?$AA?5?$AA0?$AA?$AA@ 1018350c     physics:dgWorldDynamicUpdate.obj
 0002:0000551c       ??_C@_1BO@OLFONGMO@?$AAm?$AA0?$AA?5?$AA?$DM?$AA?5?$AAb?$AAo?$AAd?$AAy?$AAC?$AAo?$AAu?$AAn?$AAt?$AA?$AA@ 1018351c     physics:dgWorldDynamicUpdate.obj
 0002:0000553c       ??_C@_1BA@PNNONII@?$AAm?$AA0?$AA?5?$AA?$DO?$AA?$DN?$AA?5?$AA0?$AA?$AA@ 1018353c     physics:dgWorldDynamicUpdate.obj
 0002:00005550       ??_C@_1EO@BLOMMCIF@?$AAb?$AAo?$AAd?$AAy?$AA?9?$AA?$DO?$AAm?$AA_?$AAi?$AAn?$AAv?$AAM?$AAa?$AAs?$AAs?$AA?4?$AAm?$AA_?$AAw?$AA?5?$AA?$DO?$AA?5?$AAd?$AAg?$AAF?$AAl?$AAo?$AAa?$AAt?$AA3?$AA2?$AA?5@ 10183550     physics:dgWorldDynamicUpdate.obj
 0002:000055a0       ??_C@_1KE@DLJEBMOD@?$AA?$CI?$AAb?$AAo?$AAd?$AAy?$AAA?$AAr?$AAr?$AAa?$AAy?$AA?$FL?$AA0?$AA?$FN?$AA?4?$AAm?$AA_?$AAb?$AAo?$AAd?$AAy?$AA?9?$AA?$DO?$AAm?$AA_?$AAa?$AAl?$AAp?$AAh?$AAa?$AA?5?$AA?$CF?$AA?5@ 101835a0     physics:dgWorldDynamicUpdate.obj
 0002:00005648       ??_C@_1KE@NPJLDACM@?$AA?$CI?$AAb?$AAo?$AAd?$AAy?$AAA?$AAr?$AAr?$AAa?$AAy?$AA?$FL?$AA0?$AA?$FN?$AA?4?$AAm?$AA_?$AAb?$AAo?$AAd?$AAy?$AA?9?$AA?$DO?$AAm?$AA_?$AAa?$AAc?$AAc?$AAe?$AAl?$AA?5?$AA?$CF?$AA?5@ 10183648     physics:dgWorldDynamicUpdate.obj
 0002:000056ec       ??_C@_1DA@HENMIEMC@?$AAi?$AAs?$AAl?$AAa?$AAn?$AAd?$AA?4?$AAm?$AA_?$AAb?$AAo?$AAd?$AAy?$AAC?$AAo?$AAu?$AAn?$AAt?$AA?5?$AA?$DO?$AA?$DN?$AA?5?$AA2?$AA?$AA@ 101836ec     physics:dgWorldDynamicUpdate.obj
 0002:0000571c       ??_C@_1CE@FDEPKLL@?$AAd?$AAg?$AAC?$AAh?$AAe?$AAc?$AAk?$AAF?$AAl?$AAo?$AAa?$AAt?$AA?$CI?$AAv?$AAa?$AAl?$AA?$CJ?$AA?$AA@ 1018371c     physics:dgWorldDynamicUpdate.obj
 0002:00005740       ??_C@_1O@PJJOBBLK@?$AAi?$AA?5?$AA?$CB?$AA?$DN?$AA?5?$AAj?$AA?$AA@ 10183740     physics:dgWorldDynamicUpdate.obj
 0002:00005750       __real@233877aa            10183750     physics:dgWorldDynamicUpdate.obj
 0002:00005754       ??_C@_1CO@FMKMOHBM@?$AAc?$AAl?$AAa?$AAm?$AAp?$AAe?$AAd?$AAF?$AAo?$AAr?$AAc?$AAe?$AAI?$AAn?$AAd?$AAe?$AAx?$AA?5?$AA?$CB?$AA?$DN?$AA?9?$AA1?$AA?$AA@ 10183754     physics:dgWorldDynamicUpdate.obj
 0002:00005784       __real@40400000            10183784     physics:dgWorldDynamicUpdate.obj
 0002:00005788       ??_C@_1FA@GAIJIFNM@?$AAc?$AAo?$AAn?$AAs?$AAt?$AAr?$AAa?$AAi?$AAn?$AAt?$AAA?$AAr?$AAr?$AAa?$AAy?$AA?$FL?$AA0?$AA?$FN?$AA?4?$AAm?$AA_?$AAa?$AAu?$AAt?$AAo?$AAP?$AAa?$AAi?$AAr?$AAs?$AAt?$AAa@ 10183788     physics:dgWorldDynamicUpdate.obj
 0002:000057d8       __real@a4e69595            101837d8     physics:dgWorldDynamicUpdate.obj
 0002:000057dc       __real@24e69595            101837dc     physics:dgWorldDynamicUpdate.obj
 0002:000057e0       __real@3727c5ac            101837e0     physics:dgWorldDynamicUpdate.obj
 0002:000057e4       ??_C@_1DA@EPCBADKC@?$AAa?$AAk?$AAD?$AAe?$AAn?$AA?5?$AA?$DO?$AA?5?$AAd?$AAg?$AAF?$AAl?$AAo?$AAa?$AAt?$AA3?$AA2?$AA?$CI?$AA0?$AA?4?$AA0?$AAf?$AA?$CJ?$AA?$AA@ 101837e4     physics:dgWorldDynamicUpdate.obj
 0002:00005814       ??_C@_1CO@ELIGDHHP@?$AAd?$AAg?$AAC?$AAh?$AAe?$AAc?$AAk?$AAF?$AAl?$AAo?$AAa?$AAt?$AA?$CI?$AAa?$AAc?$AAc?$AAe?$AAl?$AA?$FL?$AAk?$AA?$FN?$AA?$CJ?$AA?$AA@ 10183814     physics:dgWorldDynamicUpdate.obj
 0002:00005844       ??_C@_1CO@JLBPDGMO@?$AAd?$AAg?$AAC?$AAh?$AAe?$AAc?$AAk?$AAF?$AAl?$AAo?$AAa?$AAt?$AA?$CI?$AAf?$AAo?$AAr?$AAc?$AAe?$AA?$FL?$AAk?$AA?$FN?$AA?$CJ?$AA?$AA@ 10183844     physics:dgWorldDynamicUpdate.obj
 0002:00005878       ??_C@_1EA@IABBDMFB@?$AAa?$AAc?$AAt?$AAi?$AAv?$AAe?$AAR?$AAo?$AAw?$AA?$FL?$AAk?$AA?$FN?$AA?5?$AA?$DO?$AA?5?$AAd?$AAg?$AAF?$AAl?$AAo?$AAa?$AAt?$AA3?$AA2?$AA?5?$AA?$CI?$AA0?$AA?4?$AA0?$AAf?$AA?$CJ?$AA?$AA@ 10183878     physics:dgWorldDynamicUpdate.obj
 0002:000058b8       ??_C@_1EM@CIBAJANJ@?$AAd?$AAg?$AAA?$AAb?$AAs?$AAf?$AA?5?$AA?$CI?$AAa?$AAk?$AAD?$AAe?$AAn?$AA?$CJ?$AA?5?$AA?$DO?$AA?$DN?$AA?5?$AAd?$AAg?$AAF?$AAl?$AAo?$AAa?$AAt?$AA3?$AA2?$AA?$CI?$AA1?$AA?4?$AA0?$AAe@ 101838b8     physics:dgWorldDynamicUpdate.obj
 0002:00005904       ??_C@_1DC@EPPDFABA@?$AAa?$AAk?$AAD?$AAe?$AAn?$AA?5?$AA?$DO?$AA?5?$AAd?$AAg?$AAF?$AAl?$AAo?$AAa?$AAt?$AA3?$AA2?$AA?5?$AA?$CI?$AA0?$AA?4?$AA0?$AAf?$AA?$CJ?$AA?$AA@ 10183904     physics:dgWorldDynamicUpdate.obj
 0002:00005938       ??_C@_1LG@EDCMBOML@?$AA?$CI?$AA?$CI?$AAk?$AA?5?$AA?$DM?$AA0?$AA?$CJ?$AA?5?$AA?$CG?$AA?$CG?$AA?5?$AA?$CI?$AAf?$AAo?$AAr?$AAc?$AAe?$AA?$FL?$AAk?$AA?$FN?$AA?5?$AA?$DN?$AA?$DN?$AA?5?$AAd?$AAg?$AAF?$AAl?$AAo?$AAa?$AAt?$AA3@ 10183938     physics:dgWorldDynamicUpdate.obj
 0002:000059f0       ??_C@_1DE@POBPAAI@?$AAa?$AAk?$AAN?$AAu?$AAm?$AA?5?$AA?$DO?$AA?$DN?$AA?5?$AAd?$AAg?$AAF?$AAl?$AAo?$AAa?$AAt?$AA3?$AA2?$AA?5?$AA?$CI?$AA0?$AA?4?$AA0?$AAf?$AA?$CJ?$AA?$AA@ 101839f0     physics:dgWorldDynamicUpdate.obj
 0002:00005a24       __real@b727c5ac            10183a24     physics:dgWorldDynamicUpdate.obj
 0002:00005a28       ??_C@_1EA@IAIADLFH@?$AAd?$AAg?$AAC?$AAh?$AAe?$AAc?$AAk?$AAF?$AAl?$AAo?$AAa?$AAt?$AA?$CI?$AAd?$AAe?$AAl?$AAt?$AAa?$AAF?$AAo?$AAr?$AAc?$AAe?$AA?$FL?$AAi?$AAn?$AAd?$AAe?$AAx?$AA?$FN?$AA?$CJ?$AA?$AA@ 10183a28     physics:dgWorldDynamicUpdate.obj
 0002:00005a68       ??_C@_1BBG@IHGLHKEM@?$AA?$CI?$AAi?$AA?5?$AA?$CB?$AA?$DN?$AA?5?$AAc?$AAl?$AAa?$AAm?$AAp?$AAe?$AAd?$AAF?$AAo?$AAr?$AAc?$AAe?$AAJ?$AAo?$AAi?$AAn?$AAt?$AA?$CJ?$AA?5?$AA?$HM?$AA?$HM?$AA?5?$AA?$CB?$AA?$CI?$AA?$CI?$AAd@ 10183a68     physics:dgWorldDynamicUpdate.obj
 0002:00005b80       ??_C@_1BBG@LMPKHGHL@?$AA?$CI?$AAi?$AA?5?$AA?$CB?$AA?$DN?$AA?5?$AAc?$AAl?$AAa?$AAm?$AAp?$AAe?$AAd?$AAF?$AAo?$AAr?$AAc?$AAe?$AAJ?$AAo?$AAi?$AAn?$AAt?$AA?$CJ?$AA?5?$AA?$HM?$AA?$HM?$AA?5?$AA?$CB?$AA?$CI?$AA?$CI?$AAd@ 10183b80     physics:dgWorldDynamicUpdate.obj
 0002:00005c98       ??_C@_1CO@IDCCMBOH@?$AAa?$AAk?$AA?5?$AA?$DO?$AA?$DN?$AA?5?$AAd?$AAg?$AAF?$AAl?$AAo?$AAa?$AAt?$AA3?$AA2?$AA?5?$AA?$CI?$AA0?$AA?4?$AA0?$AAf?$AA?$CJ?$AA?$AA@ 10183c98     physics:dgWorldDynamicUpdate.obj
