 newton_d

 Timestamp is 4d42f094 (Fri Jan 28 08:36:36 2011)

 Preferred load address is 10000000

 Start         Length     Name                   Class
 0001:00000000 00178d2cH .text                   CODE
 0001:00178d30 00001187H .text$x                 CODE
 0001:00179ec0 00001616H .text$yc                CODE
 0001:0017b4e0 00001012H .text$yd                CODE
 0002:00000000 00000104H .CRT$XCA                DATA
 0002:00000104 00000164H .CRT$XCU                DATA
 0002:00000268 00000104H .CRT$XCZ                DATA
 0002:0000036c 00000104H .CRT$XIA                DATA
 0002:00000470 00000118H .CRT$XIC                DATA
 0002:00000588 00000104H .CRT$XIZ                DATA
 0002:0000068c 00000104H .CRT$XPA                DATA
 0002:00000790 00000109H .CRT$XPX                DATA
 0002:0000089c 00000104H .CRT$XPXA               DATA
 0002:000009a0 00000104H .CRT$XPZ                DATA
 0002:00000aa4 00000104H .CRT$XTA                DATA
 0002:00000ba8 00000104H .CRT$XTZ                DATA
 0002:00000cb0 00037e02H .rdata                  DATA
 0002:00038ab4 00000187H .rdata$debug            DATA
 0002:00038c3c 0000031eH .rdata$r                DATA
 0002:00038f60 0000013eH .rdata$sxdata           DATA
 0002:000390a0 00000104H .rtc$IAA                DATA
 0002:000391a4 00000104H .rtc$IZZ                DATA
 0002:000392a8 00000104H .rtc$TAA                DATA
 0002:000393ac 00000104H .rtc$TZZ                DATA
 0002:000394b0 000010c0H .xdata$x                DATA
 0002:0003a570 00003d6eH .edata                  DATA
 0003:00000000 00002440H .data                   DATA
 0003:00002440 000047c8H .bss                    DATA
 0004:00000000 00000014H .idata$2                DATA
 0004:00000014 00000014H .idata$3                DATA
 0004:00000028 00000228H .idata$4                DATA
 0004:00000250 00000228H .idata$5                DATA
 0004:00000478 00000982H .idata$6                DATA
 0005:00000000 00000169H .rsrc$01                DATA
 0005:00000170 00000580H .rsrc$02                DATA

  Address         Publics by Value              Rva+Base       Lib:Object

 0000:00000000       __except_list              00000000     <absolute>
 0000:0000000d       ___safe_se_handler_count   0000000d     <absolute>
 0000:00000000       ___ImageBase               10000000     <linker-defined>
 0001:00001650       ?TraceFuntionName@@YAXPBD@Z 10002650 f   Newton.obj
 0001:00001670       _DllMain@12                10002670 f   Newton.obj
 0001:00001680       _NewtonGetMemoryUsed       10002680 f   Newton.obj
 0001:00001690       _NewtonSetMemorySystem     10002690 f   Newton.obj
 0001:000016e0       _NewtonCreate              100026e0 f   Newton.obj
 0001:000017f0       _NewtonDestroy             100027f0 f   Newton.obj
 0001:00001890       _NewtonInvalidateCache     10002890 f   Newton.obj
 0001:000018b0       _NewtonSetPlatformArchitecture 100028b0 f   Newton.obj
 0001:000018d0       _NewtonGetPlatformArchitecture 100028d0 f   Newton.obj
 0001:000018f0       _NewtonWorldCriticalSectionLock 100028f0 f   Newton.obj
 0001:00001910       _NewtonWorldCriticalSectionUnlock 10002910 f   Newton.obj
 0001:00001930       _NewtonSetThreadsCount     10002930 f   Newton.obj
 0001:00001950       _NewtonGetThreadsCount     10002950 f   Newton.obj
 0001:00001970       _NewtonGetMaxThreadsCount  10002970 f   Newton.obj
 0001:00001990       _NewtonSetMultiThreadSolverOnSingleIsland 10002990 f   Newton.obj
 0001:000019b0       _NewtonGetMultiThreadSolverOnSingleIsland 100029b0 f   Newton.obj
 0001:000019d0       _NewtonSetSolverModel      100029d0 f   Newton.obj
 0001:000019f0       _NewtonSetFrictionModel    100029f0 f   Newton.obj
 0001:00001a10       _NewtonSetPerformanceClock 10002a10 f   Newton.obj
 0001:00001a30       _NewtonReadPerformanceTicks 10002a30 f   Newton.obj
 0001:00001a50       _NewtonReadThreadPerformanceTicks 10002a50 f   Newton.obj
 0001:00001a70       _NewtonUpdate              10002a70 f   Newton.obj
 0001:00001b30       _NewtonCollisionUpdate     10002b30 f   Newton.obj
 0001:00001b70       _NewtonSetMinimumFrameRate 10002b70 f   Newton.obj
 0001:00001bc0       _NewtonDestroyAllBodies    10002bc0 f   Newton.obj
 0001:00001c30       _NewtonSetWorldSize        10002c30 f   Newton.obj
 0001:00001cc0       _NewtonSetIslandUpdateEvent 10002cc0 f   Newton.obj
 0001:00001ce0       _NewtonSetCollisionDestructor 10002ce0 f   Newton.obj
 0001:00001d00       _NewtonSetDestroyBodyByExeciveForce 10002d00 f   Newton.obj
 0001:00001d20       _NewtonSetBodyLeaveWorldEvent 10002d20 f   Newton.obj
 0001:00001d40       _NewtonWorldGetFirstBody   10002d40 f   Newton.obj
 0001:00001dd0       _NewtonWorldGetNextBody    10002dd0 f   Newton.obj
 0001:00001e10       _NewtonWorldForEachJointDo 10002e10 f   Newton.obj
 0001:00001ef0       _NewtonWorldForEachBodyInAABBDo 10002ef0 f   Newton.obj
 0001:00001f90       _NewtonWorldGetVersion     10002f90 f   Newton.obj
 0001:00001fa0       _NewtonWorldFloatSize      10002fa0 f   Newton.obj
 0001:00001fb0       _NewtonWorldSetUserData    10002fb0 f   Newton.obj
 0001:00001fd0       _NewtonWorldGetUserData    10002fd0 f   Newton.obj
 0001:00001ff0       _NewtonWorldSetDestructorCallBack 10002ff0 f   Newton.obj
 0001:00002010       _NewtonWorldGetDestructorCallBack 10003010 f   Newton.obj
 0001:00002030       _NewtonWorldGetBodyCount   10003030 f   Newton.obj
 0001:00002050       _NewtonWorldGetConstraintCount 10003050 f   Newton.obj
 0001:00002070       _NewtonWorldRayCast        10003070 f   Newton.obj
 0001:00002120       _NewtonWorldConvexCast     10003120 f   Newton.obj
 0001:000021a0       _NewtonIslandGetBody       100031a0 f   Newton.obj
 0001:000021c0       _NewtonIslandGetBodyAABB   100031c0 f   Newton.obj
 0001:00002200       _NewtonMaterialGetDefaultGroupID 10003200 f   Newton.obj
 0001:00002220       _NewtonMaterialCreateGroupID 10003220 f   Newton.obj
 0001:00002240       _NewtonMaterialDestroyAllGroupID 10003240 f   Newton.obj
 0001:00002260       _NewtonMaterialSetDefaultCollidable 10003260 f   Newton.obj
 0001:000022c0       _NewtonMaterialSetContinuousCollisionMode 100032c0 f   Newton.obj
 0001:00002320       _NewtonMaterialSetSurfaceThickness 10003320 f   Newton.obj
 0001:00002380       _NewtonMaterialSetDefaultFriction 10003380 f   Newton.obj
 0001:00002490       _NewtonMaterialSetDefaultElasticity 10003490 f   Newton.obj
 0001:000024e0       _NewtonMaterialSetDefaultSoftness 100034e0 f   Newton.obj
 0001:00002530       _NewtonMaterialSetCollisionCallback 10003530 f   Newton.obj
 0001:00002570       ?NewtonMaterialSetCompondCollisionCallback@@YAXPBUNewtonWorld@@HHP6AHPBUNewtonMaterial@@PBUNewtonBody@@2H@Z@Z 10003570 f   Newton.obj
 0001:000025a0       _NewtonMaterialGetUserData 100035a0 f   Newton.obj
 0001:000025d0       _NewtonWorldGetFirstMaterial 100035d0 f   Newton.obj
 0001:000025f0       _NewtonWorldGetNextMaterial 100035f0 f   Newton.obj
 0001:00002610       _NewtonMaterialGetMaterialPairUserData 10003610 f   Newton.obj
 0001:00002630       _NewtonMaterialGetContactFaceAttribute 10003630 f   Newton.obj
 0001:00002650       _NewtonMaterialGetContactNormalSpeed 10003650 f   Newton.obj
 0001:00002780       _NewtonMaterialGetContactTangentSpeed 10003780 f   Newton.obj
 0001:00002900       _NewtonMaterialGetContactPositionAndNormal 10003900 f   Newton.obj
 0001:00002960       _NewtonMaterialGetContactForce 10003960 f   Newton.obj
 0001:00002a10       _NewtonMaterialGetContactTangentDirections 10003a10 f   Newton.obj
 0001:00002a70       _NewtonMaterialGetBodyCollisionID 10003a70 f   Newton.obj
 0001:00002ab0       _NewtonMaterialSetContactSoftness 10003ab0 f   Newton.obj
 0001:00002af0       _NewtonMaterialSetContactElasticity 10003af0 f   Newton.obj
 0001:00002b30       _NewtonMaterialSetContactFrictionState 10003b30 f   Newton.obj
 0001:00002bb0       _NewtonMaterialSetContactFrictionCoef 10003bb0 f   Newton.obj
 0001:00002c90       _NewtonMaterialSetContactNormalAcceleration 10003c90 f   Newton.obj
 0001:00002cc0       _NewtonMaterialSetContactTangentAcceleration 10003cc0 f   Newton.obj
 0001:00002d20       _NewtonMaterialSetContactNormalDirection 10003d20 f   Newton.obj
 0001:00002e80       _NewtonMaterialContactRotateTangentDirections 10003e80 f   Newton.obj
 0001:00002fb0       _NewtonCreateNull          10003fb0 f   Newton.obj
 0001:00002fd0       _NewtonCreateBox           10003fd0 f   Newton.obj
 0001:00003050       _NewtonCreateSphere        10004050 f   Newton.obj
 0001:00003160       _NewtonCreateCone          10004160 f   Newton.obj
 0001:000031d0       _NewtonCreateCapsule       100041d0 f   Newton.obj
 0001:00003240       _NewtonCreateCylinder      10004240 f   Newton.obj
 0001:000032b0       _NewtonCreateChamferCylinder 100042b0 f   Newton.obj
 0001:00003320       _NewtonCreateConvexHull    10004320 f   Newton.obj
 0001:000033c0       _NewtonCreateConvexHullFromMesh 100043c0 f   Newton.obj
 0001:000033f0       _NewtonCreateConvexHullModifier 100043f0 f   Newton.obj
 0001:00003420       _NewtonConvexHullModifierGetMatrix 10004420 f   Newton.obj
 0001:00003470       _NewtonConvexHullModifierSetMatrix 10004470 f   Newton.obj
 0001:000034a0       _NewtonCreateCompoundCollision 100044a0 f   Newton.obj
 0001:000034e0       _NewtonCreateCompoundCollisionFromMesh 100044e0 f   Newton.obj
 0001:00003520       _NewtonCreateCompoundBreakable 10004520 f   Newton.obj
 0001:00003570       _NewtonCompoundBreakableResetAnchoredPieces 10004570 f   Newton.obj
 0001:000035a0       _NewtonCompoundBreakableSetAnchoredPieces 100045a0 f   Newton.obj
 0001:000035e0       _NewtonBreakableGetMainMesh 100045e0 f   Newton.obj
 0001:00003620       _NewtonBreakableBeginDelete 10004620 f   Newton.obj
 0001:00003660       _NewtonBreakableCreateDebrieBody 10004660 f   Newton.obj
 0001:000036b0       _NewtonBreakableDeleteComponent 100046b0 f   Newton.obj
 0001:000036f0       _NewtonBreakableEndDelete  100046f0 f   Newton.obj
 0001:00003730       _NewtonBreakableGetFirstComponent 10004730 f   Newton.obj
 0001:00003770       _NewtonBreakableGetNextComponent 10004770 f   Newton.obj
 0001:000037a0       _NewtonCompoundBreakableGetVertexCount 100047a0 f   Newton.obj
 0001:000037e0       _NewtonCompoundBreakableGetVertexStreams 100047e0 f   Newton.obj
 0001:00003830       _NewtonBreakableGetFirstSegment 10004830 f   Newton.obj
 0001:00003860       _NewtonBreakableGetNextSegment 10004860 f   Newton.obj
 0001:00003880       _NewtonBreakableGetComponentsInRadius 10004880 f   Newton.obj
 0001:00003910       _NewtonBreakableSegmentGetMaterial 10004910 f   Newton.obj
 0001:00003930       _NewtonBreakableSegmentGetIndexCount 10004930 f   Newton.obj
 0001:00003950       _NewtonBreakableSegmentGetIndexStream 10004950 f   Newton.obj
 0001:000039a0       _NewtonBreakableSegmentGetIndexStreamShort 100049a0 f   Newton.obj
 0001:000039f0       _NewtonCollisionIsTriggerVolume 100049f0 f   Newton.obj
 0001:00003a20       _NewtonCollisionSetAsTriggerVolume 10004a20 f   Newton.obj
 0001:00003a50       _NewtonCollisionSetMaxBreakImpactImpulse 10004a50 f   Newton.obj
 0001:00003a80       _NewtonCollisionGetMaxBreakImpactImpulse 10004a80 f   Newton.obj
 0001:00003aa0       _NewtonCollisionSetUserID  10004aa0 f   Newton.obj
 0001:00003ac0       _NewtonCollisionGetUserID  10004ac0 f   Newton.obj
 0001:00003ae0       _NewtonConvexHullGetFaceIndices 10004ae0 f   Newton.obj
 0001:00003b20       _NewtonConvexCollisionCalculateVolume 10004b20 f   Newton.obj
 0001:00003b40       _NewtonConvexCollisionCalculateInertialMatrix 10004b40 f   Newton.obj
 0001:00003c00       _NewtonCreateUserMeshCollision 10004c00 f   Newton.obj
 0001:00003cd0       _NewtonCreateTreeCollision 10004cd0 f   Newton.obj
 0001:00003d00       _NewtonStaticCollisionSetDebugCallback 10004d00 f   Newton.obj
 0001:00003d60       _NewtonTreeCollisionSetUserRayCastCallback 10004d60 f   Newton.obj
 0001:00003d90       _NewtonHeightFieldSetUserRayCastCallback 10004d90 f   Newton.obj
 0001:00003dc0       _NewtonTreeCollisionBeginBuild 10004dc0 f   Newton.obj
 0001:00003e10       _NewtonTreeCollisionAddFace 10004e10 f   Newton.obj
 0001:00003e70       _NewtonTreeCollisionEndBuild 10004e70 f   Newton.obj
 0001:00003ec0       _NewtonTreeCollisionGetFaceAtribute 10004ec0 f   Newton.obj
 0001:00003f20       _NewtonTreeCollisionSetFaceAtribute 10004f20 f   Newton.obj
 0001:00003f80       _NewtonTreeCollisionGetVertexListIndexListInAABB 10004f80 f   Newton.obj
 0001:00004080       _NewtonCreateHeightFieldCollision 10005080 f   Newton.obj
 0001:000040d0       _NewtonCreateSceneCollision 100050d0 f   Newton.obj
 0001:00004100       _NewtonSceneCollisionCreateProxy 10005100 f   Newton.obj
 0001:00004150       _NewtonSceneCollisionDestroyProxy 10005150 f   Newton.obj
 0001:000041a0       _NewtonSceneProxySetMatrix 100051a0 f   Newton.obj
 0001:000041e0       _NewtonSceneProxyGetMatrix 100051e0 f   Newton.obj
 0001:00004240       _NewtonSceneCollisionOptimize 10005240 f   Newton.obj
 0001:00004290       _NewtonCollisionPointDistance 10005290 f   Newton.obj
 0001:000042c0       _NewtonCollisionClosestPoint 100052c0 f   Newton.obj
 0001:00004300       _NewtonCollisionCollide    10005300 f   Newton.obj
 0001:00004340       _NewtonCollisionCollideContinue 10005340 f   Newton.obj
 0001:000043a0       _NewtonCollisionSupportVertex 100053a0 f   Newton.obj
 0001:000044c0       _NewtonCollisionRayCast    100054c0 f   Newton.obj
 0001:00004620       _NewtonCollisionCalculateAABB 10005620 f   Newton.obj
 0001:000046b0       _NewtonCollisionForEachPolygonDo 100056b0 f   Newton.obj
 0001:00004700       _NewtonCollisionMakeUnique 10005700 f   Newton.obj
 0001:00004730       _NewtonAddCollisionReference 10005730 f   Newton.obj
 0001:00004750       _NewtonReleaseCollision    10005750 f   Newton.obj
 0001:00004780       _NewtonCollisionSerialize  10005780 f   Newton.obj
 0001:000047b0       _NewtonCreateCollisionFromSerialization 100057b0 f   Newton.obj
 0001:000047d0       _NewtonCollisionGetInfo    100057d0 f   Newton.obj
 0001:000047f0       _NewtonGetEulerAngle       100057f0 f   Newton.obj
 0001:00004840       _NewtonSetEulerAngle       10005840 f   Newton.obj
 0001:000049a0       _NewtonCalculateSpringDamperAcceleration 100059a0 f   Newton.obj
 0001:00004a20       _NewtonCreateBody          10005a20 f   Newton.obj
 0001:00004a90       _NewtonDestroyBody         10005a90 f   Newton.obj
 0001:00004ac0       _NewtonBodySetUserData     10005ac0 f   Newton.obj
 0001:00004ae0       _NewtonBodyGetUserData     10005ae0 f   Newton.obj
 0001:00004b00       _NewtonBodyGetWorld        10005b00 f   Newton.obj
 0001:00004b20       _NewtonBodySetTransformCallback 10005b20 f   Newton.obj
 0001:00004b40       _NewtonBodyGetTransformCallback 10005b40 f   Newton.obj
 0001:00004b60       _NewtonBodySetForceAndTorqueCallback 10005b60 f   Newton.obj
 0001:00004b80       _NewtonBodyGetForceAndTorqueCallback 10005b80 f   Newton.obj
 0001:00004ba0       _NewtonBodySetDestructorCallback 10005ba0 f   Newton.obj
 0001:00004bc0       _NewtonBodySetMassMatrix   10005bc0 f   Newton.obj
 0001:00004d40       _NewtonBodyGetMassMatrix   10005d40 f   Newton.obj
 0001:00004de0       _NewtonBodyGetInvMass      10005de0 f   Newton.obj
 0001:00004e70       _NewtonBodySetMatrix       10005e70 f   Newton.obj
 0001:00004ed0       _NewtonBodySetMatrixRecursive 10005ed0 f   Newton.obj
 0001:00004f30       _NewtonBodyGetMatrix       10005f30 f   Newton.obj
 0001:00004f60       _NewtonBodyGetRotation     10005f60 f   Newton.obj
 0001:00004fa0       _NewtonBodySetForce        10005fa0 f   Newton.obj
 0001:00005000       _NewtonBodyAddForce        10006000 f   Newton.obj
 0001:00005060       _NewtonBodyGetForceAcc     10006060 f   Newton.obj
 0001:000050c0       _NewtonBodyGetForce        100060c0 f   Newton.obj
 0001:00005120       _NewtonBodyCalculateInverseDynamicsForce 10006120 f   Newton.obj
 0001:000051c0       _NewtonBodySetTorque       100061c0 f   Newton.obj
 0001:00005220       _NewtonBodyAddTorque       10006220 f   Newton.obj
 0001:00005280       _NewtonBodyGetTorque       10006280 f   Newton.obj
 0001:000052e0       _NewtonBodyGetTorqueAcc    100062e0 f   Newton.obj
 0001:00005340       _NewtonBodySetCentreOfMass 10006340 f   Newton.obj
 0001:000053a0       _NewtonBodyGetCentreOfMass 100063a0 f   Newton.obj
 0001:000053f0       _NewtonBodyGetFirstJoint   100063f0 f   Newton.obj
 0001:00005410       _NewtonBodyGetNextJoint    10006410 f   Newton.obj
 0001:00005430       _NewtonBodyGetFirstContactJoint 10006430 f   Newton.obj
 0001:00005450       _NewtonBodyGetNextContactJoint 10006450 f   Newton.obj
 0001:00005470       _NewtonContactJointGetContactCount 10006470 f   Newton.obj
 0001:000054b0       _NewtonContactJointGetFirstContact 100064b0 f   Newton.obj
 0001:000054f0       _NewtonContactJointGetNextContact 100064f0 f   Newton.obj
 0001:00005530       _NewtonContactJointRemoveContact 10006530 f   Newton.obj
 0001:00005580       _NewtonContactGetMaterial  10006580 f   Newton.obj
 0001:000055a0       _NewtonBodyAddBuoyancyForce 100065a0 f   Newton.obj
 0001:00005620       _NewtonBodySetCollision    10006620 f   Newton.obj
 0001:00005650       _NewtonBodyGetCollision    10006650 f   Newton.obj
 0001:00005670       _NewtonBodySetMaterialGroupID 10006670 f   Newton.obj
 0001:00005690       _NewtonBodyGetMaterialGroupID 10006690 f   Newton.obj
 0001:000056b0       _NewtonBodySetContinuousCollisionMode 100066b0 f   Newton.obj
 0001:000056e0       _NewtonBodyGetContinuousCollisionMode 100066e0 f   Newton.obj
 0001:00005700       _NewtonBodySetJointRecursiveCollision 10006700 f   Newton.obj
 0001:00005730       _NewtonBodyGetJointRecursiveCollision 10006730 f   Newton.obj
 0001:00005750       _NewtonBodyGetFreezeState  10006750 f   Newton.obj
 0001:00005770       _NewtonBodySetFreezeState  10006770 f   Newton.obj
 0001:000057a0       _NewtonBodySetAutoSleep    100067a0 f   Newton.obj
 0001:000057d0       _NewtonBodyGetAutoSleep    100067d0 f   Newton.obj
 0001:000057f0       _NewtonBodyGetSleepState   100067f0 f   Newton.obj
 0001:00005810       _NewtonBodyGetAABB         10006810 f   Newton.obj
 0001:00005890       _NewtonBodySetVelocity     10006890 f   Newton.obj
 0001:000058f0       _NewtonBodyGetVelocity     100068f0 f   Newton.obj
 0001:00005950       _NewtonBodySetOmega        10006950 f   Newton.obj
 0001:000059b0       _NewtonBodyGetOmega        100069b0 f   Newton.obj
 0001:00005a10       _NewtonBodySetLinearDamping 10006a10 f   Newton.obj
 0001:00005a30       _NewtonBodyGetLinearDamping 10006a30 f   Newton.obj
 0001:00005a50       _NewtonBodySetAngularDamping 10006a50 f   Newton.obj
 0001:00005ab0       _NewtonBodyGetAngularDamping 10006ab0 f   Newton.obj
 0001:00005b00       _NewtonBodyAddImpulse      10006b00 f   Newton.obj
 0001:00005b60       _NewtonConstraintCreateBall 10006b60 f   Newton.obj
 0001:00005be0       _NewtonBallSetConeLimits   10006be0 f   Newton.obj
 0001:00005f20       _NewtonBallSetUserCallback 10006f20 f   Newton.obj
 0001:00005f40       _NewtonBallGetJointAngle   10006f40 f   Newton.obj
 0001:00005f90       _NewtonBallGetJointOmega   10006f90 f   Newton.obj
 0001:00005fe0       _NewtonBallGetJointForce   10006fe0 f   Newton.obj
 0001:00006030       _NewtonConstraintCreateHinge 10007030 f   Newton.obj
 0001:000060d0       _NewtonHingeSetUserCallback 100070d0 f   Newton.obj
 0001:000060f0       _NewtonHingeGetJointAngle  100070f0 f   Newton.obj
 0001:00006110       _NewtonHingeGetJointOmega  10007110 f   Newton.obj
 0001:00006130       _NewtonHingeCalculateStopAlpha 10007130 f   Newton.obj
 0001:00006160       _NewtonHingeGetJointForce  10007160 f   Newton.obj
 0001:000061b0       _NewtonConstraintCreateSlider 100071b0 f   Newton.obj
 0001:00006250       _NewtonSliderSetUserCallback 10007250 f   Newton.obj
 0001:00006270       _NewtonSliderGetJointPosit 10007270 f   Newton.obj
 0001:00006290       _NewtonSliderGetJointVeloc 10007290 f   Newton.obj
 0001:000062b0       _NewtonSliderCalculateStopAccel 100072b0 f   Newton.obj
 0001:000062e0       _NewtonSliderGetJointForce 100072e0 f   Newton.obj
 0001:00006330       _NewtonConstraintCreateCorkscrew 10007330 f   Newton.obj
 0001:000063d0       _NewtonCorkscrewSetUserCallback 100073d0 f   Newton.obj
 0001:000063f0       _NewtonCorkscrewGetJointPosit 100073f0 f   Newton.obj
 0001:00006410       _NewtonCorkscrewGetJointVeloc 10007410 f   Newton.obj
 0001:00006430       _NewtonCorkscrewGetJointAngle 10007430 f   Newton.obj
 0001:00006450       _NewtonCorkscrewGetJointOmega 10007450 f   Newton.obj
 0001:00006470       _NewtonCorkscrewCalculateStopAlpha 10007470 f   Newton.obj
 0001:000064a0       _NewtonCorkscrewCalculateStopAccel 100074a0 f   Newton.obj
 0001:000064d0       _NewtonCorkscrewGetJointForce 100074d0 f   Newton.obj
 0001:00006520       _NewtonConstraintCreateUniversal 10007520 f   Newton.obj
 0001:000065f0       _NewtonUniversalSetUserCallback 100075f0 f   Newton.obj
 0001:00006610       _NewtonUniversalGetJointAngle0 10007610 f   Newton.obj
 0001:00006630       _NewtonUniversalGetJointAngle1 10007630 f   Newton.obj
 0001:00006650       _NewtonUniversalGetJointOmega0 10007650 f   Newton.obj
 0001:00006670       _NewtonUniversalGetJointOmega1 10007670 f   Newton.obj
 0001:00006690       _NewtonUniversalCalculateStopAlpha0 10007690 f   Newton.obj
 0001:000066c0       _NewtonUniversalCalculateStopAlpha1 100076c0 f   Newton.obj
 0001:000066f0       _NewtonUniversalGetJointForce 100076f0 f   Newton.obj
 0001:00006740       _NewtonConstraintCreateUpVector 10007740 f   Newton.obj
 0001:000067b0       _NewtonUpVectorGetPin      100077b0 f   Newton.obj
 0001:00006800       _NewtonUpVectorSetPin      10007800 f   Newton.obj
 0001:00006860       _NewtonConstraintCreateUserJoint 10007860 f   Newton.obj
 0001:000068d0       _NewtonUserJointAddLinearRow 100078d0 f   Newton.obj
 0001:00006a40       _NewtonUserJointAddAngularRow 10007a40 f   Newton.obj
 0001:00006b50       _NewtonUserJointAddGeneralRow 10007b50 f   Newton.obj
 0001:00006b70       _NewtonUserJointSetRowMaximumFriction 10007b70 f   Newton.obj
 0001:00006b90       _NewtonUserJointSetRowMinimumFriction 10007b90 f   Newton.obj
 0001:00006bb0       _NewtonUserJointSetRowAcceleration 10007bb0 f   Newton.obj
 0001:00006bd0       _NewtonUserJointSetRowSpringDamperAcceleration 10007bd0 f   Newton.obj
 0001:00006c00       _NewtonUserJointSetRowStiffness 10007c00 f   Newton.obj
 0001:00006c20       _NewtonUserJointGetRowForce 10007c20 f   Newton.obj
 0001:00006c40       _NewtonUserJointSetFeedbackCollectorCallback 10007c40 f   Newton.obj
 0001:00006c60       _NewtonJointSetUserData    10007c60 f   Newton.obj
 0001:00006c80       _NewtonJointGetUserData    10007c80 f   Newton.obj
 0001:00006ca0       _NewtonJointGetInfo        10007ca0 f   Newton.obj
 0001:00006cc0       _NewtonJointGetBody0       10007cc0 f   Newton.obj
 0001:00006ce0       _NewtonJointGetBody1       10007ce0 f   Newton.obj
 0001:00006d20       _NewtonJointSetCollisionState 10007d20 f   Newton.obj
 0001:00006d50       _NewtonJointGetCollisionState 10007d50 f   Newton.obj
 0001:00006d70       _NewtonJointSetStiffness   10007d70 f   Newton.obj
 0001:00006da0       _NewtonJointGetStiffness   10007da0 f   Newton.obj
 0001:00006dc0       _NewtonJointSetDestructor  10007dc0 f   Newton.obj
 0001:00006de0       _NewtonDestroyJoint        10007de0 f   Newton.obj
 0001:00006e00       _NewtonMeshCreate          10007e00 f   Newton.obj
 0001:00006e60       _NewtonMeshCreateFromMesh  10007e60 f   Newton.obj
 0001:00006eb0       _NewtonMeshCreateFromCollision 10007eb0 f   Newton.obj
 0001:00006f00       _NewtonMeshConvexHull      10007f00 f   Newton.obj
 0001:00006f70       _NewtonMeshCreatePlane     10007f70 f   Newton.obj
 0001:00006fe0       _NewtonMeshDestroy         10007fe0 f   Newton.obj
 0001:00007020       _NewtonMeshCalculateOOBB   10008020 f   Newton.obj
 0001:00007090       _NewtonMeshCalculateVertexNormals 10008090 f   Newton.obj
 0001:000070b0       _NewtonMeshApplySphericalMapping 100080b0 f   Newton.obj
 0001:000070d0       _NewtonMeshApplyBoxMapping 100080d0 f   Newton.obj
 0001:00007100       _NewtonMeshApplyCylindricalMapping 10008100 f   Newton.obj
 0001:00007120       _NewtonMeshTriangulate     10008120 f   Newton.obj
 0001:00007130       _NewtonMeshPolygonize      10008130 f   Newton.obj
 0001:00007140       _NewtonMeshIsOpenMesh      10008140 f   Newton.obj
 0001:00007160       _NewtonMeshFixTJoints      10008160 f   Newton.obj
 0001:00007170       _NewtonMeshClip            10008170 f   Newton.obj
 0001:000071b0       _NewtonMeshUnion           100081b0 f   Newton.obj
 0001:000071d0       _NewtonMeshDifference      100081d0 f   Newton.obj
 0001:000071f0       _NewtonMeshIntersection    100081f0 f   Newton.obj
 0001:00007210       _NewtonRemoveUnusedVertices 10008210 f   Newton.obj
 0001:00007230       _NewtonMeshBeginFace       10008230 f   Newton.obj
 0001:00007250       _NewtonMeshAddFace         10008250 f   Newton.obj
 0001:00007280       _NewtonMeshEndFace         10008280 f   Newton.obj
 0001:000072a0       _NewtonMeshBuildFromVertexListIndexList 100082a0 f   Newton.obj
 0001:00007300       _NewtonMeshGetVertexCount  10008300 f   Newton.obj
 0001:00007320       _NewtonMeshGetVertexStrideInByte 10008320 f   Newton.obj
 0001:00007340       _NewtonMeshGetVertexArray  10008340 f   Newton.obj
 0001:00007360       _NewtonMeshGetPointCount   10008360 f   Newton.obj
 0001:00007380       _NewtonMeshGetPointStrideInByte 10008380 f   Newton.obj
 0001:000073a0       _NewtonMeshGetPointArray   100083a0 f   Newton.obj
 0001:000073c0       _NewtonMeshGetNormalArray  100083c0 f   Newton.obj
 0001:000073e0       _NewtonMeshGetUV0Array     100083e0 f   Newton.obj
 0001:00007400       _NewtonMeshGetUV1Array     10008400 f   Newton.obj
 0001:00007420       _NewtonMeshGetVertexStreams 10008420 f   Newton.obj
 0001:00007460       _NewtonMeshGetIndirectVertexStreams 10008460 f   Newton.obj
 0001:000074c0       _NewtonMeshBeginHandle     100084c0 f   Newton.obj
 0001:000074e0       _NewtonMeshEndHandle       100084e0 f   Newton.obj
 0001:00007500       _NewtonMeshFirstMaterial   10008500 f   Newton.obj
 0001:00007520       _NewtonMeshNextMaterial    10008520 f   Newton.obj
 0001:00007540       _NewtonMeshMaterialGetMaterial 10008540 f   Newton.obj
 0001:00007560       _NewtonMeshMaterialGetIndexCount 10008560 f   Newton.obj
 0001:00007580       _NewtonMeshMaterialGetIndexStream 10008580 f   Newton.obj
 0001:000075b0       _NewtonMeshMaterialGetIndexStreamShort 100085b0 f   Newton.obj
 0001:000075e0       _NewtonMeshCreateFirstSingleSegment 100085e0 f   Newton.obj
 0001:00007670       _NewtonMeshCreateNextSingleSegment 10008670 f   Newton.obj
 0001:00007740       _NewtonMeshGetTotalFaceCount 10008740 f   Newton.obj
 0001:00007750       _NewtonMeshGetTotalIndexCount 10008750 f   Newton.obj
 0001:00007760       _NewtonMeshGetFaces        10008760 f   Newton.obj
 0001:00007780       _NewtonMeshGetFirstVertex  10008780 f   Newton.obj
 0001:00007790       _NewtonMeshGetNextVertex   10008790 f   Newton.obj
 0001:000077b0       _NewtonMeshGetVertexIndex  100087b0 f   Newton.obj
 0001:000077d0       _NewtonMeshGetFirstPoint   100087d0 f   Newton.obj
 0001:000077e0       _NewtonMeshGetNextPoint    100087e0 f   Newton.obj
 0001:00007800       _NewtonMeshGetPointIndex   10008800 f   Newton.obj
 0001:00007820       _NewtonMeshGetVertexIndexFromPoint 10008820 f   Newton.obj
 0001:00007840       _NewtonMeshGetFirstEdge    10008840 f   Newton.obj
 0001:00007850       _NewtonMeshGetNextEdge     10008850 f   Newton.obj
 0001:00007870       _NewtonMeshGetEdgeIndices  10008870 f   Newton.obj
 0001:00007890       _NewtonMeshGetFirstFace    10008890 f   Newton.obj
 0001:000078a0       _NewtonMeshGetNextFace     100088a0 f   Newton.obj
 0001:000078c0       _NewtonMeshIsFaceOpen      100088c0 f   Newton.obj
 0001:000078e0       _NewtonMeshGetFaceIndexCount 100088e0 f   Newton.obj
 0001:00007900       _NewtonMeshGetFaceMaterial 10008900 f   Newton.obj
 0001:00007920       _NewtonMeshGetFaceIndices  10008920 f   Newton.obj
 0001:00007940       _NewtonMeshGetFacePointIndices 10008940 f   Newton.obj
 0001:00009220       ??2Newton@@SAPAXIQAVdgMemoryAllocator@@@Z 1000a220 f i Newton.obj
 0001:00009240       ??_GNewton@@QAEPAXI@Z      1000a240 f i Newton.obj
 0001:00009280       ??3Newton@@SAXPAX@Z        1000a280 f i Newton.obj
 0001:000092a0       ??_GdgMemoryAllocator@@QAEPAXI@Z 1000a2a0 f i Newton.obj
 0001:000092e0       _ceilf                     1000a2e0 f i Newton.obj
 0001:00009310       ??0dgContactPoint@@QAE@XZ  1000a310 f i Newton.obj
 0001:00009340       ??2?$dgTree@VdgEdge@@_J@@SAPAXIQAVdgMemoryAllocator@@@Z 1000a340 f i Newton.obj
 0001:00009360       ?GetInfo@dgListNode@?$dgList@V?$dgGraphNode@VdgDebriNodeInfo@dgCollisionCompoundBreakable@@VdgSharedNodeMesh@2@@@@@QAEAAV?$dgGraphNode@VdgDebriNodeInfo@dgCollisionCompoundBreakable@@VdgSharedNodeMesh@2@@@XZ 1000a360 f i Newton.obj
 0001:00009380       ?GetInfo@dgListNode@?$dgList@VdgBodyMasterListRow@@@@QAEAAVdgBodyMasterListRow@@XZ 1000a380 f i Newton.obj
 0001:000093a0       ?GetNext@dgListNode@?$dgList@VdgBodyMasterListRow@@@@QBEPAV12@XZ 1000a3a0 f i Newton.obj
 0001:000093c0       ?GetInfo@dgListNode@?$dgList@VdgBodyMasterListCell@@@@QAEAAVdgBodyMasterListCell@@XZ 1000a3c0 f i Newton.obj
 0001:000093e0       ?GetNext@dgListNode@?$dgList@VdgBodyMasterListCell@@@@QBEPAV12@XZ 1000a3e0 f i Newton.obj
 0001:00009400       ?GetInfo@dgListNode@?$dgList@VdgSubMesh@dgCollisionCompoundBreakable@@@@QAEAAVdgSubMesh@dgCollisionCompoundBreakable@@XZ 1000a400 f i Newton.obj
 0001:00009420       ?GetNext@dgListNode@?$dgList@VdgSubMesh@dgCollisionCompoundBreakable@@@@QBEPAV12@XZ 1000a420 f i Newton.obj
 0001:00009440       ?GetInfo@dgListNode@?$dgList@UdgProxy@dgCollisionScene@@@@QAEAAUdgProxy@dgCollisionScene@@XZ 1000a440 f i Newton.obj
 0001:00009460       ?GetInfo@dgListNode@?$dgList@VdgContactMaterial@@@@QAEAAVdgContactMaterial@@XZ 1000a460 f i Newton.obj
 0001:00009480       ?GetNext@dgListNode@?$dgList@VdgContactMaterial@@@@QBEPAV12@XZ 1000a480 f i Newton.obj
 0001:000094a0       ?GetFirst@?$dgList@VdgBodyMasterListCell@@@@QBEPAVdgListNode@1@XZ 1000a4a0 f i Newton.obj
 0001:000094c0       ?GetFirst@?$dgList@VdgBodyMasterListRow@@@@QBEPAVdgListNode@1@XZ 1000a4c0 f i Newton.obj
 0001:000094e0       ??0?$dgTree@PAVdgConstraint@@PAV1@@@QAE@QAVdgMemoryAllocator@@@Z 1000a4e0 f i Newton.obj
 0001:00009520       ??1?$dgTree@PAVdgConstraint@@PAV1@@@QAE@XZ 1000a520 f i Newton.obj
 0001:00009540       ?Find@?$dgTree@PAVdgConstraint@@PAV1@@@QBEPAVdgTreeNode@1@PAVdgConstraint@@@Z 1000a540 f i Newton.obj
 0001:000096a0       ?Insert@?$dgTree@PAVdgConstraint@@PAV1@@@QAEPAVdgTreeNode@1@ABQAVdgConstraint@@PAV3@@Z 1000a6a0 f i Newton.obj
 0001:000096f0       ?GetFirst@?$dgList@VdgSubMesh@dgCollisionCompoundBreakable@@@@QBEPAVdgListNode@1@XZ 1000a6f0 f i Newton.obj
 0001:00009710       ?GetCount@?$dgList@VdgContactMaterial@@@@QBEHXZ 1000a710 f i Newton.obj
 0001:00009730       ?GetFirst@?$dgList@VdgContactMaterial@@@@QBEPAVdgListNode@1@XZ 1000a730 f i Newton.obj
 0001:00009750       ?Remove@?$dgList@VdgContactMaterial@@@@QAEXQAVdgListNode@1@@Z 1000a750 f i Newton.obj
 0001:000097b0       ?GetAllocator@?$dgTree@VdgEdge@@_J@@QBEPAVdgMemoryAllocator@@XZ 1000a7b0 f i Newton.obj
 0001:000097d0       ??_GdgListNode@?$dgList@VdgContactMaterial@@@@AAEPAXI@Z 1000a7d0 f i Newton.obj
 0001:00009810       ??3dgListNode@?$dgList@VdgContactMaterial@@@@CAXPAX@Z 1000a810 f i Newton.obj
 0001:00009830       ??1dgListNode@?$dgList@VdgContactMaterial@@@@AAE@XZ 1000a830 f i Newton.obj
 0001:00009840       ?GetLeft@dgTreeNode@?$dgTree@PAVdgConstraint@@PAV1@@@ABEPAV12@XZ 1000a840 f i Newton.obj
 0001:00009860       ?GetRight@dgTreeNode@?$dgTree@PAVdgConstraint@@PAV1@@@ABEPAV12@XZ 1000a860 f i Newton.obj
 0001:00009880       ?Insert@?$dgTree@PAVdgConstraint@@PAV1@@@QAEPAVdgTreeNode@1@ABQAVdgConstraint@@PAV3@AA_N@Z 1000a880 f i Newton.obj
 0001:00009af0       ?RemoveAll@?$dgTree@PAVdgConstraint@@PAV1@@@QAEXXZ 1000aaf0 f i Newton.obj
 0001:00009b30       ?CompareKeys@?$dgTree@PAVdgConstraint@@PAV1@@@ABEHABQAVdgConstraint@@0@Z 1000ab30 f i Newton.obj
 0001:00009b70       ?Unlink@?$dgList@VdgContactMaterial@@@@QAEXQAVdgListNode@1@@Z 1000ab70 f i Newton.obj
 0001:00009c50       ?Unlink@dgListNode@?$dgList@VdgContactMaterial@@@@AAEXXZ 1000ac50 f i Newton.obj
 0001:00009ce0       ?GetPrev@dgListNode@?$dgList@VdgContactMaterial@@@@QBEPAV12@XZ 1000ace0 f i Newton.obj
 0001:00009d00       ??0dgTreeNode@?$dgTree@PAVdgConstraint@@PAV1@@@AAE@ABQAVdgConstraint@@0PAV01@@Z 1000ad00 f i Newton.obj
 0001:00009d90       ??2dgRedBackNode@@SAPAXIQAVdgMemoryAllocator@@@Z 1000ad90 f i Newton.obj
 0001:00009db0       ??0dgRedBackNode@@QAE@QAV0@@Z 1000adb0 f i Newton.obj
 0001:00009de0       ?Initdata@dgRedBackNode@@QAEXQAV1@@Z 1000ade0 f i Newton.obj
 0001:00009e30       ?SetColor@dgRedBackNode@@QAEXW4REDBLACK_COLOR@1@@Z 1000ae30 f i Newton.obj
 0001:00009e60       ?SetInTreeFlag@dgRedBackNode@@QAEXI@Z 1000ae60 f i Newton.obj
 0001:00009e90       ??0dgVector@@QAE@XZ        1000ae90 f i Newton.obj
 0001:00009eb0       ??0dgVector@@QAE@ABV?$dgTemplateVector@M@@@Z 1000aeb0 f i Newton.obj
 0001:00009fb0       ??0dgVector@@QAE@PBM@Z     1000afb0 f i Newton.obj
 0001:0000a0a0       ??0dgVector@@QAE@MMMM@Z    1000b0a0 f i Newton.obj
 0001:0000a1a0       ??0dgMatrix@@QAE@ABVdgVector@@@Z 1000b1a0 f i Newton.obj
 0001:0000a630       ??AdgMatrix@@QAEAAVdgVector@@H@Z 1000b630 f i Newton.obj
 0001:0000a6b0       ?RotateVector@dgMatrix@@QBE?AVdgVector@@ABV2@@Z 1000b6b0 f i Newton.obj
 0001:0000a7a0       ?UnrotateVector@dgMatrix@@QBE?AVdgVector@@ABV2@@Z 1000b7a0 f i Newton.obj
 0001:0000a810       ?TransformVector@dgMatrix@@QBE?AVdgVector@@ABV2@@Z 1000b810 f i Newton.obj
 0001:0000a910       ?UntransformVector@dgMatrix@@QBE?AVdgVector@@ABV2@@Z 1000b910 f i Newton.obj
 0001:0000a980       ?dgPitchMatrix@@YA?AVdgMatrix@@M@Z 1000b980 f i Newton.obj
 0001:0000aa90       ??0dgMatrix@@QAE@ABVdgVector@@000@Z 1000ba90 f i Newton.obj
 0001:0000ab40       ?dgYawMatrix@@YA?AVdgMatrix@@M@Z 1000bb40 f i Newton.obj
 0001:0000ac50       ?dgRollMatrix@@YA?AVdgMatrix@@M@Z 1000bc50 f i Newton.obj
 0001:0000ad60       ?BeginConectedSurface@dgPolyhedra@@QBEXXZ 1000bd60 f i Newton.obj
 0001:0000ad80       ?IncLRU@dgPolyhedra@@QBEHXZ 1000bd80 f i Newton.obj
 0001:0000ade0       ?EndConectedSurface@dgPolyhedra@@QBEXXZ 1000bde0 f i Newton.obj
 0001:0000adf0       ?GetTagId@dgPolygonSoupDatabase@@QBEIPBH@Z 1000bdf0 f i Newton.obj
 0001:0000ae10       ?SetTagId@dgPolygonSoupDatabase@@QBEXPBHI@Z 1000be10 f i Newton.obj
 0001:0000ae40       ?GetBody@dgBodyMasterListRow@@QBEPAVdgBody@@XZ 1000be40 f i Newton.obj
 0001:0000ae60       ?SetAutoSleep@dgBody@@QAEX_N@Z 1000be60 f i Newton.obj
 0001:0000aed0       ?GetAutoSleep@dgBody@@QBE_NXZ 1000bed0 f i Newton.obj
 0001:0000aef0       ?GetSleepState@dgBody@@QBE_NXZ 1000bef0 f i Newton.obj
 0001:0000af10       ?GetCollisionWithLinkedBodies@dgBody@@QBE_NXZ 1000bf10 f i Newton.obj
 0001:0000af30       ?SetCollisionWithLinkedBodies@dgBody@@QAEX_N@Z 1000bf30 f i Newton.obj
 0001:0000af70       ?SetUserData@dgBody@@QAEXQAX@Z 1000bf70 f i Newton.obj
 0001:0000af90       ?GetUserData@dgBody@@QBEPAXXZ 1000bf90 f i Newton.obj
 0001:0000afb0       ?GetWorld@dgBody@@QBEPAVdgWorld@@XZ 1000bfb0 f i Newton.obj
 0001:0000afd0       ?GetGroupID@dgBody@@QBEIXZ 1000bfd0 f i Newton.obj
 0001:0000aff0       ?SetGroupID@dgBody@@QAEXI@Z 1000bff0 f i Newton.obj
 0001:0000b010       ?SetDestructorCallback@dgBody@@QAEXP6AXAAV1@@Z@Z 1000c010 f i Newton.obj
 0001:0000b030       ?SetExtForceAndTorqueCallback@dgBody@@QAEXP6AXAAV1@MH@Z@Z 1000c030 f i Newton.obj
 0001:0000b050       ?GetExtForceAndTorqueCallback@dgBody@@QBEP6AXAAV1@MH@ZXZ 1000c050 f i Newton.obj
 0001:0000b070       ?SetMatrixUpdateCallback@dgBody@@QAEXP6AXABV1@ABVdgMatrix@@H@Z@Z 1000c070 f i Newton.obj
 0001:0000b090       ?GetMatrixUpdateCallback@dgBody@@QAEP6AXABV1@ABVdgMatrix@@H@ZXZ 1000c090 f i Newton.obj
 0001:0000b0b0       ?SetOmega@dgBody@@QAEXABVdgVector@@@Z 1000c0b0 f i Newton.obj
 0001:0000b0f0       ?SetVelocity@dgBody@@QAEXABVdgVector@@@Z 1000c0f0 f i Newton.obj
 0001:0000b130       ?SetCentreOfMass@dgBody@@QAEXABVdgVector@@@Z 1000c130 f i Newton.obj
 0001:0000b1f0       ?AddForce@dgBody@@QAEXABVdgVector@@@Z 1000c1f0 f i Newton.obj
 0001:0000b260       ?AddTorque@dgBody@@QAEXABVdgVector@@@Z 1000c260 f i Newton.obj
 0001:0000b2d0       ?GetAparentMass@dgBody@@QBEABVdgVector@@XZ 1000c2d0 f i Newton.obj
 0001:0000b2f0       ?GetOmega@dgBody@@QBEABVdgVector@@XZ 1000c2f0 f i Newton.obj
 0001:0000b310       ?GetVelocity@dgBody@@QBEABVdgVector@@XZ 1000c310 f i Newton.obj
 0001:0000b330       ?GetForce@dgBody@@QBEABVdgVector@@XZ 1000c330 f i Newton.obj
 0001:0000b350       ?GetTorque@dgBody@@QBEABVdgVector@@XZ 1000c350 f i Newton.obj
 0001:0000b370       ?GetNetForce@dgBody@@QBEABVdgVector@@XZ 1000c370 f i Newton.obj
 0001:0000b390       ?GetNetTorque@dgBody@@QBEABVdgVector@@XZ 1000c390 f i Newton.obj
 0001:0000b3b0       ?GetCollision@dgBody@@QBEPAVdgCollision@@XZ 1000c3b0 f i Newton.obj
 0001:0000b3d0       ?GetPosition@dgBody@@QBEABVdgVector@@XZ 1000c3d0 f i Newton.obj
 0001:0000b3f0       ?GetRotation@dgBody@@QBEABVdgQuaternion@@XZ 1000c3f0 f i Newton.obj
 0001:0000b410       ?GetMatrix@dgBody@@QBEABVdgMatrix@@XZ 1000c410 f i Newton.obj
 0001:0000b430       ?GetCentreOfMass@dgBody@@QBE?AVdgVector@@XZ 1000c430 f i Newton.obj
 0001:0000b470       ?GetAABB@dgBody@@QBEXAAVdgVector@@0@Z 1000c470 f i Newton.obj
 0001:0000b4f0       ?SetContinuesCollisionMode@dgBody@@QAEX_N@Z 1000c4f0 f i Newton.obj
 0001:0000b530       ?GetContinuesCollisionMode@dgBody@@QBE_NXZ 1000c530 f i Newton.obj
 0001:0000b550       ?GetLinearDamping@dgBody@@QBEMXZ 1000c550 f i Newton.obj
 0001:0000b590       ?GetAngularDamping@dgBody@@QBE?AVdgVector@@XZ 1000c590 f i Newton.obj
 0001:0000b630       ?SetLinearDamping@dgBody@@QAEXM@Z 1000c630 f i Newton.obj
 0001:0000b690       ?SetAngularDamping@dgBody@@QAEXABVdgVector@@@Z 1000c690 f i Newton.obj
 0001:0000b770       ?SetForce@dgBody@@QAEXABVdgVector@@@Z 1000c770 f i Newton.obj
 0001:0000b8a0       ?SetTorque@dgBody@@QAEXABVdgVector@@@Z 1000c8a0 f i Newton.obj
 0001:0000b9d0       ?GetMasterList@dgBody@@QBEPAVdgListNode@?$dgList@VdgBodyMasterListRow@@@@XZ 1000c9d0 f i Newton.obj
 0001:0000b9f0       ?GetFreeze@dgBody@@QBE_NXZ 1000c9f0 f i Newton.obj
 0001:0000ba10       ??2dgConstraint@@SAPAXIQAVdgMemoryAllocator@@@Z 1000ca10 f i Newton.obj
 0001:0000ba30       ?IsCollidable@dgConstraint@@QBE_NXZ 1000ca30 f i Newton.obj
 0001:0000ba50       ?SetCollidable@dgConstraint@@QAEX_N@Z 1000ca50 f i Newton.obj
 0001:0000ba90       ?GetId@dgConstraint@@QBEIXZ 1000ca90 f i Newton.obj
 0001:0000bab0       ?GetBody0@dgConstraint@@QBEPAVdgBody@@XZ 1000cab0 f i Newton.obj
 0001:0000bad0       ?GetBody1@dgConstraint@@QBEPAVdgBody@@XZ 1000cad0 f i Newton.obj
 0001:0000baf0       ?SetCollisionCallback@dgContactMaterial@@QAEXP6A_NABV1@ABVdgBody@@1H@ZP6AXAAVdgContact@@MH@Z@Z 1000caf0 f i Newton.obj
 0001:0000bb20       ?SetCompoundCollisionCallback@dgContactMaterial@@QAEXP6A_NABV1@ABVdgBody@@1H@Z@Z 1000cb20 f i Newton.obj
 0001:0000bb40       ?GetUserData@dgContactMaterial@@QBEPAXXZ 1000cb40 f i Newton.obj
 0001:0000bb60       ?SetUserData@dgContactMaterial@@QAEXQAX@Z 1000cb60 f i Newton.obj
 0001:0000bb80       ?IsType@dgCollision@@QBEHW4RTTI@1@@Z 1000cb80 f i Newton.obj
 0001:0000bba0       ?GetOffsetMatrix@dgCollision@@QBEABVdgMatrix@@XZ 1000cba0 f i Newton.obj
 0001:0000bbc0       ?SetUserDataID@dgCollision@@QBEIXZ 1000cbc0 f i Newton.obj
 0001:0000bbe0       ?SetUserDataID@dgCollision@@QAEXI@Z 1000cbe0 f i Newton.obj
 0001:0000bc00       ?AddRef@dgCollision@@QAEPAV1@XZ 1000cc00 f i Newton.obj
 0001:0000bc30       ?GetRefCount@dgCollision@@QBEHXZ 1000cc30 f i Newton.obj
 0001:0000bc50       ?GetAllocator@dgCollision@@QBEPAVdgMemoryAllocator@@XZ 1000cc50 f i Newton.obj
 0001:0000bc70       ?dgGetUserLock@dgWorld@@QBEXXZ 1000cc70 f i Newton.obj
 0001:0000bca0       ?dgReleasedUserLock@dgWorld@@QBEXXZ 1000cca0 f i Newton.obj
 0001:0000bcd0       ?GetAllocator@dgWorld@@QBEPAVdgMemoryAllocator@@XZ 1000ccd0 f i Newton.obj
 0001:0000bcf0       ?GetVertexStrideInByte@dgMeshEffect@@QBEHXZ 1000ccf0 f i Newton.obj
 0001:0000bd10       ?GetVertexPool@dgMeshEffect@@QBEPAMXZ 1000cd10 f i Newton.obj
 0001:0000bd30       ?GetPropertiesStrideInByte@dgMeshEffect@@QBEHXZ 1000cd30 f i Newton.obj
 0001:0000bd50       ?GetAttributePool@dgMeshEffect@@QBEPAMXZ 1000cd50 f i Newton.obj
 0001:0000bd70       ?GetNormalPool@dgMeshEffect@@QBEPAMXZ 1000cd70 f i Newton.obj
 0001:0000bd90       ?GetUV0Pool@dgMeshEffect@@QBEPAMXZ 1000cd90 f i Newton.obj
 0001:0000bdb0       ?GetUV1Pool@dgMeshEffect@@QBEPAMXZ 1000cdb0 f i Newton.obj
 0001:0000bdd0       ?GetVertexCount@dgMeshEffect@@QBEHXZ 1000cdd0 f i Newton.obj
 0001:0000bdf0       ?GetPropertiesCount@dgMeshEffect@@QBEHXZ 1000cdf0 f i Newton.obj
 0001:0000be10       ?GetMaterialID@dgMeshEffect@@QAEHPAUdgIndexArray@1@H@Z 1000ce10 f i Newton.obj
 0001:0000be30       ?GetMaterialIndexCount@dgMeshEffect@@QAEHPAUdgIndexArray@1@H@Z 1000ce30 f i Newton.obj
 0001:0000be50       ?GetMainMesh@dgCollisionCompoundBreakable@@QBEPAVdgListNode@?$dgList@V?$dgGraphNode@VdgDebriNodeInfo@dgCollisionCompoundBreakable@@VdgSharedNodeMesh@2@@@@@XZ 1000ce50 f i Newton.obj
 0001:0000be70       ?GetFirstComponentMesh@dgCollisionCompoundBreakable@@QBEPAVdgListNode@?$dgList@V?$dgGraphNode@VdgDebriNodeInfo@dgCollisionCompoundBreakable@@VdgSharedNodeMesh@2@@@@@XZ 1000ce70 f i Newton.obj
 0001:0000bed0       ?GetVertecCount@dgCollisionCompoundBreakable@@QBEHXZ 1000ced0 f i Newton.obj
 0001:0000bef0       ?GetVertexStreams@dgCollisionCompoundBreakable@@QBEXHPAMH0H0@Z 1000cef0 f i Newton.obj
 0001:0000bf30       ?GetNext@dgListNode@?$dgList@V?$dgGraphNode@VdgDebriNodeInfo@dgCollisionCompoundBreakable@@VdgSharedNodeMesh@2@@@@@QBEPAV12@XZ 1000cf30 f i Newton.obj
 0001:0000bf50       ??0?$dgTemplateVector@M@@QAE@MMMM@Z 1000cf50 f i Newton.obj
 0001:0000bf90       ??0?$dgTemplateVector@M@@QAE@PBM@Z 1000cf90 f i Newton.obj
 0001:0000bfe0       ??0?$dgTemplateVector@M@@QAE@XZ 1000cfe0 f i Newton.obj
 0001:0000c000       ?Scale@?$dgTemplateVector@M@@QBE?AV1@M@Z 1000d000 f i Newton.obj
 0001:0000c080       ??A?$dgTemplateVector@M@@QAEAAMH@Z 1000d080 f i Newton.obj
 0001:0000c100       ??H?$dgTemplateVector@M@@QBE?AV0@ABV0@@Z 1000d100 f i Newton.obj
 0001:0000c180       ??G?$dgTemplateVector@M@@QBE?AV0@ABV0@@Z 1000d180 f i Newton.obj
 0001:0000c200       ??L?$dgTemplateVector@M@@QBEMABV0@@Z 1000d200 f i Newton.obj
 0001:0000c250       ??D?$dgTemplateVector@M@@QBE?AV0@ABV0@@Z 1000d250 f i Newton.obj
 0001:0000c300       ??$ClampValue@M@@YAMMMM@Z  1000d300 f i Newton.obj
 0001:0000c340       ??$GetMin@M@@YAMMM@Z       1000d340 f i Newton.obj
 0001:0000c370       ??$GetMax@M@@YAMMM@Z       1000d370 f i Newton.obj
 0001:0000c3a0       ?GetCount@?$dgList@V?$dgGraphNode@VdgDebriNodeInfo@dgCollisionCompoundBreakable@@VdgSharedNodeMesh@2@@@@@QBEHXZ 1000d3a0 f i Newton.obj
 0001:0000c3c0       ?GetLast@?$dgList@V?$dgGraphNode@VdgDebriNodeInfo@dgCollisionCompoundBreakable@@VdgSharedNodeMesh@2@@@@@QBEPAVdgListNode@1@XZ 1000d3c0 f i Newton.obj
 0001:0000c3e0       ?GetFirst@?$dgList@V?$dgGraphNode@VdgDebriNodeInfo@dgCollisionCompoundBreakable@@VdgSharedNodeMesh@2@@@@@QBEPAVdgListNode@1@XZ 1000d3e0 f i Newton.obj
 0001:0000c400       ??0NewtonDeadBodies@@QAE@QAVdgMemoryAllocator@@@Z 1000d400 f   NewtonClass.obj
 0001:0000c440       ?DestroyBodies@NewtonDeadBodies@@QAEXAAVNewton@@@Z 1000d440 f   NewtonClass.obj
 0001:0000c4c0       ??0NewtonDeadJoints@@QAE@QAVdgMemoryAllocator@@@Z 1000d4c0 f   NewtonClass.obj
 0001:0000c500       ?DestroyJoints@NewtonDeadJoints@@QAEXAAVNewton@@@Z 1000d500 f   NewtonClass.obj
 0001:0000c580       ?DefaultAllocMemory@Newton@@SAPAXH@Z 1000d580 f   NewtonClass.obj
 0001:0000c5a0       ?DefaultFreeMemory@Newton@@SAXPAXH@Z 1000d5a0 f   NewtonClass.obj
 0001:0000c5c0       ??0Newton@@QAE@MQAVdgMemoryAllocator@@@Z 1000d5c0 f   NewtonClass.obj
 0001:0000c630       ??1Newton@@QAE@XZ          1000d630 f   NewtonClass.obj
 0001:0000c680       ?UpdatePhysics@Newton@@QAEXM@Z 1000d680 f   NewtonClass.obj
 0001:0000c710       ?DestroyJoint@Newton@@QAEXPAVdgConstraint@@@Z 1000d710 f   NewtonClass.obj
 0001:0000c770       ?DestroyBody@Newton@@QAEXPAVdgBody@@@Z 1000d770 f   NewtonClass.obj
 0001:0000c7d0       ??0NewtonUserJoint@@QAE@PAVdgWorld@@HP6AXPBUNewtonJoint@@MH@ZP6AX1PAUNewtonJointRecord@@@ZPAVdgBody@@5@Z 1000d7d0 f   NewtonClass.obj
 0001:0000c920       ??1NewtonUserJoint@@UAE@XZ 1000d920 f   NewtonClass.obj
 0001:0000c980       ?JacobianDerivative@NewtonUserJoint@@UAEIAAVdgContraintDescritor@@@Z 1000d980 f   NewtonClass.obj
 0001:0000c9e0       ?AddLinearRowJacobian@NewtonUserJoint@@QAEXABVdgVector@@00@Z 1000d9e0 f   NewtonClass.obj
 0001:0000cb10       ?AddAngularRowJacobian@NewtonUserJoint@@QAEXABVdgVector@@M@Z 1000db10 f   NewtonClass.obj
 0001:0000cc60       ?AddGeneralRowJacobian@NewtonUserJoint@@QAEXPBM0@Z 1000dc60 f   NewtonClass.obj
 0001:0000cda0       ?SetAcceleration@NewtonUserJoint@@QAEXM@Z 1000dda0 f   NewtonClass.obj
 0001:0000cdf0       ?SetSpringDamperAcceleration@NewtonUserJoint@@QAEXMM@Z 1000ddf0 f   NewtonClass.obj
 0001:0000cec0       ?SetHighFriction@NewtonUserJoint@@QAEXM@Z 1000dec0 f   NewtonClass.obj
 0001:0000cf50       ?SetLowerFriction@NewtonUserJoint@@QAEXM@Z 1000df50 f   NewtonClass.obj
 0001:0000cfe0       ?SetRowStiffness@NewtonUserJoint@@QAEXM@Z 1000dfe0 f   NewtonClass.obj
 0001:0000d060       ?GetRowForce@NewtonUserJoint@@QBEMH@Z 1000e060 f   NewtonClass.obj
 0001:0000d0a0       ?GetInfo@NewtonUserJoint@@UBEXQAVdgConstraintInfo@@@Z 1000e0a0 f   NewtonClass.obj
 0001:0000d0f0       ?SetUpdateFeedbackFunction@NewtonUserJoint@@QAEXP6AXPBUNewtonJoint@@MH@Z@Z 1000e0f0 f   NewtonClass.obj
 0001:0000d450       ??1NewtonDeadBodies@@QAE@XZ 1000e450 f i NewtonClass.obj
 0001:0000d470       ??1NewtonDeadJoints@@QAE@XZ 1000e470 f i NewtonClass.obj
 0001:0000d490       ??_GNewtonUserJoint@@UAEPAXI@Z 1000e490 f i NewtonClass.obj
 0001:0000d490       ??_ENewtonUserJoint@@UAEPAXI@Z 1000e490 f i NewtonClass.obj
 0001:0000d4d0       ??0dgPointParam@dgConstraint@@QAE@XZ 1000e4d0 f i NewtonClass.obj
 0001:0000d550       ??0Iterator@?$dgTree@PAVdgBody@@PAX@@QAE@ABV1@@Z 1000e550 f i NewtonClass.obj
 0001:0000d580       ??1Iterator@?$dgTree@PAVdgBody@@PAX@@QAE@XZ 1000e580 f i NewtonClass.obj
 0001:0000d590       ?Begin@Iterator@?$dgTree@PAVdgBody@@PAX@@QAEXXZ 1000e590 f i NewtonClass.obj
 0001:0000d5c0       ??BIterator@?$dgTree@PAVdgBody@@PAX@@QBEHXZ 1000e5c0 f i NewtonClass.obj
 0001:0000d5e0       ??EIterator@?$dgTree@PAVdgBody@@PAX@@QAEXH@Z 1000e5e0 f i NewtonClass.obj
 0001:0000d640       ?GetNode@Iterator@?$dgTree@PAVdgBody@@PAX@@QBEPAVdgTreeNode@2@XZ 1000e640 f i NewtonClass.obj
 0001:0000d660       ?GetInfo@dgTreeNode@?$dgTree@PAVdgBody@@PAX@@QAEAAPAVdgBody@@XZ 1000e660 f i NewtonClass.obj
 0001:0000d680       ??0Iterator@?$dgTree@PAVdgConstraint@@PAX@@QAE@ABV1@@Z 1000e680 f i NewtonClass.obj
 0001:0000d6b0       ??1Iterator@?$dgTree@PAVdgConstraint@@PAX@@QAE@XZ 1000e6b0 f i NewtonClass.obj
 0001:0000d6c0       ?Begin@Iterator@?$dgTree@PAVdgConstraint@@PAX@@QAEXXZ 1000e6c0 f i NewtonClass.obj
 0001:0000d6f0       ??BIterator@?$dgTree@PAVdgConstraint@@PAX@@QBEHXZ 1000e6f0 f i NewtonClass.obj
 0001:0000d710       ??EIterator@?$dgTree@PAVdgConstraint@@PAX@@QAEXH@Z 1000e710 f i NewtonClass.obj
 0001:0000d770       ?GetNode@Iterator@?$dgTree@PAVdgConstraint@@PAX@@QBEPAVdgTreeNode@2@XZ 1000e770 f i NewtonClass.obj
 0001:0000d790       ?GetInfo@dgTreeNode@?$dgTree@PAVdgConstraint@@PAX@@QAEAAPAVdgConstraint@@XZ 1000e790 f i NewtonClass.obj
 0001:0000d7b0       ??0?$dgTree@PAVdgBody@@PAX@@QAE@QAVdgMemoryAllocator@@@Z 1000e7b0 f i NewtonClass.obj
 0001:0000d7f0       ??1?$dgTree@PAVdgBody@@PAX@@QAE@XZ 1000e7f0 f i NewtonClass.obj
 0001:0000d810       ?Minimum@?$dgTree@PAVdgBody@@PAX@@QBEPAVdgTreeNode@1@XZ 1000e810 f i NewtonClass.obj
 0001:0000d850       ?Insert@?$dgTree@PAVdgBody@@PAX@@QAEPAVdgTreeNode@1@ABQAVdgBody@@PAX@Z 1000e850 f i NewtonClass.obj
 0001:0000d8a0       ?Remove@?$dgTree@PAVdgBody@@PAX@@QAEXQAVdgTreeNode@1@@Z 1000e8a0 f i NewtonClass.obj
 0001:0000d8e0       ??0?$dgTree@PAVdgConstraint@@PAX@@QAE@QAVdgMemoryAllocator@@@Z 1000e8e0 f i NewtonClass.obj
 0001:0000d920       ??1?$dgTree@PAVdgConstraint@@PAX@@QAE@XZ 1000e920 f i NewtonClass.obj
 0001:0000d940       ?Minimum@?$dgTree@PAVdgConstraint@@PAX@@QBEPAVdgTreeNode@1@XZ 1000e940 f i NewtonClass.obj
 0001:0000d980       ?Insert@?$dgTree@PAVdgConstraint@@PAX@@QAEPAVdgTreeNode@1@ABQAVdgConstraint@@PAX@Z 1000e980 f i NewtonClass.obj
 0001:0000d9d0       ?Remove@?$dgTree@PAVdgConstraint@@PAX@@QAEXQAVdgTreeNode@1@@Z 1000e9d0 f i NewtonClass.obj
 0001:0000da10       ?Insert@?$dgTree@PAVdgBody@@PAX@@QAEPAVdgTreeNode@1@ABQAVdgBody@@PAXAA_N@Z 1000ea10 f i NewtonClass.obj
 0001:0000dc80       ?RemoveAll@?$dgTree@PAVdgBody@@PAX@@QAEXXZ 1000ec80 f i NewtonClass.obj
 0001:0000dcc0       ?Insert@?$dgTree@PAVdgConstraint@@PAX@@QAEPAVdgTreeNode@1@ABQAVdgConstraint@@PAXAA_N@Z 1000ecc0 f i NewtonClass.obj
 0001:0000df30       ?RemoveAll@?$dgTree@PAVdgConstraint@@PAX@@QAEXXZ 1000ef30 f i NewtonClass.obj
 0001:0000df70       ??0dgTreeNode@?$dgTree@PAVdgBody@@PAX@@AAE@ABQAVdgBody@@ABQAXPAV01@@Z 1000ef70 f i NewtonClass.obj
 0001:0000e000       ?GetLeft@dgTreeNode@?$dgTree@PAVdgBody@@PAX@@ABEPAV12@XZ 1000f000 f i NewtonClass.obj
 0001:0000e020       ?GetRight@dgTreeNode@?$dgTree@PAVdgBody@@PAX@@ABEPAV12@XZ 1000f020 f i NewtonClass.obj
 0001:0000e040       ??0dgTreeNode@?$dgTree@PAVdgConstraint@@PAX@@AAE@ABQAVdgConstraint@@ABQAXPAV01@@Z 1000f040 f i NewtonClass.obj
 0001:0000e0d0       ?GetLeft@dgTreeNode@?$dgTree@PAVdgConstraint@@PAX@@ABEPAV12@XZ 1000f0d0 f i NewtonClass.obj
 0001:0000e0f0       ?GetRight@dgTreeNode@?$dgTree@PAVdgConstraint@@PAX@@ABEPAV12@XZ 1000f0f0 f i NewtonClass.obj
 0001:0000e110       ?CompareKeys@?$dgTree@PAVdgBody@@PAX@@ABEHABQAX0@Z 1000f110 f i NewtonClass.obj
 0001:0000e150       ?CompareKeys@?$dgTree@PAVdgConstraint@@PAX@@ABEHABQAX0@Z 1000f150 f i NewtonClass.obj
 0001:0000e190       ??3dgConstraint@@SAXPAX@Z  1000f190 f i NewtonClass.obj
 0001:0000e1b0       ?SetUpdateFeedbackFunction@dgConstraint@@IAEXP6AXABV1@MH@Z@Z 1000f1b0 f i NewtonClass.obj
 0001:0000e1d0       ??_H@YGXPAXIHP6EPAX0@Z@Z   1000f1d0 f i NewtonClass.obj
 0001:0000e200       ?Init@dgBilateralConstraint@@MAEXXZ 1000f200 f i NewtonClass.obj
 0001:0000e240       ?Remove@dgBilateralConstraint@@MAEXPAVdgWorld@@@Z 1000f240 f i NewtonClass.obj
 0001:0000e280       ??0dgWorld@@QAE@QAVdgMemoryAllocator@@@Z 1000f280 f   physics:dgWorld.obj
 0001:0000e800       ??1dgWorld@@QAE@XZ         1000f800 f   physics:dgWorld.obj
 0001:0000e9a0       ?GetPerformanceCount@dgWorld@@CAIXZ 1000f9a0 f   physics:dgWorld.obj
 0001:0000e9b0       ?AddSentinelBody@dgWorld@@AAEXXZ 1000f9b0 f   physics:dgWorld.obj
 0001:0000ea40       ?GetSentinelBody@dgWorld@@QBEPAVdgBody@@XZ 1000fa40 f   physics:dgWorld.obj
 0001:0000ea60       ?SetSolverMode@dgWorld@@QAEXH@Z 1000fa60 f   physics:dgWorld.obj
 0001:0000ea90       ?SetFrictionMode@dgWorld@@QAEXH@Z 1000fa90 f   physics:dgWorld.obj
 0001:0000eab0       ?SetHardwareMode@dgWorld@@QAEXH@Z 1000fab0 f   physics:dgWorld.obj
 0001:0000eae0       ?GetHardwareMode@dgWorld@@QAEHPAD@Z 1000fae0 f   physics:dgWorld.obj
 0001:0000eb40       ?SetThreadsCount@dgWorld@@QAEXH@Z 1000fb40 f   physics:dgWorld.obj
 0001:0000eb80       ?GetThreadsCount@dgWorld@@QBEHXZ 1000fb80 f   physics:dgWorld.obj
 0001:0000eba0       ?GetMaxThreadsCount@dgWorld@@QBEHXZ 1000fba0 f   physics:dgWorld.obj
 0001:0000ebc0       ?EnableThreadOnSingleIsland@dgWorld@@QAEXH@Z 1000fbc0 f   physics:dgWorld.obj
 0001:0000ebe0       ?GetThreadOnSingleIsland@dgWorld@@QBEHXZ 1000fbe0 f   physics:dgWorld.obj
 0001:0000ec00       ?SetFrictionThreshold@dgWorld@@QAEXM@Z 1000fc00 f   physics:dgWorld.obj
 0001:0000ec30       ?RemoveAllGroupID@dgWorld@@QAEXXZ 1000fc30 f   physics:dgWorld.obj
 0001:0000ec90       ?DestroyAllBodies@dgWorld@@QAEXXZ 1000fc90 f   physics:dgWorld.obj
 0001:0000eda0       ?CreateBody@dgWorld@@QAEPAVdgBody@@QAVdgCollision@@ABVdgMatrix@@@Z 1000fda0 f   physics:dgWorld.obj
 0001:0000f090       ?DestroyBody@dgWorld@@QAEXQAVdgBody@@@Z 10010090 f   physics:dgWorld.obj
 0001:0000f140       ?DestroyConstraint@dgWorld@@QAEXPAVdgConstraint@@@Z 10010140 f   physics:dgWorld.obj
 0001:0000f190       ?UpdateCollision@dgWorld@@QAEXXZ 10010190 f   physics:dgWorld.obj
 0001:0000f310       ?Update@dgWorld@@QAEXM@Z   10010310 f   physics:dgWorld.obj
 0001:0000f520       ?GetPerformaceFuntion@dgWorld@@QBEP6AIXZXZ 10010520 f   physics:dgWorld.obj
 0001:0000f540       ?SetPerfomanceCounter@dgWorld@@QAEXP6AIXZ@Z 10010540 f   physics:dgWorld.obj
 0001:0000f590       ?GetPerfomanceTicks@dgWorld@@QBEII@Z 10010590 f   physics:dgWorld.obj
 0001:0000f5c0       ?GetThreadPerfomanceTicks@dgWorld@@QBEII@Z 100105c0 f   physics:dgWorld.obj
 0001:0000f5e0       ?SetUserData@dgWorld@@QAEXQAX@Z 100105e0 f   physics:dgWorld.obj
 0001:0000f600       ?GetUserData@dgWorld@@QBEPAXXZ 10010600 f   physics:dgWorld.obj
 0001:0000f620       ?SetIslandUpdateCallback@dgWorld@@QAEXP6AIQBV1@PAXH@Z@Z 10010620 f   physics:dgWorld.obj
 0001:0000f640       ?SetDestroyCollisionCallback@dgWorld@@QAEXP6AXQBV1@PAVdgCollision@@@Z@Z 10010640 f   physics:dgWorld.obj
 0001:0000f660       ?SetLeavingWorldCallback@dgWorld@@QAEXP6AXPAVdgBody@@H@Z@Z 10010660 f   physics:dgWorld.obj
 0001:0000f680       ?SetBodyDestructionByExeciveForce@dgWorld@@QAEXP6AXQBVdgBody@@PBVdgContact@@@Z@Z 10010680 f   physics:dgWorld.obj
 0001:0000f6a0       ?CreateBallConstraint@dgWorld@@QAEPAVdgBallConstraint@@ABVdgVector@@QAVdgBody@@PAV4@@Z 100106a0 f   physics:dgWorld.obj
 0001:0000f760       ?CreateHingeConstraint@dgWorld@@QAEPAVdgHingeConstraint@@ABVdgVector@@0QAVdgBody@@PAV4@@Z 10010760 f   physics:dgWorld.obj
 0001:0000f820       ?CreateUpVectorConstraint@dgWorld@@QAEPAVdgUpVectorConstraint@@ABVdgVector@@PAVdgBody@@@Z 10010820 f   physics:dgWorld.obj
 0001:0000f8c0       ?CreateSlidingConstraint@dgWorld@@QAEPAVdgSlidingConstraint@@ABVdgVector@@0QAVdgBody@@PAV4@@Z 100108c0 f   physics:dgWorld.obj
 0001:0000f980       ?CreateCorkscrewConstraint@dgWorld@@QAEPAVdgCorkscrewConstraint@@ABVdgVector@@0QAVdgBody@@PAV4@@Z 10010980 f   physics:dgWorld.obj
 0001:0000fa40       ?CreateUniversalConstraint@dgWorld@@QAEPAVdgUniversalConstraint@@ABVdgVector@@00QAVdgBody@@PAV4@@Z 10010a40 f   physics:dgWorld.obj
 0001:0000fb10       ?GetBodiesCount@dgWorld@@QBEHXZ 10010b10 f   physics:dgWorld.obj
 0001:0000fb30       ?GetConstraintsCount@dgWorld@@QBEHXZ 10010b30 f   physics:dgWorld.obj
 0001:0000fb50       ?BodySetMatrix@dgWorld@@QAEXPAVdgBody@@ABVdgMatrix@@@Z 10010b50 f   physics:dgWorld.obj
 0001:0000fe10       ?AddBodyImpulse@dgWorld@@QAEXPAVdgBody@@ABVdgVector@@1@Z 10010e10 f   physics:dgWorld.obj
 0001:0000fe40       ?AreBodyConnectedByJoints@dgWorld@@AAE_NQAVdgBody@@0@Z 10010e40 f   physics:dgWorld.obj
 0001:00010020       ?FlushCache@dgWorld@@QAEXXZ 10011020 f   physics:dgWorld.obj
 0001:000100a0       ??0dgActiveContacts@@QAE@QAVdgMemoryAllocator@@@Z 100110a0 f i physics:dgWorld.obj
 0001:000100c0       ??2dgCollision@@SAPAXIQAVdgMemoryAllocator@@@Z 100110c0 f i physics:dgWorld.obj
 0001:000100e0       ??0dgBodyCollisionList@@QAE@QAVdgMemoryAllocator@@@Z 100110e0 f i physics:dgWorld.obj
 0001:00010100       ??0dgBodyMaterialList@@QAE@QAVdgMemoryAllocator@@@Z 10011100 f i physics:dgWorld.obj
 0001:00010120       ??0dgDetroyBodyByForce@dgWorld@@QAE@XZ 10011120 f i physics:dgWorld.obj
 0001:00010140       ??0dgCollisionPoint@@QAE@QAVdgMemoryAllocator@@@Z 10011140 f i physics:dgWorld.obj
 0001:00010180       ?ModifierGetMatrix@dgCollision@@UBE?AVdgMatrix@@XZ 10011180 f i physics:dgWorld.obj
 0001:000101b0       ?ModifierSetMatrix@dgCollision@@UAEXABVdgMatrix@@@Z 100111b0 f i physics:dgWorld.obj
 0001:000101c0       ?Release@dgCollision@@UAEHXZ 100111c0 f i physics:dgWorld.obj
 0001:00010220       ?SetBreakImpulse@dgCollision@@UAEXM@Z 10011220 f i physics:dgWorld.obj
 0001:00010230       ?GetBreakImpulse@dgCollision@@UBEMXZ 10011230 f i physics:dgWorld.obj
 0001:00010250       ??_GdgCollisionPoint@@UAEPAXI@Z 10011250 f i physics:dgWorld.obj
 0001:00010250       ??_EdgCollisionPoint@@UAEPAXI@Z 10011250 f i physics:dgWorld.obj
 0001:00010280       ??3dgCollision@@SAXPAX@Z   10011280 f i physics:dgWorld.obj
 0001:000102a0       ??1dgCollisionPoint@@UAE@XZ 100112a0 f i physics:dgWorld.obj
 0001:000102c0       ??_I@YGXPAXIHP6EX0@Z@Z     100112c0 f i physics:dgWorld.obj
 0001:000102f0       ??1dgBodyMaterialList@@QAE@XZ 100112f0 f i physics:dgWorld.obj
 0001:00010310       ??1dgBodyCollisionList@@QAE@XZ 10011310 f i physics:dgWorld.obj
 0001:00010330       ??1dgActiveContacts@@QAE@XZ 10011330 f i physics:dgWorld.obj
 0001:00010350       ??1dgWorldDynamicUpdate@@QAE@XZ 10011350 f i physics:dgWorld.obj
 0001:00010460       ??1dgSolverWorlkerThreads@@UAE@XZ 10011460 f i physics:dgWorld.obj
 0001:00010480       ??1dgParallelSolverClear@@UAE@XZ 10011480 f i physics:dgWorld.obj
 0001:000104a0       ??1dgParallelSolverBodyInertia@@UAE@XZ 100114a0 f i physics:dgWorld.obj
 0001:000104c0       ??1dgParallelSolverUpdateVeloc@@UAE@XZ 100114c0 f i physics:dgWorld.obj
 0001:000104e0       ??1dgParallelSolverUpdateForce@@UAE@XZ 100114e0 f i physics:dgWorld.obj
 0001:00010500       ??1dgParallelSolverCalculateForces@@UAE@XZ 10011500 f i physics:dgWorld.obj
 0001:00010520       ??1dgParallelSolverInitInternalForces@@UAE@XZ 10011520 f i physics:dgWorld.obj
 0001:00010540       ??1dgParallelSolverBuildJacobianRows@@UAE@XZ 10011540 f i physics:dgWorld.obj
 0001:00010560       ??1dgParallelSolverJointAcceleration@@UAE@XZ 10011560 f i physics:dgWorld.obj
 0001:00010580       ??1dgParallelSolverInitFeedbackUpdate@@UAE@XZ 10011580 f i physics:dgWorld.obj
 0001:000105a0       ??1dgParallelSolverBuildJacobianMatrix@@UAE@XZ 100115a0 f i physics:dgWorld.obj
 0001:000105c0       ??2dgBody@@SAPAXIQAVdgMemoryAllocator@@@Z 100115c0 f i physics:dgWorld.obj
 0001:000105e0       ??_GdgBody@@QAEPAXI@Z      100115e0 f i physics:dgWorld.obj
 0001:00010610       ??3dgBody@@SAXPAX@Z        10011610 f i physics:dgWorld.obj
 0001:00010630       ?GetInfo@dgListNode@?$dgList@PAVdgContact@@@@QAEAAPAVdgContact@@XZ 10011630 f i physics:dgWorld.obj
 0001:00010640       ?GetNext@dgListNode@?$dgList@PAVdgContact@@@@QBEPAV12@XZ 10011640 f i physics:dgWorld.obj
 0001:00010660       ?GetCount@?$dgList@VdgBodyMasterListCell@@@@QBEHXZ 10011660 f i physics:dgWorld.obj
 0001:00010670       ?GetCount@?$dgList@VdgBodyMasterListRow@@@@QBEHXZ 10011670 f i physics:dgWorld.obj
 0001:00010680       ??0?$dgList@PAVdgContact@@@@QAE@QAVdgMemoryAllocator@@@Z 10011680 f i physics:dgWorld.obj
 0001:000106c0       ??1?$dgList@PAVdgContact@@@@QAE@XZ 100116c0 f i physics:dgWorld.obj
 0001:000106e0       ?GetFirst@?$dgList@PAVdgContact@@@@QBEPAVdgListNode@1@XZ 100116e0 f i physics:dgWorld.obj
 0001:00010700       ??0?$dgTree@PAVdgCollision@@I@@QAE@QAVdgMemoryAllocator@@@Z 10011700 f i physics:dgWorld.obj
 0001:00010730       ??1?$dgTree@PAVdgCollision@@I@@QAE@XZ 10011730 f i physics:dgWorld.obj
 0001:00010750       ?GetCount@?$dgTree@PAVdgCollision@@I@@QBEHXZ 10011750 f i physics:dgWorld.obj
 0001:00010760       ??0?$dgTree@VdgContactMaterial@@I@@QAE@QAVdgMemoryAllocator@@@Z 10011760 f i physics:dgWorld.obj
 0001:00010790       ??1?$dgTree@VdgContactMaterial@@I@@QAE@XZ 10011790 f i physics:dgWorld.obj
 0001:000107b0       ?GetCount@?$dgTree@VdgContactMaterial@@I@@QBEHXZ 100117b0 f i physics:dgWorld.obj
 0001:000107c0       ?GetRoot@?$dgTree@VdgContactMaterial@@I@@QBEPAVdgTreeNode@1@XZ 100117c0 f i physics:dgWorld.obj
 0001:000107e0       ?Remove@?$dgTree@VdgContactMaterial@@I@@QAEXQAVdgTreeNode@1@@Z 100117e0 f i physics:dgWorld.obj
 0001:00010820       ??0?$dgTree@PAXI@@QAE@QAVdgMemoryAllocator@@@Z 10011820 f i physics:dgWorld.obj
 0001:00010850       ??1?$dgTree@PAXI@@QAE@XZ   10011850 f i physics:dgWorld.obj
 0001:00010870       ??$GetMax@H@@YAHHH@Z       10011870 f i physics:dgWorld.obj
 0001:00010890       ??$ClampValue@I@@YAIIII@Z  10011890 f i physics:dgWorld.obj
 0001:000108c0       ??$Swap@PAVdgBody@@@@YAXAAPAVdgBody@@0@Z 100118c0 f i physics:dgWorld.obj
 0001:000108f0       ?RemoveAll@?$dgList@PAVdgContact@@@@QAEXXZ 100118f0 f i physics:dgWorld.obj
 0001:000109b0       ?RemoveAll@?$dgTree@PAVdgCollision@@I@@QAEXXZ 100119b0 f i physics:dgWorld.obj
 0001:000109f0       ?RemoveAll@?$dgTree@VdgContactMaterial@@I@@QAEXXZ 100119f0 f i physics:dgWorld.obj
 0001:00010a30       ?RemoveAll@?$dgTree@PAXI@@QAEXXZ 10011a30 f i physics:dgWorld.obj
 0001:00010a70       ??_GdgListNode@?$dgList@PAVdgContact@@@@AAEPAXI@Z 10011a70 f i physics:dgWorld.obj
 0001:00010aa0       ??3dgListNode@?$dgList@PAVdgContact@@@@CAXPAX@Z 10011aa0 f i physics:dgWorld.obj
 0001:00010ac0       ??1dgListNode@?$dgList@PAVdgContact@@@@AAE@XZ 10011ac0 f i physics:dgWorld.obj
 0001:00010ad0       ?Unlink@dgListNode@?$dgList@PAVdgContact@@@@AAEXXZ 10011ad0 f i physics:dgWorld.obj
 0001:00010b20       ?Inverse@dgMatrix@@QBE?AV1@XZ 10011b20 f i physics:dgWorld.obj
 0001:00010c30       ??1dgWorkerThread@@UAE@XZ  10011c30 f i physics:dgWorld.obj
 0001:00010c50       ??_EdgWorkerThread@@UAEPAXI@Z 10011c50 f i physics:dgWorld.obj
 0001:00010c50       ??_GdgWorkerThread@@UAEPAXI@Z 10011c50 f i physics:dgWorld.obj
 0001:00010c80       ??0dgSortArray@@QAE@XZ     10011c80 f   physics:dgBroadPhaseCollision.obj
 0001:00010cb0       ??1dgSortArray@@QAE@XZ     10011cb0 f   physics:dgBroadPhaseCollision.obj
 0001:00010cf0       ?Add@dgSortArray@@QAEXQAVdgBody@@@Z 10011cf0 f   physics:dgBroadPhaseCollision.obj
 0001:00010d60       ?Remove@dgSortArray@@QAEXQAVdgBody@@@Z 10011d60 f   physics:dgBroadPhaseCollision.obj
 0001:00010dd0       ?Sort@dgSortArray@@QAEMXZ  10011dd0 f   physics:dgBroadPhaseCollision.obj
 0001:00010f20       ?RayCast@dgSortArray@@QBEMMABUdgLineBox@@P6AMQBVdgBody@@ABVdgVector@@HQAXM@ZP6AI1QBVdgCollision@@3@Z3@Z 10011f20 f   physics:dgBroadPhaseCollision.obj
 0001:00011040       ?InvalidateCache@dgSortArray@@QAEXXZ 10012040 f   physics:dgBroadPhaseCollision.obj
 0001:000110f0       ?SanityCheck@dgSortArray@@QAE_NXZ 100120f0 f   physics:dgBroadPhaseCollision.obj
 0001:00011170       ??0dgBroadPhaseCell@@QAE@XZ 10012170 f   physics:dgBroadPhaseCollision.obj
 0001:00011190       ??1dgBroadPhaseCell@@QAE@XZ 10012190 f   physics:dgBroadPhaseCollision.obj
 0001:000111e0       ?Init@dgBroadPhaseCell@@AAEXHPAVdgMemoryAllocator@@@Z 100121e0 f   physics:dgBroadPhaseCollision.obj
 0001:00011250       ?Add@dgBroadPhaseCell@@AAEXQAVdgBody@@@Z 10012250 f   physics:dgBroadPhaseCollision.obj
 0001:000112e0       ?Remove@dgBroadPhaseCell@@AAEXQAVdgBody@@@Z 100122e0 f   physics:dgBroadPhaseCollision.obj
 0001:000113a0       ?Sort@dgBroadPhaseCell@@AAEXXZ 100123a0 f   physics:dgBroadPhaseCollision.obj
 0001:00011430       ?UpdateAutoPair@dgBroadPhaseCell@@AAEXQAVdgWorld@@H@Z 10012430 f   physics:dgBroadPhaseCollision.obj
 0001:000115b0       ??0dgBroadPhaseLayer@@QAE@XZ 100125b0 f   physics:dgBroadPhaseCollision.obj
 0001:000115f0       ??1dgBroadPhaseLayer@@QAE@XZ 100125f0 f   physics:dgBroadPhaseCollision.obj
 0001:00011630       ?Init@dgBroadPhaseLayer@@AAEXQAVdgWorld@@MH@Z 10012630 f   physics:dgBroadPhaseCollision.obj
 0001:000116a0       ?FindCreate@dgBroadPhaseLayer@@AAEPAVdgBroadPhaseCell@@HH@Z 100126a0 f   physics:dgBroadPhaseCollision.obj
 0001:00011730       ??0dgBroadPhaseCollision@@AAE@PAVdgMemoryAllocator@@@Z 10012730 f   physics:dgBroadPhaseCollision.obj
 0001:000118d0       ??1dgBroadPhaseCollision@@AAE@XZ 100128d0 f   physics:dgBroadPhaseCollision.obj
 0001:00011960       ?Init@dgBroadPhaseCollision@@AAEXXZ 10012960 f   physics:dgBroadPhaseCollision.obj
 0001:000119e0       ?GetWorldSize@dgBroadPhaseCollision@@QBEXAAVdgVector@@0@Z 100129e0 f   physics:dgBroadPhaseCollision.obj
 0001:00011a30       ?SetWorldSize@dgBroadPhaseCollision@@QAEXABVdgVector@@0@Z 10012a30 f   physics:dgBroadPhaseCollision.obj
 0001:00011e70       ?InvalidateCache@dgBroadPhaseCollision@@AAEXXZ 10012e70 f   physics:dgBroadPhaseCollision.obj
 0001:00011f00       ?Add@dgBroadPhaseCollision@@AAEXQAVdgBody@@@Z 10012f00 f   physics:dgBroadPhaseCollision.obj
 0001:00011f60       ?Remove@dgBroadPhaseCollision@@AAEXQAVdgBody@@@Z 10012f60 f   physics:dgBroadPhaseCollision.obj
 0001:00012030       ?UpdatePairs@dgBroadPhaseCollision@@ABEXQAVdgBody@@QAVdgListNode@?$dgList@VdgSortArrayEntry@@@@HH@Z 10013030 f   physics:dgBroadPhaseCollision.obj
 0001:00012180       ?UpdatePairs@dgBroadPhaseCollision@@ABEXAAVdgBroadPhaseCell@@0H@Z 10013180 f   physics:dgBroadPhaseCollision.obj
 0001:00012260       ?ForEachBodyInAABB@dgBroadPhaseCollision@@QBEXABVdgVector@@0P6AXPAVdgBody@@QAX@Z2@Z 10013260 f   physics:dgBroadPhaseCollision.obj
 0001:000124c0       ?ConvexCast@dgBroadPhaseCollision@@QBEHQAVdgCollision@@ABVdgMatrix@@ABVdgVector@@AAMP6AIQBVdgBody@@QBV2@QAX@Z6QAVdgConvexCastReturnInfo@@HH@Z 100134c0 f   physics:dgBroadPhaseCollision.obj
 0001:00012fc0       ?Realloc@dgBroadPhaseCalculateContactsWorkerThread@@QAEXHHH@Z 10013fc0 f   physics:dgBroadPhaseCollision.obj
 0001:00013120       ?ThreadExecute@dgBroadPhaseCellPairsWorkerThread@@UAEXXZ 10014120 f   physics:dgBroadPhaseCollision.obj
 0001:000131e0       ?ThreadExecute@dgBroadPhaseApplyExternalForce@@UAEXXZ 100141e0 f   physics:dgBroadPhaseCollision.obj
 0001:00013700       ?ThreadExecute@dgBroadPhaseCalculateContactsWorkerThread@@UAEXXZ 10014700 f   physics:dgBroadPhaseCollision.obj
 0001:00013960       ?ThreadExecute@dgBroadPhaseMaterialCallbackWorkerThread@@UAEXXZ 10014960 f   physics:dgBroadPhaseCollision.obj
 0001:00013aa0       ?RayCast@dgBroadPhaseCollision@@QBEXABVdgVector@@0P6AMQBVdgBody@@0HQAXM@ZP6AI1QBVdgCollision@@2@Z2@Z 10014aa0 f   physics:dgBroadPhaseCollision.obj
 0001:00014490       ?UpdateBodyBroadphase@dgBroadPhaseCollision@@AAEXQAVdgBody@@H@Z 10015490 f   physics:dgBroadPhaseCollision.obj
 0001:00014a70       ?UpdateContactsBroadPhaseBegin@dgBroadPhaseCollision@@AAEIM_NI@Z 10015a70 f   physics:dgBroadPhaseCollision.obj
 0001:00015ae0       ?UpdateContactsBroadPhaseEnd@dgBroadPhaseCollision@@AAEXM@Z 10016ae0 f   physics:dgBroadPhaseCollision.obj
 0001:00015c60       ?UpdateContactsSimd@dgBroadPhaseCollision@@AAEXM_N@Z 10016c60 f   physics:dgBroadPhaseCollision.obj
 0001:00015fe0       ?UpdateContacts@dgBroadPhaseCollision@@AAEXM_N@Z 10016fe0 f   physics:dgBroadPhaseCollision.obj
 0001:00016360       ?GetKey@dgBroadPhaseLayer@@ABEIHH@Z 10017360 f i physics:dgBroadPhaseCollision.obj
 0001:00016380       ??0dgBroadPhaseApplyExternalForce@@QAE@XZ 10017380 f i physics:dgBroadPhaseCollision.obj
 0001:000163a0       ??0dgBroadPhaseCellPairsWorkerThread@@QAE@XZ 100173a0 f i physics:dgBroadPhaseCollision.obj
 0001:000163c0       ??0dgBroadPhaseMaterialCallbackWorkerThread@@QAE@XZ 100173c0 f i physics:dgBroadPhaseCollision.obj
 0001:000163e0       ??0dgBroadPhaseCalculateContactsWorkerThread@@QAE@XZ 100173e0 f i physics:dgBroadPhaseCollision.obj
 0001:00016400       ??_EdgBroadPhaseApplyExternalForce@@UAEPAXI@Z 10017400 f i physics:dgBroadPhaseCollision.obj
 0001:00016400       ??_GdgBroadPhaseApplyExternalForce@@UAEPAXI@Z 10017400 f i physics:dgBroadPhaseCollision.obj
 0001:00016430       ??1dgBroadPhaseApplyExternalForce@@UAE@XZ 10017430 f i physics:dgBroadPhaseCollision.obj
 0001:00016450       ??_GdgBroadPhaseCellPairsWorkerThread@@UAEPAXI@Z 10017450 f i physics:dgBroadPhaseCollision.obj
 0001:00016450       ??_EdgBroadPhaseCellPairsWorkerThread@@UAEPAXI@Z 10017450 f i physics:dgBroadPhaseCollision.obj
 0001:00016480       ??1dgBroadPhaseCellPairsWorkerThread@@UAE@XZ 10017480 f i physics:dgBroadPhaseCollision.obj
 0001:000164a0       ??_GdgBroadPhaseMaterialCallbackWorkerThread@@UAEPAXI@Z 100174a0 f i physics:dgBroadPhaseCollision.obj
 0001:000164a0       ??_EdgBroadPhaseMaterialCallbackWorkerThread@@UAEPAXI@Z 100174a0 f i physics:dgBroadPhaseCollision.obj
 0001:000164d0       ??1dgBroadPhaseMaterialCallbackWorkerThread@@UAE@XZ 100174d0 f i physics:dgBroadPhaseCollision.obj
 0001:000164f0       ??_GdgBroadPhaseCalculateContactsWorkerThread@@UAEPAXI@Z 100174f0 f i physics:dgBroadPhaseCollision.obj
 0001:000164f0       ??_EdgBroadPhaseCalculateContactsWorkerThread@@UAEPAXI@Z 100174f0 f i physics:dgBroadPhaseCollision.obj
 0001:00016520       ??1dgBroadPhaseCalculateContactsWorkerThread@@UAE@XZ 10017520 f i physics:dgBroadPhaseCollision.obj
 0001:00016540       _logf                      10017540 f i physics:dgBroadPhaseCollision.obj
 0001:00016560       _powf                      10017560 f i physics:dgBroadPhaseCollision.obj
 0001:00016590       ?Find@dgBroadPhaseLayer@@ABEPAVdgBroadPhaseCell@@HH@Z 10017590 f i physics:dgBroadPhaseCollision.obj
 0001:000165e0       ?ApplyExtenalForces@dgBody@@AAEXMH@Z 100175e0 f i physics:dgBroadPhaseCollision.obj
 0001:000166b0       ?IsInEquelibrium@dgBody@@QBE_NXZ 100176b0 f i physics:dgBroadPhaseCollision.obj
 0001:000168a0       ??0dgLineBox@@QAE@XZ       100178a0 f i physics:dgBroadPhaseCollision.obj
 0001:000168e0       ?GetCollisionPrimityType@dgCollision@@QBE?AW4dgCollisionID@@XZ 100178e0 f i physics:dgBroadPhaseCollision.obj
 0001:00016900       ?KeyToIndex@dgBroadPhaseLayer@@ABEXHAAH0@Z 10017900 f i physics:dgBroadPhaseCollision.obj
 0001:00016930       ?GetKey@dgTreeNode@?$dgTree@VdgBroadPhaseCell@@I@@QBEABIXZ 10017930 f i physics:dgBroadPhaseCollision.obj
 0001:00016950       ?GetInfo@dgTreeNode@?$dgTree@VdgBroadPhaseCell@@I@@QAEAAVdgBroadPhaseCell@@XZ 10017950 f i physics:dgBroadPhaseCollision.obj
 0001:00016970       ?GetInfo@dgListNode@?$dgList@VdgSortArrayEntry@@@@QAEAAVdgSortArrayEntry@@XZ 10017970 f i physics:dgBroadPhaseCollision.obj
 0001:00016980       ?GetNext@dgListNode@?$dgList@VdgSortArrayEntry@@@@QBEPAV12@XZ 10017980 f i physics:dgBroadPhaseCollision.obj
 0001:000169a0       ?GetPrev@dgListNode@?$dgList@VdgSortArrayEntry@@@@QBEPAV12@XZ 100179a0 f i physics:dgBroadPhaseCollision.obj
 0001:000169c0       ??0Iterator@?$dgTree@VdgBroadPhaseCell@@I@@QAE@ABV1@@Z 100179c0 f i physics:dgBroadPhaseCollision.obj
 0001:000169f0       ??1Iterator@?$dgTree@VdgBroadPhaseCell@@I@@QAE@XZ 100179f0 f i physics:dgBroadPhaseCollision.obj
 0001:00016a00       ?Begin@Iterator@?$dgTree@VdgBroadPhaseCell@@I@@QAEXXZ 10017a00 f i physics:dgBroadPhaseCollision.obj
 0001:00016a20       ??BIterator@?$dgTree@VdgBroadPhaseCell@@I@@QBEHXZ 10017a20 f i physics:dgBroadPhaseCollision.obj
 0001:00016a40       ??EIterator@?$dgTree@VdgBroadPhaseCell@@I@@QAEXH@Z 10017a40 f i physics:dgBroadPhaseCollision.obj
 0001:00016a90       ?GetNode@Iterator@?$dgTree@VdgBroadPhaseCell@@I@@QBEPAVdgTreeNode@2@XZ 10017a90 f i physics:dgBroadPhaseCollision.obj
 0001:00016aa0       ??A?$dgTemplateVector@M@@QBEABMH@Z 10017aa0 f i physics:dgBroadPhaseCollision.obj
 0001:00016b10       ??Z?$dgTemplateVector@M@@QAEAAV0@ABV0@@Z 10017b10 f i physics:dgBroadPhaseCollision.obj
 0001:00016bf0       ??0?$dgList@VdgSortArrayEntry@@@@QAE@QAVdgMemoryAllocator@@@Z 10017bf0 f i physics:dgBroadPhaseCollision.obj
 0001:00016c30       ??1?$dgList@VdgSortArrayEntry@@@@QAE@XZ 10017c30 f i physics:dgBroadPhaseCollision.obj
 0001:00016c50       ?SetAllocator@?$dgList@VdgSortArrayEntry@@@@QAEXQAVdgMemoryAllocator@@@Z 10017c50 f i physics:dgBroadPhaseCollision.obj
 0001:00016c80       ?GetCount@?$dgList@VdgSortArrayEntry@@@@QBEHXZ 10017c80 f i physics:dgBroadPhaseCollision.obj
 0001:00016c90       ?GetFirst@?$dgList@VdgSortArrayEntry@@@@QBEPAVdgListNode@1@XZ 10017c90 f i physics:dgBroadPhaseCollision.obj
 0001:00016cb0       ?Append@?$dgList@VdgSortArrayEntry@@@@QAEPAVdgListNode@1@XZ 10017cb0 f i physics:dgBroadPhaseCollision.obj
 0001:00016d70       ?RotateToBegin@?$dgList@VdgSortArrayEntry@@@@QAEXQAVdgListNode@1@@Z 10017d70 f i physics:dgBroadPhaseCollision.obj
 0001:00016de0       ?InsertAfter@?$dgList@VdgSortArrayEntry@@@@QAEXQAVdgListNode@1@0@Z 10017de0 f i physics:dgBroadPhaseCollision.obj
 0001:00016fb0       ?Remove@?$dgList@VdgSortArrayEntry@@@@QAEXQAVdgListNode@1@@Z 10017fb0 f i physics:dgBroadPhaseCollision.obj
 0001:00017000       ??0?$dgTree@VdgBroadPhaseCell@@I@@QAE@QAVdgMemoryAllocator@@@Z 10018000 f i physics:dgBroadPhaseCollision.obj
 0001:00017030       ??1?$dgTree@VdgBroadPhaseCell@@I@@QAE@XZ 10018030 f i physics:dgBroadPhaseCollision.obj
 0001:00017050       ?SetAllocator@?$dgTree@VdgBroadPhaseCell@@I@@QAEXQAVdgMemoryAllocator@@@Z 10018050 f i physics:dgBroadPhaseCollision.obj
 0001:00017080       ?GetCount@?$dgTree@VdgBroadPhaseCell@@I@@QBEHXZ 10018080 f i physics:dgBroadPhaseCollision.obj
 0001:00017090       ?Minimum@?$dgTree@VdgBroadPhaseCell@@I@@QBEPAVdgTreeNode@1@XZ 10018090 f i physics:dgBroadPhaseCollision.obj
 0001:000170c0       ?Find@?$dgTree@VdgBroadPhaseCell@@I@@QBEPAVdgTreeNode@1@I@Z 100180c0 f i physics:dgBroadPhaseCollision.obj
 0001:000171e0       ?GetNodeFromInfo@?$dgTree@VdgBroadPhaseCell@@I@@QBEPAVdgTreeNode@1@AAVdgBroadPhaseCell@@@Z 100181e0 f i physics:dgBroadPhaseCollision.obj
 0001:00017280       ?Insert@?$dgTree@VdgBroadPhaseCell@@I@@QAEPAVdgTreeNode@1@ABVdgBroadPhaseCell@@I@Z 10018280 f i physics:dgBroadPhaseCollision.obj
 0001:000172c0       ?Remove@?$dgTree@VdgBroadPhaseCell@@I@@QAEXQAVdgTreeNode@1@@Z 100182c0 f i physics:dgBroadPhaseCollision.obj
 0001:00017300       ??_GdgListNode@?$dgList@VdgSortArrayEntry@@@@AAEPAXI@Z 10018300 f i physics:dgBroadPhaseCollision.obj
 0001:00017330       ?GetLeft@dgTreeNode@?$dgTree@VdgBroadPhaseCell@@I@@ABEPAV12@XZ 10018330 f i physics:dgBroadPhaseCollision.obj
 0001:00017340       ?GetRight@dgTreeNode@?$dgTree@VdgBroadPhaseCell@@I@@ABEPAV12@XZ 10018340 f i physics:dgBroadPhaseCollision.obj
 0001:00017360       ??2dgListNode@?$dgList@VdgSortArrayEntry@@@@CAPAXIQAVdgMemoryAllocator@@@Z 10018360 f i physics:dgBroadPhaseCollision.obj
 0001:00017380       ??3dgListNode@?$dgList@VdgSortArrayEntry@@@@CAXPAX@Z 10018380 f i physics:dgBroadPhaseCollision.obj
 0001:000173a0       ??0dgListNode@?$dgList@VdgSortArrayEntry@@@@AAE@QAV01@0@Z 100183a0 f i physics:dgBroadPhaseCollision.obj
 0001:00017430       ??1dgListNode@?$dgList@VdgSortArrayEntry@@@@AAE@XZ 10018430 f i physics:dgBroadPhaseCollision.obj
 0001:00017440       ?Unlink@dgListNode@?$dgList@VdgSortArrayEntry@@@@AAEXXZ 10018440 f i physics:dgBroadPhaseCollision.obj
 0001:00017490       ?AddFirst@dgListNode@?$dgList@VdgSortArrayEntry@@@@AAEXQAV12@@Z 10018490 f i physics:dgBroadPhaseCollision.obj
 0001:000174b0       ?RemoveAll@?$dgList@VdgSortArrayEntry@@@@QAEXXZ 100184b0 f i physics:dgBroadPhaseCollision.obj
 0001:00017570       ?Unlink@?$dgList@VdgSortArrayEntry@@@@QAEXQAVdgListNode@1@@Z 10018570 f i physics:dgBroadPhaseCollision.obj
 0001:00017620       ?SanityCheck@?$dgList@VdgSortArrayEntry@@@@QBE_NXZ 10018620 f i physics:dgBroadPhaseCollision.obj
 0001:000177a0       ?Insert@?$dgTree@VdgBroadPhaseCell@@I@@QAEPAVdgTreeNode@1@ABVdgBroadPhaseCell@@IAA_N@Z 100187a0 f i physics:dgBroadPhaseCollision.obj
 0001:000179a0       ?RemoveAll@?$dgTree@VdgBroadPhaseCell@@I@@QAEXXZ 100189a0 f i physics:dgBroadPhaseCollision.obj
 0001:000179e0       ?CompareKeys@?$dgTree@VdgBroadPhaseCell@@I@@ABEHABI0@Z 100189e0 f i physics:dgBroadPhaseCollision.obj
 0001:00017a20       ??0dgTreeNode@?$dgTree@VdgBroadPhaseCell@@I@@AAE@ABVdgBroadPhaseCell@@ABIPAV01@@Z 10018a20 f i physics:dgBroadPhaseCollision.obj
 0001:00017aa0       ?IsInTree@dgRedBackNode@@QBEIXZ 10018aa0 f i physics:dgBroadPhaseCollision.obj
 0001:00017ac0       ??0dgWorkerThread@@QAE@XZ  10018ac0 f i physics:dgBroadPhaseCollision.obj
 0001:00017af0       ?dgOverlapTest@@YAHABVdgVector@@000@Z 10018af0 f i physics:dgBroadPhaseCollision.obj
 0001:00017b80       ?GetIslandBody@dgWorld@@QBEPAVdgBody@@QBXH@Z 10018b80 f   physics:dgWorldDynamicUpdate.obj
 0001:00017bf0       ??0dgWorldDynamicUpdate@@AAE@XZ 10018bf0 f   physics:dgWorldDynamicUpdate.obj
 0001:00017d50       ?UpdateDynamics@dgWorldDynamicUpdate@@AAEXQAVdgWorld@@HM@Z 10018d50 f   physics:dgWorldDynamicUpdate.obj
 0001:00018400       ?ThreadExecute@dgSolverWorlkerThreads@@UAEXXZ 10019400 f   physics:dgWorldDynamicUpdate.obj
 0001:00019120       ?ReallocBodyMemory@dgWorldDynamicUpdate@@AAEXH@Z 1001a120 f   physics:dgWorldDynamicUpdate.obj
 0001:00019280       ?ReallocIslandMemory@dgWorldDynamicUpdate@@AAEXH@Z 1001a280 f   physics:dgWorldDynamicUpdate.obj
 0001:000193e0       ?ReallocJointsMemory@dgWorldDynamicUpdate@@AAEXH@Z 1001a3e0 f   physics:dgWorldDynamicUpdate.obj
 0001:00019540       ?ReallocJacobiansMemory@dgWorldDynamicUpdate@@AAEXHH@Z 1001a540 f   physics:dgWorldDynamicUpdate.obj
 0001:00019da0       ?ReallocIntenalForcesMemory@dgWorldDynamicUpdate@@AAEXHH@Z 1001ada0 f   physics:dgWorldDynamicUpdate.obj
 0001:0001a000       ?BuildIsland@dgWorldDynamicUpdate@@AAEXAAV?$dgQueue@PAVdgBody@@@@HHH@Z 1001b000 f   physics:dgWorldDynamicUpdate.obj
 0001:0001a550       ?SpanningTree@dgWorldDynamicUpdate@@AAEXQAVdgBody@@@Z 1001b550 f   physics:dgWorldDynamicUpdate.obj
 0001:0001afb0       ?IntegrateArray@dgWorldDynamicUpdate@@ABEXPBVdgBodyInfo@@HMMH_N@Z 1001bfb0 f   physics:dgWorldDynamicUpdate.obj
 0001:0001b790       ?GetJacobialDerivatives@dgWorldDynamicUpdate@@AAEHABVdgIsland@@H_NHM@Z 1001c790 f   physics:dgWorldDynamicUpdate.obj
 0001:0001bf50       ?BuildJacobianMatrixSimd@dgWorldDynamicUpdate@@AAEXABVdgIsland@@HM@Z 1001cf50 f   physics:dgWorldDynamicUpdate.obj
 0001:0001cd40       ?BuildJacobianMatrix@dgWorldDynamicUpdate@@AAEXABVdgIsland@@HM@Z 1001dd40 f   physics:dgWorldDynamicUpdate.obj
 0001:0001d6b0       ?CalculateReactionsForcesSimd@dgJacobianMemory@@QBEXHM@Z 1001e6b0 f   physics:dgWorldDynamicUpdate.obj
 0001:0001d730       ?CalculateReactionsForces@dgJacobianMemory@@QBEXHM@Z 1001e730 f   physics:dgWorldDynamicUpdate.obj
 0001:0001d7b0       ?ApplyExternalForcesAndAccelerationSimd@dgJacobianMemory@@QBEXM@Z 1001e7b0 f   physics:dgWorldDynamicUpdate.obj
 0001:0001e220       ?ApplyExternalForcesAndAcceleration@dgJacobianMemory@@QBEXM@Z 1001f220 f   physics:dgWorldDynamicUpdate.obj
 0001:0001e8b0       ?SwapRowsSimd@dgJacobianMemory@@QBEXHH@Z 1001f8b0 f   physics:dgWorldDynamicUpdate.obj
 0001:0001ed00       ?SwapRows@dgJacobianMemory@@QBEXHH@Z 1001fd00 f   physics:dgWorldDynamicUpdate.obj
 0001:0001eef0       ?CalculateSimpleBodyReactionsForcesSimd@dgJacobianMemory@@QBEXM@Z 1001fef0 f   physics:dgWorldDynamicUpdate.obj
 0001:00021650       ?CalculateSimpleBodyReactionsForces@dgJacobianMemory@@QBEXM@Z 10022650 f   physics:dgWorldDynamicUpdate.obj
 0001:00022930       ?CalculateForcesSimulationModeSimd@dgJacobianMemory@@QBEXM@Z 10023930 f   physics:dgWorldDynamicUpdate.obj
 0001:00025f30       ?CalculateForcesSimulationMode@dgJacobianMemory@@QBEXM@Z 10026f30 f   physics:dgWorldDynamicUpdate.obj
 0001:00028620       ?CalculateJointForcesSimd@dgJacobianMemory@@QBEMHPAMM@Z 10029620 f   physics:dgWorldDynamicUpdate.obj
 0001:0002ac30       ?CalculateJointForces@dgJacobianMemory@@QBEMHPAMM@Z 1002bc30 f   physics:dgWorldDynamicUpdate.obj
 0001:0002be00       ?CalculateForcesGameModeSimd@dgJacobianMemory@@QBEXHM@Z 1002ce00 f   physics:dgWorldDynamicUpdate.obj
 0001:0002da30       ?CalculateForcesGameMode@dgJacobianMemory@@QBEXHM@Z 1002ea30 f   physics:dgWorldDynamicUpdate.obj
 0001:0002edf0       ?ThreadExecute@dgParallelSolverBodyInertia@@UAEXXZ 1002fdf0 f   physics:dgWorldDynamicUpdate.obj
 0001:0002eef0       ?ThreadExecute@dgParallelSolverBuildJacobianRows@@UAEXXZ 1002fef0 f   physics:dgWorldDynamicUpdate.obj
 0001:0002ff90       ?ThreadExecute@dgParallelSolverBuildJacobianMatrix@@UAEXXZ 10030f90 f   physics:dgWorldDynamicUpdate.obj
 0001:00030790       ?GetJacobialDerivativesParallel@dgWorldDynamicUpdate@@AAEHABVdgIsland@@_NHM@Z 10031790 f   physics:dgWorldDynamicUpdate.obj
 0001:00030930       ?BuildJacobianMatrixParallel@dgWorldDynamicUpdate@@AAEXABVdgIsland@@MH@Z 10031930 f   physics:dgWorldDynamicUpdate.obj
 0001:00030ef0       ?ThreadExecute@dgParallelSolverClear@@UAEXXZ 10031ef0 f   physics:dgWorldDynamicUpdate.obj
 0001:00031120       ?ThreadExecute@dgParallelSolverInitInternalForces@@UAEXXZ 10032120 f   physics:dgWorldDynamicUpdate.obj
 0001:00031890       ?ThreadExecute@dgParallelSolverJointAcceleration@@UAEXXZ 10032890 f   physics:dgWorldDynamicUpdate.obj
 0001:00031af0       ?ThreadExecute@dgParallelSolverUpdateVeloc@@UAEXXZ 10032af0 f   physics:dgWorldDynamicUpdate.obj
 0001:00031fb0       ?ThreadExecute@dgParallelSolverUpdateForce@@UAEXXZ 10032fb0 f   physics:dgWorldDynamicUpdate.obj
 0001:00032b20       ?ThreadExecute@dgParallelSolverInitFeedbackUpdate@@UAEXXZ 10033b20 f   physics:dgWorldDynamicUpdate.obj
 0001:00032c20       ?ThreadExecute@dgParallelSolverCalculateForces@@UAEXXZ 10033c20 f   physics:dgWorldDynamicUpdate.obj
 0001:00033b70       ?CalculateForcesGameModeParallel@dgJacobianMemory@@QBEXHMH@Z 10034b70 f   physics:dgWorldDynamicUpdate.obj
 0001:00034ad0       ?CalculateReactionsForcesParallel@dgJacobianMemory@@QBEXHMH@Z 10035ad0 f   physics:dgWorldDynamicUpdate.obj
 0001:00034b30       ??0dgSolverWorlkerThreads@@QAE@XZ 10035b30 f i physics:dgWorldDynamicUpdate.obj
 0001:00034b50       ??0dgParallelSolverClear@@QAE@XZ 10035b50 f i physics:dgWorldDynamicUpdate.obj
 0001:00034b70       ??0dgParallelSolverBodyInertia@@QAE@XZ 10035b70 f i physics:dgWorldDynamicUpdate.obj
 0001:00034b90       ??0dgParallelSolverUpdateVeloc@@QAE@XZ 10035b90 f i physics:dgWorldDynamicUpdate.obj
 0001:00034bb0       ??0dgParallelSolverUpdateForce@@QAE@XZ 10035bb0 f i physics:dgWorldDynamicUpdate.obj
 0001:00034bd0       ??0dgParallelSolverCalculateForces@@QAE@XZ 10035bd0 f i physics:dgWorldDynamicUpdate.obj
 0001:00034bf0       ??0dgParallelSolverInitInternalForces@@QAE@XZ 10035bf0 f i physics:dgWorldDynamicUpdate.obj
 0001:00034c10       ??0dgParallelSolverBuildJacobianRows@@QAE@XZ 10035c10 f i physics:dgWorldDynamicUpdate.obj
 0001:00034c30       ??0dgParallelSolverJointAcceleration@@QAE@XZ 10035c30 f i physics:dgWorldDynamicUpdate.obj
 0001:00034c50       ??0dgParallelSolverInitFeedbackUpdate@@QAE@XZ 10035c50 f i physics:dgWorldDynamicUpdate.obj
 0001:00034c70       ??0dgParallelSolverBuildJacobianMatrix@@QAE@XZ 10035c70 f i physics:dgWorldDynamicUpdate.obj
 0001:00034c90       ??_GdgSolverWorlkerThreads@@UAEPAXI@Z 10035c90 f i physics:dgWorldDynamicUpdate.obj
 0001:00034c90       ??_EdgSolverWorlkerThreads@@UAEPAXI@Z 10035c90 f i physics:dgWorldDynamicUpdate.obj
 0001:00034cc0       ??_GdgParallelSolverClear@@UAEPAXI@Z 10035cc0 f i physics:dgWorldDynamicUpdate.obj
 0001:00034cc0       ??_EdgParallelSolverClear@@UAEPAXI@Z 10035cc0 f i physics:dgWorldDynamicUpdate.obj
 0001:00034cf0       ??_EdgParallelSolverBodyInertia@@UAEPAXI@Z 10035cf0 f i physics:dgWorldDynamicUpdate.obj
 0001:00034cf0       ??_GdgParallelSolverBodyInertia@@UAEPAXI@Z 10035cf0 f i physics:dgWorldDynamicUpdate.obj
 0001:00034d20       ??_EdgParallelSolverUpdateVeloc@@UAEPAXI@Z 10035d20 f i physics:dgWorldDynamicUpdate.obj
 0001:00034d20       ??_GdgParallelSolverUpdateVeloc@@UAEPAXI@Z 10035d20 f i physics:dgWorldDynamicUpdate.obj
 0001:00034d50       ??_GdgParallelSolverUpdateForce@@UAEPAXI@Z 10035d50 f i physics:dgWorldDynamicUpdate.obj
 0001:00034d50       ??_EdgParallelSolverUpdateForce@@UAEPAXI@Z 10035d50 f i physics:dgWorldDynamicUpdate.obj
 0001:00034d80       ??_EdgParallelSolverCalculateForces@@UAEPAXI@Z 10035d80 f i physics:dgWorldDynamicUpdate.obj
 0001:00034d80       ??_GdgParallelSolverCalculateForces@@UAEPAXI@Z 10035d80 f i physics:dgWorldDynamicUpdate.obj
 0001:00034db0       ??_EdgParallelSolverInitInternalForces@@UAEPAXI@Z 10035db0 f i physics:dgWorldDynamicUpdate.obj
 0001:00034db0       ??_GdgParallelSolverInitInternalForces@@UAEPAXI@Z 10035db0 f i physics:dgWorldDynamicUpdate.obj
 0001:00034de0       ??_EdgParallelSolverBuildJacobianRows@@UAEPAXI@Z 10035de0 f i physics:dgWorldDynamicUpdate.obj
 0001:00034de0       ??_GdgParallelSolverBuildJacobianRows@@UAEPAXI@Z 10035de0 f i physics:dgWorldDynamicUpdate.obj
 0001:00034e10       ??_EdgParallelSolverJointAcceleration@@UAEPAXI@Z 10035e10 f i physics:dgWorldDynamicUpdate.obj
 0001:00034e10       ??_GdgParallelSolverJointAcceleration@@UAEPAXI@Z 10035e10 f i physics:dgWorldDynamicUpdate.obj
 0001:00034e40       ??_GdgParallelSolverInitFeedbackUpdate@@UAEPAXI@Z 10035e40 f i physics:dgWorldDynamicUpdate.obj
 0001:00034e40       ??_EdgParallelSolverInitFeedbackUpdate@@UAEPAXI@Z 10035e40 f i physics:dgWorldDynamicUpdate.obj
 0001:00034e70       ??_GdgParallelSolverBuildJacobianMatrix@@UAEPAXI@Z 10035e70 f i physics:dgWorldDynamicUpdate.obj
 0001:00034e70       ??_EdgParallelSolverBuildJacobianMatrix@@UAEPAXI@Z 10035e70 f i physics:dgWorldDynamicUpdate.obj
 0001:00034ea0       ??0dgContraintDescritor@@QAE@XZ 10035ea0 f i physics:dgWorldDynamicUpdate.obj
 0001:00034ec0       ??0dgJacobianPair@@QAE@XZ  10035ec0 f i physics:dgWorldDynamicUpdate.obj
 0001:00034ef0       ??0dgJacobian@@QAE@XZ      10035ef0 f i physics:dgWorldDynamicUpdate.obj
 0001:00034f20       ?AddDamingAcceleration@dgBody@@AAEXXZ 10035f20 f i physics:dgWorldDynamicUpdate.obj
 0001:00034fe0       ?dgGetIndirectLock@dgWorld@@QAEXPAH@Z 10035fe0 f i physics:dgWorldDynamicUpdate.obj
 0001:00035000       ?dgReleaseIndirectLock@dgWorld@@QAEXPAH@Z 10036000 f i physics:dgWorldDynamicUpdate.obj
 0001:00035020       ?GetPrev@dgListNode@?$dgList@VdgBodyMasterListRow@@@@QBEPAV12@XZ 10036020 f i physics:dgWorldDynamicUpdate.obj
 0001:00035040       ??0?$dgQueue@PAVdgBody@@@@QAE@PAPAVdgBody@@H@Z 10036040 f i physics:dgWorldDynamicUpdate.obj
 0001:00035080       ?Insert@?$dgQueue@PAVdgBody@@@@QAEXPAVdgBody@@@Z 10036080 f i physics:dgWorldDynamicUpdate.obj
 0001:00035100       ?Reset@?$dgQueue@PAVdgBody@@@@QAEXXZ 10036100 f i physics:dgWorldDynamicUpdate.obj
 0001:00035120       ?IsEmpty@?$dgQueue@PAVdgBody@@@@QBE_NXZ 10036120 f i physics:dgWorldDynamicUpdate.obj
 0001:00035140       ?GetLast@?$dgList@VdgBodyMasterListRow@@@@QBEPAVdgListNode@1@XZ 10036140 f i physics:dgWorldDynamicUpdate.obj
 0001:00035160       ??Y?$dgTemplateVector@M@@QAEAAV0@ABV0@@Z 10036160 f i physics:dgWorldDynamicUpdate.obj
 0001:00035240       ?CompProduct@?$dgTemplateVector@M@@QBE?AV1@ABV1@@Z 10036240 f i physics:dgWorldDynamicUpdate.obj
 0001:00035290       ??$dgSort@VdgIsland@@@@YAXQAVdgIsland@@HP6AHQBV0@1QAX@Z2@Z 10036290 f i physics:dgWorldDynamicUpdate.obj
 0001:00035710       ??$GetMin@H@@YAHHH@Z       10036710 f i physics:dgWorldDynamicUpdate.obj
 0001:00035730       ??$Swap@M@@YAXAAM0@Z       10036730 f i physics:dgWorldDynamicUpdate.obj
 0001:00035760       ??$Swap@H@@YAXAAH0@Z       10036760 f i physics:dgWorldDynamicUpdate.obj
 0001:00035790       ??$Swap@PAM@@YAXAAPAM0@Z   10036790 f i physics:dgWorldDynamicUpdate.obj
 0001:000357c0       ??$Swap@VdgJacobianPair@@@@YAXAAVdgJacobianPair@@0@Z 100367c0 f i physics:dgWorldDynamicUpdate.obj
 0001:00035810       ?CreateNull@dgWorld@@QAEPAVdgCollision@@XZ 10036810 f   physics:dgNarrowPhaseCollision.obj
 0001:000358c0       ?CreateBox@dgWorld@@QAEPAVdgCollision@@MMMHABVdgMatrix@@@Z 100368c0 f   physics:dgNarrowPhaseCollision.obj
 0001:00035aa0       ?CreateSphere@dgWorld@@QAEPAVdgCollision@@MHABVdgMatrix@@@Z 10036aa0 f   physics:dgNarrowPhaseCollision.obj
 0001:00035c20       ?CreateEllipse@dgWorld@@QAEPAVdgCollision@@MMMHABVdgMatrix@@@Z 10036c20 f   physics:dgNarrowPhaseCollision.obj
 0001:00035df0       ?CreateCapsule@dgWorld@@QAEPAVdgCollision@@MMHABVdgMatrix@@@Z 10036df0 f   physics:dgNarrowPhaseCollision.obj
 0001:00035f90       ?CreateCone@dgWorld@@QAEPAVdgCollision@@MMHABVdgMatrix@@@Z 10036f90 f   physics:dgNarrowPhaseCollision.obj
 0001:00036130       ?CreateCylinder@dgWorld@@QAEPAVdgCollision@@MMHABVdgMatrix@@@Z 10037130 f   physics:dgNarrowPhaseCollision.obj
 0001:000362d0       ?CreateChamferCylinder@dgWorld@@QAEPAVdgCollision@@MMHABVdgMatrix@@@Z 100372d0 f   physics:dgNarrowPhaseCollision.obj
 0001:00036470       ?CreateConvexHull@dgWorld@@QAEPAVdgCollision@@HPBMHMHABVdgMatrix@@@Z 10037470 f   physics:dgNarrowPhaseCollision.obj
 0001:000366f0       ?CreateConvexModifier@dgWorld@@QAEPAVdgCollision@@PAV2@@Z 100376f0 f   physics:dgNarrowPhaseCollision.obj
 0001:00036770       ?CreateCollisionCompound@dgWorld@@QAEPAVdgCollision@@HQBQAV2@@Z 10037770 f   physics:dgNarrowPhaseCollision.obj
 0001:000367d0       ?CreateCollisionCompoundBreakable@dgWorld@@QAEPAVdgCollision@@HQBQBVdgMeshEffect@@QBHQBM1HM@Z 100377d0 f   physics:dgNarrowPhaseCollision.obj
 0001:00036840       ?CreateBVH@dgWorld@@QAEPAVdgCollision@@XZ 10037840 f   physics:dgNarrowPhaseCollision.obj
 0001:00036890       ?CreateStaticUserMesh@dgWorld@@QAEPAVdgCollision@@ABVdgVector@@0ABVdgUserMeshCreation@@@Z 10037890 f   physics:dgNarrowPhaseCollision.obj
 0001:000368f0       ?CreateBVHFieldCollision@dgWorld@@QAEPAVdgCollision@@HHHQBGQBDMM@Z 100378f0 f   physics:dgNarrowPhaseCollision.obj
 0001:00036960       ?CreateScene@dgWorld@@QAEPAVdgCollision@@XZ 10037960 f   physics:dgNarrowPhaseCollision.obj
 0001:000369b0       ?Serialize@dgWorld@@QBEXPAVdgCollision@@P6AXPAXPBXI@ZQAX@Z 100379b0 f   physics:dgNarrowPhaseCollision.obj
 0001:00036a20       ?CreateFromSerialization@dgWorld@@QAEPAVdgCollision@@P6AXPAX0I@ZQAX@Z 10037a20 f   physics:dgNarrowPhaseCollision.obj
 0001:00037180       ?GetMaterial@dgWorld@@QBEPAVdgContactMaterial@@II@Z 10038180 f   physics:dgNarrowPhaseCollision.obj
 0001:000371f0       ?GetFirstMaterial@dgWorld@@QBEPAVdgContactMaterial@@XZ 100381f0 f   physics:dgNarrowPhaseCollision.obj
 0001:00037240       ?GetNextMaterial@dgWorld@@QBEPAVdgContactMaterial@@PAV2@@Z 10038240 f   physics:dgNarrowPhaseCollision.obj
 0001:000372b0       ?GetDefualtBodyGroupID@dgWorld@@QBEIXZ 100382b0 f   physics:dgNarrowPhaseCollision.obj
 0001:000372d0       ?CreateBodyGroupID@dgWorld@@QAEIXZ 100382d0 f   physics:dgNarrowPhaseCollision.obj
 0001:000373a0       ?RemoveFromCache@dgWorld@@QAEXQAVdgCollision@@@Z 100383a0 f   physics:dgNarrowPhaseCollision.obj
 0001:00037430       ?ReleaseCollision@dgWorld@@QAEXQAVdgCollision@@@Z 10038430 f   physics:dgNarrowPhaseCollision.obj
 0001:00037520       ?ClosestPoint@dgWorld@@QBEHAAVdgTriplex@@QAVdgCollision@@ABVdgMatrix@@00H@Z 10038520 f   physics:dgNarrowPhaseCollision.obj
 0001:000375c0       ?ClosestPoint@dgWorld@@QBEHQAVdgCollision@@ABVdgMatrix@@01AAVdgTriplex@@22H@Z 100385c0 f   physics:dgNarrowPhaseCollision.obj
 0001:00037940       ?ClosestCompoundPoint@dgWorld@@ABEHQAVdgBody@@0AAVdgTriplex@@11H@Z 10038940 f   physics:dgNarrowPhaseCollision.obj
 0001:000379b0       ?SortContacts@dgWorld@@ABEXQAVdgContactPoint@@H@Z 100389b0 f   physics:dgNarrowPhaseCollision.obj
 0001:00037a40       ?ReduceContacts@dgWorld@@ABEHHQAVdgContactPoint@@HMH@Z 10038a40 f   physics:dgNarrowPhaseCollision.obj
 0001:00037d10       ?PruneContacts@dgWorld@@ABEHHQAVdgContactPoint@@H@Z 10038d10 f   physics:dgNarrowPhaseCollision.obj
 0001:00037f70       ?ProcessCachedContacts@dgWorld@@ABEXQAVdgContact@@QBVdgContactMaterial@@MH@Z 10038f70 f   physics:dgNarrowPhaseCollision.obj
 0001:00038380       ?ProcessTriggers@dgWorld@@AAEXQAUdgPair@dgCollidingPairCollector@@MH@Z 10039380 f   physics:dgNarrowPhaseCollision.obj
 0001:00038620       ?ProcessContacts@dgWorld@@AAEXQAUdgPair@dgCollidingPairCollector@@MH@Z 10039620 f   physics:dgNarrowPhaseCollision.obj
 0001:00039dc0       ?ValidateContactCache@dgWorld@@ABEHQAVdgBody@@0QAVdgContact@@@Z 1003adc0 f   physics:dgNarrowPhaseCollision.obj
 0001:0003a120       ?CompoundContactsSimd@dgWorld@@ABEXQAUdgPair@dgCollidingPairCollector@@AAVdgCollisionParamProxi@@@Z 1003b120 f   physics:dgNarrowPhaseCollision.obj
 0001:0003a210       ?CompoundContacts@dgWorld@@ABEXQAUdgPair@dgCollidingPairCollector@@AAVdgCollisionParamProxi@@@Z 1003b210 f   physics:dgNarrowPhaseCollision.obj
 0001:0003a300       ?ConvexContactsSimd@dgWorld@@ABEXQAUdgPair@dgCollidingPairCollector@@AAVdgCollisionParamProxi@@@Z 1003b300 f   physics:dgNarrowPhaseCollision.obj
 0001:0003a640       ?ConvexContacts@dgWorld@@ABEXQAUdgPair@dgCollidingPairCollector@@AAVdgCollisionParamProxi@@@Z 1003b640 f   physics:dgNarrowPhaseCollision.obj
 0001:0003a980       ?SceneContactsSimd@dgWorld@@ABEXABUdgProxy@dgCollisionScene@@QAUdgPair@dgCollidingPairCollector@@AAVdgCollisionParamProxi@@@Z 1003b980 f   physics:dgNarrowPhaseCollision.obj
 0001:0003ab80       ?SceneContacts@dgWorld@@ABEXABUdgProxy@dgCollisionScene@@QAUdgPair@dgCollidingPairCollector@@AAVdgCollisionParamProxi@@@Z 1003bb80 f   physics:dgNarrowPhaseCollision.obj
 0001:0003ad80       ?SceneContacts@dgWorld@@ABEXQAUdgPair@dgCollidingPairCollector@@AAVdgCollisionParamProxi@@@Z 1003bd80 f   physics:dgNarrowPhaseCollision.obj
 0001:0003af30       ?SceneContactsSimd@dgWorld@@ABEXQAUdgPair@dgCollidingPairCollector@@AAVdgCollisionParamProxi@@@Z 1003bf30 f   physics:dgNarrowPhaseCollision.obj
 0001:0003b0e0       ?CalculateContactsSimd@dgWorld@@AAEXQAUdgPair@dgCollidingPairCollector@@MH@Z 1003c0e0 f   physics:dgNarrowPhaseCollision.obj
 0001:0003b360       ?CalculateContacts@dgWorld@@AAEXQAUdgPair@dgCollidingPairCollector@@MH@Z 1003c360 f   physics:dgNarrowPhaseCollision.obj
 0001:0003b5e0       ?CollideContinueSimd@dgWorld@@QAEHPAVdgCollision@@ABVdgMatrix@@ABVdgVector@@20122AAMPAVdgTriplex@@4PAMHH@Z 1003c5e0 f   physics:dgNarrowPhaseCollision.obj
 0001:0003be40       ?CollideContinue@dgWorld@@QAEHPAVdgCollision@@ABVdgMatrix@@ABVdgVector@@20122AAMPAVdgTriplex@@4PAMHH@Z 1003ce40 f   physics:dgNarrowPhaseCollision.obj
 0001:0003c690       ?Collide@dgWorld@@QAEHPAVdgCollision@@ABVdgMatrix@@01PAVdgTriplex@@2PAMHH@Z 1003d690 f   physics:dgNarrowPhaseCollision.obj
 0001:0003cb60       ?GetVertexCount@dgConvexCollision@@QBEHXZ 1003db60 f i physics:dgNarrowPhaseCollision.obj
 0001:0003cb80       ?GetSignature@dgCollision@@QBEIXZ 1003db80 f i physics:dgNarrowPhaseCollision.obj
 0001:0003cba0       ??0dgCollisionParamProxi@@QAE@H@Z 1003dba0 f i physics:dgNarrowPhaseCollision.obj
 0001:0003cbf0       ??2dgContact@@CAPAXIQAVdgMemoryAllocator@@@Z 1003dbf0 f i physics:dgNarrowPhaseCollision.obj
 0001:0003cc10       ?AddToBreakQueue@dgWorld@@QAEXQBVdgContact@@QAVdgBody@@M@Z 1003dc10 f i physics:dgNarrowPhaseCollision.obj
 0001:0003cd20       ?GetInfo@dgTreeNode@?$dgTree@PAVdgCollision@@I@@QAEAAPAVdgCollision@@XZ 1003dd20 f i physics:dgNarrowPhaseCollision.obj
 0001:0003cd40       ?GetInfo@dgTreeNode@?$dgTree@VdgContactMaterial@@I@@QAEAAVdgContactMaterial@@XZ 1003dd40 f i physics:dgNarrowPhaseCollision.obj
 0001:0003cd60       ?Append@?$dgList@VdgContactMaterial@@@@QAEPAVdgListNode@1@XZ 1003dd60 f i physics:dgNarrowPhaseCollision.obj
 0001:0003ce20       ?Find@?$dgTree@PAVdgCollision@@I@@QBEPAVdgTreeNode@1@I@Z 1003de20 f i physics:dgNarrowPhaseCollision.obj
 0001:0003cf40       ?Insert@?$dgTree@PAVdgCollision@@I@@QAEPAVdgTreeNode@1@ABQAVdgCollision@@I@Z 1003df40 f i physics:dgNarrowPhaseCollision.obj
 0001:0003cf80       ?Remove@?$dgTree@PAVdgCollision@@I@@QAEXQAVdgTreeNode@1@@Z 1003df80 f i physics:dgNarrowPhaseCollision.obj
 0001:0003cfc0       ?Minimum@?$dgTree@VdgContactMaterial@@I@@QBEPAVdgTreeNode@1@XZ 1003dfc0 f i physics:dgNarrowPhaseCollision.obj
 0001:0003cff0       ?Find@?$dgTree@VdgContactMaterial@@I@@QBEPAVdgTreeNode@1@I@Z 1003dff0 f i physics:dgNarrowPhaseCollision.obj
 0001:0003d120       ?GetNodeFromInfo@?$dgTree@VdgContactMaterial@@I@@QBEPAVdgTreeNode@1@AAVdgContactMaterial@@@Z 1003e120 f i physics:dgNarrowPhaseCollision.obj
 0001:0003d1c0       ?Insert@?$dgTree@VdgContactMaterial@@I@@QAEPAVdgTreeNode@1@ABVdgContactMaterial@@I@Z 1003e1c0 f i physics:dgNarrowPhaseCollision.obj
 0001:0003d200       ??0?$dgStack@I@@QAE@H@Z    1003e200 f i physics:dgNarrowPhaseCollision.obj
 0001:0003d230       ??1?$dgStack@I@@QAE@XZ     1003e230 f i physics:dgNarrowPhaseCollision.obj
 0001:0003d250       ?GetSizeInBytes@?$dgStack@I@@QBEHXZ 1003e250 f i physics:dgNarrowPhaseCollision.obj
 0001:0003d270       ??A?$dgStack@I@@QAEAAIH@Z  1003e270 f i physics:dgNarrowPhaseCollision.obj
 0001:0003d2f0       ??$Swap@I@@YAXAAI0@Z       1003e2f0 f i physics:dgNarrowPhaseCollision.obj
 0001:0003d320       ??$dgSort@VdgContactPoint@@@@YAXQAVdgContactPoint@@HP6AHQBV0@1QAX@Z2@Z 1003e320 f i physics:dgNarrowPhaseCollision.obj
 0001:0003d6f0       ??$Swap@PAVdgListNode@?$dgList@VdgBodyMasterListCell@@@@@@YAXAAPAVdgListNode@?$dgList@VdgBodyMasterListCell@@@@0@Z 1003e6f0 f i physics:dgNarrowPhaseCollision.obj
 0001:0003d720       ?GetLeft@dgTreeNode@?$dgTree@PAVdgCollision@@I@@ABEPAV12@XZ 1003e720 f i physics:dgNarrowPhaseCollision.obj
 0001:0003d730       ?GetRight@dgTreeNode@?$dgTree@PAVdgCollision@@I@@ABEPAV12@XZ 1003e730 f i physics:dgNarrowPhaseCollision.obj
 0001:0003d750       ?GetLeft@dgTreeNode@?$dgTree@VdgContactMaterial@@I@@ABEPAV12@XZ 1003e750 f i physics:dgNarrowPhaseCollision.obj
 0001:0003d760       ?GetRight@dgTreeNode@?$dgTree@VdgContactMaterial@@I@@ABEPAV12@XZ 1003e760 f i physics:dgNarrowPhaseCollision.obj
 0001:0003d780       ??2dgListNode@?$dgList@VdgContactMaterial@@@@CAPAXIQAVdgMemoryAllocator@@@Z 1003e780 f i physics:dgNarrowPhaseCollision.obj
 0001:0003d7a0       ??0dgListNode@?$dgList@VdgContactMaterial@@@@AAE@QAV01@0@Z 1003e7a0 f i physics:dgNarrowPhaseCollision.obj
 0001:0003d850       ?Insert@?$dgTree@PAVdgCollision@@I@@QAEPAVdgTreeNode@1@ABQAVdgCollision@@IAA_N@Z 1003e850 f i physics:dgNarrowPhaseCollision.obj
 0001:0003da50       ?CompareKeys@?$dgTree@PAVdgCollision@@I@@ABEHABI0@Z 1003ea50 f i physics:dgNarrowPhaseCollision.obj
 0001:0003da90       ?Insert@?$dgTree@VdgContactMaterial@@I@@QAEPAVdgTreeNode@1@ABVdgContactMaterial@@IAA_N@Z 1003ea90 f i physics:dgNarrowPhaseCollision.obj
 0001:0003dca0       ?CompareKeys@?$dgTree@VdgContactMaterial@@I@@ABEHABI0@Z 1003eca0 f i physics:dgNarrowPhaseCollision.obj
 0001:0003dce0       ??0dgTreeNode@?$dgTree@PAVdgCollision@@I@@AAE@ABQAVdgCollision@@ABIPAV01@@Z 1003ece0 f i physics:dgNarrowPhaseCollision.obj
 0001:0003dd50       ??0dgTreeNode@?$dgTree@VdgContactMaterial@@I@@AAE@ABVdgContactMaterial@@ABIPAV01@@Z 1003ed50 f i physics:dgNarrowPhaseCollision.obj
 0001:0003ddd0       ??0dgStackBase@@IAE@H@Z    1003edd0 f i physics:dgNarrowPhaseCollision.obj
 0001:0003de00       ??1dgStackBase@@IAE@XZ     1003ee00 f i physics:dgNarrowPhaseCollision.obj
 0001:0003de20       ??0dgMatrix@@QAE@XZ        1003ee20 f i physics:dgNarrowPhaseCollision.obj
 0001:0003de60       ?DotProduct@dgQuaternion@@QBEMABV1@@Z 1003ee60 f i physics:dgNarrowPhaseCollision.obj
 0001:0003deb0       ??GdgQuaternion@@QBE?AV0@ABV0@@Z 1003eeb0 f i physics:dgNarrowPhaseCollision.obj
 0001:0003df10       ??0dgQuaternion@@QAE@MMMM@Z 1003ef10 f i physics:dgNarrowPhaseCollision.obj
 0001:0003df50       ??0dgMeshEffect@@QAE@QAVdgMemoryAllocator@@_N@Z 1003ef50 f   physics:dgMeshEffect.obj
 0001:0003dfa0       ??0dgMeshEffect@@QAE@QAVdgMemoryAllocator@@ABVdgMatrix@@MMH11@Z 1003efa0 f   physics:dgMeshEffect.obj
 0001:0003e000       ??0dgMeshEffect@@QAE@AAVdgPolyhedra@@ABV0@@Z 1003f000 f   physics:dgMeshEffect.obj
 0001:0003e100       ??0dgMeshEffect@@QAE@ABV0@@Z 1003f100 f   physics:dgMeshEffect.obj
 0001:0003e200       ??0dgMeshEffect@@QAE@QAVdgCollision@@@Z 1003f200 f   physics:dgMeshEffect.obj
 0001:0003e4e0       ??1dgMeshEffect@@UAE@XZ    1003f4e0 f   physics:dgMeshEffect.obj
 0001:0003e550       ?Init@dgMeshEffect@@AAEX_N@Z 1003f550 f   physics:dgMeshEffect.obj
 0001:0003e600       ?Triangulate@dgMeshEffect@@QAEXXZ 1003f600 f   physics:dgMeshEffect.obj
 0001:0003e960       ?ConvertToPolygons@dgMeshEffect@@QAEXXZ 1003f960 f   physics:dgMeshEffect.obj
 0001:0003ecc0       ?RemoveUnusedVertices@dgMeshEffect@@QAEXQAH@Z 1003fcc0 f   physics:dgMeshEffect.obj
 0001:0003f1a0       ?CalculateOOBB@dgMeshEffect@@QBE?AVdgMatrix@@AAVdgVector@@@Z 100401a0 f   physics:dgMeshEffect.obj
 0001:0003f340       ?CalculateAABB@dgMeshEffect@@QBEXAAVdgVector@@0@Z 10040340 f   physics:dgMeshEffect.obj
 0001:0003f510       ?EnumerateAttributeArray@dgMeshEffect@@AAEXPAUdgVertexAtribute@1@@Z 10040510 f   physics:dgMeshEffect.obj
 0001:0003f5c0       ?ApplyAttributeArray@dgMeshEffect@@AAEXPAUdgVertexAtribute@1@@Z 100405c0 f   physics:dgMeshEffect.obj
 0001:0003f760       ?GetOrigin@dgMeshEffect@@ABE?AVdgVector@@XZ 10040760 f   physics:dgMeshEffect.obj
 0001:0003f7a0       ?FixCylindricalMapping@dgMeshEffect@@ABEXPAUdgVertexAtribute@1@@Z 100407a0 f   physics:dgMeshEffect.obj
 0001:0003f980       ?SphericalMapping@dgMeshEffect@@QAEXH@Z 10040980 f   physics:dgMeshEffect.obj
 0001:0003fc90       ?CylindricalMapping@dgMeshEffect@@QAEXHH@Z 10040c90 f   physics:dgMeshEffect.obj
 0001:000402f0       ?BoxMapping@dgMeshEffect@@QAEXHHH@Z 100412f0 f   physics:dgMeshEffect.obj
 0001:00040760       ?CalculateNormals@dgMeshEffect@@QAEXM@Z 10041760 f   physics:dgMeshEffect.obj
 0001:00040bd0       ?BeginPolygon@dgMeshEffect@@QAEXXZ 10041bd0 f   physics:dgMeshEffect.obj
 0001:00040c10       ?AddAtribute@dgMeshEffect@@AAEXABUdgVertexAtribute@1@@Z 10041c10 f   physics:dgMeshEffect.obj
 0001:00040d40       ?AddVertex@dgMeshEffect@@AAEXABVdgVector@@@Z 10041d40 f   physics:dgMeshEffect.obj
 0001:00040e50       ?AddPoint@dgMeshEffect@@AAEXPBMH@Z 10041e50 f   physics:dgMeshEffect.obj
 0001:00040f70       ?PackVertexArrays@dgMeshEffect@@QAEXXZ 10041f70 f   physics:dgMeshEffect.obj
 0001:00041080       ?AddPolygon@dgMeshEffect@@QAEXHPBMHH@Z 10042080 f   physics:dgMeshEffect.obj
 0001:00041230       ?EndPolygon@dgMeshEffect@@QAEXXZ 10042230 f   physics:dgMeshEffect.obj
 0001:000419b0       ?BuildFromVertexListIndexList@dgMeshEffect@@QAEXHQBH0QBMH01H01H01H0@Z 100429b0 f   physics:dgMeshEffect.obj
 0001:00042060       ?GetTotalFaceCount@dgMeshEffect@@QBEHXZ 10043060 f   physics:dgMeshEffect.obj
 0001:00042080       ?GetTotalIndexCount@dgMeshEffect@@QBEHXZ 10043080 f   physics:dgMeshEffect.obj
 0001:00042150       ?GetFaces@dgMeshEffect@@QBEXQAH0QAPAX@Z 10043150 f   physics:dgMeshEffect.obj
 0001:00042280       ?GetFirstVertex@dgMeshEffect@@QAEPAXXZ 10043280 f   physics:dgMeshEffect.obj
 0001:00042330       ?GetNextVertex@dgMeshEffect@@QAEPAXPBX@Z 10043330 f   physics:dgMeshEffect.obj
 0001:00042420       ?GetVertexIndex@dgMeshEffect@@QBEHPBX@Z 10043420 f   physics:dgMeshEffect.obj
 0001:00042450       ?GetFirstPoint@dgMeshEffect@@QAEPAXXZ 10043450 f   physics:dgMeshEffect.obj
 0001:00042520       ?GetNextPoint@dgMeshEffect@@QAEPAXPBX@Z 10043520 f   physics:dgMeshEffect.obj
 0001:00042620       ?GetPointIndex@dgMeshEffect@@QBEHPBX@Z 10043620 f   physics:dgMeshEffect.obj
 0001:00042650       ?GetVertexIndexFromPoint@dgMeshEffect@@QBEHPBX@Z 10043650 f   physics:dgMeshEffect.obj
 0001:00042670       ?ConectVertex@dgMeshEffect@@QAEPAVdgEdge@@QAV2@0@Z 10043670 f   physics:dgMeshEffect.obj
 0001:000427a0       ?GetFirstEdge@dgMeshEffect@@QAEPAXXZ 100437a0 f   physics:dgMeshEffect.obj
 0001:00042840       ?GetNextEdge@dgMeshEffect@@QAEPAXPBX@Z 10043840 f   physics:dgMeshEffect.obj
 0001:00042920       ?GetEdgeIndex@dgMeshEffect@@QBEXPBXAAH1@Z 10043920 f   physics:dgMeshEffect.obj
 0001:00042960       ?GetFirstFace@dgMeshEffect@@QAEPAXXZ 10043960 f   physics:dgMeshEffect.obj
 0001:00042a00       ?GetNextFace@dgMeshEffect@@QAEPAXPBX@Z 10043a00 f   physics:dgMeshEffect.obj
 0001:00042af0       ?IsFaceOpen@dgMeshEffect@@QBEHPBX@Z 10043af0 f   physics:dgMeshEffect.obj
 0001:00042b20       ?GetFaceMaterial@dgMeshEffect@@QBEHPBX@Z 10043b20 f   physics:dgMeshEffect.obj
 0001:00042b60       ?GetFaceIndexCount@dgMeshEffect@@QBEHPBX@Z 10043b60 f   physics:dgMeshEffect.obj
 0001:00042bb0       ?GetFaceIndex@dgMeshEffect@@QBEXPBXPAH@Z 10043bb0 f   physics:dgMeshEffect.obj
 0001:00042c10       ?GetFaceAttributeIndex@dgMeshEffect@@QBEXPBXPAH@Z 10043c10 f   physics:dgMeshEffect.obj
 0001:00042c70       ?GetVertexStreams@dgMeshEffect@@QAEXHPAMH0H0H0@Z 10043c70 f   physics:dgMeshEffect.obj
 0001:00042e00       ?GetIndirectVertexStreams@dgMeshEffect@@QAEXHPAMPAH1H011H011H011@Z 10043e00 f   physics:dgMeshEffect.obj
 0001:000430a0       ?MaterialGeomteryBegin@dgMeshEffect@@QAEPAUdgIndexArray@1@XZ 100440a0 f   physics:dgMeshEffect.obj
 0001:00043420       ?MaterialGeomteryEnd@dgMeshEffect@@QAEXPAUdgIndexArray@1@@Z 10044420 f   physics:dgMeshEffect.obj
 0001:00043450       ?GetFirstMaterial@dgMeshEffect@@QAEHPAUdgIndexArray@1@@Z 10044450 f   physics:dgMeshEffect.obj
 0001:00043470       ?GetNextMaterial@dgMeshEffect@@QAEHPAUdgIndexArray@1@H@Z 10044470 f   physics:dgMeshEffect.obj
 0001:000434a0       ?GetMaterialGetIndexStream@dgMeshEffect@@QAEXPAUdgIndexArray@1@HPAH@Z 100444a0 f   physics:dgMeshEffect.obj
 0001:00043560       ?GetMaterialGetIndexStreamShort@dgMeshEffect@@QAEXPAUdgIndexArray@1@HPAF@Z 10044560 f   physics:dgMeshEffect.obj
 0001:00043630       ?CreateConvexCollision@dgMeshEffect@@QBEPAVdgCollision@@MHABVdgMatrix@@@Z 10044630 f   physics:dgMeshEffect.obj
 0001:00043a80       ?TransformMesh@dgMeshEffect@@QAEXABVdgMatrix@@@Z 10044a80 f   physics:dgMeshEffect.obj
 0001:00043ac0       ?InterpolateEdge@dgMeshEffect@@ABE?AUdgVertexAtribute@1@QAVdgEdge@@M@Z 10044ac0 f   physics:dgMeshEffect.obj
 0001:00043ca0       ?Sanity@dgMeshEffect@@QBE_NXZ 10044ca0 f   physics:dgMeshEffect.obj
 0001:00043ed0       ?InsertEdgeVertex@dgMeshEffect@@QAEPAVdgEdge@@QAV2@M@Z 10044ed0 f   physics:dgMeshEffect.obj
 0001:00044010       ?InterpolateVertex@dgMeshEffect@@ABE?AUdgVertexAtribute@1@ABVdgVector@@QAVdgEdge@@@Z 10045010 f   physics:dgMeshEffect.obj
 0001:000448d0       ?MergeFaces@dgMeshEffect@@AAEXPAV1@@Z 100458d0 f   physics:dgMeshEffect.obj
 0001:00044910       ?ReverseMergeFaces@dgMeshEffect@@AAEXPAV1@@Z 10045910 f   physics:dgMeshEffect.obj
 0001:00044950       ?ClipFace@dgMeshEffect@@ABEXABVdgBigPlane@@PAVdgMeshTreeCSGFace@@PAPAV3@2AAVdgMeshTreeCSGPointsPool@@@Z 10045950 f   physics:dgMeshEffect.obj
 0001:00044f60       ?CopyCGSFace@dgMeshEffect@@AAEXABV1@QAVdgEdge@@@Z 10045f60 f   physics:dgMeshEffect.obj
 0001:00044fa0       ?Union@dgMeshEffect@@QBEPAV1@ABVdgMatrix@@PBV1@@Z 10045fa0 f   physics:dgMeshEffect.obj
 0001:000451c0       ?Difference@dgMeshEffect@@QBEPAV1@ABVdgMatrix@@PBV1@@Z 100461c0 f   physics:dgMeshEffect.obj
 0001:000453e0       ?Intersection@dgMeshEffect@@QBEPAV1@ABVdgMatrix@@PBV1@@Z 100463e0 f   physics:dgMeshEffect.obj
 0001:00045600       ?ClipMesh@dgMeshEffect@@QBEXABVdgMatrix@@PBV1@PAPAV1@2@Z 10046600 f   physics:dgMeshEffect.obj
 0001:000458d0       ?AddCGSFace@dgMeshEffect@@AAEXABV1@QAVdgEdge@@HQAPAVdgMeshTreeCSGFace@@ABVdgMeshTreeCSGPointsPool@@@Z 100468d0 f   physics:dgMeshEffect.obj
 0001:00045910       ?CreateSolidTree@dgMeshEffect@@QBEPAVdgMeshEffectSolidTree@@XZ 10046910 f   physics:dgMeshEffect.obj
 0001:00045950       ?DestroySolidTree@dgMeshEffect@@SAXPAVdgMeshEffectSolidTree@@@Z 10046950 f   physics:dgMeshEffect.obj
 0001:00045990       ?ClipMesh@dgMeshEffect@@ABEXPBV1@PAPAV1@1@Z 10046990 f   physics:dgMeshEffect.obj
 0001:000459d0       ?CheckIntersection@dgMeshEffect@@SA_NQBV1@QBVdgMeshEffectSolidTree@@01M@Z 100469d0 f   physics:dgMeshEffect.obj
 0001:00045a20       ?CheckIntersection@dgMeshEffect@@QBE_NQBVdgMeshEffectSolidTree@@M@Z 10046a20 f   physics:dgMeshEffect.obj
 0001:00045a60       ?PlaneClipMesh@dgMeshEffect@@ABEXPBV1@PAPAV1@1@Z 10046a60 f   physics:dgMeshEffect.obj
 0001:00045aa0       ?PlaneClipMesh@dgMeshEffect@@QAEXABVdgPlane@@PAPAV1@1@Z 10046aa0 f   physics:dgMeshEffect.obj
 0001:00045ae0       ?CheckSingleMesh@dgMeshEffect@@ABE_NXZ 10046ae0 f   physics:dgMeshEffect.obj
 0001:00045b20       ?PlaneApplyCap@dgMeshEffect@@AAEHPBV1@ABVdgPlane@@@Z 10046b20 f   physics:dgMeshEffect.obj
 0001:00045b60       ?HasOpenEdges@dgMeshEffect@@QBE_NXZ 10046b60 f   physics:dgMeshEffect.obj
 0001:00045bf0       ?SeparateDuplicateLoops@dgMeshEffect@@QAE_NQAVdgEdge@@@Z 10046bf0 f   physics:dgMeshEffect.obj
 0001:00045c90       ?WeldTJoints@dgMeshEffect@@QAEXXZ 10046c90 f   physics:dgMeshEffect.obj
 0001:00046410       ?CalculateVolume@dgMeshEffect@@QBEMXZ 10047410 f   physics:dgMeshEffect.obj
 0001:00046600       ??_EdgMeshEffect@@UAEPAXI@Z 10047600 f i physics:dgMeshEffect.obj
 0001:00046600       ??_GdgMeshEffect@@UAEPAXI@Z 10047600 f i physics:dgMeshEffect.obj
 0001:00046630       ??0dgMeshEffectBuilder@@QAE@XZ 10047630 f i physics:dgMeshEffect.obj
 0001:000466a0       ??1dgMeshEffectBuilder@@QAE@XZ 100476a0 f i physics:dgMeshEffect.obj
 0001:000466d0       ?GetShapeFromCollision@dgMeshEffectBuilder@@SAXPAXHPBMH@Z 100476d0 f i physics:dgMeshEffect.obj
 0001:00046880       ??0dgCollisionInfo@@QAE@XZ 10047880 f i physics:dgMeshEffect.obj
 0001:000468a0       ??0dgVertexAtribute@dgMeshEffect@@QAE@XZ 100478a0 f i physics:dgMeshEffect.obj
 0001:000468c0       ?AddPoint@dgMeshTreeCSGPointsPool@@QAEHABVdgBigVector@@@Z 100478c0 f i physics:dgMeshEffect.obj
 0001:00046930       ??2dgMeshTreeCSGFace@@SAPAXIQAVdgMemoryAllocator@@@Z 10047930 f i physics:dgMeshEffect.obj
 0001:00046950       ??0dgMeshTreeCSGFace@@QAE@QAVdgMemoryAllocator@@@Z 10047950 f i physics:dgMeshEffect.obj
 0001:00046990       ?AddPoint@dgMeshTreeCSGFace@@QAEXH@Z 10047990 f i physics:dgMeshEffect.obj
 0001:00046a50       ??2CSGLinearEdge@dgMeshTreeCSGFace@@SAPAXIQAVdgMemoryAllocator@@@Z 10047a50 f i physics:dgMeshEffect.obj
 0001:00046a70       ??0CSGLinearEdge@dgMeshTreeCSGFace@@QAE@H@Z 10047a70 f i physics:dgMeshEffect.obj
 0001:00046aa0       ??0CSGLinearEdge@dgMeshTreeCSGFace@@QAE@HPAV01@@Z 10047aa0 f i physics:dgMeshEffect.obj
 0001:00046ad0       ??_GdgMeshTreeCSGFace@@UAEPAXI@Z 10047ad0 f i physics:dgMeshEffect.obj
 0001:00046ad0       ??_EdgMeshTreeCSGFace@@UAEPAXI@Z 10047ad0 f i physics:dgMeshEffect.obj
 0001:00046b00       ??3dgMeshTreeCSGFace@@SAXPAX@Z 10047b00 f i physics:dgMeshEffect.obj
 0001:00046b20       ??1dgMeshTreeCSGFace@@UAE@XZ 10047b20 f i physics:dgMeshEffect.obj
 0001:00046b80       ??3CSGLinearEdge@dgMeshTreeCSGFace@@SAXPAX@Z 10047b80 f i physics:dgMeshEffect.obj
 0001:00046ba0       ??_GdgMeshEffectSolidTree@@QAEPAXI@Z 10047ba0 f i physics:dgMeshEffect.obj
 0001:00046bd0       ??3dgMeshEffectSolidTree@@SAXPAX@Z 10047bd0 f i physics:dgMeshEffect.obj
 0001:00046bf0       ??1dgMeshEffectSolidTree@@QAE@XZ 10047bf0 f i physics:dgMeshEffect.obj
 0001:00046c70       ??3?$dgTree@VdgEdge@@_J@@SAXPAX@Z 10047c70 f i physics:dgMeshEffect.obj
 0001:00046c90       ??0Iterator@?$dgTree@VdgEdge@@_J@@QAE@ABV1@@Z 10047c90 f i physics:dgMeshEffect.obj
 0001:00046cc0       ??1Iterator@?$dgTree@VdgEdge@@_J@@QAE@XZ 10047cc0 f i physics:dgMeshEffect.obj
 0001:00046cd0       ?Begin@Iterator@?$dgTree@VdgEdge@@_J@@QAEXXZ 10047cd0 f i physics:dgMeshEffect.obj
 0001:00046cf0       ?Set@Iterator@?$dgTree@VdgEdge@@_J@@QAEXQAVdgTreeNode@2@@Z 10047cf0 f i physics:dgMeshEffect.obj
 0001:00046d10       ??BIterator@?$dgTree@VdgEdge@@_J@@QBEHXZ 10047d10 f i physics:dgMeshEffect.obj
 0001:00046d30       ??EIterator@?$dgTree@VdgEdge@@_J@@QAEXH@Z 10047d30 f i physics:dgMeshEffect.obj
 0001:00046d80       ??DIterator@?$dgTree@VdgEdge@@_J@@QBEAAVdgEdge@@XZ 10047d80 f i physics:dgMeshEffect.obj
 0001:00046da0       ?GetNode@Iterator@?$dgTree@VdgEdge@@_J@@QBEPAVdgTreeNode@2@XZ 10047da0 f i physics:dgMeshEffect.obj
 0001:00046db0       ?GetInfo@dgTreeNode@?$dgTree@VdgEdge@@_J@@QAEAAVdgEdge@@XZ 10047db0 f i physics:dgMeshEffect.obj
 0001:00046dd0       ?Scale@?$dgTemplateVector@N@@QBE?AV1@N@Z 10047dd0 f i physics:dgMeshEffect.obj
 0001:00046e20       ??H?$dgTemplateVector@N@@QBE?AV0@ABV0@@Z 10047e20 f i physics:dgMeshEffect.obj
 0001:00046e80       ?GetCount@?$dgTree@VdgEdge@@_J@@QBEHXZ 10047e80 f i physics:dgMeshEffect.obj
 0001:00046e90       ?Minimum@?$dgTree@VdgEdge@@_J@@QBEPAVdgTreeNode@1@XZ 10047e90 f i physics:dgMeshEffect.obj
 0001:00046ec0       ?GetNodeFromInfo@?$dgTree@VdgEdge@@_J@@QBEPAVdgTreeNode@1@AAVdgEdge@@@Z 10047ec0 f i physics:dgMeshEffect.obj
 0001:00046f60       ?RemoveAll@?$dgTree@VdgEdge@@_J@@QAEXXZ 10047f60 f i physics:dgMeshEffect.obj
 0001:00046fa0       ??0?$dgStack@H@@QAE@H@Z    10047fa0 f i physics:dgMeshEffect.obj
 0001:00046fd0       ??1?$dgStack@H@@QAE@XZ     10047fd0 f i physics:dgMeshEffect.obj
 0001:00046ff0       ?GetSizeInBytes@?$dgStack@H@@QBEHXZ 10047ff0 f i physics:dgMeshEffect.obj
 0001:00047010       ??A?$dgStack@H@@QAEAAHH@Z  10048010 f i physics:dgMeshEffect.obj
 0001:00047090       ??0?$dgStack@VdgVector@@@@QAE@H@Z 10048090 f i physics:dgMeshEffect.obj
 0001:000470c0       ??1?$dgStack@VdgVector@@@@QAE@XZ 100480c0 f i physics:dgMeshEffect.obj
 0001:000470e0       ?GetElementsCount@?$dgStack@VdgVector@@@@QBEHXZ 100480e0 f i physics:dgMeshEffect.obj
 0001:00047100       ??A?$dgStack@VdgVector@@@@QAEAAVdgVector@@H@Z 10048100 f i physics:dgMeshEffect.obj
 0001:00047180       ??0?$dgStack@UdgVertexAtribute@dgMeshEffect@@@@QAE@H@Z 10048180 f i physics:dgMeshEffect.obj
 0001:000471b0       ??1?$dgStack@UdgVertexAtribute@dgMeshEffect@@@@QAE@XZ 100481b0 f i physics:dgMeshEffect.obj
 0001:000471d0       ??A?$dgStack@UdgVertexAtribute@dgMeshEffect@@@@QAEAAUdgVertexAtribute@dgMeshEffect@@H@Z 100481d0 f i physics:dgMeshEffect.obj
 0001:00047250       ??0?$dgStack@D@@QAE@H@Z    10048250 f i physics:dgMeshEffect.obj
 0001:00047280       ??1?$dgStack@D@@QAE@XZ     10048280 f i physics:dgMeshEffect.obj
 0001:000472a0       ?GetSizeInBytes@?$dgStack@D@@QBEHXZ 100482a0 f i physics:dgMeshEffect.obj
 0001:000472c0       ??A?$dgStack@D@@QAEAADH@Z  100482c0 f i physics:dgMeshEffect.obj
 0001:00047340       ??_EdgMeshEffect@@WBM@AEPAXI@Z 10048340 f i physics:dgMeshEffect.obj
 0001:00047350       ??0dgBigVector@@QAE@ABVdgVector@@@Z 10048350 f i physics:dgMeshEffect.obj
 0001:00047430       ??0dgBigVector@@QAE@ABV?$dgTemplateVector@N@@@Z 10048430 f i physics:dgMeshEffect.obj
 0001:000474f0       ?Evalue@dgBigPlane@@QBENABVdgBigVector@@@Z 100484f0 f i physics:dgMeshEffect.obj
 0001:00047530       ??4dgSphere@@QAEAAV0@ABVdgMatrix@@@Z 10048530 f i physics:dgMeshEffect.obj
 0001:000475d0       ?SetLRU@dgPolyhedra@@QBEXH@Z 100485d0 f i physics:dgMeshEffect.obj
 0001:00047600       ?AddFace@dgPolyhedra@@QAEPAVdgEdge@@HQBH@Z 10048600 f i physics:dgMeshEffect.obj
 0001:00047620       ??0dgRefCounter@@QAE@XZ    10048620 f i physics:dgMeshEffect.obj
 0001:00047650       ??_EdgRefCounter@@MAEPAXI@Z 10048650 f i physics:dgMeshEffect.obj
 0001:00047650       ??_GdgRefCounter@@MAEPAXI@Z 10048650 f i physics:dgMeshEffect.obj
 0001:00047680       ??1dgRefCounter@@MAE@XZ    10048680 f i physics:dgMeshEffect.obj
 0001:000476c0       ?AddRef@dgRefCounter@@QAEXXZ 100486c0 f i physics:dgMeshEffect.obj
 0001:000476e0       ??0?$dgTemplateVector@N@@QAE@NNNN@Z 100486e0 f i physics:dgMeshEffect.obj
 0001:00047720       ??A?$dgTemplateVector@N@@QAEAANH@Z 10048720 f i physics:dgMeshEffect.obj
 0001:00047790       ??G?$dgTemplateVector@N@@QBE?AV0@ABV0@@Z 10048790 f i physics:dgMeshEffect.obj
 0001:000477f0       ??L?$dgTemplateVector@N@@QBENABV0@@Z 100487f0 f i physics:dgMeshEffect.obj
 0001:00047830       ??0dgMeshEffect@@QAE@QAVdgMemoryAllocator@@QBMHHM@Z 10048830 f   physics:dgMeshEffect2.obj
 0001:00047b90       ?CreateConvexApproximationCollision@dgMeshEffect@@QBEPAVdgCollision@@QAVdgWorld@@HHH@Z 10048b90 f   physics:dgMeshEffect2.obj
 0001:000483b0       ??0Tetrahedralization@@QAE@AAVdgMeshEffect@@@Z 100493b0 f i physics:dgMeshEffect2.obj
 0001:00048490       ??0dgMissingEdges@Tetrahedralization@@QAE@QAVdgMemoryAllocator@@@Z 10049490 f i physics:dgMeshEffect2.obj
 0001:000484b0       ??0dgEdgeMap@Tetrahedralization@@QAE@QAVdgMemoryAllocator@@@Z 100494b0 f i physics:dgMeshEffect2.obj
 0001:000484d0       ??1Tetrahedralization@@UAE@XZ 100494d0 f i physics:dgMeshEffect2.obj
 0001:00048510       ??1dgMissingEdges@Tetrahedralization@@QAE@XZ 10049510 f i physics:dgMeshEffect2.obj
 0001:00048530       ??1dgEdgeMap@Tetrahedralization@@QAE@XZ 10049530 f i physics:dgMeshEffect2.obj
 0001:00048580       ?BuildTetrahedraEdgeList@Tetrahedralization@@QAEXXZ 10049580 f i physics:dgMeshEffect2.obj
 0001:000485c0       ?RecoverEdges@Tetrahedralization@@QAEXXZ 100495c0 f i physics:dgMeshEffect2.obj
 0001:00048a60       ?CreateIndexMap@Tetrahedralization@@QAEXXZ 10049a60 f i physics:dgMeshEffect2.obj
 0001:00048b00       ?ConvexCompareIndex@Tetrahedralization@@SAHQBVdgIndexMapPair@1@0QAX@Z 10049b00 f i physics:dgMeshEffect2.obj
 0001:00048b30       ?GetKey@Tetrahedralization@@QBE_KHH@Z 10049b30 f i physics:dgMeshEffect2.obj
 0001:00048b90       ?AddEdges@Tetrahedralization@@QAEXQAVdgListNode@?$dgList@VdgConvexHull4dTetraherum@@@@@Z 10049b90 f i physics:dgMeshEffect2.obj
 0001:00048c60       ?InsertNewNode@Tetrahedralization@@QAEXHHQAVdgListNode@?$dgList@VdgConvexHull4dTetraherum@@@@@Z 10049c60 f i physics:dgMeshEffect2.obj
 0001:00048d40       ??0dgEdgeSharedTetras@Tetrahedralization@@QAE@QAVdgMemoryAllocator@@@Z 10049d40 f i physics:dgMeshEffect2.obj
 0001:00048d60       ??1dgEdgeSharedTetras@Tetrahedralization@@QAE@XZ 10049d60 f i physics:dgMeshEffect2.obj
 0001:00048d80       ?AddFace@Tetrahedralization@@UAEPAVdgListNode@?$dgList@VdgConvexHull4dTetraherum@@@@HHHH@Z 10049d80 f i physics:dgMeshEffect2.obj
 0001:00048dc0       ?DeleteFace@Tetrahedralization@@UAEXQAVdgListNode@?$dgList@VdgConvexHull4dTetraherum@@@@@Z 10049dc0 f i physics:dgMeshEffect2.obj
 0001:00048e70       ?RemoveEdges@Tetrahedralization@@QAEXQAVdgListNode@?$dgList@VdgConvexHull4dTetraherum@@@@@Z 10049e70 f i physics:dgMeshEffect2.obj
 0001:00048f20       ?RemoveNode@Tetrahedralization@@QAEXHHQAVdgListNode@?$dgList@VdgConvexHull4dTetraherum@@@@@Z 10049f20 f i physics:dgMeshEffect2.obj
 0001:00049020       ?RecoverFaces@Tetrahedralization@@QAEXXZ 1004a020 f i physics:dgMeshEffect2.obj
 0001:00049920       ??0dgEdgeFaceKey@Tetrahedralization@@QAE@HHH@Z 1004a920 f i physics:dgMeshEffect2.obj
 0001:00049990       ??0dgFaceKeyMap@Tetrahedralization@@QAE@QAVdgMemoryAllocator@@@Z 1004a990 f i physics:dgMeshEffect2.obj
 0001:000499b0       ?RemoveDegeneratedTetras@Tetrahedralization@@QAEXXZ 1004a9b0 f i physics:dgMeshEffect2.obj
 0001:00049c00       ?RecoverFace@Tetrahedralization@@QBEXAAVdgMeshEffect@@QAVdgEdge@@HHAAV?$dgTree@PAVdgEdge@@PAV1@@@@Z 1004ac00 f i physics:dgMeshEffect2.obj
 0001:0004a450       ?MatchFace@Tetrahedralization@@QBE_NAAVdgMeshEffect@@QAVdgEdge@@H@Z 1004b450 f i physics:dgMeshEffect2.obj
 0001:0004a900       ??_GTetrahedralization@@UAEPAXI@Z 1004b900 f i physics:dgMeshEffect2.obj
 0001:0004a900       ??_ETetrahedralization@@UAEPAXI@Z 1004b900 f i physics:dgMeshEffect2.obj
 0001:0004a930       ??1dgFaceKeyMap@Tetrahedralization@@QAE@XZ 1004b930 f i physics:dgMeshEffect2.obj
 0001:0004a950       ??3?$dgList@VdgConvexHull4dTetraherum@@@@SAXPAX@Z 1004b950 f i physics:dgMeshEffect2.obj
 0001:0004a970       ?GetInfo@dgListNode@?$dgList@VdgConvexHull3DFace@@@@QAEAAVdgConvexHull3DFace@@XZ 1004b970 f i physics:dgMeshEffect2.obj
 0001:0004a980       ?GetNext@dgListNode@?$dgList@VdgConvexHull3DFace@@@@QBEPAV12@XZ 1004b980 f i physics:dgMeshEffect2.obj
 0001:0004a9a0       ?GetInfo@dgTreeNode@?$dgTree@VdgEdgeSharedTetras@Tetrahedralization@@_K@@QAEAAVdgEdgeSharedTetras@Tetrahedralization@@XZ 1004b9a0 f i physics:dgMeshEffect2.obj
 0001:0004a9c0       ?GetInfo@dgListNode@?$dgList@VdgConvexHull4dTetraherum@@@@QAEAAVdgConvexHull4dTetraherum@@XZ 1004b9c0 f i physics:dgMeshEffect2.obj
 0001:0004a9d0       ?GetNext@dgListNode@?$dgList@VdgConvexHull4dTetraherum@@@@QBEPAV12@XZ 1004b9d0 f i physics:dgMeshEffect2.obj
 0001:0004a9f0       ?GetInfo@dgListNode@?$dgList@PAVdgTreeNode@?$dgTree@VdgEdge@@_J@@@@QAEAAPAVdgTreeNode@?$dgTree@VdgEdge@@_J@@XZ 1004b9f0 f i physics:dgMeshEffect2.obj
 0001:0004aa00       ?GetInfo@dgListNode@?$dgList@PAVdgListNode@?$dgList@VdgConvexHull4dTetraherum@@@@@@QAEAAPAV1?$dgList@VdgConvexHull4dTetraherum@@@@XZ 1004ba00 f i physics:dgMeshEffect2.obj
 0001:0004aa10       ?GetNext@dgListNode@?$dgList@PAVdgListNode@?$dgList@VdgConvexHull4dTetraherum@@@@@@QBEPAV12@XZ 1004ba10 f i physics:dgMeshEffect2.obj
 0001:0004aa30       ??0Iterator@?$dgTree@PAVdgEdge@@PAV1@@@QAE@ABV1@@Z 1004ba30 f i physics:dgMeshEffect2.obj
 0001:0004aa60       ??1Iterator@?$dgTree@PAVdgEdge@@PAV1@@@QAE@XZ 1004ba60 f i physics:dgMeshEffect2.obj
 0001:0004aa70       ?Begin@Iterator@?$dgTree@PAVdgEdge@@PAV1@@@QAEXXZ 1004ba70 f i physics:dgMeshEffect2.obj
 0001:0004aa90       ??BIterator@?$dgTree@PAVdgEdge@@PAV1@@@QBEHXZ 1004ba90 f i physics:dgMeshEffect2.obj
 0001:0004aab0       ??EIterator@?$dgTree@PAVdgEdge@@PAV1@@@QAEXH@Z 1004bab0 f i physics:dgMeshEffect2.obj
 0001:0004ab00       ?GetNode@Iterator@?$dgTree@PAVdgEdge@@PAV1@@@QBEPAVdgTreeNode@2@XZ 1004bb00 f i physics:dgMeshEffect2.obj
 0001:0004ab10       ?GetInfo@dgTreeNode@?$dgTree@PAVdgEdge@@PAV1@@@QAEAAPAVdgEdge@@XZ 1004bb10 f i physics:dgMeshEffect2.obj
 0001:0004ab30       ?GetCount@?$dgList@VdgConvexHull3DFace@@@@QBEHXZ 1004bb30 f i physics:dgMeshEffect2.obj
 0001:0004ab40       ?GetFirst@?$dgList@VdgConvexHull3DFace@@@@QBEPAVdgListNode@1@XZ 1004bb40 f i physics:dgMeshEffect2.obj
 0001:0004ab60       ??0?$dgList@PAVdgTreeNode@?$dgTree@VdgEdge@@_J@@@@QAE@QAVdgMemoryAllocator@@@Z 1004bb60 f i physics:dgMeshEffect2.obj
 0001:0004aba0       ??1?$dgList@PAVdgTreeNode@?$dgTree@VdgEdge@@_J@@@@QAE@XZ 1004bba0 f i physics:dgMeshEffect2.obj
 0001:0004abc0       ?GetCount@?$dgList@PAVdgTreeNode@?$dgTree@VdgEdge@@_J@@@@QBEHXZ 1004bbc0 f i physics:dgMeshEffect2.obj
 0001:0004abd0       ?GetFirst@?$dgList@PAVdgTreeNode@?$dgTree@VdgEdge@@_J@@@@QBEPAVdgListNode@1@XZ 1004bbd0 f i physics:dgMeshEffect2.obj
 0001:0004abf0       ?Append@?$dgList@PAVdgTreeNode@?$dgTree@VdgEdge@@_J@@@@QAEPAVdgListNode@1@ABQAVdgTreeNode@?$dgTree@VdgEdge@@_J@@@Z 1004bbf0 f i physics:dgMeshEffect2.obj
 0001:0004acb0       ?Remove@?$dgList@PAVdgTreeNode@?$dgTree@VdgEdge@@_J@@@@QAEXQAVdgListNode@1@@Z 1004bcb0 f i physics:dgMeshEffect2.obj
 0001:0004ad00       ??0?$dgList@PAVdgListNode@?$dgList@VdgConvexHull4dTetraherum@@@@@@QAE@QAVdgMemoryAllocator@@@Z 1004bd00 f i physics:dgMeshEffect2.obj
 0001:0004ad40       ??1?$dgList@PAVdgListNode@?$dgList@VdgConvexHull4dTetraherum@@@@@@QAE@XZ 1004bd40 f i physics:dgMeshEffect2.obj
 0001:0004ad60       ?GetCount@?$dgList@PAVdgListNode@?$dgList@VdgConvexHull4dTetraherum@@@@@@QBEHXZ 1004bd60 f i physics:dgMeshEffect2.obj
 0001:0004ad70       ?GetFirst@?$dgList@PAVdgListNode@?$dgList@VdgConvexHull4dTetraherum@@@@@@QBEPAVdgListNode@1@XZ 1004bd70 f i physics:dgMeshEffect2.obj
 0001:0004ad90       ?Append@?$dgList@PAVdgListNode@?$dgList@VdgConvexHull4dTetraherum@@@@@@QAEPAVdgListNode@1@ABQAV2?$dgList@VdgConvexHull4dTetraherum@@@@@Z 1004bd90 f i physics:dgMeshEffect2.obj
 0001:0004ae50       ?Remove@?$dgList@PAVdgListNode@?$dgList@VdgConvexHull4dTetraherum@@@@@@QAEXQAVdgListNode@1@@Z 1004be50 f i physics:dgMeshEffect2.obj
 0001:0004aea0       ?RemoveAll@?$dgList@PAVdgListNode@?$dgList@VdgConvexHull4dTetraherum@@@@@@QAEXXZ 1004bea0 f i physics:dgMeshEffect2.obj
 0001:0004af60       ??0?$dgTree@VdgEdgeSharedTetras@Tetrahedralization@@_K@@QAE@QAVdgMemoryAllocator@@@Z 1004bf60 f i physics:dgMeshEffect2.obj
 0001:0004af90       ??1?$dgTree@VdgEdgeSharedTetras@Tetrahedralization@@_K@@QAE@XZ 1004bf90 f i physics:dgMeshEffect2.obj
 0001:0004afb0       ?GetRoot@?$dgTree@VdgEdgeSharedTetras@Tetrahedralization@@_K@@QBEPAVdgTreeNode@1@XZ 1004bfb0 f i physics:dgMeshEffect2.obj
 0001:0004afd0       ?Find@?$dgTree@VdgEdgeSharedTetras@Tetrahedralization@@_K@@QBEPAVdgTreeNode@1@_K@Z 1004bfd0 f i physics:dgMeshEffect2.obj
 0001:0004b110       ?Insert@?$dgTree@VdgEdgeSharedTetras@Tetrahedralization@@_K@@QAEPAVdgTreeNode@1@ABVdgEdgeSharedTetras@Tetrahedralization@@_K@Z 1004c110 f i physics:dgMeshEffect2.obj
 0001:0004b150       ?Remove@?$dgTree@VdgEdgeSharedTetras@Tetrahedralization@@_K@@QAEXQAVdgTreeNode@1@@Z 1004c150 f i physics:dgMeshEffect2.obj
 0001:0004b190       ??0?$dgTree@PAVdgListNode@?$dgList@VdgConvexHull4dTetraherum@@@@VdgEdgeFaceKey@Tetrahedralization@@@@QAE@QAVdgMemoryAllocator@@@Z 1004c190 f i physics:dgMeshEffect2.obj
 0001:0004b1c0       ??1?$dgTree@PAVdgListNode@?$dgList@VdgConvexHull4dTetraherum@@@@VdgEdgeFaceKey@Tetrahedralization@@@@QAE@XZ 1004c1c0 f i physics:dgMeshEffect2.obj
 0001:0004b1e0       ?Find@?$dgTree@PAVdgListNode@?$dgList@VdgConvexHull4dTetraherum@@@@VdgEdgeFaceKey@Tetrahedralization@@@@QBEPAVdgTreeNode@1@VdgEdgeFaceKey@Tetrahedralization@@@Z 1004c1e0 f i physics:dgMeshEffect2.obj
 0001:0004b310       ??MdgEdgeFaceKey@Tetrahedralization@@QBE_NABV01@@Z 1004c310 f i physics:dgMeshEffect2.obj
 0001:0004b340       ?Compared@dgEdgeFaceKey@Tetrahedralization@@QBEHABV12@@Z 1004c340 f i physics:dgMeshEffect2.obj
 0001:0004b3b0       ??OdgEdgeFaceKey@Tetrahedralization@@QBE_NABV01@@Z 1004c3b0 f i physics:dgMeshEffect2.obj
 0001:0004b3e0       ?Insert@?$dgTree@PAVdgListNode@?$dgList@VdgConvexHull4dTetraherum@@@@VdgEdgeFaceKey@Tetrahedralization@@@@QAEPAVdgTreeNode@1@ABQAVdgListNode@?$dgList@VdgConvexHull4dTetraherum@@@@VdgEdgeFaceKey@Tetrahedralization@@@Z 1004c3e0 f i physics:dgMeshEffect2.obj
 0001:0004b430       ??0?$dgArray@VdgIndexMapPair@Tetrahedralization@@@@QAE@HQAVdgMemoryAllocator@@@Z 1004c430 f i physics:dgMeshEffect2.obj
 0001:0004b470       ??1?$dgArray@VdgIndexMapPair@Tetrahedralization@@@@QAE@XZ 1004c470 f i physics:dgMeshEffect2.obj
 0001:0004b4a0       ??A?$dgArray@VdgIndexMapPair@Tetrahedralization@@@@QBEABVdgIndexMapPair@Tetrahedralization@@H@Z 1004c4a0 f i physics:dgMeshEffect2.obj
 0001:0004b500       ??A?$dgArray@VdgIndexMapPair@Tetrahedralization@@@@QAEAAVdgIndexMapPair@Tetrahedralization@@H@Z 1004c500 f i physics:dgMeshEffect2.obj
 0001:0004b560       ?GetAllocator@?$dgList@VdgConvexHull4dTetraherum@@@@QBEPAVdgMemoryAllocator@@XZ 1004c560 f i physics:dgMeshEffect2.obj
 0001:0004b580       ?GetCount@?$dgList@VdgConvexHull4dTetraherum@@@@QBEHXZ 1004c580 f i physics:dgMeshEffect2.obj
 0001:0004b590       ?GetFirst@?$dgList@VdgConvexHull4dTetraherum@@@@QBEPAVdgListNode@1@XZ 1004c590 f i physics:dgMeshEffect2.obj
 0001:0004b5b0       ?Scale4@?$dgTemplateVector@N@@QBE?AV1@N@Z 1004c5b0 f i physics:dgMeshEffect2.obj
 0001:0004b610       ?Add4@?$dgTemplateVector@N@@QBE?AV1@ABV1@@Z 1004c610 f i physics:dgMeshEffect2.obj
 0001:0004b670       ??0?$dgTree@PAVdgEdge@@PAV1@@@QAE@QAVdgMemoryAllocator@@@Z 1004c670 f i physics:dgMeshEffect2.obj
 0001:0004b6a0       ??1?$dgTree@PAVdgEdge@@PAV1@@@QAE@XZ 1004c6a0 f i physics:dgMeshEffect2.obj
 0001:0004b6c0       ?GetCount@?$dgTree@PAVdgEdge@@PAV1@@@QBEHXZ 1004c6c0 f i physics:dgMeshEffect2.obj
 0001:0004b6d0       ?Minimum@?$dgTree@PAVdgEdge@@PAV1@@@QBEPAVdgTreeNode@1@XZ 1004c6d0 f i physics:dgMeshEffect2.obj
 0001:0004b700       ?Find@?$dgTree@PAVdgEdge@@PAV1@@@QBEPAVdgTreeNode@1@PAVdgEdge@@@Z 1004c700 f i physics:dgMeshEffect2.obj
 0001:0004b820       ?Insert@?$dgTree@PAVdgEdge@@PAV1@@@QAEPAVdgTreeNode@1@ABQAVdgEdge@@PAV3@@Z 1004c820 f i physics:dgMeshEffect2.obj
 0001:0004b860       ??$dgSort@VdgIndexMapPair@Tetrahedralization@@@@YAXQAVdgIndexMapPair@Tetrahedralization@@HP6AHQBV01@1QAX@Z2@Z 1004c860 f i physics:dgMeshEffect2.obj
 0001:0004bc30       ??0?$dgStack@PAVdgCollision@@@@QAE@H@Z 1004cc30 f i physics:dgMeshEffect2.obj
 0001:0004bc60       ??1?$dgStack@PAVdgCollision@@@@QAE@XZ 1004cc60 f i physics:dgMeshEffect2.obj
 0001:0004bc80       ??A?$dgStack@PAVdgCollision@@@@QAEAAPAVdgCollision@@H@Z 1004cc80 f i physics:dgMeshEffect2.obj
 0001:0004bd00       ??_GdgListNode@?$dgList@PAVdgTreeNode@?$dgTree@VdgEdge@@_J@@@@AAEPAXI@Z 1004cd00 f i physics:dgMeshEffect2.obj
 0001:0004bd30       ??_GdgListNode@?$dgList@PAVdgListNode@?$dgList@VdgConvexHull4dTetraherum@@@@@@AAEPAXI@Z 1004cd30 f i physics:dgMeshEffect2.obj
 0001:0004bd60       ?GetLeft@dgTreeNode@?$dgTree@VdgEdgeSharedTetras@Tetrahedralization@@_K@@ABEPAV12@XZ 1004cd60 f i physics:dgMeshEffect2.obj
 0001:0004bd70       ?GetRight@dgTreeNode@?$dgTree@VdgEdgeSharedTetras@Tetrahedralization@@_K@@ABEPAV12@XZ 1004cd70 f i physics:dgMeshEffect2.obj
 0001:0004bd90       ??2dgListNode@?$dgList@PAVdgTreeNode@?$dgTree@VdgEdge@@_J@@@@CAPAXIQAVdgMemoryAllocator@@@Z 1004cd90 f i physics:dgMeshEffect2.obj
 0001:0004bdb0       ??3dgListNode@?$dgList@PAVdgTreeNode@?$dgTree@VdgEdge@@_J@@@@CAXPAX@Z 1004cdb0 f i physics:dgMeshEffect2.obj
 0001:0004bdd0       ??0dgListNode@?$dgList@PAVdgTreeNode@?$dgTree@VdgEdge@@_J@@@@AAE@ABQAVdgTreeNode@?$dgTree@VdgEdge@@_J@@QAV01@1@Z 1004cdd0 f i physics:dgMeshEffect2.obj
 0001:0004be60       ??1dgListNode@?$dgList@PAVdgTreeNode@?$dgTree@VdgEdge@@_J@@@@AAE@XZ 1004ce60 f i physics:dgMeshEffect2.obj
 0001:0004be70       ??2dgListNode@?$dgList@PAVdgListNode@?$dgList@VdgConvexHull4dTetraherum@@@@@@CAPAXIQAVdgMemoryAllocator@@@Z 1004ce70 f i physics:dgMeshEffect2.obj
 0001:0004be90       ??3dgListNode@?$dgList@PAVdgListNode@?$dgList@VdgConvexHull4dTetraherum@@@@@@CAXPAX@Z 1004ce90 f i physics:dgMeshEffect2.obj
 0001:0004beb0       ??0dgListNode@?$dgList@PAVdgListNode@?$dgList@VdgConvexHull4dTetraherum@@@@@@AAE@ABQAV0?$dgList@VdgConvexHull4dTetraherum@@@@QAV01@1@Z 1004ceb0 f i physics:dgMeshEffect2.obj
 0001:0004bf40       ??1dgListNode@?$dgList@PAVdgListNode@?$dgList@VdgConvexHull4dTetraherum@@@@@@AAE@XZ 1004cf40 f i physics:dgMeshEffect2.obj
 0001:0004bf50       ?Unlink@dgListNode@?$dgList@PAVdgListNode@?$dgList@VdgConvexHull4dTetraherum@@@@@@AAEXXZ 1004cf50 f i physics:dgMeshEffect2.obj
 0001:0004bfa0       ?GetLeft@dgTreeNode@?$dgTree@PAVdgEdge@@PAV1@@@ABEPAV12@XZ 1004cfa0 f i physics:dgMeshEffect2.obj
 0001:0004bfb0       ?GetRight@dgTreeNode@?$dgTree@PAVdgEdge@@PAV1@@@ABEPAV12@XZ 1004cfb0 f i physics:dgMeshEffect2.obj
 0001:0004bfd0       ?GetLeft@dgTreeNode@?$dgTree@PAVdgListNode@?$dgList@VdgConvexHull4dTetraherum@@@@VdgEdgeFaceKey@Tetrahedralization@@@@ABEPAV12@XZ 1004cfd0 f i physics:dgMeshEffect2.obj
 0001:0004bfe0       ?GetRight@dgTreeNode@?$dgTree@PAVdgListNode@?$dgList@VdgConvexHull4dTetraherum@@@@VdgEdgeFaceKey@Tetrahedralization@@@@ABEPAV12@XZ 1004cfe0 f i physics:dgMeshEffect2.obj
 0001:0004c000       ?RemoveAll@?$dgList@PAVdgTreeNode@?$dgTree@VdgEdge@@_J@@@@QAEXXZ 1004d000 f i physics:dgMeshEffect2.obj
 0001:0004c0c0       ?Unlink@?$dgList@PAVdgTreeNode@?$dgTree@VdgEdge@@_J@@@@QAEXQAVdgListNode@1@@Z 1004d0c0 f i physics:dgMeshEffect2.obj
 0001:0004c170       ?Unlink@?$dgList@PAVdgListNode@?$dgList@VdgConvexHull4dTetraherum@@@@@@QAEXQAVdgListNode@1@@Z 1004d170 f i physics:dgMeshEffect2.obj
 0001:0004c220       ?Insert@?$dgTree@VdgEdgeSharedTetras@Tetrahedralization@@_K@@QAEPAVdgTreeNode@1@ABVdgEdgeSharedTetras@Tetrahedralization@@_KAA_N@Z 1004d220 f i physics:dgMeshEffect2.obj
 0001:0004c440       ?RemoveAll@?$dgTree@VdgEdgeSharedTetras@Tetrahedralization@@_K@@QAEXXZ 1004d440 f i physics:dgMeshEffect2.obj
 0001:0004c480       ?CompareKeys@?$dgTree@VdgEdgeSharedTetras@Tetrahedralization@@_K@@ABEHAB_K0@Z 1004d480 f i physics:dgMeshEffect2.obj
 0001:0004c4f0       ?Insert@?$dgTree@PAVdgListNode@?$dgList@VdgConvexHull4dTetraherum@@@@VdgEdgeFaceKey@Tetrahedralization@@@@QAEPAVdgTreeNode@1@ABQAVdgListNode@?$dgList@VdgConvexHull4dTetraherum@@@@VdgEdgeFaceKey@Tetrahedralization@@AA_N@Z 1004d4f0 f i physics:dgMeshEffect2.obj
 0001:0004c700       ?RemoveAll@?$dgTree@PAVdgListNode@?$dgList@VdgConvexHull4dTetraherum@@@@VdgEdgeFaceKey@Tetrahedralization@@@@QAEXXZ 1004d700 f i physics:dgMeshEffect2.obj
 0001:0004c740       ?CompareKeys@?$dgTree@PAVdgListNode@?$dgList@VdgConvexHull4dTetraherum@@@@VdgEdgeFaceKey@Tetrahedralization@@@@ABEHABVdgEdgeFaceKey@Tetrahedralization@@0@Z 1004d740 f i physics:dgMeshEffect2.obj
 0001:0004c790       ?Resize@?$dgArray@VdgIndexMapPair@Tetrahedralization@@@@QBEXH@Z 1004d790 f i physics:dgMeshEffect2.obj
 0001:0004c900       ?Insert@?$dgTree@PAVdgEdge@@PAV1@@@QAEPAVdgTreeNode@1@ABQAVdgEdge@@PAV3@AA_N@Z 1004d900 f i physics:dgMeshEffect2.obj
 0001:0004cb00       ?RemoveAll@?$dgTree@PAVdgEdge@@PAV1@@@QAEXXZ 1004db00 f i physics:dgMeshEffect2.obj
 0001:0004cb40       ?CompareKeys@?$dgTree@PAVdgEdge@@PAV1@@@ABEHABQAVdgEdge@@0@Z 1004db40 f i physics:dgMeshEffect2.obj
 0001:0004cb80       ??0dgTreeNode@?$dgTree@VdgEdgeSharedTetras@Tetrahedralization@@_K@@AAE@ABVdgEdgeSharedTetras@Tetrahedralization@@AB_KPAV01@@Z 1004db80 f i physics:dgMeshEffect2.obj
 0001:0004cc00       ??0dgEdgeSharedTetras@Tetrahedralization@@QAE@ABV01@@Z 1004dc00 f i physics:dgMeshEffect2.obj
 0001:0004cc30       ?GetAllocator@?$dgList@PAVdgListNode@?$dgList@VdgConvexHull4dTetraherum@@@@@@QBEPAVdgMemoryAllocator@@XZ 1004dc30 f i physics:dgMeshEffect2.obj
 0001:0004cc50       ?Unlink@dgListNode@?$dgList@PAVdgTreeNode@?$dgTree@VdgEdge@@_J@@@@AAEXXZ 1004dc50 f i physics:dgMeshEffect2.obj
 0001:0004cca0       ?GetNext@dgListNode@?$dgList@PAVdgTreeNode@?$dgTree@VdgEdge@@_J@@@@QBEPAV12@XZ 1004dca0 f i physics:dgMeshEffect2.obj
 0001:0004ccc0       ?GetPrev@dgListNode@?$dgList@PAVdgTreeNode@?$dgTree@VdgEdge@@_J@@@@QBEPAV12@XZ 1004dcc0 f i physics:dgMeshEffect2.obj
 0001:0004cce0       ?GetPrev@dgListNode@?$dgList@PAVdgListNode@?$dgList@VdgConvexHull4dTetraherum@@@@@@QBEPAV12@XZ 1004dce0 f i physics:dgMeshEffect2.obj
 0001:0004cd00       ??0dgTreeNode@?$dgTree@PAVdgEdge@@PAV1@@@AAE@ABQAVdgEdge@@0PAV01@@Z 1004dd00 f i physics:dgMeshEffect2.obj
 0001:0004cd70       ??0dgTreeNode@?$dgTree@PAVdgListNode@?$dgList@VdgConvexHull4dTetraherum@@@@VdgEdgeFaceKey@Tetrahedralization@@@@AAE@ABQAVdgListNode@?$dgList@VdgConvexHull4dTetraherum@@@@ABVdgEdgeFaceKey@Tetrahedralization@@PAV01@@Z 1004dd70 f i physics:dgMeshEffect2.obj
 0001:0004cdf0       ?GetVertexCount@dgConvexHull3d@@QBEHXZ 1004ddf0 f i physics:dgMeshEffect2.obj
 0001:0004ce10       ?GetVertex@dgConvexHull3d@@QBEABVdgVector@@H@Z 1004de10 f i physics:dgMeshEffect2.obj
 0001:0004ce30       ?GetMark@dgConvexHull4dTetraherum@@QBEHXZ 1004de30 f i physics:dgMeshEffect2.obj
 0001:0004ce50       ?SetMark@dgConvexHull4dTetraherum@@QAEXH@Z 1004de50 f i physics:dgMeshEffect2.obj
 0001:0004ce70       ?IncMark@dgConvexHull4d@@QAEHXZ 1004de70 f i physics:dgMeshEffect2.obj
 0001:0004ce90       ?GetVertexCount@dgConvexHull4d@@QBEHXZ 1004de90 f i physics:dgMeshEffect2.obj
 0001:0004ceb0       ?GetVertexIndex@dgConvexHull4d@@QBEHH@Z 1004deb0 f i physics:dgMeshEffect2.obj
 0001:0004cf30       ?GetVertex@dgConvexHull4d@@QBEABVdgBigVector@@H@Z 1004df30 f i physics:dgMeshEffect2.obj
 0001:0004cfa0       ??A?$dgArray@VdgVector@@@@QBEABVdgVector@@H@Z 1004dfa0 f i physics:dgMeshEffect2.obj
 0001:0004d000       ??A?$dgArray@VdgHullVector@@@@QBEABVdgHullVector@@H@Z 1004e000 f i physics:dgMeshEffect2.obj
 0001:0004d060       ?Resize@?$dgArray@VdgVector@@@@QBEXH@Z 1004e060 f i physics:dgMeshEffect2.obj
 0001:0004d1f0       ?Resize@?$dgArray@VdgHullVector@@@@QBEXH@Z 1004e1f0 f i physics:dgMeshEffect2.obj
 0001:0004d360       ??0dgCollisionConvexIntance@dgCollisionCompoundBreakable@@QAE@PAVdgConvexCollision@@PAVdgListNode@?$dgList@V?$dgGraphNode@VdgDebriNodeInfo@dgCollisionCompoundBreakable@@VdgSharedNodeMesh@2@@@@@M@Z 1004e360 f   physics:dgCollisionCompoundBreakable.obj
 0001:0004d4b0       ??0dgCollisionConvexIntance@dgCollisionCompoundBreakable@@QAE@ABV01@PAVdgListNode@?$dgList@V?$dgGraphNode@VdgDebriNodeInfo@dgCollisionCompoundBreakable@@VdgSharedNodeMesh@2@@@@@@Z 1004e4b0 f   physics:dgCollisionCompoundBreakable.obj
 0001:0004d590       ??0dgCollisionConvexIntance@dgCollisionCompoundBreakable@@QAE@QAVdgWorld@@P6AXPAX1I@ZQAX@Z 1004e590 f   physics:dgCollisionCompoundBreakable.obj
 0001:0004d680       ??1dgCollisionConvexIntance@dgCollisionCompoundBreakable@@UAE@XZ 1004e680 f   physics:dgCollisionCompoundBreakable.obj
 0001:0004d6c0       ?GetVolume@dgCollisionConvexIntance@dgCollisionCompoundBreakable@@MBEMXZ 1004e6c0 f   physics:dgCollisionCompoundBreakable.obj
 0001:0004d6f0       ?OOBBTest@dgCollisionConvexIntance@dgCollisionCompoundBreakable@@MBE_NABVdgMatrix@@QBVdgConvexCollision@@QAX@Z 1004e6f0 f   physics:dgCollisionCompoundBreakable.obj
 0001:0004d730       ?SupportVertex@dgCollisionConvexIntance@dgCollisionCompoundBreakable@@MBE?AVdgVector@@ABV3@@Z 1004e730 f   physics:dgCollisionCompoundBreakable.obj
 0001:0004d770       ?SupportVertexSimd@dgCollisionConvexIntance@dgCollisionCompoundBreakable@@MBE?AVdgVector@@ABV3@@Z 1004e770 f   physics:dgCollisionCompoundBreakable.obj
 0001:0004d7b0       ?CalcAABB@dgCollisionConvexIntance@dgCollisionCompoundBreakable@@MBEXABVdgMatrix@@AAVdgVector@@1@Z 1004e7b0 f   physics:dgCollisionCompoundBreakable.obj
 0001:0004d7f0       ?CalcAABBSimd@dgCollisionConvexIntance@dgCollisionCompoundBreakable@@MBEXABVdgMatrix@@AAVdgVector@@1@Z 1004e7f0 f   physics:dgCollisionCompoundBreakable.obj
 0001:0004d830       ?DebugCollision@dgCollisionConvexIntance@dgCollisionCompoundBreakable@@MBEXABVdgMatrix@@P6AXPAXHPBMH@ZQAX@Z 1004e830 f   physics:dgCollisionCompoundBreakable.obj
 0001:0004d870       ?RayCast@dgCollisionConvexIntance@dgCollisionCompoundBreakable@@MBEMABVdgVector@@0AAVdgContactPoint@@P6AIQBVdgBody@@QBVdgCollision@@QAX@Z24@Z 1004e870 f   physics:dgCollisionCompoundBreakable.obj
 0001:0004d8b0       ?RayCastSimd@dgCollisionConvexIntance@dgCollisionCompoundBreakable@@MBEMABVdgVector@@0AAVdgContactPoint@@P6AIQBVdgBody@@QBVdgCollision@@QAX@Z24@Z 1004e8b0 f   physics:dgCollisionCompoundBreakable.obj
 0001:0004d8f0       ?CalculateVolumeIntegral@dgCollisionConvexIntance@dgCollisionCompoundBreakable@@MBE?AVdgVector@@ABVdgMatrix@@P6AIPAX10AAVdgPlane@@@ZQAX@Z 1004e8f0 f   physics:dgCollisionCompoundBreakable.obj
 0001:0004d930       ?CalculateSignature@dgCollisionConvexIntance@dgCollisionCompoundBreakable@@EBEHXZ 1004e930 f   physics:dgCollisionCompoundBreakable.obj
 0001:0004d940       ?SetCollisionBBox@dgCollisionConvexIntance@dgCollisionCompoundBreakable@@EAEXABVdgVector@@0@Z 1004e940 f   physics:dgCollisionCompoundBreakable.obj
 0001:0004d970       ?GetBoxMinRadius@dgCollisionConvexIntance@dgCollisionCompoundBreakable@@EBEMXZ 1004e970 f   physics:dgCollisionCompoundBreakable.obj
 0001:0004d9a0       ?GetBoxMaxRadius@dgCollisionConvexIntance@dgCollisionCompoundBreakable@@EBEMXZ 1004e9a0 f   physics:dgCollisionCompoundBreakable.obj
 0001:0004d9d0       ?CalculatePlaneIntersection@dgCollisionConvexIntance@dgCollisionCompoundBreakable@@EBEHABVdgVector@@0QAV3@@Z 1004e9d0 f   physics:dgCollisionCompoundBreakable.obj
 0001:0004da10       ?CalculatePlaneIntersectionSimd@dgCollisionConvexIntance@dgCollisionCompoundBreakable@@EBEHABVdgVector@@0QAV3@@Z 1004ea10 f   physics:dgCollisionCompoundBreakable.obj
 0001:0004da50       ?GetCollisionInfo@dgCollisionConvexIntance@dgCollisionCompoundBreakable@@EBEXPAVdgCollisionInfo@@@Z 1004ea50 f   physics:dgCollisionCompoundBreakable.obj
 0001:0004da80       ?Serialize@dgCollisionConvexIntance@dgCollisionCompoundBreakable@@EBEXP6AXPAXPBXI@ZQAX@Z 1004ea80 f   physics:dgCollisionCompoundBreakable.obj
 0001:0004db10       ?SetBreakImpulse@dgCollisionConvexIntance@dgCollisionCompoundBreakable@@EAEXM@Z 1004eb10 f   physics:dgCollisionCompoundBreakable.obj
 0001:0004db30       ?GetBreakImpulse@dgCollisionConvexIntance@dgCollisionCompoundBreakable@@EBEMXZ 1004eb30 f   physics:dgCollisionCompoundBreakable.obj
 0001:0004db50       ??0dgVertexBuffer@dgCollisionCompoundBreakable@@QAE@HPAVdgMemoryAllocator@@@Z 1004eb50 f   physics:dgCollisionCompoundBreakable.obj
 0001:0004dbe0       ??1dgVertexBuffer@dgCollisionCompoundBreakable@@UAE@XZ 1004ebe0 f   physics:dgCollisionCompoundBreakable.obj
 0001:0004dc40       ??0dgVertexBuffer@dgCollisionCompoundBreakable@@QAE@QAVdgMemoryAllocator@@P6AXPAX1I@ZQAX@Z 1004ec40 f   physics:dgCollisionCompoundBreakable.obj
 0001:0004dd30       ?Serialize@dgVertexBuffer@dgCollisionCompoundBreakable@@QBEXP6AXPAXPBXI@ZQAX@Z 1004ed30 f   physics:dgCollisionCompoundBreakable.obj
 0001:0004ddb0       ?GetVertexStreams@dgVertexBuffer@dgCollisionCompoundBreakable@@QBEXHPAMH0H0@Z 1004edb0 f   physics:dgCollisionCompoundBreakable.obj
 0001:0004df00       ??0dgSubMesh@dgCollisionCompoundBreakable@@QAE@QAVdgMemoryAllocator@@@Z 1004ef00 f   physics:dgCollisionCompoundBreakable.obj
 0001:0004df50       ??1dgSubMesh@dgCollisionCompoundBreakable@@QAE@XZ 1004ef50 f   physics:dgCollisionCompoundBreakable.obj
 0001:0004df80       ?Serialize@dgSubMesh@dgCollisionCompoundBreakable@@QBEXP6AXPAXPBXI@ZQAX@Z 1004ef80 f   physics:dgCollisionCompoundBreakable.obj
 0001:0004e000       ??0dgMesh@dgCollisionCompoundBreakable@@QAE@QAVdgMemoryAllocator@@@Z 1004f000 f   physics:dgCollisionCompoundBreakable.obj
 0001:0004e040       ??1dgMesh@dgCollisionCompoundBreakable@@UAE@XZ 1004f040 f   physics:dgCollisionCompoundBreakable.obj
 0001:0004e070       ??0dgMesh@dgCollisionCompoundBreakable@@QAE@QAVdgMemoryAllocator@@P6AXPAX1I@ZQAX@Z 1004f070 f   physics:dgCollisionCompoundBreakable.obj
 0001:0004e170       ?Serialize@dgMesh@dgCollisionCompoundBreakable@@QBEXP6AXPAXPBXI@ZQAX@Z 1004f170 f   physics:dgCollisionCompoundBreakable.obj
 0001:0004e1f0       ?AddgSubMesh@dgMesh@dgCollisionCompoundBreakable@@QAEPAVdgSubMesh@2@HH@Z 1004f1f0 f   physics:dgCollisionCompoundBreakable.obj
 0001:0004e290       ??0dgDebriNodeInfo@dgCollisionCompoundBreakable@@QAE@XZ 1004f290 f   physics:dgCollisionCompoundBreakable.obj
 0001:0004e2d0       ??1dgDebriNodeInfo@dgCollisionCompoundBreakable@@QAE@XZ 1004f2d0 f   physics:dgCollisionCompoundBreakable.obj
 0001:0004e310       ??0dgSharedNodeMesh@dgCollisionCompoundBreakable@@QAE@XZ 1004f310 f   physics:dgCollisionCompoundBreakable.obj
 0001:0004e320       ??1dgSharedNodeMesh@dgCollisionCompoundBreakable@@QAE@XZ 1004f320 f   physics:dgCollisionCompoundBreakable.obj
 0001:0004e330       ??0dgDebriGraph@dgCollisionCompoundBreakable@@QAE@QAVdgMemoryAllocator@@@Z 1004f330 f   physics:dgCollisionCompoundBreakable.obj
 0001:0004e350       ??0dgDebriGraph@dgCollisionCompoundBreakable@@QAE@QAVdgMemoryAllocator@@P6AXPAX1I@ZQAX@Z 1004f350 f   physics:dgCollisionCompoundBreakable.obj
 0001:0004e530       ??0dgDebriGraph@dgCollisionCompoundBreakable@@QAE@ABV01@@Z 1004f530 f   physics:dgCollisionCompoundBreakable.obj
 0001:0004e6f0       ??1dgDebriGraph@dgCollisionCompoundBreakable@@QAE@XZ 1004f6f0 f   physics:dgCollisionCompoundBreakable.obj
 0001:0004e710       ?Serialize@dgDebriGraph@dgCollisionCompoundBreakable@@QBEXP6AXPAXPBXI@ZQAX@Z 1004f710 f   physics:dgCollisionCompoundBreakable.obj
 0001:0004e930       ?AddNode@dgDebriGraph@dgCollisionCompoundBreakable@@QAEXAAVdgFlatVertexArray@2@PAVdgMeshEffect@@HHMM@Z 1004f930 f   physics:dgCollisionCompoundBreakable.obj
 0001:0004e970       ?AddMeshes@dgDebriGraph@dgCollisionCompoundBreakable@@QAEXAAVdgFlatVertexArray@2@HQBQBVdgMeshEffect@@QBHQBM2M@Z 1004f970 f   physics:dgCollisionCompoundBreakable.obj
 0001:0004e9f0       ??0dgCollisionCompoundBreakable@@QAE@HQBQBVdgMeshEffect@@QBHQBM1HMPAVdgWorld@@@Z 1004f9f0 f   physics:dgCollisionCompoundBreakable.obj
 0001:0004f750       ??0dgCollisionCompoundBreakable@@QAE@ABV0@@Z 10050750 f   physics:dgCollisionCompoundBreakable.obj
 0001:0004fcb0       ??0dgCollisionCompoundBreakable@@QAE@QAVdgWorld@@P6AXPAX1I@ZQAX@Z 10050cb0 f   physics:dgCollisionCompoundBreakable.obj
 0001:0004fec0       ??1dgCollisionCompoundBreakable@@UAE@XZ 10050ec0 f   physics:dgCollisionCompoundBreakable.obj
 0001:0004ff50       ?LinkNodes@dgCollisionCompoundBreakable@@AAEXXZ 10050f50 f   physics:dgCollisionCompoundBreakable.obj
 0001:00050060       ?Serialize@dgCollisionCompoundBreakable@@EBEXP6AXPAXPBXI@ZQAX@Z 10051060 f   physics:dgCollisionCompoundBreakable.obj
 0001:00050130       ?GetCollisionInfo@dgCollisionCompoundBreakable@@EBEXPAVdgCollisionInfo@@@Z 10051130 f   physics:dgCollisionCompoundBreakable.obj
 0001:00050160       ?GetSegmentIndexStreamShort@dgCollisionCompoundBreakable@@QBEHQAVdgListNode@?$dgList@V?$dgGraphNode@VdgDebriNodeInfo@dgCollisionCompoundBreakable@@VdgSharedNodeMesh@2@@@@@PAV2?$dgList@VdgSubMesh@dgCollisionCompoundBreakable@@@@QAF@Z 10051160 f   physics:dgCollisionCompoundBreakable.obj
 0001:000502a0       ?GetSegmentIndexStream@dgCollisionCompoundBreakable@@QBEHQAVdgListNode@?$dgList@V?$dgGraphNode@VdgDebriNodeInfo@dgCollisionCompoundBreakable@@VdgSharedNodeMesh@2@@@@@PAV2?$dgList@VdgSubMesh@dgCollisionCompoundBreakable@@@@QAH@Z 100512a0 f   physics:dgCollisionCompoundBreakable.obj
 0001:000503d0       ?GetSegmentsInRadius@dgCollisionCompoundBreakable@@QAEHABVdgVector@@MPAPAVdgListNode@?$dgList@V?$dgGraphNode@VdgDebriNodeInfo@dgCollisionCompoundBreakable@@VdgSharedNodeMesh@2@@@@@H@Z 100513d0 f   physics:dgCollisionCompoundBreakable.obj
 0001:000506e0       ?EnumerateIslands@dgCollisionCompoundBreakable@@QAEXXZ 100516e0 f   physics:dgCollisionCompoundBreakable.obj
 0001:000508e0       ?ResetAnchor@dgCollisionCompoundBreakable@@QAEXXZ 100518e0 f   physics:dgCollisionCompoundBreakable.obj
 0001:00050950       ?SetAnchoredParts@dgCollisionCompoundBreakable@@QAEXHQBVdgMatrix@@PAPBVdgCollision@@@Z 10051950 f   physics:dgCollisionCompoundBreakable.obj
 0001:00050c60       ?DeleteComponent@dgCollisionCompoundBreakable@@QAEXPAVdgListNode@?$dgList@V?$dgGraphNode@VdgDebriNodeInfo@dgCollisionCompoundBreakable@@VdgSharedNodeMesh@2@@@@@@Z 10051c60 f   physics:dgCollisionCompoundBreakable.obj
 0001:00050ef0       ?CreateComponentBody@dgCollisionCompoundBreakable@@QBEPAVdgBody@@PAVdgListNode@?$dgList@V?$dgGraphNode@VdgDebriNodeInfo@dgCollisionCompoundBreakable@@VdgSharedNodeMesh@2@@@@@@Z 10051ef0 f   physics:dgCollisionCompoundBreakable.obj
 0001:00050f30       ?DeleteComponentBegin@dgCollisionCompoundBreakable@@QAEXXZ 10051f30 f   physics:dgCollisionCompoundBreakable.obj
 0001:00050f60       ?DeleteComponentEnd@dgCollisionCompoundBreakable@@QAEXXZ 10051f60 f   physics:dgCollisionCompoundBreakable.obj
 0001:00051420       ??_EdgCollisionConvexIntance@dgCollisionCompoundBreakable@@UAEPAXI@Z 10052420 f i physics:dgCollisionCompoundBreakable.obj
 0001:00051420       ??_GdgCollisionConvexIntance@dgCollisionCompoundBreakable@@UAEPAXI@Z 10052420 f i physics:dgCollisionCompoundBreakable.obj
 0001:00051450       ??_EdgVertexBuffer@dgCollisionCompoundBreakable@@UAEPAXI@Z 10052450 f i physics:dgCollisionCompoundBreakable.obj
 0001:00051450       ??_GdgVertexBuffer@dgCollisionCompoundBreakable@@UAEPAXI@Z 10052450 f i physics:dgCollisionCompoundBreakable.obj
 0001:00051480       ??3dgVertexBuffer@dgCollisionCompoundBreakable@@SAXPAX@Z 10052480 f i physics:dgCollisionCompoundBreakable.obj
 0001:000514a0       ??_GdgMesh@dgCollisionCompoundBreakable@@UAEPAXI@Z 100524a0 f i physics:dgCollisionCompoundBreakable.obj
 0001:000514a0       ??_EdgMesh@dgCollisionCompoundBreakable@@UAEPAXI@Z 100524a0 f i physics:dgCollisionCompoundBreakable.obj
 0001:000514d0       ?SetAsTriggerVolume@dgCollision@@UAEX_N@Z 100524d0 f i physics:dgCollisionCompoundBreakable.obj
 0001:000514e0       ?IsTriggerVolume@dgCollision@@UBE_NXZ 100524e0 f i physics:dgCollisionCompoundBreakable.obj
 0001:000514f0       ??0dgFlatVertexArray@dgCollisionCompoundBreakable@@QAE@QAVdgMemoryAllocator@@@Z 100524f0 f i physics:dgCollisionCompoundBreakable.obj
 0001:00051520       ??2dgVertexBuffer@dgCollisionCompoundBreakable@@SAPAXIQAVdgMemoryAllocator@@@Z 10052520 f i physics:dgCollisionCompoundBreakable.obj
 0001:00051540       ??0dgIsland@dgCollisionCompoundBreakable@@QAE@QAVdgMemoryAllocator@@@Z 10052540 f i physics:dgCollisionCompoundBreakable.obj
 0001:00051560       ??_EdgCollisionCompoundBreakable@@UAEPAXI@Z 10052560 f i physics:dgCollisionCompoundBreakable.obj
 0001:00051560       ??_GdgCollisionCompoundBreakable@@UAEPAXI@Z 10052560 f i physics:dgCollisionCompoundBreakable.obj
 0001:00051590       ??1dgFlatVertexArray@dgCollisionCompoundBreakable@@QAE@XZ 10052590 f i physics:dgCollisionCompoundBreakable.obj
 0001:000515b0       ??1dgIsland@dgCollisionCompoundBreakable@@QAE@XZ 100525b0 f i physics:dgCollisionCompoundBreakable.obj
 0001:000515d0       ??2?$dgList@VdgSubMesh@dgCollisionCompoundBreakable@@@@SAPAXIQAVdgMemoryAllocator@@@Z 100525d0 f i physics:dgCollisionCompoundBreakable.obj
 0001:000515f0       ??3?$dgList@VdgSubMesh@dgCollisionCompoundBreakable@@@@SAXPAX@Z 100525f0 f i physics:dgCollisionCompoundBreakable.obj
 0001:00051610       ?GetInfo@dgTreeNode@?$dgTree@PAVdgListNode@?$dgList@V?$dgGraphNode@VdgDebriNodeInfo@dgCollisionCompoundBreakable@@VdgSharedNodeMesh@2@@@@@PAV12@@@QAEAAPAVdgListNode@?$dgList@V?$dgGraphNode@VdgDebriNodeInfo@dgCollisionCompoundBreakable@@VdgSharedNodeMesh@2@@@@@XZ 10052610 f i physics:dgCollisionCompoundBreakable.obj
 0001:00051630       ?GetInfo@dgListNode@?$dgList@V?$dgGraphEdge@VdgDebriNodeInfo@dgCollisionCompoundBreakable@@VdgSharedNodeMesh@2@@@@@QAEAAV?$dgGraphEdge@VdgDebriNodeInfo@dgCollisionCompoundBreakable@@VdgSharedNodeMesh@2@@@XZ 10052630 f i physics:dgCollisionCompoundBreakable.obj
 0001:00051640       ?GetNext@dgListNode@?$dgList@V?$dgGraphEdge@VdgDebriNodeInfo@dgCollisionCompoundBreakable@@VdgSharedNodeMesh@2@@@@@QBEPAV12@XZ 10052640 f i physics:dgCollisionCompoundBreakable.obj
 0001:00051660       ?GetInfo@dgTreeNode@?$dgTree@HPAVdgListNode@?$dgList@V?$dgGraphNode@VdgDebriNodeInfo@dgCollisionCompoundBreakable@@VdgSharedNodeMesh@2@@@@@@@QAEAAHXZ 10052660 f i physics:dgCollisionCompoundBreakable.obj
 0001:00051680       ?GetInfo@dgTreeNode@?$dgTree@VdgCompoundBreakableFilterData@dgCollisionCompoundBreakable@@PAVdgConvexCollision@@@@QAEAAVdgCompoundBreakableFilterData@dgCollisionCompoundBreakable@@XZ 10052680 f i physics:dgCollisionCompoundBreakable.obj
 0001:000516a0       ?GetInfo@dgListNode@?$dgList@PAVdgListNode@?$dgList@V?$dgGraphNode@VdgDebriNodeInfo@dgCollisionCompoundBreakable@@VdgSharedNodeMesh@2@@@@@@@QAEAAPAV1?$dgList@V?$dgGraphNode@VdgDebriNodeInfo@dgCollisionCompoundBreakable@@VdgSharedNodeMesh@2@@@@@XZ 100526a0 f i physics:dgCollisionCompoundBreakable.obj
 0001:000516b0       ?GetNext@dgListNode@?$dgList@PAVdgListNode@?$dgList@V?$dgGraphNode@VdgDebriNodeInfo@dgCollisionCompoundBreakable@@VdgSharedNodeMesh@2@@@@@@@QBEPAV12@XZ 100526b0 f i physics:dgCollisionCompoundBreakable.obj
 0001:000516d0       ??0?$dgArray@VdgFlatVertex@dgCollisionCompoundBreakable@@@@QAE@HQAVdgMemoryAllocator@@@Z 100526d0 f i physics:dgCollisionCompoundBreakable.obj
 0001:00051710       ??1?$dgArray@VdgFlatVertex@dgCollisionCompoundBreakable@@@@QAE@XZ 10052710 f i physics:dgCollisionCompoundBreakable.obj
 0001:00051740       ??A?$dgArray@VdgFlatVertex@dgCollisionCompoundBreakable@@@@QAEAAVdgFlatVertex@dgCollisionCompoundBreakable@@H@Z 10052740 f i physics:dgCollisionCompoundBreakable.obj
 0001:000517a0       ??0?$dgList@VdgSubMesh@dgCollisionCompoundBreakable@@@@QAE@QAVdgMemoryAllocator@@@Z 100527a0 f i physics:dgCollisionCompoundBreakable.obj
 0001:000517e0       ??1?$dgList@VdgSubMesh@dgCollisionCompoundBreakable@@@@QAE@XZ 100527e0 f i physics:dgCollisionCompoundBreakable.obj
 0001:00051800       ?GetAllocator@?$dgList@VdgSubMesh@dgCollisionCompoundBreakable@@@@QBEPAVdgMemoryAllocator@@XZ 10052800 f i physics:dgCollisionCompoundBreakable.obj
 0001:00051820       ?GetCount@?$dgList@VdgSubMesh@dgCollisionCompoundBreakable@@@@QBEHXZ 10052820 f i physics:dgCollisionCompoundBreakable.obj
 0001:00051830       ?Append@?$dgList@VdgSubMesh@dgCollisionCompoundBreakable@@@@QAEPAVdgListNode@1@ABVdgSubMesh@dgCollisionCompoundBreakable@@@Z 10052830 f i physics:dgCollisionCompoundBreakable.obj
 0001:000518f0       ?GetAllocator@?$dgList@V?$dgGraphNode@VdgDebriNodeInfo@dgCollisionCompoundBreakable@@VdgSharedNodeMesh@2@@@@@QBEPAVdgMemoryAllocator@@XZ 100528f0 f i physics:dgCollisionCompoundBreakable.obj
 0001:00051910       ??0?$dgGraph@VdgDebriNodeInfo@dgCollisionCompoundBreakable@@VdgSharedNodeMesh@2@@@QAE@QAVdgMemoryAllocator@@@Z 10052910 f i physics:dgCollisionCompoundBreakable.obj
 0001:00051940       ??1?$dgGraph@VdgDebriNodeInfo@dgCollisionCompoundBreakable@@VdgSharedNodeMesh@2@@@QAE@XZ 10052940 f i physics:dgCollisionCompoundBreakable.obj
 0001:00051960       ?AddNode@?$dgGraph@VdgDebriNodeInfo@dgCollisionCompoundBreakable@@VdgSharedNodeMesh@2@@@QAEPAVdgListNode@?$dgList@V?$dgGraphNode@VdgDebriNodeInfo@dgCollisionCompoundBreakable@@VdgSharedNodeMesh@2@@@@@XZ 10052960 f i physics:dgCollisionCompoundBreakable.obj
 0001:000519c0       ?DeleteNode@?$dgGraph@VdgDebriNodeInfo@dgCollisionCompoundBreakable@@VdgSharedNodeMesh@2@@@QAEXQAVdgListNode@?$dgList@V?$dgGraphNode@VdgDebriNodeInfo@dgCollisionCompoundBreakable@@VdgSharedNodeMesh@2@@@@@@Z 100529c0 f i physics:dgCollisionCompoundBreakable.obj
 0001:00051a60       ??0?$dgList@PAVdgListNode@?$dgList@V?$dgGraphNode@VdgDebriNodeInfo@dgCollisionCompoundBreakable@@VdgSharedNodeMesh@2@@@@@@@QAE@QAVdgMemoryAllocator@@@Z 10052a60 f i physics:dgCollisionCompoundBreakable.obj
 0001:00051aa0       ??1?$dgList@PAVdgListNode@?$dgList@V?$dgGraphNode@VdgDebriNodeInfo@dgCollisionCompoundBreakable@@VdgSharedNodeMesh@2@@@@@@@QAE@XZ 10052aa0 f i physics:dgCollisionCompoundBreakable.obj
 0001:00051ac0       ?GetFirst@?$dgList@PAVdgListNode@?$dgList@V?$dgGraphNode@VdgDebriNodeInfo@dgCollisionCompoundBreakable@@VdgSharedNodeMesh@2@@@@@@@QBEPAVdgListNode@1@XZ 10052ac0 f i physics:dgCollisionCompoundBreakable.obj
 0001:00051ae0       ?Append@?$dgList@PAVdgListNode@?$dgList@V?$dgGraphNode@VdgDebriNodeInfo@dgCollisionCompoundBreakable@@VdgSharedNodeMesh@2@@@@@@@QAEPAVdgListNode@1@ABQAV2?$dgList@V?$dgGraphNode@VdgDebriNodeInfo@dgCollisionCompoundBreakable@@VdgSharedNodeMesh@2@@@@@@Z 10052ae0 f i physics:dgCollisionCompoundBreakable.obj
 0001:00051ba0       ?Remove@?$dgList@PAVdgListNode@?$dgList@V?$dgGraphNode@VdgDebriNodeInfo@dgCollisionCompoundBreakable@@VdgSharedNodeMesh@2@@@@@@@QAEXABQAVdgListNode@?$dgList@V?$dgGraphNode@VdgDebriNodeInfo@dgCollisionCompoundBreakable@@VdgSharedNodeMesh@2@@@@@@Z 10052ba0 f i physics:dgCollisionCompoundBreakable.obj
 0001:00051bd0       ?Remove@?$dgList@PAVdgListNode@?$dgList@V?$dgGraphNode@VdgDebriNodeInfo@dgCollisionCompoundBreakable@@VdgSharedNodeMesh@2@@@@@@@QAEXQAVdgListNode@1@@Z 10052bd0 f i physics:dgCollisionCompoundBreakable.obj
 0001:00051c20       ?RemoveAll@?$dgList@PAVdgListNode@?$dgList@V?$dgGraphNode@VdgDebriNodeInfo@dgCollisionCompoundBreakable@@VdgSharedNodeMesh@2@@@@@@@QAEXXZ 10052c20 f i physics:dgCollisionCompoundBreakable.obj
 0001:00051ce0       ?GetCount@?$dgList@V?$dgGraphEdge@VdgDebriNodeInfo@dgCollisionCompoundBreakable@@VdgSharedNodeMesh@2@@@@@QBEHXZ 10052ce0 f i physics:dgCollisionCompoundBreakable.obj
 0001:00051cf0       ?GetFirst@?$dgList@V?$dgGraphEdge@VdgDebriNodeInfo@dgCollisionCompoundBreakable@@VdgSharedNodeMesh@2@@@@@QBEPAVdgListNode@1@XZ 10052cf0 f i physics:dgCollisionCompoundBreakable.obj
 0001:00051d10       ?AddEdge@?$dgGraphNode@VdgDebriNodeInfo@dgCollisionCompoundBreakable@@VdgSharedNodeMesh@2@@@QAEPAVdgListNode@?$dgList@V?$dgGraphEdge@VdgDebriNodeInfo@dgCollisionCompoundBreakable@@VdgSharedNodeMesh@2@@@@@QAV2?$dgList@V?$dgGraphNode@VdgDebriNodeInfo@dgCollisionCompoundBreakable@@VdgSharedNodeMesh@2@@@@@@Z 10052d10 f i physics:dgCollisionCompoundBreakable.obj
 0001:00051d40       ?DeleteEdge@?$dgGraphNode@VdgDebriNodeInfo@dgCollisionCompoundBreakable@@VdgSharedNodeMesh@2@@@QAEXQAVdgListNode@?$dgList@V?$dgGraphEdge@VdgDebriNodeInfo@dgCollisionCompoundBreakable@@VdgSharedNodeMesh@2@@@@@@Z 10052d40 f i physics:dgCollisionCompoundBreakable.obj
 0001:00051dc0       ??0?$dgStack@PAVdgListNode@?$dgList@V?$dgGraphNode@VdgDebriNodeInfo@dgCollisionCompoundBreakable@@VdgSharedNodeMesh@2@@@@@@@QAE@H@Z 10052dc0 f i physics:dgCollisionCompoundBreakable.obj
 0001:00051df0       ??1?$dgStack@PAVdgListNode@?$dgList@V?$dgGraphNode@VdgDebriNodeInfo@dgCollisionCompoundBreakable@@VdgSharedNodeMesh@2@@@@@@@QAE@XZ 10052df0 f i physics:dgCollisionCompoundBreakable.obj
 0001:00051e10       ??A?$dgStack@PAVdgListNode@?$dgList@V?$dgGraphNode@VdgDebriNodeInfo@dgCollisionCompoundBreakable@@VdgSharedNodeMesh@2@@@@@@@QAEAAPAVdgListNode@?$dgList@V?$dgGraphNode@VdgDebriNodeInfo@dgCollisionCompoundBreakable@@VdgSharedNodeMesh@2@@@@@H@Z 10052e10 f i physics:dgCollisionCompoundBreakable.obj
 0001:00051e90       ??0?$dgTree@PAVdgListNode@?$dgList@V?$dgGraphNode@VdgDebriNodeInfo@dgCollisionCompoundBreakable@@VdgSharedNodeMesh@2@@@@@PAV12@@@QAE@QAVdgMemoryAllocator@@@Z 10052e90 f i physics:dgCollisionCompoundBreakable.obj
 0001:00051ec0       ??1?$dgTree@PAVdgListNode@?$dgList@V?$dgGraphNode@VdgDebriNodeInfo@dgCollisionCompoundBreakable@@VdgSharedNodeMesh@2@@@@@PAV12@@@QAE@XZ 10052ec0 f i physics:dgCollisionCompoundBreakable.obj
 0001:00051ee0       ?Find@?$dgTree@PAVdgListNode@?$dgList@V?$dgGraphNode@VdgDebriNodeInfo@dgCollisionCompoundBreakable@@VdgSharedNodeMesh@2@@@@@PAV12@@@QBEPAVdgTreeNode@1@PAVdgListNode@?$dgList@V?$dgGraphNode@VdgDebriNodeInfo@dgCollisionCompoundBreakable@@VdgSharedNodeMesh@2@@@@@@Z 10052ee0 f i physics:dgCollisionCompoundBreakable.obj
 0001:00052000       ?Insert@?$dgTree@PAVdgListNode@?$dgList@V?$dgGraphNode@VdgDebriNodeInfo@dgCollisionCompoundBreakable@@VdgSharedNodeMesh@2@@@@@PAV12@@@QAEPAVdgTreeNode@1@ABQAVdgListNode@?$dgList@V?$dgGraphNode@VdgDebriNodeInfo@dgCollisionCompoundBreakable@@VdgSharedNodeMesh@2@@@@@PAV34@@Z 10053000 f i physics:dgCollisionCompoundBreakable.obj
 0001:00052040       ??0?$dgTree@HPAVdgListNode@?$dgList@V?$dgGraphNode@VdgDebriNodeInfo@dgCollisionCompoundBreakable@@VdgSharedNodeMesh@2@@@@@@@QAE@QAVdgMemoryAllocator@@@Z 10053040 f i physics:dgCollisionCompoundBreakable.obj
 0001:00052070       ??1?$dgTree@HPAVdgListNode@?$dgList@V?$dgGraphNode@VdgDebriNodeInfo@dgCollisionCompoundBreakable@@VdgSharedNodeMesh@2@@@@@@@QAE@XZ 10053070 f i physics:dgCollisionCompoundBreakable.obj
 0001:00052090       ?Find@?$dgTree@HPAVdgListNode@?$dgList@V?$dgGraphNode@VdgDebriNodeInfo@dgCollisionCompoundBreakable@@VdgSharedNodeMesh@2@@@@@@@QBEPAVdgTreeNode@1@PAVdgListNode@?$dgList@V?$dgGraphNode@VdgDebriNodeInfo@dgCollisionCompoundBreakable@@VdgSharedNodeMesh@2@@@@@@Z 10053090 f i physics:dgCollisionCompoundBreakable.obj
 0001:000521b0       ?Insert@?$dgTree@HPAVdgListNode@?$dgList@V?$dgGraphNode@VdgDebriNodeInfo@dgCollisionCompoundBreakable@@VdgSharedNodeMesh@2@@@@@@@QAEPAVdgTreeNode@1@ABHPAVdgListNode@?$dgList@V?$dgGraphNode@VdgDebriNodeInfo@dgCollisionCompoundBreakable@@VdgSharedNodeMesh@2@@@@@@Z 100531b0 f i physics:dgCollisionCompoundBreakable.obj
 0001:000521f0       ??0?$dgStack@PAVdgConvexCollision@@@@QAE@H@Z 100531f0 f i physics:dgCollisionCompoundBreakable.obj
 0001:00052220       ??1?$dgStack@PAVdgConvexCollision@@@@QAE@XZ 10053220 f i physics:dgCollisionCompoundBreakable.obj
 0001:00052240       ??A?$dgStack@PAVdgConvexCollision@@@@QAEAAPAVdgConvexCollision@@H@Z 10053240 f i physics:dgCollisionCompoundBreakable.obj
 0001:000522c0       ??0?$dgTree@VdgCompoundBreakableFilterData@dgCollisionCompoundBreakable@@PAVdgConvexCollision@@@@QAE@QAVdgMemoryAllocator@@@Z 100532c0 f i physics:dgCollisionCompoundBreakable.obj
 0001:000522f0       ??1?$dgTree@VdgCompoundBreakableFilterData@dgCollisionCompoundBreakable@@PAVdgConvexCollision@@@@QAE@XZ 100532f0 f i physics:dgCollisionCompoundBreakable.obj
 0001:00052310       ?Find@?$dgTree@VdgCompoundBreakableFilterData@dgCollisionCompoundBreakable@@PAVdgConvexCollision@@@@QBEPAVdgTreeNode@1@PAVdgConvexCollision@@@Z 10053310 f i physics:dgCollisionCompoundBreakable.obj
 0001:00052430       ?Insert@?$dgTree@VdgCompoundBreakableFilterData@dgCollisionCompoundBreakable@@PAVdgConvexCollision@@@@QAEPAVdgTreeNode@1@ABVdgCompoundBreakableFilterData@dgCollisionCompoundBreakable@@PAVdgConvexCollision@@@Z 10053430 f i physics:dgCollisionCompoundBreakable.obj
 0001:00052470       ??_GdgListNode@?$dgList@PAVdgListNode@?$dgList@V?$dgGraphNode@VdgDebriNodeInfo@dgCollisionCompoundBreakable@@VdgSharedNodeMesh@2@@@@@@@AAEPAXI@Z 10053470 f i physics:dgCollisionCompoundBreakable.obj
 0001:000524a0       ??2dgListNode@?$dgList@VdgSubMesh@dgCollisionCompoundBreakable@@@@CAPAXIQAVdgMemoryAllocator@@@Z 100534a0 f i physics:dgCollisionCompoundBreakable.obj
 0001:000524c0       ??0dgListNode@?$dgList@VdgSubMesh@dgCollisionCompoundBreakable@@@@AAE@ABVdgSubMesh@dgCollisionCompoundBreakable@@QAV01@1@Z 100534c0 f i physics:dgCollisionCompoundBreakable.obj
 0001:00052570       ?GetLeft@dgTreeNode@?$dgTree@PAVdgListNode@?$dgList@V?$dgGraphNode@VdgDebriNodeInfo@dgCollisionCompoundBreakable@@VdgSharedNodeMesh@2@@@@@PAV12@@@ABEPAV12@XZ 10053570 f i physics:dgCollisionCompoundBreakable.obj
 0001:00052580       ?GetRight@dgTreeNode@?$dgTree@PAVdgListNode@?$dgList@V?$dgGraphNode@VdgDebriNodeInfo@dgCollisionCompoundBreakable@@VdgSharedNodeMesh@2@@@@@PAV12@@@ABEPAV12@XZ 10053580 f i physics:dgCollisionCompoundBreakable.obj
 0001:000525a0       ?GetLeft@dgTreeNode@?$dgTree@HPAVdgListNode@?$dgList@V?$dgGraphNode@VdgDebriNodeInfo@dgCollisionCompoundBreakable@@VdgSharedNodeMesh@2@@@@@@@ABEPAV12@XZ 100535a0 f i physics:dgCollisionCompoundBreakable.obj
 0001:000525b0       ?GetRight@dgTreeNode@?$dgTree@HPAVdgListNode@?$dgList@V?$dgGraphNode@VdgDebriNodeInfo@dgCollisionCompoundBreakable@@VdgSharedNodeMesh@2@@@@@@@ABEPAV12@XZ 100535b0 f i physics:dgCollisionCompoundBreakable.obj
 0001:000525d0       ?GetLeft@dgTreeNode@?$dgTree@VdgCompoundBreakableFilterData@dgCollisionCompoundBreakable@@PAVdgConvexCollision@@@@ABEPAV12@XZ 100535d0 f i physics:dgCollisionCompoundBreakable.obj
 0001:000525e0       ?GetRight@dgTreeNode@?$dgTree@VdgCompoundBreakableFilterData@dgCollisionCompoundBreakable@@PAVdgConvexCollision@@@@ABEPAV12@XZ 100535e0 f i physics:dgCollisionCompoundBreakable.obj
 0001:00052600       ??2dgListNode@?$dgList@PAVdgListNode@?$dgList@V?$dgGraphNode@VdgDebriNodeInfo@dgCollisionCompoundBreakable@@VdgSharedNodeMesh@2@@@@@@@CAPAXIQAVdgMemoryAllocator@@@Z 10053600 f i physics:dgCollisionCompoundBreakable.obj
 0001:00052620       ??3dgListNode@?$dgList@PAVdgListNode@?$dgList@V?$dgGraphNode@VdgDebriNodeInfo@dgCollisionCompoundBreakable@@VdgSharedNodeMesh@2@@@@@@@CAXPAX@Z 10053620 f i physics:dgCollisionCompoundBreakable.obj
 0001:00052640       ??0dgListNode@?$dgList@PAVdgListNode@?$dgList@V?$dgGraphNode@VdgDebriNodeInfo@dgCollisionCompoundBreakable@@VdgSharedNodeMesh@2@@@@@@@AAE@ABQAV0?$dgList@V?$dgGraphNode@VdgDebriNodeInfo@dgCollisionCompoundBreakable@@VdgSharedNodeMesh@2@@@@@QAV01@1@Z 10053640 f i physics:dgCollisionCompoundBreakable.obj
 0001:000526d0       ??1dgListNode@?$dgList@PAVdgListNode@?$dgList@V?$dgGraphNode@VdgDebriNodeInfo@dgCollisionCompoundBreakable@@VdgSharedNodeMesh@2@@@@@@@AAE@XZ 100536d0 f i physics:dgCollisionCompoundBreakable.obj
 0001:000526e0       ?Unlink@dgListNode@?$dgList@PAVdgListNode@?$dgList@V?$dgGraphNode@VdgDebriNodeInfo@dgCollisionCompoundBreakable@@VdgSharedNodeMesh@2@@@@@@@AAEXXZ 100536e0 f i physics:dgCollisionCompoundBreakable.obj
 0001:00052730       ?Resize@?$dgArray@VdgFlatVertex@dgCollisionCompoundBreakable@@@@QBEXH@Z 10053730 f i physics:dgCollisionCompoundBreakable.obj
 0001:000528a0       ?RemoveAll@?$dgList@VdgSubMesh@dgCollisionCompoundBreakable@@@@QAEXXZ 100538a0 f i physics:dgCollisionCompoundBreakable.obj
 0001:00052960       ??0?$dgList@V?$dgGraphNode@VdgDebriNodeInfo@dgCollisionCompoundBreakable@@VdgSharedNodeMesh@2@@@@@QAE@QAVdgMemoryAllocator@@@Z 10053960 f i physics:dgCollisionCompoundBreakable.obj
 0001:000529a0       ??1?$dgList@V?$dgGraphNode@VdgDebriNodeInfo@dgCollisionCompoundBreakable@@VdgSharedNodeMesh@2@@@@@QAE@XZ 100539a0 f i physics:dgCollisionCompoundBreakable.obj
 0001:000529c0       ?Append@?$dgList@V?$dgGraphNode@VdgDebriNodeInfo@dgCollisionCompoundBreakable@@VdgSharedNodeMesh@2@@@@@QAEPAVdgListNode@1@XZ 100539c0 f i physics:dgCollisionCompoundBreakable.obj
 0001:00052a80       ?Remove@?$dgList@V?$dgGraphNode@VdgDebriNodeInfo@dgCollisionCompoundBreakable@@VdgSharedNodeMesh@2@@@@@QAEXQAVdgListNode@1@@Z 10053a80 f i physics:dgCollisionCompoundBreakable.obj
 0001:00052ad0       ?SetAllocator@?$dgList@V?$dgGraphEdge@VdgDebriNodeInfo@dgCollisionCompoundBreakable@@VdgSharedNodeMesh@2@@@@@QAEXQAVdgMemoryAllocator@@@Z 10053ad0 f i physics:dgCollisionCompoundBreakable.obj
 0001:00052b00       ?Append@?$dgList@V?$dgGraphEdge@VdgDebriNodeInfo@dgCollisionCompoundBreakable@@VdgSharedNodeMesh@2@@@@@QAEPAVdgListNode@1@XZ 10053b00 f i physics:dgCollisionCompoundBreakable.obj
 0001:00052bc0       ?Remove@?$dgList@V?$dgGraphEdge@VdgDebriNodeInfo@dgCollisionCompoundBreakable@@VdgSharedNodeMesh@2@@@@@QAEXQAVdgListNode@1@@Z 10053bc0 f i physics:dgCollisionCompoundBreakable.obj
 0001:00052c10       ?Find@?$dgList@PAVdgListNode@?$dgList@V?$dgGraphNode@VdgDebriNodeInfo@dgCollisionCompoundBreakable@@VdgSharedNodeMesh@2@@@@@@@QBEPAVdgListNode@1@ABQAV2?$dgList@V?$dgGraphNode@VdgDebriNodeInfo@dgCollisionCompoundBreakable@@VdgSharedNodeMesh@2@@@@@@Z 10053c10 f i physics:dgCollisionCompoundBreakable.obj
 0001:00052c50       ?Unlink@?$dgList@PAVdgListNode@?$dgList@V?$dgGraphNode@VdgDebriNodeInfo@dgCollisionCompoundBreakable@@VdgSharedNodeMesh@2@@@@@@@QAEXQAVdgListNode@1@@Z 10053c50 f i physics:dgCollisionCompoundBreakable.obj
 0001:00052d00       ?DeleteHalfEdge@?$dgGraphNode@VdgDebriNodeInfo@dgCollisionCompoundBreakable@@VdgSharedNodeMesh@2@@@QAEXQAVdgListNode@?$dgList@V?$dgGraphEdge@VdgDebriNodeInfo@dgCollisionCompoundBreakable@@VdgSharedNodeMesh@2@@@@@@Z 10053d00 f i physics:dgCollisionCompoundBreakable.obj
 0001:00052d20       ?Insert@?$dgTree@PAVdgListNode@?$dgList@V?$dgGraphNode@VdgDebriNodeInfo@dgCollisionCompoundBreakable@@VdgSharedNodeMesh@2@@@@@PAV12@@@QAEPAVdgTreeNode@1@ABQAVdgListNode@?$dgList@V?$dgGraphNode@VdgDebriNodeInfo@dgCollisionCompoundBreakable@@VdgSharedNodeMesh@2@@@@@PAV34@AA_N@Z 10053d20 f i physics:dgCollisionCompoundBreakable.obj
 0001:00052f20       ?RemoveAll@?$dgTree@PAVdgListNode@?$dgList@V?$dgGraphNode@VdgDebriNodeInfo@dgCollisionCompoundBreakable@@VdgSharedNodeMesh@2@@@@@PAV12@@@QAEXXZ 10053f20 f i physics:dgCollisionCompoundBreakable.obj
 0001:00052f60       ?CompareKeys@?$dgTree@PAVdgListNode@?$dgList@V?$dgGraphNode@VdgDebriNodeInfo@dgCollisionCompoundBreakable@@VdgSharedNodeMesh@2@@@@@PAV12@@@ABEHABQAVdgListNode@?$dgList@V?$dgGraphNode@VdgDebriNodeInfo@dgCollisionCompoundBreakable@@VdgSharedNodeMesh@2@@@@@0@Z 10053f60 f i physics:dgCollisionCompoundBreakable.obj
 0001:00052fa0       ?Insert@?$dgTree@HPAVdgListNode@?$dgList@V?$dgGraphNode@VdgDebriNodeInfo@dgCollisionCompoundBreakable@@VdgSharedNodeMesh@2@@@@@@@QAEPAVdgTreeNode@1@ABHPAVdgListNode@?$dgList@V?$dgGraphNode@VdgDebriNodeInfo@dgCollisionCompoundBreakable@@VdgSharedNodeMesh@2@@@@@AA_N@Z 10053fa0 f i physics:dgCollisionCompoundBreakable.obj
 0001:000531a0       ?RemoveAll@?$dgTree@HPAVdgListNode@?$dgList@V?$dgGraphNode@VdgDebriNodeInfo@dgCollisionCompoundBreakable@@VdgSharedNodeMesh@2@@@@@@@QAEXXZ 100541a0 f i physics:dgCollisionCompoundBreakable.obj
 0001:000531e0       ?CompareKeys@?$dgTree@HPAVdgListNode@?$dgList@V?$dgGraphNode@VdgDebriNodeInfo@dgCollisionCompoundBreakable@@VdgSharedNodeMesh@2@@@@@@@ABEHABQAVdgListNode@?$dgList@V?$dgGraphNode@VdgDebriNodeInfo@dgCollisionCompoundBreakable@@VdgSharedNodeMesh@2@@@@@0@Z 100541e0 f i physics:dgCollisionCompoundBreakable.obj
 0001:00053220       ?Insert@?$dgTree@VdgCompoundBreakableFilterData@dgCollisionCompoundBreakable@@PAVdgConvexCollision@@@@QAEPAVdgTreeNode@1@ABVdgCompoundBreakableFilterData@dgCollisionCompoundBreakable@@PAVdgConvexCollision@@AA_N@Z 10054220 f i physics:dgCollisionCompoundBreakable.obj
 0001:00053420       ?RemoveAll@?$dgTree@VdgCompoundBreakableFilterData@dgCollisionCompoundBreakable@@PAVdgConvexCollision@@@@QAEXXZ 10054420 f i physics:dgCollisionCompoundBreakable.obj
 0001:00053460       ?CompareKeys@?$dgTree@VdgCompoundBreakableFilterData@dgCollisionCompoundBreakable@@PAVdgConvexCollision@@@@ABEHABQAVdgConvexCollision@@0@Z 10054460 f i physics:dgCollisionCompoundBreakable.obj
 0001:000534a0       ??_GdgListNode@?$dgList@VdgSubMesh@dgCollisionCompoundBreakable@@@@AAEPAXI@Z 100544a0 f i physics:dgCollisionCompoundBreakable.obj
 0001:000534d0       ??_GdgListNode@?$dgList@V?$dgGraphNode@VdgDebriNodeInfo@dgCollisionCompoundBreakable@@VdgSharedNodeMesh@2@@@@@AAEPAXI@Z 100544d0 f i physics:dgCollisionCompoundBreakable.obj
 0001:00053500       ??_GdgListNode@?$dgList@V?$dgGraphEdge@VdgDebriNodeInfo@dgCollisionCompoundBreakable@@VdgSharedNodeMesh@2@@@@@AAEPAXI@Z 10054500 f i physics:dgCollisionCompoundBreakable.obj
 0001:00053530       ??2dgListNode@?$dgList@V?$dgGraphNode@VdgDebriNodeInfo@dgCollisionCompoundBreakable@@VdgSharedNodeMesh@2@@@@@CAPAXIQAVdgMemoryAllocator@@@Z 10054530 f i physics:dgCollisionCompoundBreakable.obj
 0001:00053550       ??3dgListNode@?$dgList@V?$dgGraphNode@VdgDebriNodeInfo@dgCollisionCompoundBreakable@@VdgSharedNodeMesh@2@@@@@CAXPAX@Z 10054550 f i physics:dgCollisionCompoundBreakable.obj
 0001:00053570       ??0dgListNode@?$dgList@V?$dgGraphNode@VdgDebriNodeInfo@dgCollisionCompoundBreakable@@VdgSharedNodeMesh@2@@@@@AAE@QAV01@0@Z 10054570 f i physics:dgCollisionCompoundBreakable.obj
 0001:00053600       ??1dgListNode@?$dgList@V?$dgGraphNode@VdgDebriNodeInfo@dgCollisionCompoundBreakable@@VdgSharedNodeMesh@2@@@@@AAE@XZ 10054600 f i physics:dgCollisionCompoundBreakable.obj
 0001:00053620       ??3dgListNode@?$dgList@VdgSubMesh@dgCollisionCompoundBreakable@@@@CAXPAX@Z 10054620 f i physics:dgCollisionCompoundBreakable.obj
 0001:00053640       ??1dgListNode@?$dgList@VdgSubMesh@dgCollisionCompoundBreakable@@@@AAE@XZ 10054640 f i physics:dgCollisionCompoundBreakable.obj
 0001:00053660       ?Unlink@dgListNode@?$dgList@VdgSubMesh@dgCollisionCompoundBreakable@@@@AAEXXZ 10054660 f i physics:dgCollisionCompoundBreakable.obj
 0001:000536b0       ??0dgTreeNode@?$dgTree@PAVdgListNode@?$dgList@V?$dgGraphNode@VdgDebriNodeInfo@dgCollisionCompoundBreakable@@VdgSharedNodeMesh@2@@@@@PAV12@@@AAE@ABQAVdgListNode@?$dgList@V?$dgGraphNode@VdgDebriNodeInfo@dgCollisionCompoundBreakable@@VdgSharedNodeMesh@2@@@@@0PAV01@@Z 100546b0 f i physics:dgCollisionCompoundBreakable.obj
 0001:00053720       ??2dgListNode@?$dgList@V?$dgGraphEdge@VdgDebriNodeInfo@dgCollisionCompoundBreakable@@VdgSharedNodeMesh@2@@@@@CAPAXIQAVdgMemoryAllocator@@@Z 10054720 f i physics:dgCollisionCompoundBreakable.obj
 0001:00053740       ??3dgListNode@?$dgList@V?$dgGraphEdge@VdgDebriNodeInfo@dgCollisionCompoundBreakable@@VdgSharedNodeMesh@2@@@@@CAXPAX@Z 10054740 f i physics:dgCollisionCompoundBreakable.obj
 0001:00053760       ??0dgListNode@?$dgList@V?$dgGraphEdge@VdgDebriNodeInfo@dgCollisionCompoundBreakable@@VdgSharedNodeMesh@2@@@@@AAE@QAV01@0@Z 10054760 f i physics:dgCollisionCompoundBreakable.obj
 0001:000537f0       ??1dgListNode@?$dgList@V?$dgGraphEdge@VdgDebriNodeInfo@dgCollisionCompoundBreakable@@VdgSharedNodeMesh@2@@@@@AAE@XZ 100547f0 f i physics:dgCollisionCompoundBreakable.obj
 0001:00053810       ??0dgTreeNode@?$dgTree@HPAVdgListNode@?$dgList@V?$dgGraphNode@VdgDebriNodeInfo@dgCollisionCompoundBreakable@@VdgSharedNodeMesh@2@@@@@@@AAE@ABHABQAVdgListNode@?$dgList@V?$dgGraphNode@VdgDebriNodeInfo@dgCollisionCompoundBreakable@@VdgSharedNodeMesh@2@@@@@PAV01@@Z 10054810 f i physics:dgCollisionCompoundBreakable.obj
 0001:00053880       ??0dgTreeNode@?$dgTree@VdgCompoundBreakableFilterData@dgCollisionCompoundBreakable@@PAVdgConvexCollision@@@@AAE@ABVdgCompoundBreakableFilterData@dgCollisionCompoundBreakable@@ABQAVdgConvexCollision@@PAV01@@Z 10054880 f i physics:dgCollisionCompoundBreakable.obj
 0001:00053900       ?GetPrev@dgListNode@?$dgList@PAVdgListNode@?$dgList@V?$dgGraphNode@VdgDebriNodeInfo@dgCollisionCompoundBreakable@@VdgSharedNodeMesh@2@@@@@@@QBEPAV12@XZ 10054900 f i physics:dgCollisionCompoundBreakable.obj
 0001:00053920       ?RemoveAll@?$dgList@V?$dgGraphNode@VdgDebriNodeInfo@dgCollisionCompoundBreakable@@VdgSharedNodeMesh@2@@@@@QAEXXZ 10054920 f i physics:dgCollisionCompoundBreakable.obj
 0001:000539e0       ?Unlink@?$dgList@V?$dgGraphNode@VdgDebriNodeInfo@dgCollisionCompoundBreakable@@VdgSharedNodeMesh@2@@@@@QAEXQAVdgListNode@1@@Z 100549e0 f i physics:dgCollisionCompoundBreakable.obj
 0001:00053a90       ?Unlink@?$dgList@V?$dgGraphEdge@VdgDebriNodeInfo@dgCollisionCompoundBreakable@@VdgSharedNodeMesh@2@@@@@QAEXQAVdgListNode@1@@Z 10054a90 f i physics:dgCollisionCompoundBreakable.obj
 0001:00053b40       ??0?$dgGraphNode@VdgDebriNodeInfo@dgCollisionCompoundBreakable@@VdgSharedNodeMesh@2@@@QAE@XZ 10054b40 f i physics:dgCollisionCompoundBreakable.obj
 0001:00053b70       ??1?$dgGraphNode@VdgDebriNodeInfo@dgCollisionCompoundBreakable@@VdgSharedNodeMesh@2@@@QAE@XZ 10054b70 f i physics:dgCollisionCompoundBreakable.obj
 0001:00053b90       ??0?$dgGraphEdge@VdgDebriNodeInfo@dgCollisionCompoundBreakable@@VdgSharedNodeMesh@2@@@QAE@XZ 10054b90 f i physics:dgCollisionCompoundBreakable.obj
 0001:00053bb0       ??1?$dgGraphEdge@VdgDebriNodeInfo@dgCollisionCompoundBreakable@@VdgSharedNodeMesh@2@@@QAE@XZ 10054bb0 f i physics:dgCollisionCompoundBreakable.obj
 0001:00053bd0       ?Unlink@dgListNode@?$dgList@V?$dgGraphNode@VdgDebriNodeInfo@dgCollisionCompoundBreakable@@VdgSharedNodeMesh@2@@@@@AAEXXZ 10054bd0 f i physics:dgCollisionCompoundBreakable.obj
 0001:00053c20       ?GetPrev@dgListNode@?$dgList@V?$dgGraphNode@VdgDebriNodeInfo@dgCollisionCompoundBreakable@@VdgSharedNodeMesh@2@@@@@QBEPAV12@XZ 10054c20 f i physics:dgCollisionCompoundBreakable.obj
 0001:00053c40       ?Unlink@dgListNode@?$dgList@V?$dgGraphEdge@VdgDebriNodeInfo@dgCollisionCompoundBreakable@@VdgSharedNodeMesh@2@@@@@AAEXXZ 10054c40 f i physics:dgCollisionCompoundBreakable.obj
 0001:00053c90       ?GetPrev@dgListNode@?$dgList@V?$dgGraphEdge@VdgDebriNodeInfo@dgCollisionCompoundBreakable@@VdgSharedNodeMesh@2@@@@@QBEPAV12@XZ 10054c90 f i physics:dgCollisionCompoundBreakable.obj
 0001:00053cb0       ??0?$dgList@V?$dgGraphEdge@VdgDebriNodeInfo@dgCollisionCompoundBreakable@@VdgSharedNodeMesh@2@@@@@QAE@QAVdgMemoryAllocator@@@Z 10054cb0 f i physics:dgCollisionCompoundBreakable.obj
 0001:00053cf0       ??1?$dgList@V?$dgGraphEdge@VdgDebriNodeInfo@dgCollisionCompoundBreakable@@VdgSharedNodeMesh@2@@@@@QAE@XZ 10054cf0 f i physics:dgCollisionCompoundBreakable.obj
 0001:00053d10       ?RemoveAll@?$dgList@V?$dgGraphEdge@VdgDebriNodeInfo@dgCollisionCompoundBreakable@@VdgSharedNodeMesh@2@@@@@QAEXXZ 10054d10 f i physics:dgCollisionCompoundBreakable.obj
 0001:00053dd0       ?Release@dgRefCounter@@QAEHXZ 10054dd0 f i physics:dgCollisionCompoundBreakable.obj
 0001:00053e30       ??0dgCollisionConvexHull@@QAE@QAVdgMemoryAllocator@@IHHMPBMABVdgMatrix@@@Z 10054e30 f   physics:dgCollisionConvexHull.obj
 0001:000543f0       ??0dgCollisionConvexHull@@QAE@QAVdgWorld@@P6AXPAX1I@ZQAX@Z 100553f0 f   physics:dgCollisionConvexHull.obj
 0001:00054650       ??1dgCollisionConvexHull@@UAE@XZ 10055650 f   physics:dgCollisionConvexHull.obj
 0001:00054690       ?GetFaceIndices@dgCollisionConvexHull@@QBEHHPAH@Z 10055690 f   physics:dgCollisionConvexHull.obj
 0001:000546f0       ?FaceNormal@dgCollisionConvexHull@@ABE?AVdgBigVector@@PBVdgEdge@@QBVdgVector@@@Z 100556f0 f   physics:dgCollisionConvexHull.obj
 0001:00054a40       ?RemoveCoplanarEdge@dgCollisionConvexHull@@ABE_NAAVdgPolyhedra@@QAVdgVector@@@Z 10055a40 f   physics:dgCollisionConvexHull.obj
 0001:00055110       ?CheckConvex@dgCollisionConvexHull@@ABE_NAAVdgPolyhedra@@PBVdgVector@@@Z 10056110 f   physics:dgCollisionConvexHull.obj
 0001:000553e0       ?Create@dgCollisionConvexHull@@AAE_NHHQBMM@Z 100563e0 f   physics:dgCollisionConvexHull.obj
 0001:00055be0       ?CalculateSignature@dgCollisionConvexHull@@EBEHXZ 10056be0 f   physics:dgCollisionConvexHull.obj
 0001:00055c20       ?SetBreakImpulse@dgCollisionConvexHull@@EAEXM@Z 10056c20 f   physics:dgCollisionConvexHull.obj
 0001:00055c40       ?GetBreakImpulse@dgCollisionConvexHull@@EBEMXZ 10056c40 f   physics:dgCollisionConvexHull.obj
 0001:00055c60       ?SetCollisionBBox@dgCollisionConvexHull@@EAEXABVdgVector@@0@Z 10056c60 f   physics:dgCollisionConvexHull.obj
 0001:00055ca0       ?DebugCollision@dgCollisionConvexHull@@EBEXABVdgMatrix@@P6AXPAXHPBMH@ZQAX@Z 10056ca0 f   physics:dgCollisionConvexHull.obj
 0001:00055dd0       ?GetCollisionInfo@dgCollisionConvexHull@@EBEXPAVdgCollisionInfo@@@Z 10056dd0 f   physics:dgCollisionConvexHull.obj
 0001:00055e50       ?Serialize@dgCollisionConvexHull@@EBEXP6AXPAXPBXI@ZQAX@Z 10056e50 f   physics:dgCollisionConvexHull.obj
 0001:00056020       ?OOBBTest@dgCollisionConvexHull@@EBE_NABVdgMatrix@@QBVdgConvexCollision@@QAX@Z 10057020 f   physics:dgCollisionConvexHull.obj
 0001:000563e0       ??_EdgCollisionConvexHull@@UAEPAXI@Z 100573e0 f i physics:dgCollisionConvexHull.obj
 0001:000563e0       ??_GdgCollisionConvexHull@@UAEPAXI@Z 100573e0 f i physics:dgCollisionConvexHull.obj
 0001:00056410       ??0dgPlaneLocation@@QAE@XZ 10057410 f i physics:dgCollisionConvexHull.obj
 0001:00056430       ??$Swap@PAVdgConvexSimplexEdge@@@@YAXAAPAVdgConvexSimplexEdge@@0@Z 10057430 f i physics:dgCollisionConvexHull.obj
 0001:00056460       ??Y?$dgTemplateVector@N@@QAEAAV0@ABV0@@Z 10057460 f i physics:dgCollisionConvexHull.obj
 0001:00056540       ?GetRoot@?$dgTree@VdgEdge@@_J@@QBEPAVdgTreeNode@1@XZ 10057540 f i physics:dgCollisionConvexHull.obj
 0001:00056560       ??0?$dgStack@PAVdgEdge@@@@QAE@H@Z 10057560 f i physics:dgCollisionConvexHull.obj
 0001:00056590       ??1?$dgStack@PAVdgEdge@@@@QAE@XZ 10057590 f i physics:dgCollisionConvexHull.obj
 0001:000565b0       ??A?$dgStack@PAVdgEdge@@@@QAEAAPAVdgEdge@@H@Z 100575b0 f i physics:dgCollisionConvexHull.obj
 0001:00056630       ??0?$dgStack@PAVdgConvexSimplexEdge@@@@QAE@H@Z 10057630 f i physics:dgCollisionConvexHull.obj
 0001:00056660       ??1?$dgStack@PAVdgConvexSimplexEdge@@@@QAE@XZ 10057660 f i physics:dgCollisionConvexHull.obj
 0001:00056680       ??A?$dgStack@PAVdgConvexSimplexEdge@@@@QAEAAPAVdgConvexSimplexEdge@@H@Z 10057680 f i physics:dgCollisionConvexHull.obj
 0001:00056700       ??0?$dgStack@VdgTriplex@@@@QAE@H@Z 10057700 f i physics:dgCollisionConvexHull.obj
 0001:00056730       ??1?$dgStack@VdgTriplex@@@@QAE@XZ 10057730 f i physics:dgCollisionConvexHull.obj
 0001:00056750       ??A?$dgStack@VdgTriplex@@@@QAEAAVdgTriplex@@H@Z 10057750 f i physics:dgCollisionConvexHull.obj
 0001:000567d0       ??0dgBigVector@@QAE@PBM@Z  100577d0 f i physics:dgCollisionConvexHull.obj
 0001:000568b0       ??0dgBigVector@@QAE@NNNN@Z 100578b0 f i physics:dgCollisionConvexHull.obj
 0001:00056990       ??0dgPlane@@QAE@XZ         10057990 f i physics:dgCollisionConvexHull.obj
 0001:000569b0       ??0dgPlane@@QAE@ABVdgVector@@M@Z 100579b0 f i physics:dgCollisionConvexHull.obj
 0001:000569f0       ?Scale@dgPlane@@QBE?AV1@M@Z 100579f0 f i physics:dgCollisionConvexHull.obj
 0001:00056a40       ??0dgPlane@@QAE@MMMM@Z     10057a40 f i physics:dgCollisionConvexHull.obj
 0001:00056a80       ?Evalue@dgPlane@@QBEMABVdgVector@@@Z 10057a80 f i physics:dgCollisionConvexHull.obj
 0001:00056ac0       ??0dgBigPlane@@QAE@ABVdgBigVector@@N@Z 10057ac0 f i physics:dgCollisionConvexHull.obj
 0001:00056af0       ?Evalue@dgBigPlane@@QBENABVdgVector@@@Z 10057af0 f i physics:dgCollisionConvexHull.obj
 0001:00056b30       ?GetVertexPool@dgConvexHull3d@@QBEPBVdgVector@@XZ 10057b30 f i physics:dgCollisionConvexHull.obj
 0001:00056b50       ??D?$dgTemplateVector@N@@QBE?AV0@ABV0@@Z 10057b50 f i physics:dgCollisionConvexHull.obj
 0001:00056bd0       ??0dgCollisionScene@@QAE@PAVdgWorld@@@Z 10057bd0 f   physics:dgCollisionScene.obj
 0001:00056cd0       ??0dgCollisionScene@@QAE@QAVdgWorld@@P6AXPAX1I@ZQAX@Z 10057cd0 f   physics:dgCollisionScene.obj
 0001:00057230       ??1dgCollisionScene@@UAE@XZ 10058230 f   physics:dgCollisionScene.obj
 0001:000572e0       ?Serialize@dgCollisionScene@@EBEXP6AXPAXPBXI@ZQAX@Z 100582e0 f   physics:dgCollisionScene.obj
 0001:000578b0       ?AddProxy@dgCollisionScene@@QAEPAXPAVdgCollision@@@Z 100588b0 f   physics:dgCollisionScene.obj
 0001:00057930       ?RemoveProxy@dgCollisionScene@@QAEXPAX@Z 10058930 f   physics:dgCollisionScene.obj
 0001:00057980       ?SetProxyMatrix@dgCollisionScene@@QAEXPAXABVdgMatrix@@@Z 10058980 f   physics:dgCollisionScene.obj
 0001:00057a30       ?SetCollisionCallback@dgCollisionScene@@QAEXP6AXPBVdgBody@@QBV2@HHPBMH@Z@Z 10058a30 f   physics:dgCollisionScene.obj
 0001:00057aa0       ?GetProxyMatrix@dgCollisionScene@@QAE?AVdgMatrix@@PAX@Z 10058aa0 f   physics:dgCollisionScene.obj
 0001:00057b00       ?CalcAABB@dgCollisionScene@@EBEXABVdgMatrix@@AAVdgVector@@1@Z 10058b00 f   physics:dgCollisionScene.obj
 0001:00057d70       ?CalcAABBSimd@dgCollisionScene@@EBEXABVdgMatrix@@AAVdgVector@@1@Z 10058d70 f   physics:dgCollisionScene.obj
 0001:00057da0       ?GetFirstProxy@dgCollisionScene@@QBEPAXXZ 10058da0 f   physics:dgCollisionScene.obj
 0001:00057dc0       ?GetNextProxy@dgCollisionScene@@QBEPAXPAX@Z 10058dc0 f   physics:dgCollisionScene.obj
 0001:00057de0       ?DebugCollision@dgCollisionScene@@EBEXABVdgMatrix@@P6AXPAXHPBMH@ZQAX@Z 10058de0 f   physics:dgCollisionScene.obj
 0001:00057e90       ?GetVolume@dgCollisionScene@@EBEMXZ 10058e90 f   physics:dgCollisionScene.obj
 0001:00057ed0       ?CalculateSignature@dgCollisionScene@@EBEHXZ 10058ed0 f   physics:dgCollisionScene.obj
 0001:00057f10       ?GetBoxMinRadius@dgCollisionScene@@EBEMXZ 10058f10 f   physics:dgCollisionScene.obj
 0001:00057f20       ?GetBoxMaxRadius@dgCollisionScene@@EBEMXZ 10058f20 f   physics:dgCollisionScene.obj
 0001:00057f30       ?SetCollisionBBox@dgCollisionScene@@EAEXABVdgVector@@0@Z 10058f30 f   physics:dgCollisionScene.obj
 0001:00058090       ?CalculateInertia@dgCollisionScene@@EBEXAAVdgVector@@0@Z 10059090 f   physics:dgCollisionScene.obj
 0001:000580d0       ?CalculateVolumeIntegral@dgCollisionScene@@EBE?AVdgVector@@ABVdgMatrix@@P6AIPAX10AAVdgPlane@@@ZQAX@Z 100590d0 f   physics:dgCollisionScene.obj
 0001:00058130       ?GetCollisionInfo@dgCollisionScene@@EBEXPAVdgCollisionInfo@@@Z 10059130 f   physics:dgCollisionScene.obj
 0001:00058180       ?OOBBTest@dgCollisionScene@@EBE_NABVdgMatrix@@QBVdgConvexCollision@@QAX@Z 10059180 f   physics:dgCollisionScene.obj
 0001:000581c0       ?BuildAABB@dgCollisionScene@@ABEXQAPAVdgListNode@?$dgList@UdgProxy@dgCollisionScene@@@@HAAVdgVector@@1@Z 100591c0 f   physics:dgCollisionScene.obj
 0001:00058350       ?GetAxis@dgCollisionScene@@ABEHQAPAVdgListNode@?$dgList@UdgProxy@dgCollisionScene@@@@H@Z 10059350 f   physics:dgCollisionScene.obj
 0001:000584e0       ?RayCastSimd@dgCollisionScene@@EBEMABVdgVector@@0AAVdgContactPoint@@P6AIQBVdgBody@@QBVdgCollision@@QAX@Z24@Z 100594e0 f   physics:dgCollisionScene.obj
 0001:00058930       ?SupportVertex@dgCollisionScene@@EBE?AVdgVector@@ABV2@@Z 10059930 f   physics:dgCollisionScene.obj
 0001:00058990       ?RayCast@dgCollisionScene@@EBEMABVdgVector@@0AAVdgContactPoint@@P6AIQBVdgBody@@QBVdgCollision@@QAX@Z24@Z 10059990 f   physics:dgCollisionScene.obj
 0001:00058de0       ?CollidePairSimd@dgCollisionScene@@QBEXQAUdgPair@dgCollidingPairCollector@@AAVdgCollisionParamProxi@@@Z 10059de0 f   physics:dgCollisionScene.obj
 0001:000592a0       ?CollidePair@dgCollisionScene@@QBEXQAUdgPair@dgCollidingPairCollector@@AAVdgCollisionParamProxi@@@Z 1005a2a0 f   physics:dgCollisionScene.obj
 0001:00059760       ?CompareProxy@dgCollisionScene@@CAHQBVdgListNode@?$dgList@UdgProxy@dgCollisionScene@@@@0PAX@Z 1005a760 f   physics:dgCollisionScene.obj
 0001:00059800       ?SortAABBBoxes@dgCollisionScene@@ABEHQAPAVdgListNode@?$dgList@UdgProxy@dgCollisionScene@@@@H@Z 1005a800 f   physics:dgCollisionScene.obj
 0001:000598d0       ?SortAndSpliteSplite@dgCollisionScene@@ABEHQAPAVdgListNode@?$dgList@UdgProxy@dgCollisionScene@@@@H@Z 1005a8d0 f   physics:dgCollisionScene.obj
 0001:00059c90       ?BuildTree@dgCollisionScene@@AAEPAUdgNode@1@PAU21@QAPAVdgListNode@?$dgList@UdgProxy@dgCollisionScene@@@@HH@Z 1005ac90 f   physics:dgCollisionScene.obj
 0001:00059f50       ?BuildTree@dgCollisionScene@@QAEXXZ 1005af50 f   physics:dgCollisionScene.obj
 0001:0005a0e0       ??_GdgCollisionScene@@UAEPAXI@Z 1005b0e0 f i physics:dgCollisionScene.obj
 0001:0005a0e0       ??_EdgCollisionScene@@UAEPAXI@Z 1005b0e0 f i physics:dgCollisionScene.obj
 0001:0005a110       ??2dgNode@dgCollisionScene@@SAPAXIQAVdgMemoryAllocator@@@Z 1005b110 f i physics:dgCollisionScene.obj
 0001:0005a130       ??0dgNode@dgCollisionScene@@QAE@XZ 1005b130 f i physics:dgCollisionScene.obj
 0001:0005a160       ??_GdgNode@dgCollisionScene@@QAEPAXI@Z 1005b160 f i physics:dgCollisionScene.obj
 0001:0005a190       ??3dgNode@dgCollisionScene@@SAXPAX@Z 1005b190 f i physics:dgCollisionScene.obj
 0001:0005a1b0       ??1dgNode@dgCollisionScene@@QAE@XZ 1005b1b0 f i physics:dgCollisionScene.obj
 0001:0005a230       ?UpdateAABB@dgNode@dgCollisionScene@@QAEXABVdgVector@@0@Z 1005b230 f i physics:dgCollisionScene.obj
 0001:0005a310       ?GetNext@dgListNode@?$dgList@UdgProxy@dgCollisionScene@@@@QBEPAV12@XZ 1005b310 f i physics:dgCollisionScene.obj
 0001:0005a330       ??0?$dgList@UdgProxy@dgCollisionScene@@@@QAE@QAVdgMemoryAllocator@@@Z 1005b330 f i physics:dgCollisionScene.obj
 0001:0005a370       ??1?$dgList@UdgProxy@dgCollisionScene@@@@QAE@XZ 1005b370 f i physics:dgCollisionScene.obj
 0001:0005a390       ?GetCount@?$dgList@UdgProxy@dgCollisionScene@@@@QBEHXZ 1005b390 f i physics:dgCollisionScene.obj
 0001:0005a3a0       ?GetFirst@?$dgList@UdgProxy@dgCollisionScene@@@@QBEPAVdgListNode@1@XZ 1005b3a0 f i physics:dgCollisionScene.obj
 0001:0005a3c0       ?Append@?$dgList@UdgProxy@dgCollisionScene@@@@QAEPAVdgListNode@1@XZ 1005b3c0 f i physics:dgCollisionScene.obj
 0001:0005a480       ?Remove@?$dgList@UdgProxy@dgCollisionScene@@@@QAEXQAVdgListNode@1@@Z 1005b480 f i physics:dgCollisionScene.obj
 0001:0005a4d0       ??0?$dgStack@PAVdgListNode@?$dgList@UdgProxy@dgCollisionScene@@@@@@QAE@H@Z 1005b4d0 f i physics:dgCollisionScene.obj
 0001:0005a500       ??1?$dgStack@PAVdgListNode@?$dgList@UdgProxy@dgCollisionScene@@@@@@QAE@XZ 1005b500 f i physics:dgCollisionScene.obj
 0001:0005a520       ??A?$dgStack@PAVdgListNode@?$dgList@UdgProxy@dgCollisionScene@@@@@@QAEAAPAVdgListNode@?$dgList@UdgProxy@dgCollisionScene@@@@H@Z 1005b520 f i physics:dgCollisionScene.obj
 0001:0005a5a0       ??$dgSortIndirect@VdgListNode@?$dgList@UdgProxy@dgCollisionScene@@@@@@YAXQAPAVdgListNode@?$dgList@UdgProxy@dgCollisionScene@@@@HP6AHQBV01@1QAX@Z2@Z 1005b5a0 f i physics:dgCollisionScene.obj
 0001:0005a920       ??$Swap@PAVdgListNode@?$dgList@UdgProxy@dgCollisionScene@@@@@@YAXAAPAVdgListNode@?$dgList@UdgProxy@dgCollisionScene@@@@0@Z 1005b920 f i physics:dgCollisionScene.obj
 0001:0005a950       ??_GdgListNode@?$dgList@UdgProxy@dgCollisionScene@@@@AAEPAXI@Z 1005b950 f i physics:dgCollisionScene.obj
 0001:0005a980       ??2dgListNode@?$dgList@UdgProxy@dgCollisionScene@@@@CAPAXIQAVdgMemoryAllocator@@@Z 1005b980 f i physics:dgCollisionScene.obj
 0001:0005a9a0       ??3dgListNode@?$dgList@UdgProxy@dgCollisionScene@@@@CAXPAX@Z 1005b9a0 f i physics:dgCollisionScene.obj
 0001:0005a9c0       ??0dgListNode@?$dgList@UdgProxy@dgCollisionScene@@@@AAE@QAV01@0@Z 1005b9c0 f i physics:dgCollisionScene.obj
 0001:0005aa60       ??1dgListNode@?$dgList@UdgProxy@dgCollisionScene@@@@AAE@XZ 1005ba60 f i physics:dgCollisionScene.obj
 0001:0005aa70       ??0dgProxy@dgCollisionScene@@QAE@XZ 1005ba70 f i physics:dgCollisionScene.obj
 0001:0005aaa0       ?RemoveAll@?$dgList@UdgProxy@dgCollisionScene@@@@QAEXXZ 1005baa0 f i physics:dgCollisionScene.obj
 0001:0005ab60       ?Unlink@?$dgList@UdgProxy@dgCollisionScene@@@@QAEXQAVdgListNode@1@@Z 1005bb60 f i physics:dgCollisionScene.obj
 0001:0005ac10       ?Unlink@dgListNode@?$dgList@UdgProxy@dgCollisionScene@@@@AAEXXZ 1005bc10 f i physics:dgCollisionScene.obj
 0001:0005ac60       ?GetPrev@dgListNode@?$dgList@UdgProxy@dgCollisionScene@@@@QBEPAV12@XZ 1005bc60 f i physics:dgCollisionScene.obj
 0001:0005ac80       ??AdgMatrix@@QBEABVdgVector@@H@Z 1005bc80 f i physics:dgCollisionScene.obj
 0001:0005acf0       ?Reset@FastRayTest@@QAEXM@Z 1005bcf0 f i physics:dgCollisionScene.obj
 0001:0005ad60       ?dgOverlapTestSimd@@YAHABVdgVector@@000@Z 1005bd60 f i physics:dgCollisionScene.obj
 0001:0005ae10       ??0dgCollisionConvexPolygon@dgCollisionMesh@@QAE@QAVdgMemoryAllocator@@@Z 1005be10 f   physics:dgCollisionMesh.obj
 0001:0005af50       ??1dgCollisionConvexPolygon@dgCollisionMesh@@UAE@XZ 1005bf50 f   physics:dgCollisionMesh.obj
 0001:0005af70       ?CalculateSignature@dgCollisionConvexPolygon@dgCollisionMesh@@UBEHXZ 1005bf70 f   physics:dgCollisionMesh.obj
 0001:0005af80       ?SetCollisionBBox@dgCollisionConvexPolygon@dgCollisionMesh@@UAEXABVdgVector@@0@Z 1005bf80 f   physics:dgCollisionMesh.obj
 0001:0005afb0       ?Serialize@dgCollisionConvexPolygon@dgCollisionMesh@@UBEXP6AXPAXPBXI@ZQAX@Z 1005bfb0 f   physics:dgCollisionMesh.obj
 0001:0005afe0       ?RayCast@dgCollisionConvexPolygon@dgCollisionMesh@@UBEMABVdgVector@@0AAVdgContactPoint@@P6AIQBVdgBody@@QBVdgCollision@@QAX@Z24@Z 1005bfe0 f   physics:dgCollisionMesh.obj
 0001:0005b020       ?GetVolume@dgCollisionConvexPolygon@dgCollisionMesh@@UBEMXZ 1005c020 f   physics:dgCollisionMesh.obj
 0001:0005b050       ?GetBoxMinRadius@dgCollisionConvexPolygon@dgCollisionMesh@@UBEMXZ 1005c050 f   physics:dgCollisionMesh.obj
 0001:0005b080       ?GetBoxMaxRadius@dgCollisionConvexPolygon@dgCollisionMesh@@UBEMXZ 1005c080 f   physics:dgCollisionMesh.obj
 0001:0005b0b0       ?OOBBTest@dgCollisionConvexPolygon@dgCollisionMesh@@UBE_NABVdgMatrix@@QBVdgConvexCollision@@QAX@Z 1005c0b0 f   physics:dgCollisionMesh.obj
 0001:0005b0f0       ?CalculateInertia@dgCollisionConvexPolygon@dgCollisionMesh@@UBEXAAVdgVector@@0@Z 1005c0f0 f   physics:dgCollisionMesh.obj
 0001:0005b130       ?SupportVertex@dgCollisionConvexPolygon@dgCollisionMesh@@UBE?AVdgVector@@ABV3@@Z 1005c130 f   physics:dgCollisionMesh.obj
 0001:0005b230       ?SupportVertexSimd@dgCollisionConvexPolygon@dgCollisionMesh@@UBE?AVdgVector@@ABV3@@Z 1005c230 f   physics:dgCollisionMesh.obj
 0001:0005b710       ?CalculateNormalSimd@dgCollisionConvexPolygon@dgCollisionMesh@@QAEXXZ 1005c710 f   physics:dgCollisionMesh.obj
 0001:0005ba50       ?CalculateNormal@dgCollisionConvexPolygon@dgCollisionMesh@@QAEXXZ 1005ca50 f   physics:dgCollisionMesh.obj
 0001:0005bbe0       ?QuickTestContinueSimd@dgCollisionConvexPolygon@dgCollisionMesh@@QAEHPBVdgConvexCollision@@ABVdgMatrix@@@Z 1005cbe0 f   physics:dgCollisionMesh.obj
 0001:0005c0b0       ?QuickTestContinue@dgCollisionConvexPolygon@dgCollisionMesh@@QAEHPBVdgConvexCollision@@ABVdgMatrix@@@Z 1005d0b0 f   physics:dgCollisionMesh.obj
 0001:0005c320       ?QuickTestSimd@dgCollisionConvexPolygon@dgCollisionMesh@@QAEHPBVdgConvexCollision@@ABVdgMatrix@@@Z 1005d320 f   physics:dgCollisionMesh.obj
 0001:0005c9b0       ?QuickTest@dgCollisionConvexPolygon@dgCollisionMesh@@QAEHPBVdgConvexCollision@@ABVdgMatrix@@@Z 1005d9b0 f   physics:dgCollisionMesh.obj
 0001:0005ccb0       ?ClipContacts@dgCollisionConvexPolygon@dgCollisionMesh@@QBEHHQAVdgContactPoint@@ABVdgMatrix@@@Z 1005dcb0 f   physics:dgCollisionMesh.obj
 0001:0005d1b0       ?BeamClippingSimd@dgCollisionConvexPolygon@dgCollisionMesh@@QAEXPBVdgConvexCollision@@ABVdgMatrix@@M@Z 1005e1b0 f   physics:dgCollisionMesh.obj
 0001:0005d430       ?BeamClipping@dgCollisionConvexPolygon@dgCollisionMesh@@QAEXPBVdgConvexCollision@@ABVdgMatrix@@M@Z 1005e430 f   physics:dgCollisionMesh.obj
 0001:0005e150       ?ClosestDistanceToTriangle@dgCollisionConvexPolygon@dgCollisionMesh@@QBE?AVdgVector@@ABV3@000@Z 1005f150 f   physics:dgCollisionMesh.obj
 0001:0005e7e0       ?PointToPolygonDistance@dgCollisionConvexPolygon@dgCollisionMesh@@QAE_NABVdgVector@@MAAV3@@Z 1005f7e0 f   physics:dgCollisionMesh.obj
 0001:0005ea20       ?DistanceToOrigen@dgCollisionConvexPolygon@dgCollisionMesh@@QAE_NABVdgMatrix@@ABVdgVector@@MAAV4@@Z 1005fa20 f   physics:dgCollisionMesh.obj
 0001:0005ef70       ?MovingPointToPolygonContact@dgCollisionConvexPolygon@dgCollisionMesh@@QAEMABVdgVector@@0MAAVdgContactPoint@@@Z 1005ff70 f   physics:dgCollisionMesh.obj
 0001:0005f910       ?CalculatePlaneIntersection@dgCollisionConvexPolygon@dgCollisionMesh@@UBEHABVdgVector@@0QAV3@@Z 10060910 f   physics:dgCollisionMesh.obj
 0001:00060510       ?CalculatePlaneIntersectionSimd@dgCollisionConvexPolygon@dgCollisionMesh@@UBEHABVdgVector@@0QAV3@@Z 10061510 f   physics:dgCollisionMesh.obj
 0001:00060540       ??0dgCollisionMesh@@QAE@QAVdgMemoryAllocator@@W4dgCollisionID@@@Z 10061540 f   physics:dgCollisionMesh.obj
 0001:00060680       ??0dgCollisionMesh@@QAE@QAVdgWorld@@P6AXPAX1I@ZQAX@Z 10061680 f   physics:dgCollisionMesh.obj
 0001:000607b0       ??1dgCollisionMesh@@UAE@XZ 100617b0 f   physics:dgCollisionMesh.obj
 0001:00060810       ?SetCollisionBBox@dgCollisionMesh@@MAEXABVdgVector@@0@Z 10061810 f   physics:dgCollisionMesh.obj
 0001:00060970       ?CalculateSignature@dgCollisionMesh@@EBEHXZ 10061970 f   physics:dgCollisionMesh.obj
 0001:000609b0       ?GetUserData@dgCollisionMesh@@UBEPAXXZ 100619b0 f   physics:dgCollisionMesh.obj
 0001:000609c0       ?SetCollisionCallback@dgCollisionMesh@@QAEXP6AXPBVdgBody@@QBV2@HHPBMH@Z@Z 100619c0 f   physics:dgCollisionMesh.obj
 0001:000609e0       ?CalcAABB@dgCollisionMesh@@EBEXABVdgMatrix@@AAVdgVector@@1@Z 100619e0 f   physics:dgCollisionMesh.obj
 0001:00060c50       ?CalcAABBSimd@dgCollisionMesh@@EBEXABVdgMatrix@@AAVdgVector@@1@Z 10061c50 f   physics:dgCollisionMesh.obj
 0001:00060c80       ?CalculatePlaneIntersection@dgCollisionMesh@@ABEHPBMPBHHHABVdgPlane@@QAVdgVector@@@Z 10061c80 f   physics:dgCollisionMesh.obj
 0001:00060ff0       ?CalculateVolumeIntegral@dgCollisionMesh@@EBE?AVdgVector@@ABVdgMatrix@@P6AIPAX10AAVdgPlane@@@ZQAX@Z 10061ff0 f   physics:dgCollisionMesh.obj
 0001:00061020       ?DebugCollision@dgCollisionMesh@@EBEXABVdgMatrix@@P6AXPAXHPBMH@ZQAX@Z 10062020 f   physics:dgCollisionMesh.obj
 0001:00061060       ?GetVolume@dgCollisionMesh@@UBEMXZ 10062060 f   physics:dgCollisionMesh.obj
 0001:00061070       ?GetBoxMinRadius@dgCollisionMesh@@UBEMXZ 10062070 f   physics:dgCollisionMesh.obj
 0001:00061080       ?GetBoxMaxRadius@dgCollisionMesh@@UBEMXZ 10062080 f   physics:dgCollisionMesh.obj
 0001:00061090       ?CalculateInertia@dgCollisionMesh@@UBEXAAVdgVector@@0@Z 10062090 f   physics:dgCollisionMesh.obj
 0001:000610d0       ?GetCollisionInfo@dgCollisionMesh@@EBEXPAVdgCollisionInfo@@@Z 100620d0 f   physics:dgCollisionMesh.obj
 0001:00061110       ?Serialize@dgCollisionMesh@@EBEXP6AXPAXPBXI@ZQAX@Z 10062110 f   physics:dgCollisionMesh.obj
 0001:00061150       ?SupportVertex@dgCollisionMesh@@EBE?AVdgVector@@ABV2@@Z 10062150 f   physics:dgCollisionMesh.obj
 0001:000611b0       ?OOBBTest@dgCollisionMesh@@EBE_NABVdgMatrix@@QBVdgConvexCollision@@QAX@Z 100621b0 f   physics:dgCollisionMesh.obj
 0001:000611f0       ??_EdgCollisionConvexPolygon@dgCollisionMesh@@UAEPAXI@Z 100621f0 f i physics:dgCollisionMesh.obj
 0001:000611f0       ??_GdgCollisionConvexPolygon@dgCollisionMesh@@UAEPAXI@Z 100621f0 f i physics:dgCollisionMesh.obj
 0001:00061220       ??_EdgCollisionMesh@@UAEPAXI@Z 10062220 f i physics:dgCollisionMesh.obj
 0001:00061220       ??_GdgCollisionMesh@@UAEPAXI@Z 10062220 f i physics:dgCollisionMesh.obj
 0001:00061250       ??$GetSign@M@@YAMM@Z       10062250 f i physics:dgCollisionMesh.obj
 0001:00061280       ?RotateVectorSimd@dgMatrix@@QBE?AVdgVector@@ABV2@@Z 10062280 f i physics:dgCollisionMesh.obj
 0001:00061390       ??0dgVector@@QAE@ABT__m128@@@Z 10062390 f i physics:dgCollisionMesh.obj
 0001:000614a0       ??0dgCollisionBVH@@QAE@QAVdgMemoryAllocator@@@Z 100624a0 f   physics:dgCollisionBVH.obj
 0001:00061510       ??0dgCollisionBVH@@QAE@QAVdgWorld@@P6AXPAX1I@ZQAX@Z 10062510 f   physics:dgCollisionBVH.obj
 0001:000615f0       ??1dgCollisionBVH@@UAE@XZ  100625f0 f   physics:dgCollisionBVH.obj
 0001:00061630       ?Serialize@dgCollisionBVH@@EBEXP6AXPAXPBXI@ZQAX@Z 10062630 f   physics:dgCollisionBVH.obj
 0001:00061670       ?BeginBuild@dgCollisionBVH@@QAEXXZ 10062670 f   physics:dgCollisionBVH.obj
 0001:000616e0       ?AddFace@dgCollisionBVH@@QAEXHQBMHH@Z 100626e0 f   physics:dgCollisionBVH.obj
 0001:000617a0       ?SetCollisionRayCastCallback@dgCollisionBVH@@QAEXP6AMQBVdgBody@@QBV1@MPAMHPAX@Z@Z 100627a0 f   physics:dgCollisionBVH.obj
 0001:000617c0       ?EndBuild@dgCollisionBVH@@QAEXH@Z 100627c0 f   physics:dgCollisionBVH.obj
 0001:000618a0       ?GetCollisionInfo@dgCollisionBVH@@EBEXPAVdgCollisionInfo@@@Z 100628a0 f   physics:dgCollisionBVH.obj
 0001:000619c0       ?CollectVertexListIndexList@dgCollisionBVH@@CA?AW4dgIntersectStatus@@PAXQBMHQBHH@Z 100629c0 f   physics:dgCollisionBVH.obj
 0001:00061b10       ?GetTriangleCount@dgCollisionBVH@@CA?AW4dgIntersectStatus@@PAXQBMHQBHH@Z 10062b10 f   physics:dgCollisionBVH.obj
 0001:00061b90       ?GetVertexListIndexList@dgCollisionBVH@@UBEXABVdgVector@@0AAVdgGetVertexListIndexList@dgCollisionMesh@@@Z 10062b90 f   physics:dgCollisionBVH.obj
 0001:00061c10       ?RayHitSimd@dgCollisionBVH@@CAMPAXQBMHQBHH@Z 10062c10 f   physics:dgCollisionBVH.obj
 0001:00061db0       ?RayHit@dgCollisionBVH@@CAMPAXQBMHQBHH@Z 10062db0 f   physics:dgCollisionBVH.obj
 0001:00061f50       ?RayHitUserSimd@dgCollisionBVH@@CAMPAXQBMHQBHH@Z 10062f50 f   physics:dgCollisionBVH.obj
 0001:000620c0       ?RayHitUser@dgCollisionBVH@@CAMPAXQBMHQBHH@Z 100630c0 f   physics:dgCollisionBVH.obj
 0001:00062230       ?RayCastSimd@dgCollisionBVH@@EBEMABVdgVector@@0AAVdgContactPoint@@P6AIQBVdgBody@@QBVdgCollision@@QAX@Z24@Z 10063230 f   physics:dgCollisionBVH.obj
 0001:00062450       ?RayCast@dgCollisionBVH@@EBEMABVdgVector@@0AAVdgContactPoint@@P6AIQBVdgBody@@QBVdgCollision@@QAX@Z24@Z 10063450 f   physics:dgCollisionBVH.obj
 0001:00062670       ?GetPolygon@dgCollisionBVH@@CA?AW4dgIntersectStatus@@PAXQBMHQBHH@Z 10063670 f   physics:dgCollisionBVH.obj
 0001:00062930       ?GetCollidingFacesSimd@dgCollisionBVH@@EBEXQAVdgPolygonMeshDesc@@@Z 10063930 f   physics:dgCollisionBVH.obj
 0001:00062a10       ?GetCollidingFaces@dgCollisionBVH@@EBEXQAVdgPolygonMeshDesc@@@Z 10063a10 f   physics:dgCollisionBVH.obj
 0001:00062af0       ?SupportVertex@dgCollisionBVH@@EBE?AVdgVector@@ABV2@@Z 10063af0 f   physics:dgCollisionBVH.obj
 0001:00062b20       ?ShowDebugPolygon@dgCollisionBVH@@CA?AW4dgIntersectStatus@@PAXQBMHQBHH@Z 10063b20 f   physics:dgCollisionBVH.obj
 0001:00062c10       ?DebugCollision@dgCollisionBVH@@EBEXABVdgMatrix@@P6AXPAXHPBMH@ZQAX@Z 10063c10 f   physics:dgCollisionBVH.obj
 0001:00062ce0       ??_EdgCollisionBVH@@UAEPAXI@Z 10063ce0 f i physics:dgCollisionBVH.obj
 0001:00062ce0       ??_GdgCollisionBVH@@UAEPAXI@Z 10063ce0 f i physics:dgCollisionBVH.obj
 0001:00062d10       ??_GdgPolygonSoupDatabaseBuilder@@QAEPAXI@Z 10063d10 f i physics:dgCollisionBVH.obj
 0001:00062d40       ?GetDebugRayCastCallback@dgCollisionBVH@@QBEP6AMQBVdgBody@@QBV1@MPAMHPAX@ZXZ 10063d40 f i physics:dgCollisionBVH.obj
 0001:00062d60       ??0dgBVHRay@dgCollisionBVH@@QAE@ABVdgVector@@0@Z 10063d60 f i physics:dgCollisionBVH.obj
 0001:00062da0       ?GetCollisionMatrix@dgBody@@QBEABVdgMatrix@@XZ 10063da0 f i physics:dgCollisionBVH.obj
 0001:00062dc0       ?GetDebugCollisionCallback@dgCollisionMesh@@QBEP6AXPBVdgBody@@QBV2@HHPBMH@ZXZ 10063dc0 f i physics:dgCollisionBVH.obj
 0001:00062de0       ??0dgCollisionBVHShowPolyContext@@QAE@XZ 10063de0 f i physics:dgCollisionBVH.obj
 0001:00062e00       ??_EdgCollisionBVH@@WMA@AEPAXI@Z 10063e00 f i physics:dgCollisionBVH.obj
 0001:00062e10       ?Serialize@dgCollisionBVH@@GMA@BEXP6AXPAXPBXI@ZQAX@Z 10063e10 f i physics:dgCollisionBVH.obj
 0001:00062e20       ?GetVertexCount@dgPolygonSoupDatabase@@QBEHXZ 10063e20 f i physics:dgCollisionBVH.obj
 0001:00062e40       ?GetLocalVertexPool@dgPolygonSoupDatabase@@QBEPAMXZ 10063e40 f i physics:dgCollisionBVH.obj
 0001:00062e60       ?GetStrideInBytes@dgPolygonSoupDatabase@@QBEHXZ 10063e60 f i physics:dgCollisionBVH.obj
 0001:00062e80       ??2dgPolygonSoupDatabaseBuilder@@SAPAXIQAVdgMemoryAllocator@@@Z 10063e80 f i physics:dgCollisionBVH.obj
 0001:00062ea0       ??3dgPolygonSoupDatabaseBuilder@@SAXPAX@Z 10063ea0 f i physics:dgCollisionBVH.obj
 0001:00062ec0       ??0dgCollisionHeightField@@QAE@QAVdgWorld@@HHHQBGQBDMM@Z 10063ec0 f   physics:dgCollisionHeightField.obj
 0001:00063270       ??0dgCollisionHeightField@@QAE@QAVdgWorld@@P6AXPAX1I@ZQAX@Z 10064270 f   physics:dgCollisionHeightField.obj
 0001:00063540       ??1dgCollisionHeightField@@UAE@XZ 10064540 f   physics:dgCollisionHeightField.obj
 0001:00063620       ?Serialize@dgCollisionHeightField@@EBEXP6AXPAXPBXI@ZQAX@Z 10064620 f   physics:dgCollisionHeightField.obj
 0001:00063730       ?SetCollisionRayCastCallback@dgCollisionHeightField@@QAEXP6AMQBVdgBody@@QBV1@MHHQAVdgVector@@HQAX@Z@Z 10064730 f   physics:dgCollisionHeightField.obj
 0001:00063750       ?AllocateVertex@dgCollisionHeightField@@ABEXQAVdgWorld@@H@Z 10064750 f   physics:dgCollisionHeightField.obj
 0001:00063820       ?GetCollisionInfo@dgCollisionHeightField@@EBEXPAVdgCollisionInfo@@@Z 10064820 f   physics:dgCollisionHeightField.obj
 0001:000638d0       ?CalculateMinExtend2d@dgCollisionHeightField@@ABEXABVdgVector@@0AAV2@1@Z 100648d0 f   physics:dgCollisionHeightField.obj
 0001:00063ac0       ?CalculateMinExtend3d@dgCollisionHeightField@@ABEXABVdgVector@@0AAV2@1@Z 10064ac0 f   physics:dgCollisionHeightField.obj
 0001:00063cf0       ?RayCastCellSimd@dgCollisionHeightField@@ABEMABVFastRayTest@@HHAAVdgVector@@@Z 10064cf0 f   physics:dgCollisionHeightField.obj
 0001:00064350       ?RayCastCell@dgCollisionHeightField@@ABEMABVFastRayTest@@HHAAVdgVector@@@Z 10065350 f   physics:dgCollisionHeightField.obj
 0001:000649b0       ?RayCastSimd@dgCollisionHeightField@@EBEMABVdgVector@@0AAVdgContactPoint@@P6AIQBVdgBody@@QBVdgCollision@@QAX@Z24@Z 100659b0 f   physics:dgCollisionHeightField.obj
 0001:00064f70       ?RayCast@dgCollisionHeightField@@EBEMABVdgVector@@0AAVdgContactPoint@@P6AIQBVdgBody@@QBVdgCollision@@QAX@Z24@Z 10065f70 f   physics:dgCollisionHeightField.obj
 0001:00065480       ?GetVertexListIndexList@dgCollisionHeightField@@EBEXABVdgVector@@0AAVdgGetVertexListIndexList@dgCollisionMesh@@@Z 10066480 f   physics:dgCollisionHeightField.obj
 0001:000654c0       ?DebugCollision@dgCollisionHeightField@@EBEXABVdgMatrix@@P6AXPAXHPBMH@ZQAX@Z 100664c0 f   physics:dgCollisionHeightField.obj
 0001:000659f0       ?GetLocalAABB@dgCollisionHeightField@@ABEXABVdgVector@@0AAV2@1@Z 100669f0 f   physics:dgCollisionHeightField.obj
 0001:00065b50       ?GetCollidingFacesSimd@dgCollisionHeightField@@EBEXQAVdgPolygonMeshDesc@@@Z 10066b50 f   physics:dgCollisionHeightField.obj
 0001:00065b70       ?GetCollidingFaces@dgCollisionHeightField@@EBEXQAVdgPolygonMeshDesc@@@Z 10066b70 f   physics:dgCollisionHeightField.obj
 0001:00067360       ??_EdgCollisionHeightField@@UAEPAXI@Z 10068360 f i physics:dgCollisionHeightField.obj
 0001:00067360       ??_GdgCollisionHeightField@@UAEPAXI@Z 10068360 f i physics:dgCollisionHeightField.obj
 0001:00067390       ?GetInfo@dgTreeNode@?$dgTree@PAXI@@QAEAAPAXXZ 10068390 f i physics:dgCollisionHeightField.obj
 0001:000673b0       ?Find@?$dgTree@PAXI@@QBEPAVdgTreeNode@1@I@Z 100683b0 f i physics:dgCollisionHeightField.obj
 0001:000674d0       ?Insert@?$dgTree@PAXI@@QAEPAVdgTreeNode@1@ABQAXI@Z 100684d0 f i physics:dgCollisionHeightField.obj
 0001:00067510       ?Remove@?$dgTree@PAXI@@QAEXI@Z 10068510 f i physics:dgCollisionHeightField.obj
 0001:00067550       ?GetLeft@dgTreeNode@?$dgTree@PAXI@@ABEPAV12@XZ 10068550 f i physics:dgCollisionHeightField.obj
 0001:00067560       ?GetRight@dgTreeNode@?$dgTree@PAXI@@ABEPAV12@XZ 10068560 f i physics:dgCollisionHeightField.obj
 0001:00067580       ?Insert@?$dgTree@PAXI@@QAEPAVdgTreeNode@1@ABQAXIAA_N@Z 10068580 f i physics:dgCollisionHeightField.obj
 0001:00067780       ?Remove@?$dgTree@PAXI@@QAEXQAVdgTreeNode@1@@Z 10068780 f i physics:dgCollisionHeightField.obj
 0001:000677c0       ?CompareKeys@?$dgTree@PAXI@@ABEHABI0@Z 100687c0 f i physics:dgCollisionHeightField.obj
 0001:00067800       ??0dgTreeNode@?$dgTree@PAXI@@AAE@ABQAXABIPAV01@@Z 10068800 f i physics:dgCollisionHeightField.obj
 0001:00067870       ??0dgBody@@QAE@XZ          10068870 f   physics:dgBody.obj
 0001:00067990       ??1dgBody@@QAE@XZ          10068990 f   physics:dgBody.obj
 0001:000679a0       ?SetAparentMassMatrix@dgBody@@QAEXABVdgVector@@@Z 100689a0 f   physics:dgBody.obj
 0001:00067a50       ?SetMassMatrix@dgBody@@QAEXMMMM@Z 10068a50 f   physics:dgBody.obj
 0001:00067d00       ?AttachCollision@dgBody@@QAEXPAVdgCollision@@@Z 10068d00 f   physics:dgBody.obj
 0001:00067ef0       ?SetMatrix@dgBody@@QAEXABVdgMatrix@@@Z 10068ef0 f   physics:dgBody.obj
 0001:00067f50       ?SetMatrixIgnoreSleep@dgBody@@QAEXABVdgMatrix@@@Z 10068f50 f   physics:dgBody.obj
 0001:00068020       ?UpdateCollisionMatrixSimd@dgBody@@AAEXMH@Z 10069020 f   physics:dgBody.obj
 0001:000686f0       ?UpdateCollisionMatrix@dgBody@@AAEXMH@Z 100696f0 f   physics:dgBody.obj
 0001:00068dc0       ?RayCast@dgBody@@QBEMABUdgLineBox@@P6AMQBV1@ABVdgVector@@HQAXM@ZP6AI1QBVdgCollision@@3@Z3M@Z 10069dc0 f   physics:dgBody.obj
 0001:000690e0       ?AddBuoyancyForce@dgBody@@QAEXMMMABVdgVector@@P6AIPAX1ABVdgMatrix@@AAVdgPlane@@@ZQAX@Z 1006a0e0 f   physics:dgBody.obj
 0001:00069310       ?CalcInvInertiaMatrix@dgBody@@QAEXXZ 1006a310 f   physics:dgBody.obj
 0001:00069880       ?CalcInvInertiaMatrixSimd@dgBody@@QAEXXZ 1006a880 f   physics:dgBody.obj
 0001:00069e80       ?UpdateMatrix@dgBody@@AAEXMH@Z 1006ae80 f   physics:dgBody.obj
 0001:00069ed0       ?IntegrateVelocity@dgBody@@AAEXM@Z 1006aed0 f   physics:dgBody.obj
 0001:0006a370       ?CalculateContinueVelocity@dgBody@@ABEXMAAVdgVector@@0@Z 1006b370 f   physics:dgBody.obj
 0001:0006a4a0       ?CalculateContinueVelocitySimd@dgBody@@ABEXMAAVdgVector@@0@Z 1006b4a0 f   physics:dgBody.obj
 0001:0006a5c0       ?GetTrajectory@dgBody@@ABE?AVdgVector@@ABV2@0@Z 1006b5c0 f   physics:dgBody.obj
 0001:0006a620       ?CalculateInverseDynamicForce@dgBody@@QBE?AVdgVector@@ABV2@M@Z 1006b620 f   physics:dgBody.obj
 0001:0006a6b0       ?GetFirstJoint@dgBody@@QBEPAVdgConstraint@@XZ 1006b6b0 f   physics:dgBody.obj
 0001:0006a710       ?GetNextJoint@dgBody@@QBEPAVdgConstraint@@PAV2@@Z 1006b710 f   physics:dgBody.obj
 0001:0006a7a0       ?GetFirstContact@dgBody@@QBEPAVdgConstraint@@XZ 1006b7a0 f   physics:dgBody.obj
 0001:0006a800       ?GetNextContact@dgBody@@QBEPAVdgConstraint@@PAV2@@Z 1006b800 f   physics:dgBody.obj
 0001:0006a890       ?SetFreeze@dgBody@@QAEX_N@Z 1006b890 f   physics:dgBody.obj
 0001:0006a8c0       ?Freeze@dgBody@@QAEXXZ     1006b8c0 f   physics:dgBody.obj
 0001:0006a950       ?Unfreeze@dgBody@@QAEXXZ   1006b950 f   physics:dgBody.obj
 0001:0006a9e0       ?AddImpulse@dgBody@@AAEXABVdgVector@@0@Z 1006b9e0 f   physics:dgBody.obj
 0001:0006b1d0       ?InvalidateCache@dgBody@@QAEXXZ 1006c1d0 f   physics:dgBody.obj
 0001:0006b2e0       ?SetMatrixOriginAndRotation@dgBody@@AAEXABVdgMatrix@@@Z 1006c2e0 f i physics:dgBody.obj
 0001:0006b560       ?GetLink0@dgConstraint@@QBEPAVdgListNode@?$dgList@VdgBodyMasterListCell@@@@XZ 1006c560 f i physics:dgBody.obj
 0001:0006b580       ?GetLink1@dgConstraint@@QBEPAVdgListNode@?$dgList@VdgBodyMasterListCell@@@@XZ 1006c580 f i physics:dgBody.obj
 0001:0006b5a0       ?RotateToEnd@?$dgList@VdgBodyMasterListRow@@@@QAEXQAVdgListNode@1@@Z 1006c5a0 f i physics:dgBody.obj
 0001:0006b610       ?InsertAfter@?$dgList@VdgBodyMasterListRow@@@@QAEXQAVdgListNode@1@0@Z 1006c610 f i physics:dgBody.obj
 0001:0006b7e0       ?Unlink@dgListNode@?$dgList@VdgBodyMasterListRow@@@@AAEXXZ 1006c7e0 f i physics:dgBody.obj
 0001:0006b830       ?AddLast@dgListNode@?$dgList@VdgBodyMasterListRow@@@@AAEXQAV12@@Z 1006c830 f i physics:dgBody.obj
 0001:0006b850       ?SanityCheck@?$dgList@VdgBodyMasterListRow@@@@QBE_NXZ 1006c850 f i physics:dgBody.obj
 0001:0006b9d0       ?CompProductSimd@dgVector@@QBE?AV1@ABV1@@Z 1006c9d0 f i physics:dgBody.obj
 0001:0006ba20       ?UnrotateVectorSimd@dgMatrix@@QBE?AVdgVector@@ABV2@@Z 1006ca20 f i physics:dgBody.obj
 0001:0006ba80       ?DotProductSimd@dgVector@@QBEMABV1@@Z 1006ca80 f i physics:dgBody.obj
 0001:0006bae0       ?MultiplySimd@dgMatrix@@QBE?AV1@ABV1@@Z 1006cae0 f i physics:dgBody.obj
 0001:0006c250       ??0dgQuaternion@@QAE@XZ    1006d250 f i physics:dgBody.obj
 0001:0006c280       ?Scale@dgQuaternion@@QAEXM@Z 1006d280 f i physics:dgBody.obj
 0001:0006c2d0       ??DdgQuaternion@@QBE?AV0@ABV0@@Z 1006d2d0 f i physics:dgBody.obj
 0001:0006c3d0       ??0dgBallConstraint@@AAE@XZ 1006d3d0 f   physics:dgBallConstraint.obj
 0001:0006c4e0       ??1dgBallConstraint@@EAE@XZ 1006d4e0 f   physics:dgBallConstraint.obj
 0001:0006c500       ?SetJointParameterCallBack@dgBallConstraint@@QAEXP6AIABV1@M@Z@Z 1006d500 f   physics:dgBallConstraint.obj
 0001:0006c520       ?GetJointAngle@dgBallConstraint@@QBE?AVdgVector@@XZ 1006d520 f   physics:dgBallConstraint.obj
 0001:0006c560       ?GetJointOmega@dgBallConstraint@@QBE?AVdgVector@@XZ 1006d560 f   physics:dgBallConstraint.obj
 0001:0006c6b0       ?GetJointForce@dgBallConstraint@@QBE?AVdgVector@@XZ 1006d6b0 f   physics:dgBallConstraint.obj
 0001:0006c790       ?GetTwistLimitState@dgBallConstraint@@QBE_NXZ 1006d790 f   physics:dgBallConstraint.obj
 0001:0006c7b0       ?GetConeLimitState@dgBallConstraint@@QBE_NXZ 1006d7b0 f   physics:dgBallConstraint.obj
 0001:0006c7d0       ?GetLatealLimitState@dgBallConstraint@@QBE_NXZ 1006d7d0 f   physics:dgBallConstraint.obj
 0001:0006c7f0       ?SetTwistLimitState@dgBallConstraint@@QAEX_N@Z 1006d7f0 f   physics:dgBallConstraint.obj
 0001:0006c820       ?SetConeLimitState@dgBallConstraint@@QAEX_N@Z 1006d820 f   physics:dgBallConstraint.obj
 0001:0006c850       ?SetLatealLimitState@dgBallConstraint@@QAEX_N@Z 1006d850 f   physics:dgBallConstraint.obj
 0001:0006c880       ?SetPivotPoint@dgBallConstraint@@AAEXABVdgVector@@@Z 1006d880 f   physics:dgBallConstraint.obj
 0001:0006c9d0       ?SetLimits@dgBallConstraint@@QAEXABVdgVector@@MMM0MM@Z 1006d9d0 f   physics:dgBallConstraint.obj
 0001:0006ce10       ?JacobianDerivative@dgBallConstraint@@EAEIAAVdgContraintDescritor@@@Z 1006de10 f   physics:dgBallConstraint.obj
 0001:0006d700       ??_GdgBallConstraint@@EAEPAXI@Z 1006e700 f i physics:dgBallConstraint.obj
 0001:0006d700       ??_EdgBallConstraint@@EAEPAXI@Z 1006e700 f i physics:dgBallConstraint.obj
 0001:0006d730       ??0dgHingeConstraint@@AAE@XZ 1006e730 f   physics:dgHingeConstraint.obj
 0001:0006d7e0       ??1dgHingeConstraint@@EAE@XZ 1006e7e0 f   physics:dgHingeConstraint.obj
 0001:0006d800       ?SetJointParameterCallBack@dgHingeConstraint@@QAEXP6AIABV1@PAVdgJointCallBackParam@@@Z@Z 1006e800 f   physics:dgHingeConstraint.obj
 0001:0006d820       ?GetJointAngle@dgHingeConstraint@@QBEMXZ 1006e820 f   physics:dgHingeConstraint.obj
 0001:0006d840       ?GetJointOmega@dgHingeConstraint@@QBEMXZ 1006e840 f   physics:dgHingeConstraint.obj
 0001:0006d910       ?CalculateStopAlpha@dgHingeConstraint@@QBEMMPBVdgJointCallBackParam@@@Z 1006e910 f   physics:dgHingeConstraint.obj
 0001:0006d9f0       ?GetJointForce@dgHingeConstraint@@QBE?AVdgVector@@XZ 1006e9f0 f   physics:dgHingeConstraint.obj
 0001:0006db20       ?JacobianDerivative@dgHingeConstraint@@EAEIAAVdgContraintDescritor@@@Z 1006eb20 f   physics:dgHingeConstraint.obj
 0001:0006df40       ??_EdgHingeConstraint@@EAEPAXI@Z 1006ef40 f i physics:dgHingeConstraint.obj
 0001:0006df40       ??_GdgHingeConstraint@@EAEPAXI@Z 1006ef40 f i physics:dgHingeConstraint.obj
 0001:0006df70       ??0dgSlidingConstraint@@AAE@XZ 1006ef70 f   physics:dgSlidingConstraint.obj
 0001:0006e020       ??1dgSlidingConstraint@@EAE@XZ 1006f020 f   physics:dgSlidingConstraint.obj
 0001:0006e040       ?SetJointParameterCallBack@dgSlidingConstraint@@QAEXP6AIABV1@PAVdgJointCallBackParam@@@Z@Z 1006f040 f   physics:dgSlidingConstraint.obj
 0001:0006e060       ?GetJointPosit@dgSlidingConstraint@@QBEMXZ 1006f060 f   physics:dgSlidingConstraint.obj
 0001:0006e080       ?GetJointVeloc@dgSlidingConstraint@@QBEMXZ 1006f080 f   physics:dgSlidingConstraint.obj
 0001:0006e150       ?CalculateStopAccel@dgSlidingConstraint@@QBEMMPBVdgJointCallBackParam@@@Z 1006f150 f   physics:dgSlidingConstraint.obj
 0001:0006e250       ?GetJointForce@dgSlidingConstraint@@QBE?AVdgVector@@XZ 1006f250 f   physics:dgSlidingConstraint.obj
 0001:0006e380       ?JacobianDerivative@dgSlidingConstraint@@EAEIAAVdgContraintDescritor@@@Z 1006f380 f   physics:dgSlidingConstraint.obj
 0001:0006e8e0       ??_GdgSlidingConstraint@@EAEPAXI@Z 1006f8e0 f i physics:dgSlidingConstraint.obj
 0001:0006e8e0       ??_EdgSlidingConstraint@@EAEPAXI@Z 1006f8e0 f i physics:dgSlidingConstraint.obj
 0001:0006e910       ??0dgCorkscrewConstraint@@AAE@XZ 1006f910 f   physics:dgCorkscrewConstraint.obj
 0001:0006e9c0       ??1dgCorkscrewConstraint@@EAE@XZ 1006f9c0 f   physics:dgCorkscrewConstraint.obj
 0001:0006e9e0       ?SetJointParameterCallBack@dgCorkscrewConstraint@@QAEXP6AIABV1@PAVdgJointCallBackParam@@@Z@Z 1006f9e0 f   physics:dgCorkscrewConstraint.obj
 0001:0006ea00       ?GetJointAngle@dgCorkscrewConstraint@@QBEMXZ 1006fa00 f   physics:dgCorkscrewConstraint.obj
 0001:0006ea20       ?GetJointPosit@dgCorkscrewConstraint@@QBEMXZ 1006fa20 f   physics:dgCorkscrewConstraint.obj
 0001:0006ea40       ?GetJointOmega@dgCorkscrewConstraint@@QBEMXZ 1006fa40 f   physics:dgCorkscrewConstraint.obj
 0001:0006eb10       ?GetJointVeloc@dgCorkscrewConstraint@@QBEMXZ 1006fb10 f   physics:dgCorkscrewConstraint.obj
 0001:0006ebe0       ?CalculateStopAlpha@dgCorkscrewConstraint@@QBEMMPBVdgJointCallBackParam@@@Z 1006fbe0 f   physics:dgCorkscrewConstraint.obj
 0001:0006ecb0       ?CalculateStopAccel@dgCorkscrewConstraint@@QBEMMPBVdgJointCallBackParam@@@Z 1006fcb0 f   physics:dgCorkscrewConstraint.obj
 0001:0006edb0       ?GetJointForce@dgCorkscrewConstraint@@QBE?AVdgVector@@XZ 1006fdb0 f   physics:dgCorkscrewConstraint.obj
 0001:0006eeb0       ?JacobianDerivative@dgCorkscrewConstraint@@EAEIAAVdgContraintDescritor@@@Z 1006feb0 f   physics:dgCorkscrewConstraint.obj
 0001:0006f4a0       ??_EdgCorkscrewConstraint@@EAEPAXI@Z 100704a0 f i physics:dgCorkscrewConstraint.obj
 0001:0006f4a0       ??_GdgCorkscrewConstraint@@EAEPAXI@Z 100704a0 f i physics:dgCorkscrewConstraint.obj
 0001:0006f4d0       ??0dgUniversalConstraint@@AAE@XZ 100704d0 f   physics:dgUniversalConstraint.obj
 0001:0006f580       ??1dgUniversalConstraint@@EAE@XZ 10070580 f   physics:dgUniversalConstraint.obj
 0001:0006f5a0       ?SetJointParameterCallBack@dgUniversalConstraint@@QAEXP6AIABV1@PAVdgJointCallBackParam@@@Z@Z 100705a0 f   physics:dgUniversalConstraint.obj
 0001:0006f5c0       ?GetJointAngle0@dgUniversalConstraint@@QBEMXZ 100705c0 f   physics:dgUniversalConstraint.obj
 0001:0006f5e0       ?GetJointAngle1@dgUniversalConstraint@@QBEMXZ 100705e0 f   physics:dgUniversalConstraint.obj
 0001:0006f600       ?GetJointOmega0@dgUniversalConstraint@@QBEMXZ 10070600 f   physics:dgUniversalConstraint.obj
 0001:0006f6d0       ?GetJointOmega1@dgUniversalConstraint@@QBEMXZ 100706d0 f   physics:dgUniversalConstraint.obj
 0001:0006f7a0       ?CalculateStopAlpha0@dgUniversalConstraint@@QBEMMPBVdgJointCallBackParam@@@Z 100707a0 f   physics:dgUniversalConstraint.obj
 0001:0006f870       ?CalculateStopAlpha1@dgUniversalConstraint@@QBEMMPBVdgJointCallBackParam@@@Z 10070870 f   physics:dgUniversalConstraint.obj
 0001:0006f940       ?GetJointForce@dgUniversalConstraint@@QBE?AVdgVector@@XZ 10070940 f   physics:dgUniversalConstraint.obj
 0001:0006fa40       ?JacobianDerivative@dgUniversalConstraint@@EAEIAAVdgContraintDescritor@@@Z 10070a40 f   physics:dgUniversalConstraint.obj
 0001:00070020       ??_EdgUniversalConstraint@@EAEPAXI@Z 10071020 f i physics:dgUniversalConstraint.obj
 0001:00070020       ??_GdgUniversalConstraint@@EAEPAXI@Z 10071020 f i physics:dgUniversalConstraint.obj
 0001:00070050       ??0dgUpVectorConstraint@@AAE@XZ 10071050 f   physics:dgUpVectorConstraint.obj
 0001:00070100       ??1dgUpVectorConstraint@@EAE@XZ 10071100 f   physics:dgUpVectorConstraint.obj
 0001:00070120       ?IsBilateral@dgUpVectorConstraint@@UBE_NXZ 10071120 f   physics:dgUpVectorConstraint.obj
 0001:00070130       ?InitPinDir@dgUpVectorConstraint@@QAEXABVdgVector@@@Z 10071130 f   physics:dgUpVectorConstraint.obj
 0001:00070190       ?SetPinDir@dgUpVectorConstraint@@QAEXABVdgVector@@@Z 10071190 f   physics:dgUpVectorConstraint.obj
 0001:000701e0       ?GetPinDir@dgUpVectorConstraint@@QBE?AVdgVector@@XZ 100711e0 f   physics:dgUpVectorConstraint.obj
 0001:00070210       ?SetJointParameterCallBack@dgUpVectorConstraint@@QAEXP6AIABV1@@Z@Z 10071210 f   physics:dgUpVectorConstraint.obj
 0001:00070230       ?JacobianDerivative@dgUpVectorConstraint@@EAEIAAVdgContraintDescritor@@@Z 10071230 f   physics:dgUpVectorConstraint.obj
 0001:00070470       ??_EdgUpVectorConstraint@@EAEPAXI@Z 10071470 f i physics:dgUpVectorConstraint.obj
 0001:00070470       ??_GdgUpVectorConstraint@@EAEPAXI@Z 10071470 f i physics:dgUpVectorConstraint.obj
 0001:000704a0       ?GetUserData@dgConstraint@@QBEPAXXZ 100714a0 f   physics:dgConstraint.obj
 0001:000704c0       ?SetUserData@dgConstraint@@QAEXPAX@Z 100714c0 f   physics:dgConstraint.obj
 0001:000704e0       ?IsBilateral@dgConstraint@@MBE_NXZ 100714e0 f   physics:dgConstraint.obj
 0001:000704f0       ?InitPointParam@dgConstraint@@IBEXAAVdgPointParam@1@MABVdgVector@@1@Z 100714f0 f   physics:dgConstraint.obj
 0001:000707a0       ?InitInfo@dgConstraint@@IBEXPAVdgConstraintInfo@@@Z 100717a0 f   physics:dgConstraint.obj
 0001:00070880       ?GetInfo@dgConstraint@@UBEXQAVdgConstraintInfo@@@Z 10071880 f   physics:dgConstraint.obj
 0001:000708b0       ??0dgUserConstraint@@IAE@QAVdgWorld@@QAVdgBody@@1H@Z 100718b0 f   physics:dgUserConstraint.obj
 0001:00070960       ??1dgUserConstraint@@MAE@XZ 10071960 f   physics:dgUserConstraint.obj
 0001:00070980       ?GetInfo@dgUserConstraint@@MBEXQAVdgConstraintInfo@@@Z 10071980 f   physics:dgUserConstraint.obj
 0001:000709a0       ??_EdgUserConstraint@@MAEPAXI@Z 100719a0 f i physics:dgUserConstraint.obj
 0001:000709a0       ??_GdgUserConstraint@@MAEPAXI@Z 100719a0 f i physics:dgUserConstraint.obj
 0001:000709d0       ??0dgBilateralConstraint@@IAE@XZ 100719d0 f   physics:dgBilateralConstraint.obj
 0001:00070af0       ??1dgBilateralConstraint@@MAE@XZ 10071af0 f   physics:dgBilateralConstraint.obj
 0001:00070b30       ?IsBilateral@dgBilateralConstraint@@MBE_NXZ 10071b30 f   physics:dgBilateralConstraint.obj
 0001:00070b40       ?GetStiffness@dgBilateralConstraint@@MBEMXZ 10071b40 f   physics:dgBilateralConstraint.obj
 0001:00070b60       ?SetStiffness@dgBilateralConstraint@@MAEXM@Z 10071b60 f   physics:dgBilateralConstraint.obj
 0001:00070bb0       ?SetDestructorCallback@dgBilateralConstraint@@UAEXP6AXAAVdgConstraint@@@Z@Z 10071bb0 f   physics:dgBilateralConstraint.obj
 0001:00070bd0       ?CalculateMatrixOffset@dgBilateralConstraint@@IAEXABVdgVector@@0AAVdgMatrix@@1@Z 10071bd0 f   physics:dgBilateralConstraint.obj
 0001:00070d90       ?SetPivotAndPinDir@dgBilateralConstraint@@IAEXABVdgVector@@0@Z 10071d90 f   physics:dgBilateralConstraint.obj
 0001:00070dc0       ?SetPivotAndPinDir@dgBilateralConstraint@@IAEXABVdgVector@@00@Z 10071dc0 f   physics:dgBilateralConstraint.obj
 0001:00071070       ?CalculateGlobalMatrixAndAngle@dgBilateralConstraint@@IBE?AVdgVector@@AAVdgMatrix@@0@Z 10072070 f   physics:dgBilateralConstraint.obj
 0001:00071270       ?SetMotorAcceleration@dgBilateralConstraint@@IAEXHMAAVdgContraintDescritor@@@Z 10072270 f   physics:dgBilateralConstraint.obj
 0001:000712c0       ?SetJacobianDerivative@dgBilateralConstraint@@IAEXHAAVdgContraintDescritor@@PBM1PAM@Z 100722c0 f   physics:dgBilateralConstraint.obj
 0001:00071490       ?CalculateSpringDamperAcceleration@dgBilateralConstraint@@IAEMHABVdgContraintDescritor@@MABVdgVector@@1MM@Z 10072490 f   physics:dgBilateralConstraint.obj
 0001:00071680       ?CalculateAngularDerivative@dgBilateralConstraint@@IAEXHAAVdgContraintDescritor@@ABVdgVector@@MMPAM@Z 10072680 f   physics:dgBilateralConstraint.obj
 0001:000719c0       ?CalculatePointDerivative@dgBilateralConstraint@@IAEXHAAVdgContraintDescritor@@ABVdgVector@@ABVdgPointParam@dgConstraint@@PAM@Z 100729c0 f   physics:dgBilateralConstraint.obj
 0001:00071e00       ?JointAccelerationsSimd@dgBilateralConstraint@@MAEXABVdgJointAccelerationDecriptor@@@Z 10072e00 f   physics:dgBilateralConstraint.obj
 0001:00072050       ?JointAccelerations@dgBilateralConstraint@@MAEXABVdgJointAccelerationDecriptor@@@Z 10073050 f   physics:dgBilateralConstraint.obj
 0001:000722a0       ?JointVelocityCorrection@dgBilateralConstraint@@MAEXABVdgJointAccelerationDecriptor@@@Z 100732a0 f   physics:dgBilateralConstraint.obj
 0001:000722b0       ??0dgConstraint@@IAE@XZ    100732b0 f i physics:dgBilateralConstraint.obj
 0001:000723a0       ??_GdgConstraint@@MAEPAXI@Z 100733a0 f i physics:dgBilateralConstraint.obj
 0001:000723a0       ??_EdgConstraint@@MAEPAXI@Z 100733a0 f i physics:dgBilateralConstraint.obj
 0001:000723d0       ??1dgConstraint@@MAE@XZ    100733d0 f i physics:dgBilateralConstraint.obj
 0001:000723f0       ?GetStiffness@dgConstraint@@UBEMXZ 100733f0 f i physics:dgBilateralConstraint.obj
 0001:00072400       ?SetStiffness@dgConstraint@@UAEXM@Z 10073400 f i physics:dgBilateralConstraint.obj
 0001:00072410       ??_EdgBilateralConstraint@@MAEPAXI@Z 10073410 f i physics:dgBilateralConstraint.obj
 0001:00072410       ??_GdgBilateralConstraint@@MAEPAXI@Z 10073410 f i physics:dgBilateralConstraint.obj
 0001:00072440       ??0dgContactMaterial@@QAE@XZ 10073440 f   physics:dgContact.obj
 0001:00072540       ??0dgContact@@AAE@PAVdgWorld@@@Z 10073540 f   physics:dgContact.obj
 0001:00072680       ?GetInfo@dgContact@@EBEXQAVdgConstraintInfo@@@Z 10073680 f   physics:dgContact.obj
 0001:000726e0       ?CalculatePointDerivative@dgContact@@ABEXHAAVdgContraintDescritor@@ABVdgVector@@ABVdgPointParam@dgConstraint@@@Z 100736e0 f   physics:dgContact.obj
 0001:000728d0       ?JacobianDerivative@dgContact@@EAEIAAVdgContraintDescritor@@@Z 100738d0 f   physics:dgContact.obj
 0001:00072960       ?JacobianContactDerivative@dgContact@@AAEXAAVdgContraintDescritor@@ABVdgContactMaterial@@HAAH@Z 10073960 f   physics:dgContact.obj
 0001:00072fc0       ?JointAccelerationsSimd@dgContact@@EAEXABVdgJointAccelerationDecriptor@@@Z 10073fc0 f   physics:dgContact.obj
 0001:000735a0       ?JointAccelerations@dgContact@@EAEXABVdgJointAccelerationDecriptor@@@Z 100745a0 f   physics:dgContact.obj
 0001:00073820       ?JointVelocityCorrection@dgContact@@EAEXABVdgJointAccelerationDecriptor@@@Z 10074820 f   physics:dgContact.obj
 0001:00073860       ??0dgCollidingPairCollector@@QAE@XZ 10074860 f   physics:dgContact.obj
 0001:000738a0       ??1dgCollidingPairCollector@@QAE@XZ 100748a0 f   physics:dgContact.obj
 0001:000738b0       ?Init@dgCollidingPairCollector@@QAEXXZ 100748b0 f   physics:dgContact.obj
 0001:00073910       ?SetCaches@dgCollidingPairCollector@@QAEXQAUdgThreadPairCache@1@@Z 10074910 f   physics:dgContact.obj
 0001:00073960       ?FlushChache@dgCollidingPairCollector@@QAEXQAUdgThreadPairCache@1@@Z 10074960 f   physics:dgContact.obj
 0001:00073a90       ?AddPair@dgCollidingPairCollector@@QAEXQAVdgBody@@0H@Z 10074a90 f   physics:dgContact.obj
 0001:000740b0       ?SetDestructorCallback@dgContact@@EAEXP6AXAAVdgConstraint@@@Z@Z 100750b0 f i physics:dgContact.obj
 0001:000740c0       ??_EdgContact@@EAEPAXI@Z   100750c0 f i physics:dgContact.obj
 0001:000740c0       ??_GdgContact@@EAEPAXI@Z   100750c0 f i physics:dgContact.obj
 0001:000740f0       ??3dgContact@@CAXPAX@Z     100750f0 f i physics:dgContact.obj
 0001:00074110       ??1dgContact@@EAE@XZ       10075110 f i physics:dgContact.obj
 0001:00074190       ?Append@?$dgList@PAVdgContact@@@@QAEPAVdgListNode@1@ABQAVdgContact@@@Z 10075190 f i physics:dgContact.obj
 0001:00074250       ?Remove@?$dgList@PAVdgContact@@@@QAEXQAVdgListNode@1@@Z 10075250 f i physics:dgContact.obj
 0001:000742a0       ??0?$dgList@VdgContactMaterial@@@@QAE@QAVdgMemoryAllocator@@@Z 100752a0 f i physics:dgContact.obj
 0001:000742e0       ??1?$dgList@VdgContactMaterial@@@@QAE@XZ 100752e0 f i physics:dgContact.obj
 0001:00074300       ?RemoveAll@?$dgList@VdgContactMaterial@@@@QAEXXZ 10075300 f i physics:dgContact.obj
 0001:000743c0       ??2dgListNode@?$dgList@PAVdgContact@@@@CAPAXIQAVdgMemoryAllocator@@@Z 100753c0 f i physics:dgContact.obj
 0001:000743e0       ??0dgListNode@?$dgList@PAVdgContact@@@@AAE@ABQAVdgContact@@QAV01@1@Z 100753e0 f i physics:dgContact.obj
 0001:00074470       ?Unlink@?$dgList@PAVdgContact@@@@QAEXQAVdgListNode@1@@Z 10075470 f i physics:dgContact.obj
 0001:00074520       ?GetPrev@dgListNode@?$dgList@PAVdgContact@@@@QBEPAV12@XZ 10075520 f i physics:dgContact.obj
 0001:00074540       ??0dgBodyMasterListRow@@QAE@XZ 10075540 f   physics:dgBodyMasterList.obj
 0001:00074570       ??1dgBodyMasterListRow@@QAE@XZ 10075570 f   physics:dgBodyMasterList.obj
 0001:000745b0       ?AddJoint@dgBodyMasterListRow@@QAEPAVdgListNode@?$dgList@VdgBodyMasterListCell@@@@QAVdgConstraint@@QAVdgBody@@@Z 100755b0 f   physics:dgBodyMasterList.obj
 0001:000745f0       ?RemoveAllJoints@dgBodyMasterListRow@@QAEXXZ 100755f0 f   physics:dgBodyMasterList.obj
 0001:00074650       ?SortList@dgBodyMasterListRow@@QAEXXZ 10075650 f   physics:dgBodyMasterList.obj
 0001:000746d0       ??0dgBodyMasterList@@QAE@QAVdgMemoryAllocator@@@Z 100756d0 f   physics:dgBodyMasterList.obj
 0001:00074700       ??1dgBodyMasterList@@QAE@XZ 10075700 f   physics:dgBodyMasterList.obj
 0001:00074720       ?AddBody@dgBodyMasterList@@QAEXQAVdgBody@@@Z 10075720 f   physics:dgBodyMasterList.obj
 0001:000747a0       ?RemoveBody@dgBodyMasterList@@QAEXQAVdgBody@@@Z 100757a0 f   physics:dgBodyMasterList.obj
 0001:00074840       ?FindConstraintLink@dgBodyMasterList@@QBEPAVdgListNode@?$dgList@VdgBodyMasterListCell@@@@QBVdgBody@@0@Z 10075840 f   physics:dgBodyMasterList.obj
 0001:00074910       ?FindConstraintLinkNext@dgBodyMasterList@@QBEPAVdgListNode@?$dgList@VdgBodyMasterListCell@@@@QBV23@QBVdgBody@@@Z 10075910 f   physics:dgBodyMasterList.obj
 0001:000749a0       ?AttachConstraint@dgBodyMasterList@@QAEXQAVdgConstraint@@QAVdgBody@@1@Z 100759a0 f   physics:dgBodyMasterList.obj
 0001:00074ab0       ?RemoveConstraint@dgBodyMasterList@@QAEXQAVdgConstraint@@@Z 10075ab0 f   physics:dgBodyMasterList.obj
 0001:00074c90       ?SortMasterList@dgBodyMasterList@@QAEXXZ 10075c90 f   physics:dgBodyMasterList.obj
 0001:00074e40       ?GetPrev@dgListNode@?$dgList@VdgBodyMasterListCell@@@@QBEPAV12@XZ 10075e40 f i physics:dgBodyMasterList.obj
 0001:00074e60       ??0?$dgList@VdgBodyMasterListCell@@@@QAE@QAVdgMemoryAllocator@@@Z 10075e60 f i physics:dgBodyMasterList.obj
 0001:00074ea0       ??1?$dgList@VdgBodyMasterListCell@@@@QAE@XZ 10075ea0 f i physics:dgBodyMasterList.obj
 0001:00074ec0       ?SetAllocator@?$dgList@VdgBodyMasterListCell@@@@QAEXQAVdgMemoryAllocator@@@Z 10075ec0 f i physics:dgBodyMasterList.obj
 0001:00074ef0       ?Addtop@?$dgList@VdgBodyMasterListCell@@@@QAEPAVdgListNode@1@XZ 10075ef0 f i physics:dgBodyMasterList.obj
 0001:00074fb0       ?RotateToBegin@?$dgList@VdgBodyMasterListCell@@@@QAEXQAVdgListNode@1@@Z 10075fb0 f i physics:dgBodyMasterList.obj
 0001:00075020       ?InsertAfter@?$dgList@VdgBodyMasterListCell@@@@QAEXQAVdgListNode@1@0@Z 10076020 f i physics:dgBodyMasterList.obj
 0001:000751f0       ?Remove@?$dgList@VdgBodyMasterListCell@@@@QAEXQAVdgListNode@1@@Z 100761f0 f i physics:dgBodyMasterList.obj
 0001:00075240       ??0?$dgList@VdgBodyMasterListRow@@@@QAE@QAVdgMemoryAllocator@@@Z 10076240 f i physics:dgBodyMasterList.obj
 0001:00075280       ??1?$dgList@VdgBodyMasterListRow@@@@QAE@XZ 10076280 f i physics:dgBodyMasterList.obj
 0001:000752a0       ?Append@?$dgList@VdgBodyMasterListRow@@@@QAEPAVdgListNode@1@XZ 100762a0 f i physics:dgBodyMasterList.obj
 0001:00075360       ?RotateToBegin@?$dgList@VdgBodyMasterListRow@@@@QAEXQAVdgListNode@1@@Z 10076360 f i physics:dgBodyMasterList.obj
 0001:000753d0       ?Remove@?$dgList@VdgBodyMasterListRow@@@@QAEXQAVdgListNode@1@@Z 100763d0 f i physics:dgBodyMasterList.obj
 0001:00075420       ??_GdgListNode@?$dgList@VdgBodyMasterListCell@@@@AAEPAXI@Z 10076420 f i physics:dgBodyMasterList.obj
 0001:00075450       ??_GdgListNode@?$dgList@VdgBodyMasterListRow@@@@AAEPAXI@Z 10076450 f i physics:dgBodyMasterList.obj
 0001:00075480       ??2dgListNode@?$dgList@VdgBodyMasterListCell@@@@CAPAXIQAVdgMemoryAllocator@@@Z 10076480 f i physics:dgBodyMasterList.obj
 0001:000754a0       ??3dgListNode@?$dgList@VdgBodyMasterListCell@@@@CAXPAX@Z 100764a0 f i physics:dgBodyMasterList.obj
 0001:000754c0       ??0dgListNode@?$dgList@VdgBodyMasterListCell@@@@AAE@QAV01@0@Z 100764c0 f i physics:dgBodyMasterList.obj
 0001:00075550       ??1dgListNode@?$dgList@VdgBodyMasterListCell@@@@AAE@XZ 10076550 f i physics:dgBodyMasterList.obj
 0001:00075560       ?Unlink@dgListNode@?$dgList@VdgBodyMasterListCell@@@@AAEXXZ 10076560 f i physics:dgBodyMasterList.obj
 0001:000755b0       ?AddFirst@dgListNode@?$dgList@VdgBodyMasterListCell@@@@AAEXQAV12@@Z 100765b0 f i physics:dgBodyMasterList.obj
 0001:000755d0       ??2dgListNode@?$dgList@VdgBodyMasterListRow@@@@CAPAXIQAVdgMemoryAllocator@@@Z 100765d0 f i physics:dgBodyMasterList.obj
 0001:000755f0       ??3dgListNode@?$dgList@VdgBodyMasterListRow@@@@CAXPAX@Z 100765f0 f i physics:dgBodyMasterList.obj
 0001:00075610       ??0dgListNode@?$dgList@VdgBodyMasterListRow@@@@AAE@QAV01@0@Z 10076610 f i physics:dgBodyMasterList.obj
 0001:000756a0       ??1dgListNode@?$dgList@VdgBodyMasterListRow@@@@AAE@XZ 100766a0 f i physics:dgBodyMasterList.obj
 0001:000756c0       ?AddFirst@dgListNode@?$dgList@VdgBodyMasterListRow@@@@AAEXQAV12@@Z 100766c0 f i physics:dgBodyMasterList.obj
 0001:000756e0       ?RemoveAll@?$dgList@VdgBodyMasterListCell@@@@QAEXXZ 100766e0 f i physics:dgBodyMasterList.obj
 0001:000757a0       ?Unlink@?$dgList@VdgBodyMasterListCell@@@@QAEXQAVdgListNode@1@@Z 100767a0 f i physics:dgBodyMasterList.obj
 0001:00075850       ?SanityCheck@?$dgList@VdgBodyMasterListCell@@@@QBE_NXZ 10076850 f i physics:dgBodyMasterList.obj
 0001:000759d0       ?RemoveAll@?$dgList@VdgBodyMasterListRow@@@@QAEXXZ 100769d0 f i physics:dgBodyMasterList.obj
 0001:00075a90       ?Unlink@?$dgList@VdgBodyMasterListRow@@@@QAEXQAVdgListNode@1@@Z 10076a90 f i physics:dgBodyMasterList.obj
 0001:00075b40       ??0dgCollisionSphere@@QAE@PAVdgMemoryAllocator@@IMABVdgMatrix@@@Z 10076b40 f   physics:dgCollisionSphere.obj
 0001:00075ba0       ??0dgCollisionSphere@@QAE@QAVdgWorld@@P6AXPAX1I@ZQAX@Z 10076ba0 f   physics:dgCollisionSphere.obj
 0001:00075c30       ??1dgCollisionSphere@@UAE@XZ 10076c30 f   physics:dgCollisionSphere.obj
 0001:00075ca0       ?Init@dgCollisionSphere@@IAEXMPAVdgMemoryAllocator@@@Z 10076ca0 f   physics:dgCollisionSphere.obj
 0001:000763f0       ?SupportVertexSimd@dgCollisionSphere@@MBE?AVdgVector@@ABV2@@Z 100773f0 f   physics:dgCollisionSphere.obj
 0001:00076470       ?SupportVertex@dgCollisionSphere@@MBE?AVdgVector@@ABV2@@Z 10077470 f   physics:dgCollisionSphere.obj
 0001:000764f0       ?TesselateTriangle@dgCollisionSphere@@IBEXHABVdgVector@@00AAHPAV2@@Z 100774f0 f   physics:dgCollisionSphere.obj
 0001:00076980       ?SetCollisionBBox@dgCollisionSphere@@MAEXABVdgVector@@0@Z 10077980 f   physics:dgCollisionSphere.obj
 0001:000769c0       ?CalculateSignature@dgCollisionSphere@@MBEHXZ 100779c0 f   physics:dgCollisionSphere.obj
 0001:00076a40       ?CalcAABB@dgCollisionSphere@@MBEXABVdgMatrix@@AAVdgVector@@1@Z 10077a40 f   physics:dgCollisionSphere.obj
 0001:00076b30       ?CalculatePlaneIntersection@dgCollisionSphere@@MBEHABVdgVector@@0QAV2@@Z 10077b30 f   physics:dgCollisionSphere.obj
 0001:00076be0       ?CalculatePlaneIntersectionSimd@dgCollisionSphere@@MBEHABVdgVector@@0QAV2@@Z 10077be0 f   physics:dgCollisionSphere.obj
 0001:00076c90       ?DebugCollision@dgCollisionSphere@@MBEXABVdgMatrix@@P6AXPAXHPBMH@ZQAX@Z 10077c90 f   physics:dgCollisionSphere.obj
 0001:00077080       ?GetVolume@dgCollisionPoint@@UBEMXZ 10078080 f   physics:dgCollisionSphere.obj
 0001:000770c0       ?CalculateInertia@dgCollisionPoint@@UBEXAAVdgVector@@0@Z 100780c0 f   physics:dgCollisionSphere.obj
 0001:00077120       ?SupportVertex@dgCollisionPoint@@UBE?AVdgVector@@ABV2@@Z 10078120 f   physics:dgCollisionSphere.obj
 0001:00077150       ?SupportVertexSimd@dgCollisionPoint@@UBE?AVdgVector@@ABV2@@Z 10078150 f   physics:dgCollisionSphere.obj
 0001:000771b0       ?RayCast@dgCollisionSphere@@MBEMABVdgVector@@0AAVdgContactPoint@@P6AIQBVdgBody@@QBVdgCollision@@QAX@Z24@Z 100781b0 f   physics:dgCollisionSphere.obj
 0001:000773b0       ?RayCastSimd@dgCollisionSphere@@MBEMABVdgVector@@0AAVdgContactPoint@@P6AIQBVdgBody@@QBVdgCollision@@QAX@Z24@Z 100783b0 f   physics:dgCollisionSphere.obj
 0001:000773f0       ?CalculateMassProperties@dgCollisionSphere@@MBEMAAVdgVector@@00@Z 100783f0 f   physics:dgCollisionSphere.obj
 0001:00077550       ?GetCollisionInfo@dgCollisionSphere@@MBEXPAVdgCollisionInfo@@@Z 10078550 f   physics:dgCollisionSphere.obj
 0001:000775c0       ?Serialize@dgCollisionSphere@@MBEXP6AXPAXPBXI@ZQAX@Z 100785c0 f   physics:dgCollisionSphere.obj
 0001:00077640       ??_GdgCollisionSphere@@UAEPAXI@Z 10078640 f i physics:dgCollisionSphere.obj
 0001:00077640       ??_EdgCollisionSphere@@UAEPAXI@Z 10078640 f i physics:dgCollisionSphere.obj
 0001:00077670       ??0dgConvexCollision@@IAE@QAVdgMemoryAllocator@@IABVdgMatrix@@W4dgCollisionID@@@Z 10078670 f   physics:dgConvexCollision.obj
 0001:00077810       ??0dgConvexCollision@@IAE@QAVdgWorld@@P6AXPAX1I@ZQAX@Z 10078810 f   physics:dgConvexCollision.obj
 0001:00077990       ??1dgConvexCollision@@MAE@XZ 10078990 f   physics:dgConvexCollision.obj
 0001:000779f0       ?SerializeLow@dgConvexCollision@@MBEXP6AXPAXPBXI@ZQAX@Z 100789f0 f   physics:dgConvexCollision.obj
 0001:00077a40       ?GetUserData@dgConvexCollision@@MBEPAXXZ 10078a40 f   physics:dgConvexCollision.obj
 0001:00077a60       ?SetUserData@dgConvexCollision@@MAEXQAX@Z 10078a60 f   physics:dgConvexCollision.obj
 0001:00077a80       ?SetVolumeAndCG@dgConvexCollision@@IAEXXZ 10078a80 f   physics:dgConvexCollision.obj
 0001:00078270       ?GetDiscretedAngleStep@dgConvexCollision@@IBEMM@Z 10079270 f   physics:dgConvexCollision.obj
 0001:000782c0       ?SanityCheck@dgConvexCollision@@IBE_NAAVdgPolyhedra@@@Z 100792c0 f   physics:dgConvexCollision.obj
 0001:00078490       ?DebugCollision@dgConvexCollision@@MBEXABVdgMatrix@@P6AXPAXHPBMH@ZQAX@Z 10079490 f   physics:dgConvexCollision.obj
 0001:00078680       ?CalcAABB@dgConvexCollision@@UBEXABVdgMatrix@@AAVdgVector@@1@Z 10079680 f   physics:dgConvexCollision.obj
 0001:00078900       ?CalcAABBSimd@dgConvexCollision@@UBEXABVdgMatrix@@AAVdgVector@@1@Z 10079900 f   physics:dgConvexCollision.obj
 0001:00078a60       ?GetSupportEdge@dgConvexCollision@@IBEPAVdgConvexSimplexEdge@@ABVdgVector@@@Z 10079a60 f   physics:dgConvexCollision.obj
 0001:00078b50       ?CalculateInertia@dgConvexCollision@@CAXPAXHPBMH@Z 10079b50 f   physics:dgConvexCollision.obj
 0001:00078b70       ?CalculateMassProperties@dgConvexCollision@@MBEMAAVdgVector@@00@Z 10079b70 f   physics:dgConvexCollision.obj
 0001:00078bc0       ?CalculateInertia@dgConvexCollision@@EBEXAAVdgVector@@0@Z 10079bc0 f   physics:dgConvexCollision.obj
 0001:00078eb0       ?GetVolume@dgConvexCollision@@EBEMXZ 10079eb0 f   physics:dgConvexCollision.obj
 0001:00078f50       ?GetBoxMinRadius@dgConvexCollision@@EBEMXZ 10079f50 f   physics:dgConvexCollision.obj
 0001:00078f70       ?GetBoxMaxRadius@dgConvexCollision@@EBEMXZ 10079f70 f   physics:dgConvexCollision.obj
 0001:00078f90       ?RayCastClosestFace@dgConvexCollision@@ABEHPAVdgVector@@ABV2@AAM@Z 10079f90 f   physics:dgConvexCollision.obj
 0001:000795d0       ?RayHitBox@dgConvexCollision@@ABE_NABVdgVector@@0@Z 1007a5d0 f   physics:dgConvexCollision.obj
 0001:000797d0       ?CalculateVolumeIntegral@dgConvexCollision@@EBE?AVdgVector@@ABVdgMatrix@@P6AIPAX10AAVdgPlane@@@ZQAX@Z 1007a7d0 f   physics:dgConvexCollision.obj
 0001:000798e0       ?CalculateVolumeIntegral@dgConvexCollision@@IBE?AVdgVector@@ABVdgPlane@@@Z 1007a8e0 f   physics:dgConvexCollision.obj
 0001:0007a1a0       ?SupportVertex@dgConvexCollision@@UBE?AVdgVector@@ABV2@@Z 1007b1a0 f   physics:dgConvexCollision.obj
 0001:0007a3f0       ?SupportVertexSimd@dgConvexCollision@@UBE?AVdgVector@@ABV2@@Z 1007b3f0 f   physics:dgConvexCollision.obj
 0001:0007ab20       ?SanityCheck@dgConvexCollision@@IBE_NHABVdgVector@@QAV2@@Z 1007bb20 f   physics:dgConvexCollision.obj
 0001:0007aef0       ?SimplifyClipPolygon@dgConvexCollision@@ABEHHABVdgVector@@QAV2@@Z 1007bef0 f   physics:dgConvexCollision.obj
 0001:0007b240       ?RectifyConvexSlice@dgConvexCollision@@IBEHHABVdgVector@@QAV2@@Z 1007c240 f   physics:dgConvexCollision.obj
 0001:0007b780       ?CalculatePlaneIntersectionSimd@dgConvexCollision@@UBEHABVdgVector@@0QAV2@@Z 1007c780 f   physics:dgConvexCollision.obj
 0001:0007c8a0       ?CalculatePlaneIntersection@dgConvexCollision@@UBEHABVdgVector@@0QAV2@@Z 1007d8a0 f   physics:dgConvexCollision.obj
 0001:0007d1d0       ?RayCast@dgConvexCollision@@UBEMABVdgVector@@0AAVdgContactPoint@@P6AIQBVdgBody@@QBVdgCollision@@QAX@Z24@Z 1007e1d0 f   physics:dgConvexCollision.obj
 0001:0007e050       ?RayCastSimd@dgConvexCollision@@UBEMABVdgVector@@0AAVdgContactPoint@@P6AIQBVdgBody@@QBVdgCollision@@QAX@Z24@Z 1007f050 f   physics:dgConvexCollision.obj
 0001:0007e090       ?IsTriggerVolume@dgConvexCollision@@UBE_NXZ 1007f090 f   physics:dgConvexCollision.obj
 0001:0007e0b0       ?SetAsTriggerVolume@dgConvexCollision@@MAEX_N@Z 1007f0b0 f   physics:dgConvexCollision.obj
 0001:0007e0e0       ?OOBBTest@dgConvexCollision@@UBE_NABVdgMatrix@@QBV1@QAX@Z 1007f0e0 f   physics:dgConvexCollision.obj
 0001:0007e270       ??_EdgConvexCollision@@MAEPAXI@Z 1007f270 f i physics:dgConvexCollision.obj
 0001:0007e270       ??_GdgConvexCollision@@MAEPAXI@Z 1007f270 f i physics:dgConvexCollision.obj
 0001:0007e2a0       ??1?$dgUpHeap@HM@@QAE@XZ   1007f2a0 f i physics:dgConvexCollision.obj
 0001:0007e2c0       ??$GetMin@M@@YAMMMM@Z      1007f2c0 f i physics:dgConvexCollision.obj
 0001:0007e2f0       ??$Swap@VdgVector@@@@YAXAAVdgVector@@0@Z 1007f2f0 f i physics:dgConvexCollision.obj
 0001:0007e360       ??1?$dgHeapBase@HM@@IAE@XZ 1007f360 f i physics:dgConvexCollision.obj
 0001:0007e390       ?Flush@?$dgHeapBase@HM@@QAEXXZ 1007f390 f i physics:dgConvexCollision.obj
 0001:0007e3b0       ?GetCount@?$dgHeapBase@HM@@QBEHXZ 1007f3b0 f i physics:dgConvexCollision.obj
 0001:0007e3c0       ??A?$dgHeapBase@HM@@QBEABHH@Z 1007f3c0 f i physics:dgConvexCollision.obj
 0001:0007e410       ??0?$dgUpHeap@HM@@QAE@QBXH@Z 1007f410 f i physics:dgConvexCollision.obj
 0001:0007e430       ?Pop@?$dgUpHeap@HM@@QAEXXZ 1007f430 f i physics:dgConvexCollision.obj
 0001:0007e520       ?Push@?$dgUpHeap@HM@@QAEXAAHM@Z 1007f520 f i physics:dgConvexCollision.obj
 0001:0007e620       ??0?$dgHeapBase@HM@@IAE@QBXH@Z 1007f620 f i physics:dgConvexCollision.obj
 0001:0007e660       ?UntransformPlane@dgMatrix@@QBE?AVdgPlane@@ABV2@@Z 1007f660 f i physics:dgConvexCollision.obj
 0001:0007e6c0       ?TransformVectorSimd@dgMatrix@@QBE?AVdgVector@@ABV2@@Z 1007f6c0 f i physics:dgConvexCollision.obj
 0001:0007e800       ??0dgCollisionNull@@QAE@QAVdgMemoryAllocator@@I@Z 1007f800 f   physics:dgCollisionNull.obj
 0001:0007e840       ??0dgCollisionNull@@QAE@QAVdgWorld@@P6AXPAX1I@ZQAX@Z 1007f840 f   physics:dgCollisionNull.obj
 0001:0007e880       ?Serialize@dgCollisionNull@@EBEXP6AXPAXPBXI@ZQAX@Z 1007f880 f   physics:dgCollisionNull.obj
 0001:0007e8b0       ??1dgCollisionNull@@UAE@XZ 1007f8b0 f   physics:dgCollisionNull.obj
 0001:0007e8d0       ?SetCollisionBBox@dgCollisionNull@@EAEXABVdgVector@@0@Z 1007f8d0 f   physics:dgCollisionNull.obj
 0001:0007e900       ?DebugCollision@dgCollisionNull@@MBEXABVdgMatrix@@P6AXPAXHPBMH@ZQAX@Z 1007f900 f   physics:dgCollisionNull.obj
 0001:0007e910       ?CalculateSignature@dgCollisionNull@@EBEHXZ 1007f910 f   physics:dgCollisionNull.obj
 0001:0007e930       ?CalcAABB@dgCollisionNull@@MBEXABVdgMatrix@@AAVdgVector@@1@Z 1007f930 f   physics:dgCollisionNull.obj
 0001:0007e9f0       ?CalcAABBSimd@dgCollisionNull@@MBEXABVdgMatrix@@AAVdgVector@@1@Z 1007f9f0 f   physics:dgCollisionNull.obj
 0001:0007ea20       ?SupportVertex@dgCollisionNull@@MBE?AVdgVector@@ABV2@@Z 1007fa20 f   physics:dgCollisionNull.obj
 0001:0007ea80       ?SupportVertexSimd@dgCollisionNull@@MBE?AVdgVector@@ABV2@@Z 1007fa80 f   physics:dgCollisionNull.obj
 0001:0007eae0       ?GetVolume@dgCollisionNull@@MBEMXZ 1007fae0 f   physics:dgCollisionNull.obj
 0001:0007eaf0       ?RayCast@dgCollisionNull@@MBEMABVdgVector@@0AAVdgContactPoint@@P6AIQBVdgBody@@QBVdgCollision@@QAX@Z24@Z 1007faf0 f   physics:dgCollisionNull.obj
 0001:0007eb10       ?RayCastSimd@dgCollisionNull@@MBEMABVdgVector@@0AAVdgContactPoint@@P6AIQBVdgBody@@QBVdgCollision@@QAX@Z24@Z 1007fb10 f   physics:dgCollisionNull.obj
 0001:0007eb30       ?CalculateVolumeIntegral@dgCollisionNull@@MBE?AVdgVector@@ABVdgMatrix@@P6AIPAX10AAVdgPlane@@@ZQAX@Z 1007fb30 f   physics:dgCollisionNull.obj
 0001:0007eb90       ?CalculateInertia@dgCollisionNull@@MBEXAAVdgVector@@0@Z 1007fb90 f   physics:dgCollisionNull.obj
 0001:0007ebd0       ??_GdgCollisionNull@@UAEPAXI@Z 1007fbd0 f i physics:dgCollisionNull.obj
 0001:0007ebd0       ??_EdgCollisionNull@@UAEPAXI@Z 1007fbd0 f i physics:dgCollisionNull.obj
 0001:0007ec00       ??0dgCollisionBox@@QAE@QAVdgMemoryAllocator@@IMMMABVdgMatrix@@@Z 1007fc00 f   physics:dgCollisionBox.obj
 0001:0007ecb0       ??0dgCollisionBox@@QAE@QAVdgWorld@@P6AXPAX1I@ZQAX@Z 1007fcb0 f   physics:dgCollisionBox.obj
 0001:0007ed80       ?Init@dgCollisionBox@@IAEXMMM@Z 1007fd80 f   physics:dgCollisionBox.obj
 0001:0007f3a0       ??1dgCollisionBox@@UAE@XZ  100803a0 f   physics:dgCollisionBox.obj
 0001:0007f3e0       ?SetCollisionBBox@dgCollisionBox@@MAEXABVdgVector@@0@Z 100803e0 f   physics:dgCollisionBox.obj
 0001:0007f410       ?CalculateSignature@dgCollisionBox@@MBEHXZ 10080410 f   physics:dgCollisionBox.obj
 0001:0007f4c0       ?SupportVertexSimd@dgCollisionBox@@MBE?AVdgVector@@ABV2@@Z 100804c0 f   physics:dgCollisionBox.obj
 0001:0007f550       ?SupportVertex@dgCollisionBox@@MBE?AVdgVector@@ABV2@@Z 10080550 f   physics:dgCollisionBox.obj
 0001:0007f630       ?CalcAABB@dgCollisionBox@@MBEXABVdgMatrix@@AAVdgVector@@1@Z 10080630 f   physics:dgCollisionBox.obj
 0001:0007f8c0       ?CalcAABBSimd@dgCollisionBox@@MBEXABVdgMatrix@@AAVdgVector@@1@Z 100808c0 f   physics:dgCollisionBox.obj
 0001:0007fa40       ?RayCast@dgCollisionBox@@MBEMABVdgVector@@0AAVdgContactPoint@@P6AIQBVdgBody@@QBVdgCollision@@QAX@Z24@Z 10080a40 f   physics:dgCollisionBox.obj
 0001:0007fcf0       ?RayCastSimd@dgCollisionBox@@MBEMABVdgVector@@0AAVdgContactPoint@@P6AIQBVdgBody@@QBVdgCollision@@QAX@Z24@Z 10080cf0 f   physics:dgCollisionBox.obj
 0001:0007fd30       ?CalculateMassProperties@dgCollisionBox@@MBEMAAVdgVector@@00@Z 10080d30 f   physics:dgCollisionBox.obj
 0001:00080070       ?SetBreakImpulse@dgCollisionBox@@MAEXM@Z 10081070 f   physics:dgCollisionBox.obj
 0001:00080090       ?GetBreakImpulse@dgCollisionBox@@MBEMXZ 10081090 f   physics:dgCollisionBox.obj
 0001:000800b0       ?CalculatePlaneIntersection@dgCollisionBox@@MBEHABVdgVector@@0QAV2@@Z 100810b0 f   physics:dgCollisionBox.obj
 0001:00080510       ?CalculatePlaneIntersectionSimd@dgCollisionBox@@MBEHABVdgVector@@0QAV2@@Z 10081510 f   physics:dgCollisionBox.obj
 0001:00080d40       ?GetCollisionInfo@dgCollisionBox@@MBEXPAVdgCollisionInfo@@@Z 10081d40 f   physics:dgCollisionBox.obj
 0001:00080db0       ?Serialize@dgCollisionBox@@MBEXP6AXPAXPBXI@ZQAX@Z 10081db0 f   physics:dgCollisionBox.obj
 0001:00080e30       ??_GdgCollisionBox@@UAEPAXI@Z 10081e30 f i physics:dgCollisionBox.obj
 0001:00080e30       ??_EdgCollisionBox@@UAEPAXI@Z 10081e30 f i physics:dgCollisionBox.obj
 0001:00080e60       ??0dgCollision@@IAE@QAVdgMemoryAllocator@@IABVdgMatrix@@W4dgCollisionID@@@Z 10081e60 f   physics:dgCollision.obj
 0001:00080ed0       ??0dgCollision@@IAE@QAVdgWorld@@P6AXPAX1I@ZQAX@Z 10081ed0 f   physics:dgCollision.obj
 0001:00080f60       ??1dgCollision@@MAE@XZ     10081f60 f   physics:dgCollision.obj
 0001:00080f80       ?Quantize@dgCollision@@SAIM@Z 10081f80 f   physics:dgCollision.obj
 0001:00080fb0       ?MakeCRC@dgCollision@@SAIPAXH@Z 10081fb0 f   physics:dgCollision.obj
 0001:00080fd0       ?SetOffsetMatrix@dgCollision@@QAEXABVdgMatrix@@@Z 10081fd0 f   physics:dgCollision.obj
 0001:000810e0       ?GetUserData@dgCollision@@UBEPAXXZ 100820e0 f   physics:dgCollision.obj
 0001:000810f0       ?SetUserData@dgCollision@@UAEXQAX@Z 100820f0 f   physics:dgCollision.obj
 0001:00081100       ?GetCollisionInfo@dgCollision@@UBEXPAVdgCollisionInfo@@@Z 10082100 f   physics:dgCollision.obj
 0001:00081150       ?SerializeLow@dgCollision@@UBEXP6AXPAXPBXI@ZQAX@Z 10082150 f   physics:dgCollision.obj
 0001:000811b0       ?RayCastSimd@dgCollision@@UBEMABVdgVector@@0AAVdgContactPoint@@P6AIQBVdgBody@@QBV1@QAX@Z24@Z 100821b0 f i physics:dgCollision.obj
 0001:000811f0       ??_EdgCollision@@MAEPAXI@Z 100821f0 f i physics:dgCollision.obj
 0001:000811f0       ??_GdgCollision@@MAEPAXI@Z 100821f0 f i physics:dgCollision.obj
 0001:00081220       ??0dgCollisionEllipse@@QAE@QAVdgMemoryAllocator@@IMMMABVdgMatrix@@@Z 10082220 f   physics:dgCollisionEllipse.obj
 0001:000812d0       ??0dgCollisionEllipse@@QAE@QAVdgWorld@@P6AXPAX1I@ZQAX@Z 100822d0 f   physics:dgCollisionEllipse.obj
 0001:000813b0       ??1dgCollisionEllipse@@UAE@XZ 100823b0 f   physics:dgCollisionEllipse.obj
 0001:000813d0       ?CalculateSignature@dgCollisionEllipse@@EBEHXZ 100823d0 f   physics:dgCollisionEllipse.obj
 0001:00081480       ?SetCollisionBBox@dgCollisionEllipse@@EAEXABVdgVector@@0@Z 10082480 f   physics:dgCollisionEllipse.obj
 0001:000814b0       ?CalcAABB@dgCollisionEllipse@@MBEXABVdgMatrix@@AAVdgVector@@1@Z 100824b0 f   physics:dgCollisionEllipse.obj
 0001:000815d0       ?CalcAABBSimd@dgCollisionEllipse@@MBEXABVdgMatrix@@AAVdgVector@@1@Z 100825d0 f   physics:dgCollisionEllipse.obj
 0001:000816f0       ?SupportVertex@dgCollisionEllipse@@MBE?AVdgVector@@ABV2@@Z 100826f0 f   physics:dgCollisionEllipse.obj
 0001:00081830       ?SupportVertexSimd@dgCollisionEllipse@@MBE?AVdgVector@@ABV2@@Z 10082830 f   physics:dgCollisionEllipse.obj
 0001:00081ad0       ?CalculatePlaneIntersection@dgCollisionEllipse@@EBEHABVdgVector@@0QAV2@@Z 10082ad0 f   physics:dgCollisionEllipse.obj
 0001:00081c20       ?CalculatePlaneIntersectionSimd@dgCollisionEllipse@@EBEHABVdgVector@@0QAV2@@Z 10082c20 f   physics:dgCollisionEllipse.obj
 0001:00081d70       ?DebugCollision@dgCollisionEllipse@@MBEXABVdgMatrix@@P6AXPAXHPBMH@ZQAX@Z 10082d70 f   physics:dgCollisionEllipse.obj
 0001:00081ed0       ?RayCast@dgCollisionEllipse@@MBEMABVdgVector@@0AAVdgContactPoint@@P6AIQBVdgBody@@QBVdgCollision@@QAX@Z24@Z 10082ed0 f   physics:dgCollisionEllipse.obj
 0001:00081fd0       ?RayCastSimd@dgCollisionEllipse@@MBEMABVdgVector@@0AAVdgContactPoint@@P6AIQBVdgBody@@QBVdgCollision@@QAX@Z24@Z 10082fd0 f   physics:dgCollisionEllipse.obj
 0001:000820d0       ?CalculateMassProperties@dgCollisionEllipse@@EBEMAAVdgVector@@00@Z 100830d0 f   physics:dgCollisionEllipse.obj
 0001:00082100       ?GetCollisionInfo@dgCollisionEllipse@@EBEXPAVdgCollisionInfo@@@Z 10083100 f   physics:dgCollisionEllipse.obj
 0001:00082170       ?Serialize@dgCollisionEllipse@@EBEXP6AXPAXPBXI@ZQAX@Z 10083170 f   physics:dgCollisionEllipse.obj
 0001:000821b0       ??_EdgCollisionEllipse@@UAEPAXI@Z 100831b0 f i physics:dgCollisionEllipse.obj
 0001:000821b0       ??_GdgCollisionEllipse@@UAEPAXI@Z 100831b0 f i physics:dgCollisionEllipse.obj
 0001:000821e0       ??0dgCollisionCapsule@@QAE@QAVdgMemoryAllocator@@IMMABVdgMatrix@@@Z 100831e0 f   physics:dgCollisionCapsule.obj
 0001:00082260       ??0dgCollisionCapsule@@QAE@QAVdgWorld@@P6AXPAX1I@ZQAX@Z 10083260 f   physics:dgCollisionCapsule.obj
 0001:00082310       ??1dgCollisionCapsule@@UAE@XZ 10083310 f   physics:dgCollisionCapsule.obj
 0001:00082380       ?Init@dgCollisionCapsule@@AAEXMM@Z 10083380 f   physics:dgCollisionCapsule.obj
 0001:00082b90       ?CalculateSignature@dgCollisionCapsule@@EBEHXZ 10083b90 f   physics:dgCollisionCapsule.obj
 0001:00082c20       ?TesselateTriangle@dgCollisionCapsule@@ABEXHMABVdgVector@@00AAHPAV2@@Z 10083c20 f   physics:dgCollisionCapsule.obj
 0001:000831b0       ?DebugCollision@dgCollisionCapsule@@EBEXABVdgMatrix@@P6AXPAXHPBMH@ZQAX@Z 100841b0 f   physics:dgCollisionCapsule.obj
 0001:00083790       ?SetCollisionBBox@dgCollisionCapsule@@EAEXABVdgVector@@0@Z 10084790 f   physics:dgCollisionCapsule.obj
 0001:000837d0       ?SupportVertexSimd@dgCollisionCapsule@@EBE?AVdgVector@@ABV2@@Z 100847d0 f   physics:dgCollisionCapsule.obj
 0001:000838b0       ?SupportVertex@dgCollisionCapsule@@EBE?AVdgVector@@ABV2@@Z 100848b0 f   physics:dgCollisionCapsule.obj
 0001:00083990       ?RayCast@dgCollisionCapsule@@EBEMABVdgVector@@0AAVdgContactPoint@@P6AIQBVdgBody@@QBVdgCollision@@QAX@Z24@Z 10084990 f   physics:dgCollisionCapsule.obj
 0001:000844c0       ?RayCastSimd@dgCollisionCapsule@@EBEMABVdgVector@@0AAVdgContactPoint@@P6AIQBVdgBody@@QBVdgCollision@@QAX@Z24@Z 100854c0 f   physics:dgCollisionCapsule.obj
 0001:00084500       ?CalculateMassProperties@dgCollisionCapsule@@EBEMAAVdgVector@@00@Z 10085500 f   physics:dgCollisionCapsule.obj
 0001:00084850       ?CalculatePlaneIntersectionSimd@dgCollisionCapsule@@EBEHABVdgVector@@0QAV2@@Z 10085850 f   physics:dgCollisionCapsule.obj
 0001:00084880       ?CalculatePlaneIntersection@dgCollisionCapsule@@EBEHABVdgVector@@0QAV2@@Z 10085880 f   physics:dgCollisionCapsule.obj
 0001:000854d0       ?GetCollisionInfo@dgCollisionCapsule@@EBEXPAVdgCollisionInfo@@@Z 100864d0 f   physics:dgCollisionCapsule.obj
 0001:00085550       ?Serialize@dgCollisionCapsule@@EBEXP6AXPAXPBXI@ZQAX@Z 10086550 f   physics:dgCollisionCapsule.obj
 0001:000855e0       ??_GdgCollisionCapsule@@UAEPAXI@Z 100865e0 f i physics:dgCollisionCapsule.obj
 0001:000855e0       ??_EdgCollisionCapsule@@UAEPAXI@Z 100865e0 f i physics:dgCollisionCapsule.obj
 0001:00085610       ??0dgCollisionCone@@QAE@QAVdgMemoryAllocator@@IMMABVdgMatrix@@@Z 10086610 f   physics:dgCollisionCone.obj
 0001:00085670       ??0dgCollisionCone@@QAE@QAVdgWorld@@P6AXPAX1I@ZQAX@Z 10086670 f   physics:dgCollisionCone.obj
 0001:00085700       ??1dgCollisionCone@@UAE@XZ 10086700 f   physics:dgCollisionCone.obj
 0001:00085770       ?Init@dgCollisionCone@@AAEXMM@Z 10086770 f   physics:dgCollisionCone.obj
 0001:00085c40       ?CalculateSignature@dgCollisionCone@@EBEHXZ 10086c40 f   physics:dgCollisionCone.obj
 0001:00085cd0       ?DebugCollision@dgCollisionCone@@EBEXABVdgMatrix@@P6AXPAXHPBMH@ZQAX@Z 10086cd0 f   physics:dgCollisionCone.obj
 0001:00085f20       ?SetCollisionBBox@dgCollisionCone@@EAEXABVdgVector@@0@Z 10086f20 f   physics:dgCollisionCone.obj
 0001:00085f60       ?SupportVertexSimd@dgCollisionCone@@EBE?AVdgVector@@ABV2@@Z 10086f60 f   physics:dgCollisionCone.obj
 0001:00085f90       ?SupportVertex@dgCollisionCone@@EBE?AVdgVector@@ABV2@@Z 10086f90 f   physics:dgCollisionCone.obj
 0001:000860e0       ?CalculateMassProperties@dgCollisionCone@@EBEMAAVdgVector@@00@Z 100870e0 f   physics:dgCollisionCone.obj
 0001:00086410       ?CalculatePlaneIntersection@dgCollisionCone@@EBEHABVdgVector@@0QAV2@@Z 10087410 f   physics:dgCollisionCone.obj
 0001:00086610       ?CalculatePlaneIntersectionSimd@dgCollisionCone@@EBEHABVdgVector@@0QAV2@@Z 10087610 f   physics:dgCollisionCone.obj
 0001:00086900       ?GetCollisionInfo@dgCollisionCone@@EBEXPAVdgCollisionInfo@@@Z 10087900 f   physics:dgCollisionCone.obj
 0001:00086960       ?Serialize@dgCollisionCone@@EBEXP6AXPAXPBXI@ZQAX@Z 10087960 f   physics:dgCollisionCone.obj
 0001:000869e0       ??_EdgCollisionCone@@UAEPAXI@Z 100879e0 f i physics:dgCollisionCone.obj
 0001:000869e0       ??_GdgCollisionCone@@UAEPAXI@Z 100879e0 f i physics:dgCollisionCone.obj
 0001:00086a10       ??0dgCollisionCylinder@@QAE@QAVdgMemoryAllocator@@IMMABVdgMatrix@@@Z 10087a10 f   physics:dgCollisionCylinder.obj
 0001:00086a70       ??0dgCollisionCylinder@@QAE@QAVdgWorld@@P6AXPAX1I@ZQAX@Z 10087a70 f   physics:dgCollisionCylinder.obj
 0001:00086b00       ?Init@dgCollisionCylinder@@AAEXMM@Z 10087b00 f   physics:dgCollisionCylinder.obj
 0001:00086ff0       ??1dgCollisionCylinder@@UAE@XZ 10087ff0 f   physics:dgCollisionCylinder.obj
 0001:00087060       ?CalculateSignature@dgCollisionCylinder@@EBEHXZ 10088060 f   physics:dgCollisionCylinder.obj
 0001:000870f0       ?SetCollisionBBox@dgCollisionCylinder@@EAEXABVdgVector@@0@Z 100880f0 f   physics:dgCollisionCylinder.obj
 0001:00087130       ?DebugCollision@dgCollisionCylinder@@EBEXABVdgMatrix@@P6AXPAXHPBMH@ZQAX@Z 10088130 f   physics:dgCollisionCylinder.obj
 0001:00087420       ?SupportVertexSimd@dgCollisionCylinder@@EBE?AVdgVector@@ABV2@@Z 10088420 f   physics:dgCollisionCylinder.obj
 0001:00087450       ?SupportVertex@dgCollisionCylinder@@EBE?AVdgVector@@ABV2@@Z 10088450 f   physics:dgCollisionCylinder.obj
 0001:00087570       ?CalculateMassProperties@dgCollisionCylinder@@EBEMAAVdgVector@@00@Z 10088570 f   physics:dgCollisionCylinder.obj
 0001:00087840       ?CalculatePlaneIntersection@dgCollisionCylinder@@EBEHABVdgVector@@0QAV2@@Z 10088840 f   physics:dgCollisionCylinder.obj
 0001:00087a40       ?CalculatePlaneIntersectionSimd@dgCollisionCylinder@@EBEHABVdgVector@@0QAV2@@Z 10088a40 f   physics:dgCollisionCylinder.obj
 0001:00087d30       ?RayCast@dgCollisionCylinder@@EBEMABVdgVector@@0AAVdgContactPoint@@P6AIQBVdgBody@@QBVdgCollision@@QAX@Z24@Z 10088d30 f   physics:dgCollisionCylinder.obj
 0001:00088460       ?RayCastSimd@dgCollisionCylinder@@EBEMABVdgVector@@0AAVdgContactPoint@@P6AIQBVdgBody@@QBVdgCollision@@QAX@Z24@Z 10089460 f   physics:dgCollisionCylinder.obj
 0001:000884a0       ?GetCollisionInfo@dgCollisionCylinder@@EBEXPAVdgCollisionInfo@@@Z 100894a0 f   physics:dgCollisionCylinder.obj
 0001:00088510       ?Serialize@dgCollisionCylinder@@EBEXP6AXPAXPBXI@ZQAX@Z 10089510 f   physics:dgCollisionCylinder.obj
 0001:000885a0       ??_GdgCollisionCylinder@@UAEPAXI@Z 100895a0 f i physics:dgCollisionCylinder.obj
 0001:000885a0       ??_EdgCollisionCylinder@@UAEPAXI@Z 100895a0 f i physics:dgCollisionCylinder.obj
 0001:000885d0       ??0dgCollisionChamferCylinder@@QAE@QAVdgMemoryAllocator@@IMMABVdgMatrix@@@Z 100895d0 f   physics:dgCollisionChamferCylinder.obj
 0001:00088650       ??0dgCollisionChamferCylinder@@QAE@QAVdgWorld@@P6AXPAX1I@ZQAX@Z 10089650 f   physics:dgCollisionChamferCylinder.obj
 0001:00088700       ??1dgCollisionChamferCylinder@@UAE@XZ 10089700 f   physics:dgCollisionChamferCylinder.obj
 0001:00088770       ?Init@dgCollisionChamferCylinder@@IAEXMM@Z 10089770 f   physics:dgCollisionChamferCylinder.obj
 0001:00088f70       ?DebugCollision@dgCollisionChamferCylinder@@MBEXABVdgMatrix@@P6AXPAXHPBMH@ZQAX@Z 10089f70 f   physics:dgCollisionChamferCylinder.obj
 0001:00089360       ?CalculateSignature@dgCollisionChamferCylinder@@MBEHXZ 1008a360 f   physics:dgCollisionChamferCylinder.obj
 0001:000893f0       ?SetCollisionBBox@dgCollisionChamferCylinder@@MAEXABVdgVector@@0@Z 1008a3f0 f   physics:dgCollisionChamferCylinder.obj
 0001:00089430       ?SupportVertexSimd@dgCollisionChamferCylinder@@MBE?AVdgVector@@ABV2@@Z 1008a430 f   physics:dgCollisionChamferCylinder.obj
 0001:00089460       ?SupportVertex@dgCollisionChamferCylinder@@MBE?AVdgVector@@ABV2@@Z 1008a460 f   physics:dgCollisionChamferCylinder.obj
 0001:00089660       ?RayCast@dgCollisionChamferCylinder@@MBEMABVdgVector@@0AAVdgContactPoint@@P6AIQBVdgBody@@QBVdgCollision@@QAX@Z24@Z 1008a660 f   physics:dgCollisionChamferCylinder.obj
 0001:000898e0       ?RayCastSimd@dgCollisionChamferCylinder@@MBEMABVdgVector@@0AAVdgContactPoint@@P6AIQBVdgBody@@QBVdgCollision@@QAX@Z24@Z 1008a8e0 f   physics:dgCollisionChamferCylinder.obj
 0001:00089b60       ?CalculatePlaneIntersectionSimd@dgCollisionChamferCylinder@@MBEHABVdgVector@@0QAV2@@Z 1008ab60 f   physics:dgCollisionChamferCylinder.obj
 0001:00089b90       ?CalculatePlaneIntersection@dgCollisionChamferCylinder@@MBEHABVdgVector@@0QAV2@@Z 1008ab90 f   physics:dgCollisionChamferCylinder.obj
 0001:0008a760       ?GetCollisionInfo@dgCollisionChamferCylinder@@MBEXPAVdgCollisionInfo@@@Z 1008b760 f   physics:dgCollisionChamferCylinder.obj
 0001:0008a7d0       ?Serialize@dgCollisionChamferCylinder@@MBEXP6AXPAXPBXI@ZQAX@Z 1008b7d0 f   physics:dgCollisionChamferCylinder.obj
 0001:0008a860       ??_GdgCollisionChamferCylinder@@UAEPAXI@Z 1008b860 f i physics:dgCollisionChamferCylinder.obj
 0001:0008a860       ??_EdgCollisionChamferCylinder@@UAEPAXI@Z 1008b860 f i physics:dgCollisionChamferCylinder.obj
 0001:0008a890       ??0dgCollisionConvexModifier@@QAE@PAVdgConvexCollision@@PAVdgWorld@@@Z 1008b890 f   physics:dgCollisionConvexModifier.obj
 0001:0008a970       ??0dgCollisionConvexModifier@@QAE@QAVdgWorld@@P6AXPAX1I@ZQAX@Z 1008b970 f   physics:dgCollisionConvexModifier.obj
 0001:0008aa80       ??1dgCollisionConvexModifier@@UAE@XZ 1008ba80 f   physics:dgCollisionConvexModifier.obj
 0001:0008aac0       ?ModifierGetMatrix@dgCollisionConvexModifier@@UBE?AVdgMatrix@@XZ 1008bac0 f   physics:dgCollisionConvexModifier.obj
 0001:0008ab30       ?GetBoxMinRadius@dgCollisionConvexModifier@@EBEMXZ 1008bb30 f   physics:dgCollisionConvexModifier.obj
 0001:0008ab60       ?GetBoxMaxRadius@dgCollisionConvexModifier@@EBEMXZ 1008bb60 f   physics:dgCollisionConvexModifier.obj
 0001:0008ab90       ?ModifierSetMatrix@dgCollisionConvexModifier@@UAEXABVdgMatrix@@@Z 1008bb90 f   physics:dgCollisionConvexModifier.obj
 0001:0008b1d0       ?CalculateSignature@dgCollisionConvexModifier@@EBEHXZ 1008c1d0 f   physics:dgCollisionConvexModifier.obj
 0001:0008b1e0       ?SetCollisionBBox@dgCollisionConvexModifier@@EAEXABVdgVector@@0@Z 1008c1e0 f   physics:dgCollisionConvexModifier.obj
 0001:0008b220       ?CalcAABB@dgCollisionConvexModifier@@MBEXABVdgMatrix@@AAVdgVector@@1@Z 1008c220 f   physics:dgCollisionConvexModifier.obj
 0001:0008b380       ?CalcAABBSimd@dgCollisionConvexModifier@@MBEXABVdgMatrix@@AAVdgVector@@1@Z 1008c380 f   physics:dgCollisionConvexModifier.obj
 0001:0008b4e0       ?SupportVertex@dgCollisionConvexModifier@@MBE?AVdgVector@@ABV2@@Z 1008c4e0 f   physics:dgCollisionConvexModifier.obj
 0001:0008b640       ?SupportVertexSimd@dgCollisionConvexModifier@@MBE?AVdgVector@@ABV2@@Z 1008c640 f   physics:dgCollisionConvexModifier.obj
 0001:0008b8c0       ?CalculatePlaneIntersection@dgCollisionConvexModifier@@EBEHABVdgVector@@0QAV2@@Z 1008c8c0 f   physics:dgCollisionConvexModifier.obj
 0001:0008b9e0       ?CalculatePlaneIntersectionSimd@dgCollisionConvexModifier@@EBEHABVdgVector@@0QAV2@@Z 1008c9e0 f   physics:dgCollisionConvexModifier.obj
 0001:0008ba10       ?DebugCollision@dgCollisionConvexModifier@@MBEXABVdgMatrix@@P6AXPAXHPBMH@ZQAX@Z 1008ca10 f   physics:dgCollisionConvexModifier.obj
 0001:0008bab0       ?RayCast@dgCollisionConvexModifier@@MBEMABVdgVector@@0AAVdgContactPoint@@P6AIQBVdgBody@@QBVdgCollision@@QAX@Z24@Z 1008cab0 f   physics:dgCollisionConvexModifier.obj
 0001:0008bbe0       ?RayCastSimd@dgCollisionConvexModifier@@MBEMABVdgVector@@0AAVdgContactPoint@@P6AIQBVdgBody@@QBVdgCollision@@QAX@Z24@Z 1008cbe0 f   physics:dgCollisionConvexModifier.obj
 0001:0008bd10       ?GetVolume@dgCollisionConvexModifier@@MBEMXZ 1008cd10 f   physics:dgCollisionConvexModifier.obj
 0001:0008bd40       ?CalculateVolumeIntegral@dgCollisionConvexModifier@@MBE?AVdgVector@@ABVdgMatrix@@P6AIPAX10AAVdgPlane@@@ZQAX@Z 1008cd40 f   physics:dgCollisionConvexModifier.obj
 0001:0008c010       ?GetCollisionInfo@dgCollisionConvexModifier@@EBEXPAVdgCollisionInfo@@@Z 1008d010 f   physics:dgCollisionConvexModifier.obj
 0001:0008c060       ?Serialize@dgCollisionConvexModifier@@EBEXP6AXPAXPBXI@ZQAX@Z 1008d060 f   physics:dgCollisionConvexModifier.obj
 0001:0008c0c0       ?OOBBTest@dgCollisionConvexModifier@@MBE_NABVdgMatrix@@QBVdgConvexCollision@@QAX@Z 1008d0c0 f   physics:dgCollisionConvexModifier.obj
 0001:0008c0d0       ??_GdgCollisionConvexModifier@@UAEPAXI@Z 1008d0d0 f i physics:dgCollisionConvexModifier.obj
 0001:0008c0d0       ??_EdgCollisionConvexModifier@@UAEPAXI@Z 1008d0d0 f i physics:dgCollisionConvexModifier.obj
 0001:0008c100       ?Transpose@dgMatrix@@QBE?AV1@XZ 1008d100 f i physics:dgCollisionConvexModifier.obj
 0001:0008c1e0       ??0OOBBTestData@dgCollisionCompound@@QAE@ABVdgMatrix@@@Z 1008d1e0 f   physics:dgCollisionCompound.obj
 0001:0008c520       ??0OOBBTestData@dgCollisionCompound@@QAE@ABVdgMatrix@@ABVdgVector@@1@Z 1008d520 f   physics:dgCollisionCompound.obj
 0001:0008cbe0       ??0dgNodeBase@dgCollisionCompound@@QAE@PAVdgConvexCollision@@H@Z 1008dbe0 f   physics:dgCollisionCompound.obj
 0001:0008cd70       ??0dgNodeBase@dgCollisionCompound@@QAE@PAV01@0H@Z 1008dd70 f   physics:dgCollisionCompound.obj
 0001:0008cf90       ??1dgNodeBase@dgCollisionCompound@@QAE@XZ 1008df90 f   physics:dgCollisionCompound.obj
 0001:0008d030       ?BoxTest@dgNodeBase@dgCollisionCompound@@QBE_NABVOOBBTestData@2@QBV12@@Z 1008e030 f   physics:dgCollisionCompound.obj
 0001:0008d3c0       ?BoxTest@dgNodeBase@dgCollisionCompound@@QBE_NABVOOBBTestData@2@@Z 1008e3c0 f   physics:dgCollisionCompound.obj
 0001:0008d600       ?BoxClosestDistance@dgNodeBase@dgCollisionCompound@@QBEMQBVdgVector@@H@Z 1008e600 f   physics:dgCollisionCompound.obj
 0001:0008d950       ??0dgCollisionCompound@@QAE@PAVdgWorld@@@Z 1008e950 f   physics:dgCollisionCompound.obj
 0001:0008d9b0       ??0dgCollisionCompound@@QAE@HQBQAVdgConvexCollision@@PAVdgWorld@@@Z 1008e9b0 f   physics:dgCollisionCompound.obj
 0001:0008da30       ??0dgCollisionCompound@@QAE@ABV0@@Z 1008ea30 f   physics:dgCollisionCompound.obj
 0001:0008dcb0       ??0dgCollisionCompound@@QAE@QAVdgWorld@@P6AXPAX1I@ZQAX@Z 1008ecb0 f   physics:dgCollisionCompound.obj
 0001:0008e0f0       ??1dgCollisionCompound@@UAE@XZ 1008f0f0 f   physics:dgCollisionCompound.obj
 0001:0008e1a0       ?Init@dgCollisionCompound@@IAEXHQBQAVdgConvexCollision@@@Z 1008f1a0 f   physics:dgCollisionCompound.obj
 0001:0008e2c0       ?LinkParentNodes@dgCollisionCompound@@IAEXXZ 1008f2c0 f   physics:dgCollisionCompound.obj
 0001:0008e3b0       ?SetCollisionBBox@dgCollisionCompound@@MAEXABVdgVector@@0@Z 1008f3b0 f   physics:dgCollisionCompound.obj
 0001:0008e3f0       ?CalculateSignature@dgCollisionCompound@@MBEHXZ 1008f3f0 f   physics:dgCollisionCompound.obj
 0001:0008e430       ?CalcAABB@dgCollisionCompound@@MBEXABVdgMatrix@@AAVdgVector@@1@Z 1008f430 f   physics:dgCollisionCompound.obj
 0001:0008e6d0       ?CalcAABBSimd@dgCollisionCompound@@MBEXABVdgMatrix@@AAVdgVector@@1@Z 1008f6d0 f   physics:dgCollisionCompound.obj
 0001:0008e970       ?DebugCollision@dgCollisionCompound@@MBEXABVdgMatrix@@P6AXPAXHPBMH@ZQAX@Z 1008f970 f   physics:dgCollisionCompound.obj
 0001:0008e9d0       ?RayCast@dgCollisionCompound@@MBEMABVdgVector@@0AAVdgContactPoint@@P6AIQBVdgBody@@QBVdgCollision@@QAX@Z24@Z 1008f9d0 f   physics:dgCollisionCompound.obj
 0001:0008ec80       ?RayCastSimd@dgCollisionCompound@@MBEMABVdgVector@@0AAVdgContactPoint@@P6AIQBVdgBody@@QBVdgCollision@@QAX@Z24@Z 1008fc80 f   physics:dgCollisionCompound.obj
 0001:0008ef30       ?GetVolume@dgCollisionCompound@@MBEMXZ 1008ff30 f   physics:dgCollisionCompound.obj
 0001:0008ef90       ?GetBoxMinRadius@dgCollisionCompound@@MBEMXZ 1008ff90 f   physics:dgCollisionCompound.obj
 0001:0008efb0       ?GetBoxMaxRadius@dgCollisionCompound@@MBEMXZ 1008ffb0 f   physics:dgCollisionCompound.obj
 0001:0008efd0       ?CalculateVolumeIntegral@dgCollisionCompound@@MBE?AVdgVector@@ABVdgMatrix@@P6AIPAX10AAVdgPlane@@@ZQAX@Z 1008ffd0 f   physics:dgCollisionCompound.obj
 0001:0008f120       ?CalculateInertia@dgCollisionCompound@@MBEXAAVdgVector@@0@Z 10090120 f   physics:dgCollisionCompound.obj
 0001:0008f440       ?AddCollision@dgCollisionCompound@@QAEXPAVdgConvexCollision@@@Z 10090440 f   physics:dgCollisionCompound.obj
 0001:0008f480       ?RemoveCollision@dgCollisionCompound@@QAEXPAVdgNodeBase@1@@Z 10090480 f   physics:dgCollisionCompound.obj
 0001:0008f6d0       ?SupportVertex@dgCollisionCompound@@MBE?AVdgVector@@ABV2@@Z 100906d0 f   physics:dgCollisionCompound.obj
 0001:0008fb20       ?GetCollisionInfo@dgCollisionCompound@@MBEXPAVdgCollisionInfo@@@Z 10090b20 f   physics:dgCollisionCompound.obj
 0001:0008fb80       ?Serialize@dgCollisionCompound@@MBEXP6AXPAXPBXI@ZQAX@Z 10090b80 f   physics:dgCollisionCompound.obj
 0001:0008fd30       ?OOBBTest@dgCollisionCompound@@MBE_NABVdgMatrix@@QBVdgConvexCollision@@QAX@Z 10090d30 f   physics:dgCollisionCompound.obj
 0001:0008fd70       ?BuildTopDownTree@dgCollisionCompound@@IAEPAVdgNodeBase@1@HQAPAV21@AAH@Z 10090d70 f   physics:dgCollisionCompound.obj
 0001:00090180       ?BuildTree@dgCollisionCompound@@IAEPAVdgNodeBase@1@HQBQAVdgConvexCollision@@@Z 10091180 f   physics:dgCollisionCompound.obj
 0001:00090240       ?CalculateContacts@dgCollisionCompound@@IBEHQAUdgPair@dgCollidingPairCollector@@AAVdgCollisionParamProxi@@H@Z 10091240 f   physics:dgCollisionCompound.obj
 0001:000903d0       ?CalculateContactsToSingle@dgCollisionCompound@@IBEHQAUdgPair@dgCollidingPairCollector@@AAVdgCollisionParamProxi@@H@Z 100913d0 f   physics:dgCollisionCompound.obj
 0001:00090930       ?CalculateContactsToCompound@dgCollisionCompound@@IBEHQAUdgPair@dgCollidingPairCollector@@AAVdgCollisionParamProxi@@H@Z 10091930 f   physics:dgCollisionCompound.obj
 0001:000910f0       ?CalculateContactsToCollisionTree@dgCollisionCompound@@IBEHQAUdgPair@dgCollidingPairCollector@@AAVdgCollisionParamProxi@@H@Z 100920f0 f   physics:dgCollisionCompound.obj
 0001:00091ea0       ?CalculateContactsToHightField@dgCollisionCompound@@IBEHQAUdgPair@dgCollidingPairCollector@@AAVdgCollisionParamProxi@@H@Z 10092ea0 f   physics:dgCollisionCompound.obj
 0001:000922e0       ?CalculateContactsBruteForce@dgCollisionCompound@@IBEHQAUdgPair@dgCollidingPairCollector@@AAVdgCollisionParamProxi@@H@Z 100932e0 f   physics:dgCollisionCompound.obj
 0001:00092560       ?ClosestDitance@dgCollisionCompound@@IBEHQAVdgBody@@AAVdgTriplex@@011@Z 10093560 f   physics:dgCollisionCompound.obj
 0001:00092b00       ??_GdgNodeBase@dgCollisionCompound@@QAEPAXI@Z 10093b00 f i physics:dgCollisionCompound.obj
 0001:00092b30       ??3dgNodeBase@dgCollisionCompound@@SAXPAX@Z 10093b30 f i physics:dgCollisionCompound.obj
 0001:00092b50       ??_EdgCollisionCompound@@UAEPAXI@Z 10093b50 f i physics:dgCollisionCompound.obj
 0001:00092b50       ??_GdgCollisionCompound@@UAEPAXI@Z 10093b50 f i physics:dgCollisionCompound.obj
 0001:00092b80       ??2dgNodeBase@dgCollisionCompound@@SAPAXIQAVdgMemoryAllocator@@@Z 10093b80 f i physics:dgCollisionCompound.obj
 0001:00092ba0       ??0dgNodeBase@dgCollisionCompound@@QAE@XZ 10093ba0 f i physics:dgCollisionCompound.obj
 0001:00092c00       ??$Swap@PAVdgNodeBase@dgCollisionCompound@@@@YAXAAPAVdgNodeBase@dgCollisionCompound@@0@Z 10093c00 f i physics:dgCollisionCompound.obj
 0001:00092c30       ??0?$dgStack@PAVdgNodeBase@dgCollisionCompound@@@@QAE@H@Z 10093c30 f i physics:dgCollisionCompound.obj
 0001:00092c60       ??1?$dgStack@PAVdgNodeBase@dgCollisionCompound@@@@QAE@XZ 10093c60 f i physics:dgCollisionCompound.obj
 0001:00092c80       ??A?$dgStack@PAVdgNodeBase@dgCollisionCompound@@@@QAEAAPAVdgNodeBase@dgCollisionCompound@@H@Z 10093c80 f i physics:dgCollisionCompound.obj
 0001:00092d00       ??0?$dgTree@PBVdgNodeBase@dgCollisionCompound@@PBV12@@@QAE@QAVdgMemoryAllocator@@@Z 10093d00 f i physics:dgCollisionCompound.obj
 0001:00092d30       ??1?$dgTree@PBVdgNodeBase@dgCollisionCompound@@PBV12@@@QAE@XZ 10093d30 f i physics:dgCollisionCompound.obj
 0001:00092d50       ?GetCount@?$dgTree@PBVdgNodeBase@dgCollisionCompound@@PBV12@@@QBEHXZ 10093d50 f i physics:dgCollisionCompound.obj
 0001:00092d60       ?Find@?$dgTree@PBVdgNodeBase@dgCollisionCompound@@PBV12@@@QBEPAVdgTreeNode@1@PBVdgNodeBase@dgCollisionCompound@@@Z 10093d60 f i physics:dgCollisionCompound.obj
 0001:00092e80       ?Insert@?$dgTree@PBVdgNodeBase@dgCollisionCompound@@PBV12@@@QAEPAVdgTreeNode@1@ABQBVdgNodeBase@dgCollisionCompound@@PBV34@@Z 10093e80 f i physics:dgCollisionCompound.obj
 0001:00092ec0       ?RemoveAll@?$dgTree@PBVdgNodeBase@dgCollisionCompound@@PBV12@@@QAEXXZ 10093ec0 f i physics:dgCollisionCompound.obj
 0001:00092f00       ?GetLeft@dgTreeNode@?$dgTree@PBVdgNodeBase@dgCollisionCompound@@PBV12@@@ABEPAV12@XZ 10093f00 f i physics:dgCollisionCompound.obj
 0001:00092f10       ?GetRight@dgTreeNode@?$dgTree@PBVdgNodeBase@dgCollisionCompound@@PBV12@@@ABEPAV12@XZ 10093f10 f i physics:dgCollisionCompound.obj
 0001:00092f30       ?Insert@?$dgTree@PBVdgNodeBase@dgCollisionCompound@@PBV12@@@QAEPAVdgTreeNode@1@ABQBVdgNodeBase@dgCollisionCompound@@PBV34@AA_N@Z 10093f30 f i physics:dgCollisionCompound.obj
 0001:00093130       ?CompareKeys@?$dgTree@PBVdgNodeBase@dgCollisionCompound@@PBV12@@@ABEHABQBVdgNodeBase@dgCollisionCompound@@0@Z 10094130 f i physics:dgCollisionCompound.obj
 0001:00093170       ??0dgTreeNode@?$dgTree@PBVdgNodeBase@dgCollisionCompound@@PBV12@@@AAE@ABQBVdgNodeBase@dgCollisionCompound@@0PAV01@@Z 10094170 f i physics:dgCollisionCompound.obj
 0001:000931e0       ??0dgCollisionUserMesh@@QAE@PAVdgMemoryAllocator@@ABVdgVector@@1ABVdgUserMeshCreation@@@Z 100941e0 f   physics:dgCollisionUserMesh.obj
 0001:00093290       ??0dgCollisionUserMesh@@QAE@QAVdgWorld@@P6AXPAX1I@ZQAX@Z 10094290 f   physics:dgCollisionUserMesh.obj
 0001:00093300       ??1dgCollisionUserMesh@@UAE@XZ 10094300 f   physics:dgCollisionUserMesh.obj
 0001:00093340       ?Serialize@dgCollisionUserMesh@@EBEXP6AXPAXPBXI@ZQAX@Z 10094340 f   physics:dgCollisionUserMesh.obj
 0001:00093370       ?GetVertexListIndexList@dgCollisionUserMesh@@UBEXABVdgVector@@0AAVdgGetVertexListIndexList@dgCollisionMesh@@@Z 10094370 f   physics:dgCollisionUserMesh.obj
 0001:000933f0       ?GetCollisionInfo@dgCollisionUserMesh@@EBEXPAVdgCollisionInfo@@@Z 100943f0 f   physics:dgCollisionUserMesh.obj
 0001:00093450       ?RayCastSimd@dgCollisionUserMesh@@EBEMABVdgVector@@0AAVdgContactPoint@@P6AIQBVdgBody@@QBVdgCollision@@QAX@Z24@Z 10094450 f   physics:dgCollisionUserMesh.obj
 0001:00093490       ?RayCast@dgCollisionUserMesh@@EBEMABVdgVector@@0AAVdgContactPoint@@P6AIQBVdgBody@@QBVdgCollision@@QAX@Z24@Z 10094490 f   physics:dgCollisionUserMesh.obj
 0001:000935e0       ?GetCollidingFacesSimd@dgCollisionUserMesh@@EBEXQAVdgPolygonMeshDesc@@@Z 100945e0 f   physics:dgCollisionUserMesh.obj
 0001:00093600       ?GetCollidingFaces@dgCollisionUserMesh@@EBEXQAVdgPolygonMeshDesc@@@Z 10094600 f   physics:dgCollisionUserMesh.obj
 0001:00093650       ?DebugCollision@dgCollisionUserMesh@@EBEXABVdgMatrix@@P6AXPAXHPBMH@ZQAX@Z 10094650 f   physics:dgCollisionUserMesh.obj
 0001:00093660       ??_GdgCollisionUserMesh@@UAEPAXI@Z 10094660 f i physics:dgCollisionUserMesh.obj
 0001:00093660       ??_EdgCollisionUserMesh@@UAEPAXI@Z 10094660 f i physics:dgCollisionUserMesh.obj
 0001:00093690       ??0dgCollisionMeshRayHitDesc@@QAE@XZ 10094690 f i physics:dgCollisionUserMesh.obj
 0001:000936e0       ?InitConvexCollision@dgWorld@@CAXXZ 100946e0 f   physics:dgMinkowskiConv.obj
 0001:00094470       ?SphereSphereCollision@dgWorld@@ABEHABVdgVector@@M0MAAVdgCollisionParamProxi@@@Z 10095470 f   physics:dgMinkowskiConv.obj
 0001:00094760       ?CalculateSphereToSphereContacts@dgWorld@@ABEHAAVdgCollisionParamProxi@@@Z 10095760 f   physics:dgMinkowskiConv.obj
 0001:00094840       ?CalculateCapsuleToSphereContacts@dgWorld@@ABEHAAVdgCollisionParamProxi@@@Z 10095840 f   physics:dgMinkowskiConv.obj
 0001:000949b0       ?CalculateCapsuleToCapsuleContacts@dgWorld@@ABEHAAVdgCollisionParamProxi@@@Z 100959b0 f   physics:dgMinkowskiConv.obj
 0001:000955d0       ?CalculateBoxToSphereContacts@dgWorld@@ABEHAAVdgCollisionParamProxi@@@Z 100965d0 f   physics:dgMinkowskiConv.obj
 0001:00097100       ?FilterPolygonEdgeContacts@dgWorld@@ABEHHQAVdgContactPoint@@@Z 10098100 f   physics:dgMinkowskiConv.obj
 0001:000973b0       ?ClosestPoint@dgWorld@@ABEHAAVdgCollisionParamProxi@@@Z 100983b0 f   physics:dgMinkowskiConv.obj
 0001:000974a0       ?CalculateHullToHullContactsSimd@dgWorld@@ABEHAAVdgCollisionParamProxi@@@Z 100984a0 f   physics:dgMinkowskiConv.obj
 0001:00097600       ?CalculateHullToHullContacts@dgWorld@@ABEHAAVdgCollisionParamProxi@@@Z 10098600 f   physics:dgMinkowskiConv.obj
 0001:00097760       ?CalculateConvexToConvexContactsSimd@dgWorld@@ABEHAAVdgCollisionParamProxi@@@Z 10098760 f   physics:dgMinkowskiConv.obj
 0001:00098000       ?CalculateConvexToConvexContacts@dgWorld@@ABEHAAVdgCollisionParamProxi@@@Z 10099000 f   physics:dgMinkowskiConv.obj
 0001:000988a0       ?CalculatePolySoupToSphereContactsDescrete@dgWorld@@ABEHAAVdgCollisionParamProxi@@@Z 100998a0 f   physics:dgMinkowskiConv.obj
 0001:00098f20       ?CalculatePolySoupToElipseContactsDescrete@dgWorld@@ABEHAAVdgCollisionParamProxi@@@Z 10099f20 f   physics:dgMinkowskiConv.obj
 0001:000995e0       ?CalculatePolySoupToSphereContactsContinue@dgWorld@@ABEHAAVdgCollisionParamProxi@@@Z 1009a5e0 f   physics:dgMinkowskiConv.obj
 0001:00099bb0       ?CalculatePolySoupToHullContactsDescreteSimd@dgWorld@@ABEHAAVdgCollisionParamProxi@@@Z 1009abb0 f   physics:dgMinkowskiConv.obj
 0001:0009a050       ?CalculatePolySoupToHullContactsDescrete@dgWorld@@ABEHAAVdgCollisionParamProxi@@@Z 1009b050 f   physics:dgMinkowskiConv.obj
 0001:0009a4f0       ?CalculateConvexToNonConvexContactsContinueSimd@dgWorld@@ABEHAAVdgCollisionParamProxi@@@Z 1009b4f0 f   physics:dgMinkowskiConv.obj
 0001:0009aba0       ?CalculateConvexToNonConvexContactsContinue@dgWorld@@ABEHAAVdgCollisionParamProxi@@@Z 1009bba0 f   physics:dgMinkowskiConv.obj
 0001:0009b250       ?CalculateConvexToNonConvexContactsSimd@dgWorld@@ABEHAAVdgCollisionParamProxi@@@Z 1009c250 f   physics:dgMinkowskiConv.obj
 0001:0009bd40       ?CalculateConvexToNonConvexContacts@dgWorld@@ABEHAAVdgCollisionParamProxi@@@Z 1009cd40 f   physics:dgMinkowskiConv.obj
 0001:0009c830       ?GetRadius@dgCollisionCapsule@@QBEMXZ 1009d830 f i physics:dgMinkowskiConv.obj
 0001:0009c850       ?GetHeight@dgCollisionCapsule@@QBEMXZ 1009d850 f i physics:dgMinkowskiConv.obj
 0001:0009c870       ?CalculateClosestPoints@dgContactSolver@@AAEHXZ 1009d870 f i physics:dgMinkowskiConv.obj
 0001:0009d930       ?CalcSupportVertex@dgContactSolver@@AAEXABVdgVector@@H@Z 1009e930 f i physics:dgMinkowskiConv.obj
 0001:0009dab0       ?ReduceLine@dgContactSolver@@AAE?AVdgVector@@ABV2@@Z 1009eab0 f i physics:dgMinkowskiConv.obj
 0001:0009dc70       ?ReduceTriangle@dgContactSolver@@AAE?AVdgVector@@ABV2@@Z 1009ec70 f i physics:dgMinkowskiConv.obj
 0001:0009e520       ?ReduceTetrahedrum@dgContactSolver@@AAE?AVdgVector@@ABV2@@Z 1009f520 f i physics:dgMinkowskiConv.obj
 0001:0009e970       ?CalcSeparatingPlane@dgContactSolver@@AAE?AW4dgMinkReturnCode@1@AAPAVdgMinkFace@1@ABVdgVector@@@Z 1009f970 f i physics:dgMinkowskiConv.obj
 0001:0009f2f0       ?CheckTetraHedronVolume@dgContactSolver@@ABE_NXZ 100a02f0 f i physics:dgMinkowskiConv.obj
 0001:0009f3d0       ?UpdateSeparatingPlane@dgContactSolver@@AAE?AW4dgMinkReturnCode@1@AAPAVdgMinkFace@1@ABVdgVector@@@Z 100a03d0 f i physics:dgMinkowskiConv.obj
 0001:0009fd50       ?UpdateSeparatingPlaneFallbackSolution@dgContactSolver@@AAE?AW4dgMinkReturnCode@1@AAPAVdgMinkFace@1@ABVdgVector@@@Z 100a0d50 f i physics:dgMinkowskiConv.obj
 0001:000a1950       ??0dgContactSolver@@QAE@AAVdgCollisionParamProxi@@@Z 100a2950 f i physics:dgMinkowskiConv.obj
 0001:000a1b90       ??0dgMinkFace@dgContactSolver@@QAE@XZ 100a2b90 f i physics:dgMinkowskiConv.obj
 0001:000a1bb0       ?HullHullContactsSimd@dgContactSolver@@QAEHH@Z 100a2bb0 f i physics:dgMinkowskiConv.obj
 0001:000a1fd0       ?CalculateContactsSimd@dgContactSolver@@AAEHQAVdgMinkFace@1@HQAVdgContactPoint@@H@Z 100a2fd0 f i physics:dgMinkowskiConv.obj
 0001:000a2d40       ?CalculateContactAlternateMethod@dgContactSolver@@AAEHQAVdgMinkFace@1@HQAVdgContactPoint@@H@Z 100a3d40 f i physics:dgMinkowskiConv.obj
 0001:000a39f0       ?CalculateConvexShapeIntersectionSimd@dgContactSolver@@ABEHABVdgMatrix@@ABVdgVector@@IMHQAV3@H2QAVdgContactPoint@@H@Z 100a49f0 f i physics:dgMinkowskiConv.obj
 0001:000a4a30       ?CalculateConvexShapeIntersectionLine@dgContactSolver@@ABEHABVdgMatrix@@ABVdgVector@@IMHQAV3@H2QAVdgContactPoint@@@Z 100a5a30 f i physics:dgMinkowskiConv.obj
 0001:000a4f50       ?ReduceContacts@dgContactSolver@@ABEPAUdgPerimenterEdge@1@PAU21@H@Z 100a5f50 f i physics:dgMinkowskiConv.obj
 0001:000a5230       ?CalculateConvexShapeIntersection@dgContactSolver@@ABEHABVdgMatrix@@ABVdgVector@@IMHQAV3@H2QAVdgContactPoint@@H@Z 100a6230 f i physics:dgMinkowskiConv.obj
 0001:000a5d90       ?CalcSeparatingPlaneSimd@dgContactSolver@@AAE?AW4dgMinkReturnCode@1@AAPAVdgMinkFace@1@ABVdgVector@@@Z 100a6d90 f i physics:dgMinkowskiConv.obj
 0001:000a6710       ?CalcSupportVertexSimd@dgContactSolver@@AAEXABVdgVector@@H@Z 100a7710 f i physics:dgMinkowskiConv.obj
 0001:000a6840       ?UpdateSeparatingPlaneSimd@dgContactSolver@@AAE?AW4dgMinkReturnCode@1@AAPAVdgMinkFace@1@ABVdgVector@@@Z 100a7840 f i physics:dgMinkowskiConv.obj
 0001:000a79d0       ?CalcFacePlaneSimd@dgContactSolver@@AAE_NPAVdgMinkFace@1@@Z 100a89d0 f i physics:dgMinkowskiConv.obj
 0001:000a79f0       ?CalcFacePlane@dgContactSolver@@AAE_NQAVdgMinkFace@1@@Z 100a89f0 f i physics:dgMinkowskiConv.obj
 0001:000a7b00       ?CalculateClipPlaneSimd@dgContactSolver@@AAEPAVdgMinkFace@1@XZ 100a8b00 f i physics:dgMinkowskiConv.obj
 0001:000a8da0       ??0dgClosestFace@dgContactSolver@@QAE@PAXH@Z 100a9da0 f i physics:dgMinkowskiConv.obj
 0001:000a8dc0       ?NewFace@dgContactSolver@@AAEPAVdgMinkFace@1@XZ 100a9dc0 f i physics:dgMinkowskiConv.obj
 0001:000a8e60       ?HullHullContactsLarge@dgContactSolver@@QAEHH@Z 100a9e60 f i physics:dgMinkowskiConv.obj
 0001:000a9350       ?CalculateContacts@dgContactSolver@@AAEHQAVdgMinkFace@1@HQAVdgContactPoint@@H@Z 100aa350 f i physics:dgMinkowskiConv.obj
 0001:000aa0c0       ?CalcSeparatingPlaneLarge@dgContactSolver@@AAE?AW4dgMinkReturnCode@1@AAPAVdgMinkFace@1@ABVdgBigVector@@@Z 100ab0c0 f i physics:dgMinkowskiConv.obj
 0001:000aaa20       ?CheckTetraHedronVolumeLarge@dgContactSolver@@ABE_NXZ 100aba20 f i physics:dgMinkowskiConv.obj
 0001:000aab20       ?CalcSupportVertexLarge@dgContactSolver@@AAEXABVdgVector@@H@Z 100abb20 f i physics:dgMinkowskiConv.obj
 0001:000aacb0       ?UpdateSeparatingPlaneLarge@dgContactSolver@@AAE?AW4dgMinkReturnCode@1@AAPAVdgMinkFace@1@ABVdgBigVector@@@Z 100abcb0 f i physics:dgMinkowskiConv.obj
 0001:000ab650       ?UpdateSeparatingPlaneFallbackSolutionLarge@dgContactSolver@@AAE?AW4dgMinkReturnCode@1@AAPAVdgMinkFace@1@ABVdgBigVector@@@Z 100ac650 f i physics:dgMinkowskiConv.obj
 0001:000ad3f0       ?ReduceLineLarge@dgContactSolver@@AAE?AVdgBigVector@@ABV2@@Z 100ae3f0 f i physics:dgMinkowskiConv.obj
 0001:000ad5b0       ?ReduceTriangleLarge@dgContactSolver@@AAE?AVdgBigVector@@ABV2@@Z 100ae5b0 f i physics:dgMinkowskiConv.obj
 0001:000ade00       ?ReduceTetrahedrumLarge@dgContactSolver@@AAE?AVdgBigVector@@ABV2@@Z 100aee00 f i physics:dgMinkowskiConv.obj
 0001:000ae180       ?CalcFacePlaneLarge@dgContactSolver@@AAE_NQAVdgMinkFace@1@@Z 100af180 f i physics:dgMinkowskiConv.obj
 0001:000ae2a0       ?CalculateClipPlaneLarge@dgContactSolver@@AAEPAVdgMinkFace@1@XZ 100af2a0 f i physics:dgMinkowskiConv.obj
 0001:000af5f0       ??1?$dgUpHeap@PAUdgPerimenterEdge@dgContactSolver@@M@@QAE@XZ 100b05f0 f i physics:dgMinkowskiConv.obj
 0001:000af610       ??1dgClosestFace@dgContactSolver@@QAE@XZ 100b0610 f i physics:dgMinkowskiConv.obj
 0001:000af630       ??1?$dgDownHeap@PAVdgMinkFace@dgContactSolver@@M@@QAE@XZ 100b0630 f i physics:dgMinkowskiConv.obj
 0001:000af650       ?HullHullContacts@dgContactSolver@@QAEHH@Z 100b0650 f i physics:dgMinkowskiConv.obj
 0001:000afa50       ?CalculateClipPlane@dgContactSolver@@AAEPAVdgMinkFace@1@XZ 100b0a50 f i physics:dgMinkowskiConv.obj
 0001:000b0cf0       ?HullHullContinueContactsSimd@dgContactSolver@@QAEHAAMQAVdgContactPoint@@HHH@Z 100b1cf0 f i physics:dgMinkowskiConv.obj
 0001:000b1960       ?CalculateContactsContinuesSimd@dgContactSolver@@AAEHHQAVdgContactPoint@@HPBVdgVector@@1M@Z 100b2960 f i physics:dgMinkowskiConv.obj
 0001:000b1ce0       ?CalculateVelocitiesSimd@dgContactSolver@@QAEXM@Z 100b2ce0 f i physics:dgMinkowskiConv.obj
 0001:000b1db0       ?CrossProductSimd@dgVector@@QBE?AV1@ABV1@@Z 100b2db0 f i physics:dgMinkowskiConv.obj
 0001:000b1e70       ??0dgBigVector@@QAE@XZ     100b2e70 f i physics:dgMinkowskiConv.obj
 0001:000b1e90       ??0dgPlane@@QAE@ABVdgVector@@00@Z 100b2e90 f i physics:dgMinkowskiConv.obj
 0001:000b1ef0       ?HullHullContinueContacts@dgContactSolver@@QAEHAAMQAVdgContactPoint@@HHH@Z 100b2ef0 f i physics:dgMinkowskiConv.obj
 0001:000b2b40       ?CalculateContactsContinues@dgContactSolver@@AAEHHQAVdgContactPoint@@HPBVdgVector@@1M@Z 100b3b40 f i physics:dgMinkowskiConv.obj
 0001:000b2d90       ?CalculateVelocities@dgContactSolver@@QAEXM@Z 100b3d90 f i physics:dgMinkowskiConv.obj
 0001:000b2e60       ??0dgBigPlane@@QAE@ABVdgBigVector@@00@Z 100b3e60 f i physics:dgMinkowskiConv.obj
 0001:000b2ec0       ?Scale@dgBigPlane@@QBE?AV1@N@Z 100b3ec0 f i physics:dgMinkowskiConv.obj
 0001:000b2f20       ??0dgBigPlane@@QAE@NNNN@Z  100b3f20 f i physics:dgMinkowskiConv.obj
 0001:000b2f60       ??0dgCollisionBoundPlaneCache@@QAE@XZ 100b3f60 f i physics:dgMinkowskiConv.obj
 0001:000b2f90       ?GetShapeClipSize@dgContactSolver@@ABEMQAVdgCollision@@@Z 100b3f90 f i physics:dgMinkowskiConv.obj
 0001:000b2fd0       ?TransformVectorsSimd@dgMatrix@@QBEXQAVdgVector@@QBV2@H@Z 100b3fd0 f i physics:dgMinkowskiConv.obj
 0001:000b3160       ?InverseSimd@dgMatrix@@QBE?AV1@XZ 100b4160 f i physics:dgMinkowskiConv.obj
 0001:000b3500       ??0dgContactSolver@@QAE@AAVdgCollisionParamProxi@@PAVdgCollision@@@Z 100b4500 f i physics:dgMinkowskiConv.obj
 0001:000b3730       ??0dgPolygonMeshDesc@@QAE@XZ 100b4730 f i physics:dgMinkowskiConv.obj
 0001:000b3760       ??0?$dgTemplateVector@N@@QAE@XZ 100b4760 f i physics:dgMinkowskiConv.obj
 0001:000b3770       ??1?$dgHeapBase@PAVdgMinkFace@dgContactSolver@@M@@IAE@XZ 100b4770 f i physics:dgMinkowskiConv.obj
 0001:000b37a0       ?GetCount@?$dgHeapBase@PAVdgMinkFace@dgContactSolver@@M@@QBEHXZ 100b47a0 f i physics:dgMinkowskiConv.obj
 0001:000b37b0       ??A?$dgHeapBase@PAVdgMinkFace@dgContactSolver@@M@@QBEABQAVdgMinkFace@dgContactSolver@@H@Z 100b47b0 f i physics:dgMinkowskiConv.obj
 0001:000b3800       ??0?$dgDownHeap@PAVdgMinkFace@dgContactSolver@@M@@QAE@QBXH@Z 100b4800 f i physics:dgMinkowskiConv.obj
 0001:000b3820       ?Pop@?$dgDownHeap@PAVdgMinkFace@dgContactSolver@@M@@QAEXXZ 100b4820 f i physics:dgMinkowskiConv.obj
 0001:000b3910       ?Push@?$dgDownHeap@PAVdgMinkFace@dgContactSolver@@M@@QAEXAAPAVdgMinkFace@dgContactSolver@@M@Z 100b4910 f i physics:dgMinkowskiConv.obj
 0001:000b3a10       ??1?$dgHeapBase@PAUdgPerimenterEdge@dgContactSolver@@M@@IAE@XZ 100b4a10 f i physics:dgMinkowskiConv.obj
 0001:000b3a40       ?Flush@?$dgHeapBase@PAUdgPerimenterEdge@dgContactSolver@@M@@QAEXXZ 100b4a40 f i physics:dgMinkowskiConv.obj
 0001:000b3a60       ?GetCount@?$dgHeapBase@PAUdgPerimenterEdge@dgContactSolver@@M@@QBEHXZ 100b4a60 f i physics:dgMinkowskiConv.obj
 0001:000b3a70       ??A?$dgHeapBase@PAUdgPerimenterEdge@dgContactSolver@@M@@QBEABQAUdgPerimenterEdge@dgContactSolver@@H@Z 100b4a70 f i physics:dgMinkowskiConv.obj
 0001:000b3ac0       ??0?$dgUpHeap@PAUdgPerimenterEdge@dgContactSolver@@M@@QAE@QBXH@Z 100b4ac0 f i physics:dgMinkowskiConv.obj
 0001:000b3ae0       ?Pop@?$dgUpHeap@PAUdgPerimenterEdge@dgContactSolver@@M@@QAEXXZ 100b4ae0 f i physics:dgMinkowskiConv.obj
 0001:000b3bd0       ?Push@?$dgUpHeap@PAUdgPerimenterEdge@dgContactSolver@@M@@QAEXAAPAUdgPerimenterEdge@dgContactSolver@@M@Z 100b4bd0 f i physics:dgMinkowskiConv.obj
 0001:000b3cd0       ?Remove@?$dgUpHeap@PAUdgPerimenterEdge@dgContactSolver@@M@@QAEXH@Z 100b4cd0 f i physics:dgMinkowskiConv.obj
 0001:000b3dd0       ??$Swap@VdgBigVector@@@@YAXAAVdgBigVector@@0@Z 100b4dd0 f i physics:dgMinkowskiConv.obj
 0001:000b3e20       ??$Swap@VdgContactPoint@@@@YAXAAVdgContactPoint@@0@Z 100b4e20 f i physics:dgMinkowskiConv.obj
 0001:000b3e70       ??0?$dgHeapBase@PAVdgMinkFace@dgContactSolver@@M@@IAE@QBXH@Z 100b4e70 f i physics:dgMinkowskiConv.obj
 0001:000b3eb0       ??0?$dgHeapBase@PAUdgPerimenterEdge@dgContactSolver@@M@@IAE@QBXH@Z 100b4eb0 f i physics:dgMinkowskiConv.obj
 0001:000b3ef0       ?Flush@?$dgHeapBase@PAVdgMinkFace@dgContactSolver@@M@@QAEXXZ 100b4ef0 f i physics:dgMinkowskiConv.obj
 0001:000b3f10       ?dgExpandTraceMessage@@YAXPBDZZ 100b4f10 f   corelib:dgDebug.obj
 0001:000b3f60       ??0dgMemoryAllocator@@QAE@XZ 100b4f60 f   corelib:dgMemory.obj
 0001:000b3fd0       ??0dgMemoryAllocator@@IAE@P6APAXI@ZP6AXPAXI@Z@Z 100b4fd0 f   corelib:dgMemory.obj
 0001:000b4020       ??1dgMemoryAllocator@@QAE@XZ 100b5020 f   corelib:dgMemory.obj
 0001:000b4070       ??2dgMemoryAllocator@@SAPAXI@Z 100b5070 f   corelib:dgMemory.obj
 0001:000b4090       ??3dgMemoryAllocator@@SAXPAX@Z 100b5090 f   corelib:dgMemory.obj
 0001:000b40b0       ?GetMemoryUsed@dgMemoryAllocator@@QBEHXZ 100b50b0 f   corelib:dgMemory.obj
 0001:000b40d0       ?SetAllocatorsCallback@dgMemoryAllocator@@QAEXP6APAXI@ZP6AXPAXI@Z@Z 100b50d0 f   corelib:dgMemory.obj
 0001:000b40f0       ?MallocLow@dgMemoryAllocator@@QAEPAXHH@Z 100b50f0 f   corelib:dgMemory.obj
 0001:000b41e0       ?FreeLow@dgMemoryAllocator@@QAEXPAX@Z 100b51e0 f   corelib:dgMemory.obj
 0001:000b4260       ?Malloc@dgMemoryAllocator@@QAEPAXH@Z 100b5260 f   corelib:dgMemory.obj
 0001:000b44b0       ?Free@dgMemoryAllocator@@QAEXPAX@Z 100b54b0 f   corelib:dgMemory.obj
 0001:000b46c0       ?dgSetGlobalAllocators@@YAXP6APAXI@ZP6AXPAXI@Z@Z 100b56c0 f   corelib:dgMemory.obj
 0001:000b46e0       ?dgGetMemoryUsed@@YAHXZ    100b56e0 f   corelib:dgMemory.obj
 0001:000b46f0       ?dgMallocStack@@YAPAXI@Z   100b56f0 f   corelib:dgMemory.obj
 0001:000b4710       ?dgMallocAligned@@YAPAXIH@Z 100b5710 f   corelib:dgMemory.obj
 0001:000b4730       ?dgFreeStack@@YAXPAX@Z     100b5730 f   corelib:dgMemory.obj
 0001:000b4750       ?dgMalloc@@YAPAXIQAVdgMemoryAllocator@@@Z 100b5750 f   corelib:dgMemory.obj
 0001:000b47a0       ?dgFree@@YAXPAX@Z          100b57a0 f   corelib:dgMemory.obj
 0001:000b47f0       ?SaveInfo@dgMemoryInfo@dgMemoryAllocator@@QAEXQAV2@QAXHAAH@Z 100b57f0 f i corelib:dgMemory.obj
 0001:000b4830       ?GetMemoryUsed@dgGlobalAllocator@@QBEHXZ 100b5830 f i corelib:dgMemory.obj
 0001:000b4890       ?GetInfo@dgListNode@?$dgList@PAVdgMemoryAllocator@@@@QAEAAPAVdgMemoryAllocator@@XZ 100b5890 f i corelib:dgMemory.obj
 0001:000b48a0       ?GetNext@dgListNode@?$dgList@PAVdgMemoryAllocator@@@@QBEPAV12@XZ 100b58a0 f i corelib:dgMemory.obj
 0001:000b48c0       ?GetFirst@?$dgList@PAVdgMemoryAllocator@@@@QBEPAVdgListNode@1@XZ 100b58c0 f i corelib:dgMemory.obj
 0001:000b48e0       ?Append@?$dgList@PAVdgMemoryAllocator@@@@QAEPAVdgListNode@1@ABQAVdgMemoryAllocator@@@Z 100b58e0 f i corelib:dgMemory.obj
 0001:000b49a0       ?Remove@?$dgList@PAVdgMemoryAllocator@@@@QAEXABQAVdgMemoryAllocator@@@Z 100b59a0 f i corelib:dgMemory.obj
 0001:000b49d0       ??2dgListNode@?$dgList@PAVdgMemoryAllocator@@@@CAPAXIQAVdgMemoryAllocator@@@Z 100b59d0 f i corelib:dgMemory.obj
 0001:000b49f0       ??0dgListNode@?$dgList@PAVdgMemoryAllocator@@@@AAE@ABQAVdgMemoryAllocator@@QAV01@1@Z 100b59f0 f i corelib:dgMemory.obj
 0001:000b4a80       ?Find@?$dgList@PAVdgMemoryAllocator@@@@QBEPAVdgListNode@1@ABQAVdgMemoryAllocator@@@Z 100b5a80 f i corelib:dgMemory.obj
 0001:000b4ac0       ?Remove@?$dgList@PAVdgMemoryAllocator@@@@QAEXQAVdgListNode@1@@Z 100b5ac0 f i corelib:dgMemory.obj
 0001:000b4b10       ??_GdgListNode@?$dgList@PAVdgMemoryAllocator@@@@AAEPAXI@Z 100b5b10 f i corelib:dgMemory.obj
 0001:000b4b40       ??3dgListNode@?$dgList@PAVdgMemoryAllocator@@@@CAXPAX@Z 100b5b40 f i corelib:dgMemory.obj
 0001:000b4b60       ??1dgListNode@?$dgList@PAVdgMemoryAllocator@@@@AAE@XZ 100b5b60 f i corelib:dgMemory.obj
 0001:000b4b70       ?Unlink@?$dgList@PAVdgMemoryAllocator@@@@QAEXQAVdgListNode@1@@Z 100b5b70 f i corelib:dgMemory.obj
 0001:000b4c20       ?Unlink@dgListNode@?$dgList@PAVdgMemoryAllocator@@@@AAEXXZ 100b5c20 f i corelib:dgMemory.obj
 0001:000b4c70       ?GetPrev@dgListNode@?$dgList@PAVdgMemoryAllocator@@@@QBEPAV12@XZ 100b5c70 f i corelib:dgMemory.obj
 0001:000b4c90       ?dgAtomicAdd@@YAHQAHH@Z    100b5c90 f i corelib:dgMemory.obj
 0001:000b4cb0       ??0dgGlobalAllocator@@QAE@XZ 100b5cb0 f i corelib:dgMemory.obj
 0001:000b4d00       ?__malloc__@dgGlobalAllocator@@SAPAXI@Z 100b5d00 f i corelib:dgMemory.obj
 0001:000b4d20       ?__free__@dgGlobalAllocator@@SAXPAXI@Z 100b5d20 f i corelib:dgMemory.obj
 0001:000b4d40       ??0?$dgList@PAVdgMemoryAllocator@@@@QAE@QAVdgMemoryAllocator@@@Z 100b5d40 f i corelib:dgMemory.obj
 0001:000b4d80       ?SetAllocator@?$dgList@PAVdgMemoryAllocator@@@@QAEXQAVdgMemoryAllocator@@@Z 100b5d80 f i corelib:dgMemory.obj
 0001:000b4db0       ??1dgGlobalAllocator@@QAE@XZ 100b5db0 f i corelib:dgMemory.obj
 0001:000b4e10       ??1?$dgList@PAVdgMemoryAllocator@@@@QAE@XZ 100b5e10 f i corelib:dgMemory.obj
 0001:000b4e30       ?GetCount@?$dgList@PAVdgMemoryAllocator@@@@QBEHXZ 100b5e30 f i corelib:dgMemory.obj
 0001:000b4e40       ?RemoveAll@?$dgList@PAVdgMemoryAllocator@@@@QAEXXZ 100b5e40 f i corelib:dgMemory.obj
 0001:000b4f00       ?DJBHash@InternalCRC@@YAIQBDH@Z 100b5f00 f   corelib:dgCRC.obj
 0001:000b4f50       ?dgCRC@@YAIQBD@Z           100b5f50 f   corelib:dgCRC.obj
 0001:000b4ff0       ?dgCRC@@YAIQBXHI@Z         100b5ff0 f   corelib:dgCRC.obj
 0001:000b5080       ?dgInverseCRC@@YAPBDI@Z    100b6080 f   corelib:dgCRC.obj
 0001:000b50b0       ?dgHash@@YAIQBXH@Z         100b60b0 f   corelib:dgCRC.obj
 0001:000b50d0       ?dgAbsf@@YAMM@Z            100b60d0 f   corelib:dgTypes.obj
 0001:000b50e0       ?dgSqrt@@YAMM@Z            100b60e0 f   corelib:dgTypes.obj
 0001:000b50f0       ?dgSin@@YAMM@Z             100b60f0 f   corelib:dgTypes.obj
 0001:000b5100       ?dgCos@@YAMM@Z             100b6100 f   corelib:dgTypes.obj
 0001:000b5110       ?dgAsin@@YAMM@Z            100b6110 f   corelib:dgTypes.obj
 0001:000b5130       ?dgAcos@@YAMM@Z            100b6130 f   corelib:dgTypes.obj
 0001:000b5150       ?dgAtan2@@YAMMM@Z          100b6150 f   corelib:dgTypes.obj
 0001:000b5170       ?dgFloor@@YAMM@Z           100b6170 f   corelib:dgTypes.obj
 0001:000b51a0       ?dgFastInt@@YAHM@Z         100b61a0 f   corelib:dgTypes.obj
 0001:000b51d0       ?dgSinCos@@YAXMAAM0@Z      100b61d0 f   corelib:dgTypes.obj
 0001:000b51f0       ?GetMinMax@@YAXAAVdgVector@@0QBMHH@Z 100b61f0 f   corelib:dgTypes.obj
 0001:000b53d0       ?dgGetCpuType@@YA?AW4dgCpuClass@@XZ 100b63d0 f   corelib:dgTypes.obj
 0001:000b55e0       ?dgVertexListToIndexList@@YAHQAMHHHHQAHM@Z 100b65e0 f   corelib:dgTypes.obj
 0001:000b66a0       ??$GetMin@N@@YANNNN@Z      100b76a0 f i corelib:dgTypes.obj
 0001:000b66e0       ??0?$dgStack@M@@QAE@H@Z    100b76e0 f i corelib:dgTypes.obj
 0001:000b6710       ??1?$dgStack@M@@QAE@XZ     100b7710 f i corelib:dgTypes.obj
 0001:000b6730       ??A?$dgStack@M@@QAEAAMH@Z  100b7730 f i corelib:dgTypes.obj
 0001:000b67b0       ??$GetMin@N@@YANNN@Z       100b77b0 f i corelib:dgTypes.obj
 0001:000b67d0       ?dgGetIdentityMatrix@@YAABVdgMatrix@@XZ 100b77d0 f   corelib:dgMatrix.obj
 0001:000b67e0       ?dgGetZeroMatrix@@YAABVdgMatrix@@XZ 100b77e0 f   corelib:dgMatrix.obj
 0001:000b67f0       ??0dgMatrix@@QAE@ABVdgQuaternion@@ABVdgVector@@@Z 100b77f0 f   corelib:dgMatrix.obj
 0001:000b6ab0       ??DdgMatrix@@QBE?AV0@ABV0@@Z 100b7ab0 f   corelib:dgMatrix.obj
 0001:000b7910       ?TransformTriplex@dgMatrix@@QBEXQAXHQBXHH@Z 100b8910 f   corelib:dgMatrix.obj
 0001:000b7a20       ?TransformBBox@dgMatrix@@QBEXABVdgVector@@0AAV2@1@Z 100b8a20 f   corelib:dgMatrix.obj
 0001:000b7ef0       ?Symetric3by3Inverse@dgMatrix@@QBE?AV1@XZ 100b8ef0 f   corelib:dgMatrix.obj
 0001:000b85e0       ?EigenVectors@dgMatrix@@QAEXAAVdgVector@@@Z 100b95e0 f   corelib:dgMatrix.obj
 0001:000b9520       ?CalcPitchYawRoll@dgMatrix@@QBE?AVdgVector@@XZ 100ba520 f   corelib:dgMatrix.obj
 0001:000b98a0       ??0dgPolyhedraDescriptor@@QAE@ABVdgPolyhedra@@@Z 100ba8a0 f   corelib:dgPolyhedra.obj
 0001:000b98e0       ??1dgPolyhedraDescriptor@@QAE@XZ 100ba8e0 f   corelib:dgPolyhedra.obj
 0001:000b9900       ?Update@dgPolyhedraDescriptor@@QAEXABVdgPolyhedra@@@Z 100ba900 f   corelib:dgPolyhedra.obj
 0001:000b9b10       ??0dgPolyhedra@@QAE@QAVdgMemoryAllocator@@@Z 100bab10 f   corelib:dgPolyhedra.obj
 0001:000b9b60       ??0dgPolyhedra@@QAE@ABV0@@Z 100bab60 f   corelib:dgPolyhedra.obj
 0001:000b9d30       ??1dgPolyhedra@@UAE@XZ     100bad30 f   corelib:dgPolyhedra.obj
 0001:000b9d50       ?DeleteAllFace@dgPolyhedra@@QAEXXZ 100bad50 f   corelib:dgPolyhedra.obj
 0001:000b9d90       ?SanityCheck@dgPolyhedra@@QBE_NXZ 100bad90 f   corelib:dgPolyhedra.obj
 0001:000b9da0       ?BeginFace@dgPolyhedra@@QAEXXZ 100bada0 f   corelib:dgPolyhedra.obj
 0001:000b9db0       ?EndFace@dgPolyhedra@@QAEXXZ 100badb0 f   corelib:dgPolyhedra.obj
 0001:000ba0a0       ?AddFace@dgPolyhedra@@QAEPAVdgEdge@@HHH@Z 100bb0a0 f   corelib:dgPolyhedra.obj
 0001:000ba0e0       ?AddFace@dgPolyhedra@@QAEPAVdgEdge@@HQBHQB_J@Z 100bb0e0 f   corelib:dgPolyhedra.obj
 0001:000ba5d0       ?DeleteFace@dgPolyhedra@@QAEXQAVdgEdge@@@Z 100bb5d0 f   corelib:dgPolyhedra.obj
 0001:000ba6c0       ?FindVertexNode@dgPolyhedra@@QBEPAVdgEdge@@H@Z 100bb6c0 f   corelib:dgPolyhedra.obj
 0001:000ba730       ?FindEdgeNode@dgPolyhedra@@QBEPAVdgTreeNode@?$dgTree@VdgEdge@@_J@@HH@Z 100bb730 f   corelib:dgPolyhedra.obj
 0001:000ba770       ?FindEdge@dgPolyhedra@@QBEPAVdgEdge@@HH@Z 100bb770 f   corelib:dgPolyhedra.obj
 0001:000ba7b0       ?AddHalfEdge@dgPolyhedra@@QAEPAVdgEdge@@HH@Z 100bb7b0 f   corelib:dgPolyhedra.obj
 0001:000ba830       ?DeleteEdge@dgPolyhedra@@QAEXQAVdgEdge@@@Z 100bb830 f   corelib:dgPolyhedra.obj
 0001:000ba930       ?DeleteEdge@dgPolyhedra@@QAEXHH@Z 100bb930 f   corelib:dgPolyhedra.obj
 0001:000ba9a0       ?CollapseEdge@dgPolyhedra@@QAEPAVdgEdge@@QAV2@@Z 100bb9a0 f   corelib:dgPolyhedra.obj
 0001:000bae60       ?ChangeEdgeIncidentVertex@dgPolyhedra@@QAEXQAVdgEdge@@H@Z 100bbe60 f   corelib:dgPolyhedra.obj
 0001:000baf20       ?FlipEdge@dgPolyhedra@@QAE_NQAVdgEdge@@@Z 100bbf20 f   corelib:dgPolyhedra.obj
 0001:000bb140       ?SpliteEdge@dgPolyhedra@@QAEPAVdgEdge@@HQAV2@@Z 100bc140 f   corelib:dgPolyhedra.obj
 0001:000bb350       ?SpliteEdgeAndTriangulate@dgPolyhedra@@QAEPAVdgEdge@@HQAV2@@Z 100bc350 f   corelib:dgPolyhedra.obj
 0001:000bb4e0       ?CalculateSphere@dgPolyhedra@@QBE?AVdgSphere@@QBMHQBVdgMatrix@@@Z 100bc4e0 f   corelib:dgPolyhedra.obj
 0001:000bbdf0       ?FaceNormal@dgPolyhedra@@QBE?AVdgVector@@QAVdgEdge@@QBMH@Z 100bcdf0 f   corelib:dgPolyhedra.obj
 0001:000bbfc0       ?BigFaceNormal@dgPolyhedra@@QBE?AVdgBigVector@@QAVdgEdge@@QBMH@Z 100bcfc0 f   corelib:dgPolyhedra.obj
 0001:000bbff0       ?GetMaxIndex@dgPolyhedra@@QBEHXZ 100bcff0 f   corelib:dgPolyhedra.obj
 0001:000bc080       ?GetFaceCount@dgPolyhedra@@QBEHXZ 100bd080 f   corelib:dgPolyhedra.obj
 0001:000bc150       ?GetUnboundedFaceCount@dgPolyhedra@@QBEHXZ 100bd150 f   corelib:dgPolyhedra.obj
 0001:000bc220       ?PackVertex@dgPolyhedra@@QAEHQAMQBMH@Z 100bd220 f   corelib:dgPolyhedra.obj
 0001:000bc260       ?GetBadEdges@dgPolyhedra@@QBEXAAV?$dgList@PAVdgEdge@@@@QBMH@Z 100bd260 f   corelib:dgPolyhedra.obj
 0001:000bcdf0       ?DeleteDegenerateFaces@dgPolyhedra@@QAEXQBMHM@Z 100bddf0 f   corelib:dgPolyhedra.obj
 0001:000bcfb0       ?GetConectedSurface@dgPolyhedra@@QBE_NAAV1@@Z 100bdfb0 f   corelib:dgPolyhedra.obj
 0001:000bd2a0       ?GetCoplanarFaces@dgPolyhedra@@QBEXAAV?$dgList@PAVdgEdge@@@@PAVdgEdge@@QBMHM@Z 100be2a0 f   corelib:dgPolyhedra.obj
 0001:000bd660       ?DeleteOverlapingFaces@dgPolyhedra@@QAEXQBMHM@Z 100be660 f   corelib:dgPolyhedra.obj
 0001:000bdc50       ?InvertWinding@dgPolyhedra@@QAEXXZ 100bec50 f   corelib:dgPolyhedra.obj
 0001:000bde20       ?TriangleList@dgPolyhedra@@QBEHQAIHH@Z 100bee20 f   corelib:dgPolyhedra.obj
 0001:000be150       ?SwapInfo@dgPolyhedra@@QAEXAAV1@@Z 100bf150 f   corelib:dgPolyhedra.obj
 0001:000be1d0       ?GetOpenFaces@dgPolyhedra@@QBEXAAV?$dgList@PAVdgEdge@@@@@Z 100bf1d0 f   corelib:dgPolyhedra.obj
 0001:000be290       ?Optimize@dgPolyhedra@@QAEXQBMHM@Z 100bf290 f   corelib:dgPolyhedra.obj
 0001:000bfdb0       ?Triangulate@dgPolyhedra@@QAEXQBMHQAV1@@Z 100c0db0 f   corelib:dgPolyhedra.obj
 0001:000c17e0       ?ConvexPartition@dgPolyhedra@@QAEXQBMHQAV1@@Z 100c27e0 f   corelib:dgPolyhedra.obj
 0001:000c2cd0       ??_GdgPolyhedra@@UAEPAXI@Z 100c3cd0 f i corelib:dgPolyhedra.obj
 0001:000c2cd0       ??_EdgPolyhedra@@UAEPAXI@Z 100c3cd0 f i corelib:dgPolyhedra.obj
 0001:000c2d00       ??0dgEdge@@QAE@HH_K@Z      100c3d00 f i corelib:dgPolyhedra.obj
 0001:000c2d60       ??0dgPairKey@dgPolyhedra@@QAE@HH@Z 100c3d60 f i corelib:dgPolyhedra.obj
 0001:000c2da0       ?GetVal@dgPairKey@dgPolyhedra@@QBE_JXZ 100c3da0 f i corelib:dgPolyhedra.obj
 0001:000c2dc0       ??1?$dgDownHeap@PAVdgEdge@@M@@QAE@XZ 100c3dc0 f i corelib:dgPolyhedra.obj
 0001:000c2de0       ??4dgPolyhedra@@QAEAAV0@ABV0@@Z 100c3de0 f i corelib:dgPolyhedra.obj
 0001:000c2e50       ??0VertexCache@InternalPolyhedra@@QAE@HQAVdgMemoryAllocator@@@Z 100c3e50 f i corelib:dgPolyhedra.obj
 0001:000c2e80       ?IsInCache@VertexCache@InternalPolyhedra@@QBEHPAVdgEdge@@@Z 100c3e80 f i corelib:dgPolyhedra.obj
 0001:000c2f20       ?AddEdge@VertexCache@InternalPolyhedra@@QAEHPAVdgEdge@@@Z 100c3f20 f i corelib:dgPolyhedra.obj
 0001:000c2f80       ?GetEdge@VertexCache@InternalPolyhedra@@QBEPAVdgEdge@@H@Z 100c3f80 f i corelib:dgPolyhedra.obj
 0001:000c3030       ??1VertexCache@InternalPolyhedra@@QAE@XZ 100c4030 f i corelib:dgPolyhedra.obj
 0001:000c3050       ??0EDGE_HANDLE@InternalPolyhedra@@QAE@PAVdgEdge@@@Z 100c4050 f i corelib:dgPolyhedra.obj
 0001:000c3080       ??1EDGE_HANDLE@InternalPolyhedra@@QAE@XZ 100c4080 f i corelib:dgPolyhedra.obj
 0001:000c30d0       ?Evalue@VERTEX_METRIC_STRUCT@InternalPolyhedra@@QAENAAVdgVector@@@Z 100c40d0 f i corelib:dgPolyhedra.obj
 0001:000c31a0       ??0dgBigPlane@@QAE@XZ      100c41a0 f i corelib:dgPolyhedra.obj
 0001:000c31c0       ??0VERTEX_METRIC_STRUCT@InternalPolyhedra@@QAE@ABVdgBigPlane@@@Z 100c41c0 f i corelib:dgPolyhedra.obj
 0001:000c32b0       ?Accumulate@VERTEX_METRIC_STRUCT@InternalPolyhedra@@QAEXAAU12@@Z 100c42b0 f i corelib:dgPolyhedra.obj
 0001:000c3370       ?Clear@VERTEX_METRIC_STRUCT@InternalPolyhedra@@QAEXXZ 100c4370 f i corelib:dgPolyhedra.obj
 0001:000c3390       ?Accumulate@VERTEX_METRIC_STRUCT@InternalPolyhedra@@QAEXAAVdgBigPlane@@@Z 100c4390 f i corelib:dgPolyhedra.obj
 0001:000c34b0       ??1?$dgDownHeap@PAVdgListNode@?$dgList@UEDGE_HANDLE@InternalPolyhedra@@@@N@@QAE@XZ 100c44b0 f i corelib:dgPolyhedra.obj
 0001:000c34d0       ??0dgDiagonalEdge@InternalPolyhedra@@QAE@QAVdgEdge@@@Z 100c44d0 f i corelib:dgPolyhedra.obj
 0001:000c3500       ??0Iterator@?$dgList@PAVdgEdge@@@@QAE@ABV1@@Z 100c4500 f i corelib:dgPolyhedra.obj
 0001:000c3530       ??1Iterator@?$dgList@PAVdgEdge@@@@QAE@XZ 100c4530 f i corelib:dgPolyhedra.obj
 0001:000c3540       ??BIterator@?$dgList@PAVdgEdge@@@@QBEHXZ 100c4540 f i corelib:dgPolyhedra.obj
 0001:000c3560       ?End@Iterator@?$dgList@PAVdgEdge@@@@QAEXXZ 100c4560 f i corelib:dgPolyhedra.obj
 0001:000c3580       ??FIterator@?$dgList@PAVdgEdge@@@@QAEXH@Z 100c4580 f i corelib:dgPolyhedra.obj
 0001:000c35d0       ??DIterator@?$dgList@PAVdgEdge@@@@QBEAAPAVdgEdge@@XZ 100c45d0 f i corelib:dgPolyhedra.obj
 0001:000c35f0       ?GetInfo@dgListNode@?$dgList@VdgDiagonalEdge@InternalPolyhedra@@@@QAEAAVdgDiagonalEdge@InternalPolyhedra@@XZ 100c45f0 f i corelib:dgPolyhedra.obj
 0001:000c3600       ?GetNext@dgListNode@?$dgList@VdgDiagonalEdge@InternalPolyhedra@@@@QBEPAV12@XZ 100c4600 f i corelib:dgPolyhedra.obj
 0001:000c3620       ??0Iterator@?$dgTree@PAVdgEdge@@H@@QAE@ABV1@@Z 100c4620 f i corelib:dgPolyhedra.obj
 0001:000c3650       ??1Iterator@?$dgTree@PAVdgEdge@@H@@QAE@XZ 100c4650 f i corelib:dgPolyhedra.obj
 0001:000c3660       ?Begin@Iterator@?$dgTree@PAVdgEdge@@H@@QAEXXZ 100c4660 f i corelib:dgPolyhedra.obj
 0001:000c3680       ??BIterator@?$dgTree@PAVdgEdge@@H@@QBEHXZ 100c4680 f i corelib:dgPolyhedra.obj
 0001:000c36a0       ??EIterator@?$dgTree@PAVdgEdge@@H@@QAEXH@Z 100c46a0 f i corelib:dgPolyhedra.obj
 0001:000c36f0       ?GetNode@Iterator@?$dgTree@PAVdgEdge@@H@@QBEPAVdgTreeNode@2@XZ 100c46f0 f i corelib:dgPolyhedra.obj
 0001:000c3700       ?GetInfo@dgTreeNode@?$dgTree@PAVdgEdge@@H@@QAEAAPAVdgEdge@@XZ 100c4700 f i corelib:dgPolyhedra.obj
 0001:000c3720       ?GetInfo@dgListNode@?$dgList@UEDGE_HANDLE@InternalPolyhedra@@@@QAEAAUEDGE_HANDLE@InternalPolyhedra@@XZ 100c4720 f i corelib:dgPolyhedra.obj
 0001:000c3730       ?GetInfo@dgListNode@?$dgList@PAVdgEdge@@@@QAEAAPAVdgEdge@@XZ 100c4730 f i corelib:dgPolyhedra.obj
 0001:000c3740       ?GetPrev@dgListNode@?$dgList@PAVdgEdge@@@@QBEPAV12@XZ 100c4740 f i corelib:dgPolyhedra.obj
 0001:000c3760       ??0?$dgList@PAVdgEdge@@@@QAE@QAVdgMemoryAllocator@@@Z 100c4760 f i corelib:dgPolyhedra.obj
 0001:000c37a0       ??1?$dgList@PAVdgEdge@@@@QAE@XZ 100c47a0 f i corelib:dgPolyhedra.obj
 0001:000c37c0       ?GetCount@?$dgList@PAVdgEdge@@@@QBEHXZ 100c47c0 f i corelib:dgPolyhedra.obj
 0001:000c37d0       ?GetLast@?$dgList@PAVdgEdge@@@@QBEPAVdgListNode@1@XZ 100c47d0 f i corelib:dgPolyhedra.obj
 0001:000c37f0       ?Append@?$dgList@PAVdgEdge@@@@QAEPAVdgListNode@1@ABQAVdgEdge@@@Z 100c47f0 f i corelib:dgPolyhedra.obj
 0001:000c38b0       ?Addtop@?$dgList@PAVdgEdge@@@@QAEPAVdgListNode@1@ABQAVdgEdge@@@Z 100c48b0 f i corelib:dgPolyhedra.obj
 0001:000c3970       ?Remove@?$dgList@PAVdgEdge@@@@QAEXQAVdgListNode@1@@Z 100c4970 f i corelib:dgPolyhedra.obj
 0001:000c39c0       ?RemoveAll@?$dgList@PAVdgEdge@@@@QAEXXZ 100c49c0 f i corelib:dgPolyhedra.obj
 0001:000c3a80       ??0?$dgTree@VdgEdge@@_J@@QAE@QAVdgMemoryAllocator@@@Z 100c4a80 f i corelib:dgPolyhedra.obj
 0001:000c3ab0       ??1?$dgTree@VdgEdge@@_J@@QAE@XZ 100c4ab0 f i corelib:dgPolyhedra.obj
 0001:000c3ad0       ?Find@?$dgTree@VdgEdge@@_J@@QBEPAVdgTreeNode@1@_J@Z 100c4ad0 f i corelib:dgPolyhedra.obj
 0001:000c3c10       ?FindGreaterEqual@?$dgTree@VdgEdge@@_J@@QBEPAVdgTreeNode@1@_J@Z 100c4c10 f i corelib:dgPolyhedra.obj
 0001:000c3cf0       ?Insert@?$dgTree@VdgEdge@@_J@@QAEPAVdgTreeNode@1@ABVdgEdge@@_J@Z 100c4cf0 f i corelib:dgPolyhedra.obj
 0001:000c3d30       ?Insert@?$dgTree@VdgEdge@@_J@@QAEPAVdgTreeNode@1@ABVdgEdge@@_JAA_N@Z 100c4d30 f i corelib:dgPolyhedra.obj
 0001:000c3f50       ?ReplaceKey@?$dgTree@VdgEdge@@_J@@QAEPAVdgTreeNode@1@QAV21@_J@Z 100c4f50 f i corelib:dgPolyhedra.obj
 0001:000c3fb0       ?Remove@?$dgTree@VdgEdge@@_J@@QAEXQAVdgTreeNode@1@@Z 100c4fb0 f i corelib:dgPolyhedra.obj
 0001:000c3ff0       ?SwapInfo@?$dgTree@VdgEdge@@_J@@QAEXAAV1@@Z 100c4ff0 f i corelib:dgPolyhedra.obj
 0001:000c4030       ??$GetMax@M@@YAMMMM@Z      100c5030 f i corelib:dgPolyhedra.obj
 0001:000c4060       ??0?$dgList@VdgDiagonalEdge@InternalPolyhedra@@@@QAE@QAVdgMemoryAllocator@@@Z 100c5060 f i corelib:dgPolyhedra.obj
 0001:000c40a0       ??1?$dgList@VdgDiagonalEdge@InternalPolyhedra@@@@QAE@XZ 100c50a0 f i corelib:dgPolyhedra.obj
 0001:000c40c0       ?GetCount@?$dgList@VdgDiagonalEdge@InternalPolyhedra@@@@QBEHXZ 100c50c0 f i corelib:dgPolyhedra.obj
 0001:000c40d0       ?GetFirst@?$dgList@VdgDiagonalEdge@InternalPolyhedra@@@@QBEPAVdgListNode@1@XZ 100c50d0 f i corelib:dgPolyhedra.obj
 0001:000c40f0       ?Append@?$dgList@VdgDiagonalEdge@InternalPolyhedra@@@@QAEPAVdgListNode@1@ABVdgDiagonalEdge@InternalPolyhedra@@@Z 100c50f0 f i corelib:dgPolyhedra.obj
 0001:000c41b0       ?Remove@?$dgList@VdgDiagonalEdge@InternalPolyhedra@@@@QAEXQAVdgListNode@1@@Z 100c51b0 f i corelib:dgPolyhedra.obj
 0001:000c4200       ??1?$dgHeapBase@PAVdgEdge@@M@@IAE@XZ 100c5200 f i corelib:dgPolyhedra.obj
 0001:000c4230       ?Flush@?$dgHeapBase@PAVdgEdge@@M@@QAEXXZ 100c5230 f i corelib:dgPolyhedra.obj
 0001:000c4250       ?GetCount@?$dgHeapBase@PAVdgEdge@@M@@QBEHXZ 100c5250 f i corelib:dgPolyhedra.obj
 0001:000c4260       ??A?$dgHeapBase@PAVdgEdge@@M@@QBEABQAVdgEdge@@H@Z 100c5260 f i corelib:dgPolyhedra.obj
 0001:000c42b0       ??0?$dgDownHeap@PAVdgEdge@@M@@QAE@QBXH@Z 100c52b0 f i corelib:dgPolyhedra.obj
 0001:000c42d0       ?Pop@?$dgDownHeap@PAVdgEdge@@M@@QAEXXZ 100c52d0 f i corelib:dgPolyhedra.obj
 0001:000c43d0       ?Push@?$dgDownHeap@PAVdgEdge@@M@@QAEXAAPAVdgEdge@@M@Z 100c53d0 f i corelib:dgPolyhedra.obj
 0001:000c44d0       ??0?$dgStack@_K@@QAE@H@Z   100c54d0 f i corelib:dgPolyhedra.obj
 0001:000c4500       ??1?$dgStack@_K@@QAE@XZ    100c5500 f i corelib:dgPolyhedra.obj
 0001:000c4520       ??A?$dgStack@_K@@QAEAA_KH@Z 100c5520 f i corelib:dgPolyhedra.obj
 0001:000c45a0       ??0?$dgStack@PAVdgTreeNode@?$dgTree@VdgEdge@@_J@@@@QAE@H@Z 100c55a0 f i corelib:dgPolyhedra.obj
 0001:000c45d0       ??1?$dgStack@PAVdgTreeNode@?$dgTree@VdgEdge@@_J@@@@QAE@XZ 100c55d0 f i corelib:dgPolyhedra.obj
 0001:000c45f0       ??A?$dgStack@PAVdgTreeNode@?$dgTree@VdgEdge@@_J@@@@QAEAAPAVdgTreeNode@?$dgTree@VdgEdge@@_J@@H@Z 100c55f0 f i corelib:dgPolyhedra.obj
 0001:000c4670       ??0?$dgStack@VdgPolyhedra@@@@QAE@H@Z 100c5670 f i corelib:dgPolyhedra.obj
 0001:000c46a0       ??1?$dgStack@VdgPolyhedra@@@@QAE@XZ 100c56a0 f i corelib:dgPolyhedra.obj
 0001:000c46c0       ??A?$dgStack@VdgPolyhedra@@@@QAEAAVdgPolyhedra@@H@Z 100c56c0 f i corelib:dgPolyhedra.obj
 0001:000c4740       ??0?$dgStack@_J@@QAE@H@Z   100c5740 f i corelib:dgPolyhedra.obj
 0001:000c4770       ??1?$dgStack@_J@@QAE@XZ    100c5770 f i corelib:dgPolyhedra.obj
 0001:000c4790       ??A?$dgStack@_J@@QAEAA_JH@Z 100c5790 f i corelib:dgPolyhedra.obj
 0001:000c4810       ??0?$dgTree@PAVdgEdge@@H@@QAE@QAVdgMemoryAllocator@@@Z 100c5810 f i corelib:dgPolyhedra.obj
 0001:000c4840       ??1?$dgTree@PAVdgEdge@@H@@QAE@XZ 100c5840 f i corelib:dgPolyhedra.obj
 0001:000c4860       ?GetCount@?$dgTree@PAVdgEdge@@H@@QBEHXZ 100c5860 f i corelib:dgPolyhedra.obj
 0001:000c4870       ?Minimum@?$dgTree@PAVdgEdge@@H@@QBEPAVdgTreeNode@1@XZ 100c5870 f i corelib:dgPolyhedra.obj
 0001:000c48a0       ?Insert@?$dgTree@PAVdgEdge@@H@@QAEPAVdgTreeNode@1@ABQAVdgEdge@@H@Z 100c58a0 f i corelib:dgPolyhedra.obj
 0001:000c48e0       ?Remove@?$dgTree@PAVdgEdge@@H@@QAEXQAVdgTreeNode@1@@Z 100c58e0 f i corelib:dgPolyhedra.obj
 0001:000c4920       ??0?$dgList@UEDGE_HANDLE@InternalPolyhedra@@@@QAE@QAVdgMemoryAllocator@@@Z 100c5920 f i corelib:dgPolyhedra.obj
 0001:000c4960       ??1?$dgList@UEDGE_HANDLE@InternalPolyhedra@@@@QAE@XZ 100c5960 f i corelib:dgPolyhedra.obj
 0001:000c4980       ?Addtop@?$dgList@UEDGE_HANDLE@InternalPolyhedra@@@@QAEPAVdgListNode@1@ABUEDGE_HANDLE@InternalPolyhedra@@@Z 100c5980 f i corelib:dgPolyhedra.obj
 0001:000c4a40       ?Remove@?$dgList@UEDGE_HANDLE@InternalPolyhedra@@@@QAEXQAVdgListNode@1@@Z 100c5a40 f i corelib:dgPolyhedra.obj
 0001:000c4a90       ??0?$dgStack@UVERTEX_METRIC_STRUCT@InternalPolyhedra@@@@QAE@H@Z 100c5a90 f i corelib:dgPolyhedra.obj
 0001:000c4ac0       ??1?$dgStack@UVERTEX_METRIC_STRUCT@InternalPolyhedra@@@@QAE@XZ 100c5ac0 f i corelib:dgPolyhedra.obj
 0001:000c4ae0       ??A?$dgStack@UVERTEX_METRIC_STRUCT@InternalPolyhedra@@@@QAEAAUVERTEX_METRIC_STRUCT@InternalPolyhedra@@H@Z 100c5ae0 f i corelib:dgPolyhedra.obj
 0001:000c4b60       ??1?$dgHeapBase@PAVdgListNode@?$dgList@UEDGE_HANDLE@InternalPolyhedra@@@@N@@IAE@XZ 100c5b60 f i corelib:dgPolyhedra.obj
 0001:000c4b90       ?GetCount@?$dgHeapBase@PAVdgListNode@?$dgList@UEDGE_HANDLE@InternalPolyhedra@@@@N@@QBEHXZ 100c5b90 f i corelib:dgPolyhedra.obj
 0001:000c4ba0       ??A?$dgHeapBase@PAVdgListNode@?$dgList@UEDGE_HANDLE@InternalPolyhedra@@@@N@@QBEABQAVdgListNode@?$dgList@UEDGE_HANDLE@InternalPolyhedra@@@@H@Z 100c5ba0 f i corelib:dgPolyhedra.obj
 0001:000c4bf0       ??0?$dgDownHeap@PAVdgListNode@?$dgList@UEDGE_HANDLE@InternalPolyhedra@@@@N@@QAE@QBXH@Z 100c5bf0 f i corelib:dgPolyhedra.obj
 0001:000c4c10       ?Pop@?$dgDownHeap@PAVdgListNode@?$dgList@UEDGE_HANDLE@InternalPolyhedra@@@@N@@QAEXXZ 100c5c10 f i corelib:dgPolyhedra.obj
 0001:000c4d40       ?Push@?$dgDownHeap@PAVdgListNode@?$dgList@UEDGE_HANDLE@InternalPolyhedra@@@@N@@QAEXAAPAVdgListNode@?$dgList@UEDGE_HANDLE@InternalPolyhedra@@@@N@Z 100c5d40 f i corelib:dgPolyhedra.obj
 0001:000c4e60       ??_GdgListNode@?$dgList@PAVdgEdge@@@@AAEPAXI@Z 100c5e60 f i corelib:dgPolyhedra.obj
 0001:000c4e90       ??_GdgListNode@?$dgList@VdgDiagonalEdge@InternalPolyhedra@@@@AAEPAXI@Z 100c5e90 f i corelib:dgPolyhedra.obj
 0001:000c4ec0       ??_GdgListNode@?$dgList@UEDGE_HANDLE@InternalPolyhedra@@@@AAEPAXI@Z 100c5ec0 f i corelib:dgPolyhedra.obj
 0001:000c4ef0       ??2dgListNode@?$dgList@PAVdgEdge@@@@CAPAXIQAVdgMemoryAllocator@@@Z 100c5ef0 f i corelib:dgPolyhedra.obj
 0001:000c4f10       ??3dgListNode@?$dgList@PAVdgEdge@@@@CAXPAX@Z 100c5f10 f i corelib:dgPolyhedra.obj
 0001:000c4f30       ??0dgListNode@?$dgList@PAVdgEdge@@@@AAE@ABQAVdgEdge@@QAV01@1@Z 100c5f30 f i corelib:dgPolyhedra.obj
 0001:000c4fc0       ??1dgListNode@?$dgList@PAVdgEdge@@@@AAE@XZ 100c5fc0 f i corelib:dgPolyhedra.obj
 0001:000c4fd0       ?Unlink@dgListNode@?$dgList@PAVdgEdge@@@@AAEXXZ 100c5fd0 f i corelib:dgPolyhedra.obj
 0001:000c5020       ?GetNext@dgListNode@?$dgList@PAVdgEdge@@@@QBEPAV12@XZ 100c6020 f i corelib:dgPolyhedra.obj
 0001:000c5040       ??0dgTreeNode@?$dgTree@VdgEdge@@_J@@AAE@ABVdgEdge@@AB_JPAV01@@Z 100c6040 f i corelib:dgPolyhedra.obj
 0001:000c50c0       ?GetLeft@dgTreeNode@?$dgTree@VdgEdge@@_J@@ABEPAV12@XZ 100c60c0 f i corelib:dgPolyhedra.obj
 0001:000c50d0       ?GetRight@dgTreeNode@?$dgTree@VdgEdge@@_J@@ABEPAV12@XZ 100c60d0 f i corelib:dgPolyhedra.obj
 0001:000c50f0       ?GetParent@dgTreeNode@?$dgTree@VdgEdge@@_J@@AAEPAV12@XZ 100c60f0 f i corelib:dgPolyhedra.obj
 0001:000c5110       ??2dgListNode@?$dgList@VdgDiagonalEdge@InternalPolyhedra@@@@CAPAXIQAVdgMemoryAllocator@@@Z 100c6110 f i corelib:dgPolyhedra.obj
 0001:000c5130       ??3dgListNode@?$dgList@VdgDiagonalEdge@InternalPolyhedra@@@@CAXPAX@Z 100c6130 f i corelib:dgPolyhedra.obj
 0001:000c5150       ??0dgListNode@?$dgList@VdgDiagonalEdge@InternalPolyhedra@@@@AAE@ABVdgDiagonalEdge@InternalPolyhedra@@QAV01@1@Z 100c6150 f i corelib:dgPolyhedra.obj
 0001:000c51f0       ??1dgListNode@?$dgList@VdgDiagonalEdge@InternalPolyhedra@@@@AAE@XZ 100c61f0 f i corelib:dgPolyhedra.obj
 0001:000c5200       ??2dgListNode@?$dgList@UEDGE_HANDLE@InternalPolyhedra@@@@CAPAXIQAVdgMemoryAllocator@@@Z 100c6200 f i corelib:dgPolyhedra.obj
 0001:000c5220       ??3dgListNode@?$dgList@UEDGE_HANDLE@InternalPolyhedra@@@@CAXPAX@Z 100c6220 f i corelib:dgPolyhedra.obj
 0001:000c5240       ??0dgListNode@?$dgList@UEDGE_HANDLE@InternalPolyhedra@@@@AAE@ABUEDGE_HANDLE@InternalPolyhedra@@QAV01@1@Z 100c6240 f i corelib:dgPolyhedra.obj
 0001:000c52d0       ??0EDGE_HANDLE@InternalPolyhedra@@QAE@ABU01@@Z 100c62d0 f i corelib:dgPolyhedra.obj
 0001:000c5350       ??1dgListNode@?$dgList@UEDGE_HANDLE@InternalPolyhedra@@@@AAE@XZ 100c6350 f i corelib:dgPolyhedra.obj
 0001:000c5370       ?Unlink@?$dgList@PAVdgEdge@@@@QAEXQAVdgListNode@1@@Z 100c6370 f i corelib:dgPolyhedra.obj
 0001:000c5420       ?Insert@?$dgTree@VdgEdge@@_J@@QAEPAVdgTreeNode@1@QAV21@_J@Z 100c6420 f i corelib:dgPolyhedra.obj
 0001:000c55e0       ?Unlink@?$dgTree@VdgEdge@@_J@@QAEXQAVdgTreeNode@1@@Z 100c65e0 f i corelib:dgPolyhedra.obj
 0001:000c5650       ?CompareKeys@?$dgTree@VdgEdge@@_J@@ABEHAB_J0@Z 100c6650 f i corelib:dgPolyhedra.obj
 0001:000c56c0       ??$Swap@PAVdgTreeNode@?$dgTree@VdgEdge@@_J@@@@YAXAAPAVdgTreeNode@?$dgTree@VdgEdge@@_J@@0@Z 100c66c0 f i corelib:dgPolyhedra.obj
 0001:000c56f0       ?RemoveAll@?$dgList@VdgDiagonalEdge@InternalPolyhedra@@@@QAEXXZ 100c66f0 f i corelib:dgPolyhedra.obj
 0001:000c57b0       ?Unlink@?$dgList@VdgDiagonalEdge@InternalPolyhedra@@@@QAEXQAVdgListNode@1@@Z 100c67b0 f i corelib:dgPolyhedra.obj
 0001:000c5860       ??0?$dgHeapBase@PAVdgEdge@@M@@IAE@QBXH@Z 100c6860 f i corelib:dgPolyhedra.obj
 0001:000c58a0       ?Insert@?$dgTree@PAVdgEdge@@H@@QAEPAVdgTreeNode@1@ABQAVdgEdge@@HAA_N@Z 100c68a0 f i corelib:dgPolyhedra.obj
 0001:000c5aa0       ?RemoveAll@?$dgTree@PAVdgEdge@@H@@QAEXXZ 100c6aa0 f i corelib:dgPolyhedra.obj
 0001:000c5ae0       ?RemoveAll@?$dgList@UEDGE_HANDLE@InternalPolyhedra@@@@QAEXXZ 100c6ae0 f i corelib:dgPolyhedra.obj
 0001:000c5ba0       ?Unlink@?$dgList@UEDGE_HANDLE@InternalPolyhedra@@@@QAEXQAVdgListNode@1@@Z 100c6ba0 f i corelib:dgPolyhedra.obj
 0001:000c5c50       ??0?$dgHeapBase@PAVdgListNode@?$dgList@UEDGE_HANDLE@InternalPolyhedra@@@@N@@IAE@QBXH@Z 100c6c50 f i corelib:dgPolyhedra.obj
 0001:000c5c90       ?GetKey@dgTreeNode@?$dgTree@VdgEdge@@_J@@QBEAB_JXZ 100c6c90 f i corelib:dgPolyhedra.obj
 0001:000c5cb0       ?Unlink@dgListNode@?$dgList@VdgDiagonalEdge@InternalPolyhedra@@@@AAEXXZ 100c6cb0 f i corelib:dgPolyhedra.obj
 0001:000c5d00       ?GetPrev@dgListNode@?$dgList@VdgDiagonalEdge@InternalPolyhedra@@@@QBEPAV12@XZ 100c6d00 f i corelib:dgPolyhedra.obj
 0001:000c5d20       ??0dgTreeNode@?$dgTree@PAVdgEdge@@H@@AAE@ABQAVdgEdge@@ABHPAV01@@Z 100c6d20 f i corelib:dgPolyhedra.obj
 0001:000c5d90       ?GetLeft@dgTreeNode@?$dgTree@PAVdgEdge@@H@@ABEPAV12@XZ 100c6d90 f i corelib:dgPolyhedra.obj
 0001:000c5da0       ?GetRight@dgTreeNode@?$dgTree@PAVdgEdge@@H@@ABEPAV12@XZ 100c6da0 f i corelib:dgPolyhedra.obj
 0001:000c5dc0       ?Unlink@dgListNode@?$dgList@UEDGE_HANDLE@InternalPolyhedra@@@@AAEXXZ 100c6dc0 f i corelib:dgPolyhedra.obj
 0001:000c5e10       ?GetNext@dgListNode@?$dgList@UEDGE_HANDLE@InternalPolyhedra@@@@QBEPAV12@XZ 100c6e10 f i corelib:dgPolyhedra.obj
 0001:000c5e30       ?GetPrev@dgListNode@?$dgList@UEDGE_HANDLE@InternalPolyhedra@@@@QBEPAV12@XZ 100c6e30 f i corelib:dgPolyhedra.obj
 0001:000c5e50       ?CompareKeys@?$dgTree@PAVdgEdge@@H@@ABEHABH0@Z 100c6e50 f i corelib:dgPolyhedra.obj
 0001:000c5e90       ?Flush@?$dgHeapBase@PAVdgListNode@?$dgList@UEDGE_HANDLE@InternalPolyhedra@@@@N@@QAEXXZ 100c6e90 f i corelib:dgPolyhedra.obj
 0001:000c5eb0       ?Minimum@dgRedBackNode@@QBEPAV1@XZ 100c6eb0 f   corelib:dgTree.obj
 0001:000c5ee0       ?Maximum@dgRedBackNode@@QBEPAV1@XZ 100c6ee0 f   corelib:dgTree.obj
 0001:000c5f10       ?Prev@dgRedBackNode@@QBEPAV1@XZ 100c6f10 f   corelib:dgTree.obj
 0001:000c5f70       ?Next@dgRedBackNode@@QBEPAV1@XZ 100c6f70 f   corelib:dgTree.obj
 0001:000c5fd0       ?RotateLeft@dgRedBackNode@@QAEXQAPAV1@@Z 100c6fd0 f   corelib:dgTree.obj
 0001:000c6070       ?RotateRight@dgRedBackNode@@QAEXQAPAV1@@Z 100c7070 f   corelib:dgTree.obj
 0001:000c6120       ?InsertFixup@dgRedBackNode@@QAEXQAPAV1@@Z 100c7120 f   corelib:dgTree.obj
 0001:000c6330       ?RemoveFixup@dgRedBackNode@@QAEXQAV1@QAPAV1@@Z 100c7330 f   corelib:dgTree.obj
 0001:000c6640       ?Unlink@dgRedBackNode@@QAEXQAPAV1@@Z 100c7640 f   corelib:dgTree.obj
 0001:000c68d0       ?Remove@dgRedBackNode@@QAEXQAPAV1@@Z 100c78d0 f   corelib:dgTree.obj
 0001:000c6920       ?RemoveAllLow@dgRedBackNode@@QAEXXZ 100c7920 f   corelib:dgTree.obj
 0001:000c6990       ?RemoveAll@dgRedBackNode@@QAEXXZ 100c7990 f   corelib:dgTree.obj
 0001:000c69d0       ?GetColor@dgRedBackNode@@QBE?AW4REDBLACK_COLOR@1@XZ 100c79d0 f i corelib:dgTree.obj
 0001:000c69f0       ??_GdgRedBackNode@@QAEPAXI@Z 100c79f0 f i corelib:dgTree.obj
 0001:000c6a20       ??3dgRedBackNode@@SAXPAX@Z 100c7a20 f i corelib:dgTree.obj
 0001:000c6a40       ??1dgRedBackNode@@QAE@XZ   100c7a40 f i corelib:dgTree.obj
 0001:000c6a50       ??0dgThreads@@QAE@XZ       100c7a50 f   corelib:dgThreads.obj
 0001:000c6b40       ??1dgThreads@@QAE@XZ       100c7b40 f   corelib:dgThreads.obj
 0001:000c6b60       ?GetThreadCount@dgThreads@@QBEHXZ 100c7b60 f   corelib:dgThreads.obj
 0001:000c6b90       ?ClearTimers@dgThreads@@QAEXXZ 100c7b90 f   corelib:dgThreads.obj
 0001:000c6bd0       ?SetPerfomanceCounter@dgThreads@@QAEXP6AIXZ@Z 100c7bd0 f   corelib:dgThreads.obj
 0001:000c6bf0       ?GetPerfomanceTicks@dgThreads@@QBEII@Z 100c7bf0 f   corelib:dgThreads.obj
 0001:000c6c20       ?CreateThreaded@dgThreads@@QAEXH@Z 100c7c20 f   corelib:dgThreads.obj
 0001:000c6d30       ?DestroydgThreads@dgThreads@@QAEXXZ 100c7d30 f   corelib:dgThreads.obj
 0001:000c6e90       ?SubmitJob@dgThreads@@QAEHQAVdgWorkerThread@@@Z 100c7e90 f   corelib:dgThreads.obj
 0001:000c6f70       ?ThreadExecute@dgThreads@@CGIPAX@Z 100c7f70 f   corelib:dgThreads.obj
 0001:000c6fa0       ?GetWork@dgThreads@@AAEHPAPAVdgWorkerThread@@@Z 100c7fa0 f   corelib:dgThreads.obj
 0001:000c7040       ?DoWork@dgThreads@@AAEXH@Z 100c8040 f   corelib:dgThreads.obj
 0001:000c7140       ?SynchronizationBarrier@dgThreads@@QAEXXZ 100c8140 f   corelib:dgThreads.obj
 0001:000c7170       ?CalculateChunkSizes@dgThreads@@QBEXHQAH@Z 100c8170 f   corelib:dgThreads.obj
 0001:000c71f0       ?dgGetLock@dgThreads@@QBEXXZ 100c81f0 f   corelib:dgThreads.obj
 0001:000c7230       ?dgReleaseLock@dgThreads@@QBEXXZ 100c8230 f   corelib:dgThreads.obj
 0001:000c7250       ?dgGetIndirectLock@dgThreads@@QAEXPAH@Z 100c8250 f   corelib:dgThreads.obj
 0001:000c7270       ?dgReleaseIndirectLock@dgThreads@@QAEXPAH@Z 100c8270 f   corelib:dgThreads.obj
 0001:000c7290       ?dgSpinUnlock@@YAXPAH@Z    100c8290 f i corelib:dgThreads.obj
 0001:000c72a0       ??0FastRayTest@@QAE@ABVdgVector@@0@Z 100c82a0 f   corelib:dgIntersections.obj
 0001:000c7690       ?BoxTestSimd@FastRayTest@@QBEHABVdgVector@@0@Z 100c8690 f   corelib:dgIntersections.obj
 0001:000c7980       ?BoxTest@FastRayTest@@QBEHABVdgVector@@0@Z 100c8980 f   corelib:dgIntersections.obj
 0001:000c7b00       ?PolygonIntersectSimd@FastRayTest@@QBEMABVdgVector@@QBMHQBHH@Z 100c8b00 f   corelib:dgIntersections.obj
 0001:000c82b0       ?PolygonIntersect@FastRayTest@@QBEMABVdgVector@@QBMHQBHH@Z 100c92b0 f   corelib:dgIntersections.obj
 0001:000c84e0       ?dgRayBoxClip@@YA_NAAVdgVector@@0ABV1@1@Z 100c94e0 f   corelib:dgIntersections.obj
 0001:000c88a0       ?dgPointToRayDistance@@YA?AVdgVector@@ABV1@00@Z 100c98a0 f   corelib:dgIntersections.obj
 0001:000c8960       ?dgRayToRayDistance@@YAXABVdgVector@@000AAV1@1@Z 100c9960 f   corelib:dgIntersections.obj
 0001:000c8d00       ?dgPointToTriangleDistance@@YA?AVdgVector@@ABV1@000@Z 100c9d00 f   corelib:dgIntersections.obj
 0001:000c93e0       ?dgPointToTriangleDistance@@YA?AVdgBigVector@@ABV1@000@Z 100ca3e0 f   corelib:dgIntersections.obj
 0001:000c9a80       ?dgPointToPolygonDistance@@YA_NABVdgVector@@QBMHQBHHMAAV1@@Z 100caa80 f   corelib:dgIntersections.obj
 0001:000c9c50       ?LineTriangleIntersection@@YA?AVdgBigVector@@ABV1@0000@Z 100cac50 f   corelib:dgIntersections.obj
 0001:000ca2f0       ??0dgHugeVector@@QAE@ABVdgBigVector@@@Z 100cb2f0 f i corelib:dgIntersections.obj
 0001:000ca400       ??0dgHugeVector@@QAE@ABV?$dgTemplateVector@VdgGoogol@@@@@Z 100cb400 f i corelib:dgIntersections.obj
 0001:000ca430       ??1?$dgTemplateVector@VdgGoogol@@@@QAE@XZ 100cb430 f i corelib:dgIntersections.obj
 0001:000ca470       ??1dgHugeVector@@QAE@XZ    100cb470 f i corelib:dgIntersections.obj
 0001:000ca490       ??0?$dgTemplateVector@VdgGoogol@@@@QAE@XZ 100cb490 f i corelib:dgIntersections.obj
 0001:000ca4d0       ??G?$dgTemplateVector@VdgGoogol@@@@QBE?AV0@ABV0@@Z 100cb4d0 f i corelib:dgIntersections.obj
 0001:000ca5c0       ??L?$dgTemplateVector@VdgGoogol@@@@QBE?AVdgGoogol@@ABV0@@Z 100cb5c0 f i corelib:dgIntersections.obj
 0001:000ca680       ??D?$dgTemplateVector@VdgGoogol@@@@QBE?AV0@ABV0@@Z 100cb680 f i corelib:dgIntersections.obj
 0001:000ca840       ??0?$dgTemplateVector@VdgGoogol@@@@QAE@VdgGoogol@@000@Z 100cb840 f i corelib:dgIntersections.obj
 0001:000ca900       ??0dgPolyhedraMassProperties@@QAE@XZ 100cb900 f   corelib:dgPolyhedraMassProperties.obj
 0001:000ca920       ?AddCGFace@dgPolyhedraMassProperties@@QAEXHPBVdgVector@@@Z 100cb920 f   corelib:dgPolyhedraMassProperties.obj
 0001:000cab60       ?AddInertiaFace@dgPolyhedraMassProperties@@QAEXHPBM@Z 100cbb60 f   corelib:dgPolyhedraMassProperties.obj
 0001:000caee0       ?AddInertiaAndCrossFace@dgPolyhedraMassProperties@@QAEXHPBM@Z 100cbee0 f   corelib:dgPolyhedraMassProperties.obj
 0001:000cb3d0       ?MassProperties@dgPolyhedraMassProperties@@QAEMAAVdgVector@@00@Z 100cc3d0 f   corelib:dgPolyhedraMassProperties.obj
 0001:000cb4c0       ??0dgConvexHull3DFace@@QAE@XZ 100cc4c0 f   corelib:dgConvexHull3d.obj
 0001:000cb500       ?Evalue@dgConvexHull3DFace@@ABENQBVdgBigVector@@ABV2@@Z 100cc500 f   corelib:dgConvexHull3d.obj
 0001:000cb8f0       ?GetPlaneEquation@dgConvexHull3DFace@@ABE?AVdgBigPlane@@QBVdgBigVector@@@Z 100cc8f0 f   corelib:dgConvexHull3d.obj
 0001:000cb9b0       ??0dgConvexHull3d@@IAE@QAVdgMemoryAllocator@@@Z 100cc9b0 f   corelib:dgConvexHull3d.obj
 0001:000cba00       ??0dgConvexHull3d@@QAE@QAVdgMemoryAllocator@@QBMHHM@Z 100cca00 f   corelib:dgConvexHull3d.obj
 0001:000cbc40       ??1dgConvexHull3d@@UAE@XZ  100ccc40 f   corelib:dgConvexHull3d.obj
 0001:000cbc70       ?ConvexCompareVertex@dgConvexHull3d@@KAHQBVdgBigVector@@0QAX@Z 100ccc70 f   corelib:dgConvexHull3d.obj
 0001:000cbcf0       ?BuildTree@dgConvexHull3d@@IBEPAVdgAABBPointTree3d@@QAV2@QAVdgBigVector@@HHQAPADAAH@Z 100cccf0 f   corelib:dgConvexHull3d.obj
 0001:000cc5c0       ?InitVertexArray@dgConvexHull3d@@MAEHQAVdgBigVector@@0QBMHHQAXH@Z 100cd5c0 f   corelib:dgConvexHull3d.obj
 0001:000cce80       ?TetrahedrumVolume@dgConvexHull3d@@IBENABVdgBigVector@@000@Z 100cde80 f   corelib:dgConvexHull3d.obj
 0001:000ccf20       ?TessellateTriangle@dgConvexHull3d@@IBEXHABVdgVector@@00AAHQAVdgBigVector@@1@Z 100cdf20 f   corelib:dgConvexHull3d.obj
 0001:000cd450       ?SupportVertex@dgConvexHull3d@@IBEHQAPAVdgAABBPointTree3d@@QBVdgBigVector@@ABV3@@Z 100ce450 f   corelib:dgConvexHull3d.obj
 0001:000cdbc0       ?BuildNormalList@dgConvexHull3d@@IBEHQAVdgBigVector@@@Z 100cebc0 f   corelib:dgConvexHull3d.obj
 0001:000cde20       ?AddFace@dgConvexHull3d@@MAEPAVdgListNode@?$dgList@VdgConvexHull3DFace@@@@HHH@Z 100cee20 f   corelib:dgConvexHull3d.obj
 0001:000cde70       ?DeleteFace@dgConvexHull3d@@MAEXQAVdgListNode@?$dgList@VdgConvexHull3DFace@@@@@Z 100cee70 f   corelib:dgConvexHull3d.obj
 0001:000cde90       ?Sanity@dgConvexHull3d@@IBE_NXZ 100cee90 f   corelib:dgConvexHull3d.obj
 0001:000cdea0       ?CalculateConvexHull@dgConvexHull3d@@IAEXPAVdgAABBPointTree3d@@QAVdgBigVector@@1HM@Z 100ceea0 f   corelib:dgConvexHull3d.obj
 0001:000ce8f0       ??_EdgConvexHull3d@@UAEPAXI@Z 100cf8f0 f i corelib:dgConvexHull3d.obj
 0001:000ce8f0       ??_GdgConvexHull3d@@UAEPAXI@Z 100cf8f0 f i corelib:dgConvexHull3d.obj
 0001:000ce920       ??2@YAPAXIPAX@Z            100cf920 f i corelib:dgConvexHull3d.obj
 0001:000ce930       ??0dgAABBPointTree3d@@QAE@XZ 100cf930 f i corelib:dgConvexHull3d.obj
 0001:000ce970       ??0dgAABBPointTree3dClump@@QAE@XZ 100cf970 f i corelib:dgConvexHull3d.obj
 0001:000ce990       ??3?$dgList@VdgConvexHull3DFace@@@@SAXPAX@Z 100cf990 f i corelib:dgConvexHull3d.obj
 0001:000ce9b0       ?GetInfo@dgListNode@?$dgList@PAVdgListNode@?$dgList@VdgConvexHull3DFace@@@@@@QAEAAPAV1?$dgList@VdgConvexHull3DFace@@@@XZ 100cf9b0 f i corelib:dgConvexHull3d.obj
 0001:000ce9c0       ??A?$dgTemplateVector@N@@QBEABNH@Z 100cf9c0 f i corelib:dgConvexHull3d.obj
 0001:000cea30       ?CompProduct@?$dgTemplateVector@N@@QBE?AV1@ABV1@@Z 100cfa30 f i corelib:dgConvexHull3d.obj
 0001:000cea90       ??0?$dgList@VdgConvexHull3DFace@@@@QAE@QAVdgMemoryAllocator@@@Z 100cfa90 f i corelib:dgConvexHull3d.obj
 0001:000cead0       ??1?$dgList@VdgConvexHull3DFace@@@@QAE@XZ 100cfad0 f i corelib:dgConvexHull3d.obj
 0001:000ceaf0       ?GetAllocator@?$dgList@VdgConvexHull3DFace@@@@QBEPAVdgMemoryAllocator@@XZ 100cfaf0 f i corelib:dgConvexHull3d.obj
 0001:000ceb10       ?Append@?$dgList@VdgConvexHull3DFace@@@@QAEPAVdgListNode@1@XZ 100cfb10 f i corelib:dgConvexHull3d.obj
 0001:000cebd0       ?Remove@?$dgList@VdgConvexHull3DFace@@@@QAEXQAVdgListNode@1@@Z 100cfbd0 f i corelib:dgConvexHull3d.obj
 0001:000cec20       ??0?$dgArray@VdgVector@@@@QAE@HQAVdgMemoryAllocator@@@Z 100cfc20 f i corelib:dgConvexHull3d.obj
 0001:000cec60       ??1?$dgArray@VdgVector@@@@QAE@XZ 100cfc60 f i corelib:dgConvexHull3d.obj
 0001:000cec90       ??A?$dgArray@VdgVector@@@@QAEAAVdgVector@@H@Z 100cfc90 f i corelib:dgConvexHull3d.obj
 0001:000cecf0       ??0?$dgStack@VdgBigVector@@@@QAE@H@Z 100cfcf0 f i corelib:dgConvexHull3d.obj
 0001:000ced20       ??1?$dgStack@VdgBigVector@@@@QAE@XZ 100cfd20 f i corelib:dgConvexHull3d.obj
 0001:000ced40       ??A?$dgStack@VdgBigVector@@@@QAEAAVdgBigVector@@H@Z 100cfd40 f i corelib:dgConvexHull3d.obj
 0001:000cedc0       ??0?$dgStack@VdgAABBPointTree3dClump@@@@QAE@H@Z 100cfdc0 f i corelib:dgConvexHull3d.obj
 0001:000cedf0       ??1?$dgStack@VdgAABBPointTree3dClump@@@@QAE@XZ 100cfdf0 f i corelib:dgConvexHull3d.obj
 0001:000cee10       ?GetSizeInBytes@?$dgStack@VdgAABBPointTree3dClump@@@@QBEHXZ 100cfe10 f i corelib:dgConvexHull3d.obj
 0001:000cee30       ??A?$dgStack@VdgAABBPointTree3dClump@@@@QAEAAVdgAABBPointTree3dClump@@H@Z 100cfe30 f i corelib:dgConvexHull3d.obj
 0001:000ceeb0       ??$GetMax@N@@YANNN@Z       100cfeb0 f i corelib:dgConvexHull3d.obj
 0001:000ceed0       ??$dgSort@VdgBigVector@@@@YAXQAVdgBigVector@@HP6AHQBV0@1QAX@Z2@Z 100cfed0 f i corelib:dgConvexHull3d.obj
 0001:000cf2a0       ??0?$dgList@PAVdgListNode@?$dgList@VdgConvexHull3DFace@@@@@@QAE@QAVdgMemoryAllocator@@@Z 100d02a0 f i corelib:dgConvexHull3d.obj
 0001:000cf2e0       ??1?$dgList@PAVdgListNode@?$dgList@VdgConvexHull3DFace@@@@@@QAE@XZ 100d02e0 f i corelib:dgConvexHull3d.obj
 0001:000cf300       ?GetCount@?$dgList@PAVdgListNode@?$dgList@VdgConvexHull3DFace@@@@@@QBEHXZ 100d0300 f i corelib:dgConvexHull3d.obj
 0001:000cf310       ?GetFirst@?$dgList@PAVdgListNode@?$dgList@VdgConvexHull3DFace@@@@@@QBEPAVdgListNode@1@XZ 100d0310 f i corelib:dgConvexHull3d.obj
 0001:000cf330       ?Append@?$dgList@PAVdgListNode@?$dgList@VdgConvexHull3DFace@@@@@@QAEPAVdgListNode@1@ABQAV2?$dgList@VdgConvexHull3DFace@@@@@Z 100d0330 f i corelib:dgConvexHull3d.obj
 0001:000cf3f0       ?Addtop@?$dgList@PAVdgListNode@?$dgList@VdgConvexHull3DFace@@@@@@QAEPAVdgListNode@1@ABQAV2?$dgList@VdgConvexHull3DFace@@@@@Z 100d03f0 f i corelib:dgConvexHull3d.obj
 0001:000cf4b0       ?Remove@?$dgList@PAVdgListNode@?$dgList@VdgConvexHull3DFace@@@@@@QAEXABQAVdgListNode@?$dgList@VdgConvexHull3DFace@@@@@Z 100d04b0 f i corelib:dgConvexHull3d.obj
 0001:000cf4e0       ??0?$dgStack@PAVdgListNode@?$dgList@VdgConvexHull3DFace@@@@@@QAE@H@Z 100d04e0 f i corelib:dgConvexHull3d.obj
 0001:000cf510       ??1?$dgStack@PAVdgListNode@?$dgList@VdgConvexHull3DFace@@@@@@QAE@XZ 100d0510 f i corelib:dgConvexHull3d.obj
 0001:000cf530       ?GetElementsCount@?$dgStack@PAVdgListNode@?$dgList@VdgConvexHull3DFace@@@@@@QBEHXZ 100d0530 f i corelib:dgConvexHull3d.obj
 0001:000cf550       ??A?$dgStack@PAVdgListNode@?$dgList@VdgConvexHull3DFace@@@@@@QAEAAPAVdgListNode@?$dgList@VdgConvexHull3DFace@@@@H@Z 100d0550 f i corelib:dgConvexHull3d.obj
 0001:000cf5d0       ??_GdgListNode@?$dgList@VdgConvexHull3DFace@@@@AAEPAXI@Z 100d05d0 f i corelib:dgConvexHull3d.obj
 0001:000cf600       ??2dgListNode@?$dgList@VdgConvexHull3DFace@@@@CAPAXIQAVdgMemoryAllocator@@@Z 100d0600 f i corelib:dgConvexHull3d.obj
 0001:000cf620       ??3dgListNode@?$dgList@VdgConvexHull3DFace@@@@CAXPAX@Z 100d0620 f i corelib:dgConvexHull3d.obj
 0001:000cf640       ??0dgListNode@?$dgList@VdgConvexHull3DFace@@@@AAE@QAV01@0@Z 100d0640 f i corelib:dgConvexHull3d.obj
 0001:000cf6d0       ??1dgListNode@?$dgList@VdgConvexHull3DFace@@@@AAE@XZ 100d06d0 f i corelib:dgConvexHull3d.obj
 0001:000cf6e0       ??2dgListNode@?$dgList@PAVdgListNode@?$dgList@VdgConvexHull3DFace@@@@@@CAPAXIQAVdgMemoryAllocator@@@Z 100d06e0 f i corelib:dgConvexHull3d.obj
 0001:000cf700       ??0dgListNode@?$dgList@PAVdgListNode@?$dgList@VdgConvexHull3DFace@@@@@@AAE@ABQAV0?$dgList@VdgConvexHull3DFace@@@@QAV01@1@Z 100d0700 f i corelib:dgConvexHull3d.obj
 0001:000cf790       ?RemoveAll@?$dgList@VdgConvexHull3DFace@@@@QAEXXZ 100d0790 f i corelib:dgConvexHull3d.obj
 0001:000cf850       ?Unlink@?$dgList@VdgConvexHull3DFace@@@@QAEXQAVdgListNode@1@@Z 100d0850 f i corelib:dgConvexHull3d.obj
 0001:000cf900       ?Find@?$dgList@PAVdgListNode@?$dgList@VdgConvexHull3DFace@@@@@@QBEPAVdgListNode@1@ABQAV2?$dgList@VdgConvexHull3DFace@@@@@Z 100d0900 f i corelib:dgConvexHull3d.obj
 0001:000cf940       ?Remove@?$dgList@PAVdgListNode@?$dgList@VdgConvexHull3DFace@@@@@@QAEXQAVdgListNode@1@@Z 100d0940 f i corelib:dgConvexHull3d.obj
 0001:000cf990       ?RemoveAll@?$dgList@PAVdgListNode@?$dgList@VdgConvexHull3DFace@@@@@@QAEXXZ 100d0990 f i corelib:dgConvexHull3d.obj
 0001:000cfa50       ??_GdgListNode@?$dgList@PAVdgListNode@?$dgList@VdgConvexHull3DFace@@@@@@AAEPAXI@Z 100d0a50 f i corelib:dgConvexHull3d.obj
 0001:000cfa80       ?Unlink@dgListNode@?$dgList@VdgConvexHull3DFace@@@@AAEXXZ 100d0a80 f i corelib:dgConvexHull3d.obj
 0001:000cfad0       ?GetPrev@dgListNode@?$dgList@VdgConvexHull3DFace@@@@QBEPAV12@XZ 100d0ad0 f i corelib:dgConvexHull3d.obj
 0001:000cfaf0       ??3dgListNode@?$dgList@PAVdgListNode@?$dgList@VdgConvexHull3DFace@@@@@@CAXPAX@Z 100d0af0 f i corelib:dgConvexHull3d.obj
 0001:000cfb10       ??1dgListNode@?$dgList@PAVdgListNode@?$dgList@VdgConvexHull3DFace@@@@@@AAE@XZ 100d0b10 f i corelib:dgConvexHull3d.obj
 0001:000cfb20       ?Unlink@dgListNode@?$dgList@PAVdgListNode@?$dgList@VdgConvexHull3DFace@@@@@@AAEXXZ 100d0b20 f i corelib:dgConvexHull3d.obj
 0001:000cfb70       ?GetNext@dgListNode@?$dgList@PAVdgListNode@?$dgList@VdgConvexHull3DFace@@@@@@QBEPAV12@XZ 100d0b70 f i corelib:dgConvexHull3d.obj
 0001:000cfb90       ?Unlink@?$dgList@PAVdgListNode@?$dgList@VdgConvexHull3DFace@@@@@@QAEXQAVdgListNode@1@@Z 100d0b90 f i corelib:dgConvexHull3d.obj
 0001:000cfc40       ?GetPrev@dgListNode@?$dgList@PAVdgListNode@?$dgList@VdgConvexHull3DFace@@@@@@QBEPAV12@XZ 100d0c40 f i corelib:dgConvexHull3d.obj
 0001:000cfc60       ??0dgDelaunayTetrahedralization@@QAE@QAVdgMemoryAllocator@@QBMHHM@Z 100d0c60 f   corelib:dgDelaunayTetrahedralization.obj
 0001:000cff30       ??1dgDelaunayTetrahedralization@@UAE@XZ 100d0f30 f   corelib:dgDelaunayTetrahedralization.obj
 0001:000cff50       ?AddVertex@dgDelaunayTetrahedralization@@UAEHABVdgBigVector@@@Z 100d0f50 f   corelib:dgDelaunayTetrahedralization.obj
 0001:000cffe0       ?CompareVertexByIndex@dgDelaunayTetrahedralization@@KAHQBVdgHullVector@@0QAX@Z 100d0fe0 f   corelib:dgDelaunayTetrahedralization.obj
 0001:000d0020       ?SortVertexArray@dgDelaunayTetrahedralization@@IAEXXZ 100d1020 f   corelib:dgDelaunayTetrahedralization.obj
 0001:000d0110       ?RemoveUpperHull@dgDelaunayTetrahedralization@@QAEXXZ 100d1110 f   corelib:dgDelaunayTetrahedralization.obj
 0001:000d01c0       ?GetTetraVolume@dgDelaunayTetrahedralization@@IBENQBVdgConvexHull4dTetraherum@@@Z 100d11c0 f   corelib:dgDelaunayTetrahedralization.obj
 0001:000d05e0       ??_GdgDelaunayTetrahedralization@@UAEPAXI@Z 100d15e0 f i corelib:dgDelaunayTetrahedralization.obj
 0001:000d05e0       ??_EdgDelaunayTetrahedralization@@UAEPAXI@Z 100d15e0 f i corelib:dgDelaunayTetrahedralization.obj
 0001:000d0610       ??A?$dgArray@VdgHullVector@@@@QAEAAVdgHullVector@@H@Z 100d1610 f i corelib:dgDelaunayTetrahedralization.obj
 0001:000d0670       ??$dgSort@VdgHullVector@@@@YAXQAVdgHullVector@@HP6AHQBV0@1QAX@Z2@Z 100d1670 f i corelib:dgDelaunayTetrahedralization.obj
 0001:000d0a40       ??0dgTetrahedrumPlane@dgConvexHull4dTetraherum@@QAE@ABVdgBigVector@@000@Z 100d1a40 f   corelib:dgConvexHull4d.obj
 0001:000d0b60       ?Evalue@dgTetrahedrumPlane@dgConvexHull4dTetraherum@@QBENABVdgBigVector@@@Z 100d1b60 f   corelib:dgConvexHull4d.obj
 0001:000d0b90       ??0dgConvexHull4dTetraherum@@QAE@XZ 100d1b90 f   corelib:dgConvexHull4d.obj
 0001:000d0bc0       ?Init@dgConvexHull4dTetraherum@@AAEXQBVdgHullVector@@HHHH@Z 100d1bc0 f   corelib:dgConvexHull4d.obj
 0001:000d0d90       ?Evalue@dgConvexHull4dTetraherum@@QBENQBVdgHullVector@@ABVdgBigVector@@@Z 100d1d90 f   corelib:dgConvexHull4d.obj
 0001:000d1260       ?GetPlaneEquation@dgConvexHull4dTetraherum@@QBE?AVdgTetrahedrumPlane@1@QBVdgHullVector@@@Z 100d2260 f   corelib:dgConvexHull4d.obj
 0001:000d12d0       ??0dgConvexHull4d@@IAE@QAVdgMemoryAllocator@@@Z 100d22d0 f   corelib:dgConvexHull4d.obj
 0001:000d1330       ??0dgConvexHull4d@@QAE@QAVdgMemoryAllocator@@QBVdgBigVector@@HM@Z 100d2330 f   corelib:dgConvexHull4d.obj
 0001:000d13b0       ??1dgConvexHull4d@@UAE@XZ  100d23b0 f   corelib:dgConvexHull4d.obj
 0001:000d13e0       ?BuildHull@dgConvexHull4d@@IAEXQAVdgMemoryAllocator@@QBVdgBigVector@@HM@Z 100d23e0 f   corelib:dgConvexHull4d.obj
 0001:000d14e0       ?TessellateTriangle@dgConvexHull4d@@IBEXHABVdgVector@@00AAHQAVdgBigVector@@1@Z 100d24e0 f   corelib:dgConvexHull4d.obj
 0001:000d1a10       ?BuildNormalList@dgConvexHull4d@@IBEHQAVdgBigVector@@@Z 100d2a10 f   corelib:dgConvexHull4d.obj
 0001:000d1c70       ?SupportVertex@dgConvexHull4d@@IBEHQAPAVdgAABBPointTree4d@@QBVdgHullVector@@ABVdgBigVector@@@Z 100d2c70 f   corelib:dgConvexHull4d.obj
 0001:000d24a0       ?ConvexCompareVertex@dgConvexHull4d@@KAHQBVdgHullVector@@0QAX@Z 100d34a0 f   corelib:dgConvexHull4d.obj
 0001:000d2520       ?BuildTree@dgConvexHull4d@@IBEPAVdgAABBPointTree4d@@QAV2@QAVdgHullVector@@HHQAPADAAH@Z 100d3520 f   corelib:dgConvexHull4d.obj
 0001:000d2ed0       ?InitVertexArray@dgConvexHull4d@@MAEHQAVdgHullVector@@QBVdgBigVector@@HQAXH@Z 100d3ed0 f   corelib:dgConvexHull4d.obj
 0001:000d36a0       ?AddFace@dgConvexHull4d@@MAEPAVdgListNode@?$dgList@VdgConvexHull4dTetraherum@@@@HHHH@Z 100d46a0 f   corelib:dgConvexHull4d.obj
 0001:000d3700       ?DeleteFace@dgConvexHull4d@@MAEXQAVdgListNode@?$dgList@VdgConvexHull4dTetraherum@@@@@Z 100d4700 f   corelib:dgConvexHull4d.obj
 0001:000d3720       ?Sanity@dgConvexHull4d@@IBE_NXZ 100d4720 f   corelib:dgConvexHull4d.obj
 0001:000d37a0       ?LinkSibling@dgConvexHull4d@@IBEXPAVdgListNode@?$dgList@VdgConvexHull4dTetraherum@@@@0@Z 100d47a0 f   corelib:dgConvexHull4d.obj
 0001:000d38d0       ?InsertNewVertex@dgConvexHull4d@@IAEXHQAVdgListNode@?$dgList@VdgConvexHull4dTetraherum@@@@AAV?$dgList@PAVdgListNode@?$dgList@VdgConvexHull4dTetraherum@@@@@@1@Z 100d48d0 f   corelib:dgConvexHull4d.obj
 0001:000d3dc0       ?CalculateConvexHull@dgConvexHull4d@@IAEXPAVdgAABBPointTree4d@@QAVdgHullVector@@HM@Z 100d4dc0 f   corelib:dgConvexHull4d.obj
 0001:000d4070       ?FindFacingNode@dgConvexHull4d@@IAEPAVdgListNode@?$dgList@VdgConvexHull4dTetraherum@@@@ABVdgBigVector@@@Z 100d5070 f   corelib:dgConvexHull4d.obj
 0001:000d4390       ?AddVertex@dgConvexHull4d@@MAEHABVdgBigVector@@@Z 100d5390 f   corelib:dgConvexHull4d.obj
 0001:000d44d0       ??_GdgConvexHull4d@@UAEPAXI@Z 100d54d0 f i corelib:dgConvexHull4d.obj
 0001:000d44d0       ??_EdgConvexHull4d@@UAEPAXI@Z 100d54d0 f i corelib:dgConvexHull4d.obj
 0001:000d4500       ??0dgAABBPointTree4d@@QAE@XZ 100d5500 f i corelib:dgConvexHull4d.obj
 0001:000d4540       ??0dgAABBPointTree4dClump@@QAE@XZ 100d5540 f i corelib:dgConvexHull4d.obj
 0001:000d4560       ??4dgHullVector@@QAEXABVdgBigVector@@@Z 100d5560 f i corelib:dgConvexHull4d.obj
 0001:000d45b0       ??1?$dgDownHeap@PAVdgListNode@?$dgList@VdgConvexHull4dTetraherum@@@@N@@QAE@XZ 100d55b0 f i corelib:dgConvexHull4d.obj
 0001:000d45d0       ??0Iterator@?$dgTree@PAVdgListNode@?$dgList@VdgConvexHull4dTetraherum@@@@PAV12@@@QAE@ABV1@@Z 100d55d0 f i corelib:dgConvexHull4d.obj
 0001:000d4600       ??1Iterator@?$dgTree@PAVdgListNode@?$dgList@VdgConvexHull4dTetraherum@@@@PAV12@@@QAE@XZ 100d5600 f i corelib:dgConvexHull4d.obj
 0001:000d4610       ?Begin@Iterator@?$dgTree@PAVdgListNode@?$dgList@VdgConvexHull4dTetraherum@@@@PAV12@@@QAEXXZ 100d5610 f i corelib:dgConvexHull4d.obj
 0001:000d4630       ??BIterator@?$dgTree@PAVdgListNode@?$dgList@VdgConvexHull4dTetraherum@@@@PAV12@@@QBEHXZ 100d5630 f i corelib:dgConvexHull4d.obj
 0001:000d4650       ??EIterator@?$dgTree@PAVdgListNode@?$dgList@VdgConvexHull4dTetraherum@@@@PAV12@@@QAEXH@Z 100d5650 f i corelib:dgConvexHull4d.obj
 0001:000d46a0       ?GetNode@Iterator@?$dgTree@PAVdgListNode@?$dgList@VdgConvexHull4dTetraherum@@@@PAV12@@@QBEPAVdgTreeNode@2@XZ 100d56a0 f i corelib:dgConvexHull4d.obj
 0001:000d46b0       ?GetInfo@dgTreeNode@?$dgTree@PAVdgListNode@?$dgList@VdgConvexHull4dTetraherum@@@@PAV12@@@QAEAAPAVdgListNode@?$dgList@VdgConvexHull4dTetraherum@@@@XZ 100d56b0 f i corelib:dgConvexHull4d.obj
 0001:000d46d0       ?Sub4@?$dgTemplateVector@N@@QBE?AV1@ABV1@@Z 100d56d0 f i corelib:dgConvexHull4d.obj
 0001:000d4730       ?DotProduct4@?$dgTemplateVector@N@@QBENABV1@@Z 100d5730 f i corelib:dgConvexHull4d.obj
 0001:000d4780       ?CrossProduct4@?$dgTemplateVector@N@@QBE?AV1@ABV1@0@Z 100d5780 f i corelib:dgConvexHull4d.obj
 0001:000d49c0       ?CompProduct4@?$dgTemplateVector@N@@QBE?AV1@ABV1@@Z 100d59c0 f i corelib:dgConvexHull4d.obj
 0001:000d4a20       ??0?$dgList@VdgConvexHull4dTetraherum@@@@QAE@QAVdgMemoryAllocator@@@Z 100d5a20 f i corelib:dgConvexHull4d.obj
 0001:000d4a60       ??1?$dgList@VdgConvexHull4dTetraherum@@@@QAE@XZ 100d5a60 f i corelib:dgConvexHull4d.obj
 0001:000d4a80       ?Append@?$dgList@VdgConvexHull4dTetraherum@@@@QAEPAVdgListNode@1@XZ 100d5a80 f i corelib:dgConvexHull4d.obj
 0001:000d4b40       ?Remove@?$dgList@VdgConvexHull4dTetraherum@@@@QAEXQAVdgListNode@1@@Z 100d5b40 f i corelib:dgConvexHull4d.obj
 0001:000d4b90       ??0?$dgArray@VdgHullVector@@@@QAE@HQAVdgMemoryAllocator@@@Z 100d5b90 f i corelib:dgConvexHull4d.obj
 0001:000d4bd0       ??1?$dgArray@VdgHullVector@@@@QAE@XZ 100d5bd0 f i corelib:dgConvexHull4d.obj
 0001:000d4c00       ??0?$dgStack@VdgHullVector@@@@QAE@H@Z 100d5c00 f i corelib:dgConvexHull4d.obj
 0001:000d4c30       ??1?$dgStack@VdgHullVector@@@@QAE@XZ 100d5c30 f i corelib:dgConvexHull4d.obj
 0001:000d4c50       ??A?$dgStack@VdgHullVector@@@@QAEAAVdgHullVector@@H@Z 100d5c50 f i corelib:dgConvexHull4d.obj
 0001:000d4cd0       ??0?$dgStack@VdgAABBPointTree4dClump@@@@QAE@H@Z 100d5cd0 f i corelib:dgConvexHull4d.obj
 0001:000d4d00       ??1?$dgStack@VdgAABBPointTree4dClump@@@@QAE@XZ 100d5d00 f i corelib:dgConvexHull4d.obj
 0001:000d4d20       ?GetSizeInBytes@?$dgStack@VdgAABBPointTree4dClump@@@@QBEHXZ 100d5d20 f i corelib:dgConvexHull4d.obj
 0001:000d4d40       ??A?$dgStack@VdgAABBPointTree4dClump@@@@QAEAAVdgAABBPointTree4dClump@@H@Z 100d5d40 f i corelib:dgConvexHull4d.obj
 0001:000d4dc0       ??$Swap@VdgHullVector@@@@YAXAAVdgHullVector@@0@Z 100d5dc0 f i corelib:dgConvexHull4d.obj
 0001:000d4e10       ?GetLast@?$dgList@PAVdgListNode@?$dgList@VdgConvexHull4dTetraherum@@@@@@QBEPAVdgListNode@1@XZ 100d5e10 f i corelib:dgConvexHull4d.obj
 0001:000d4e30       ?Addtop@?$dgList@PAVdgListNode@?$dgList@VdgConvexHull4dTetraherum@@@@@@QAEPAVdgListNode@1@ABQAV2?$dgList@VdgConvexHull4dTetraherum@@@@@Z 100d5e30 f i corelib:dgConvexHull4d.obj
 0001:000d4ef0       ?Remove@?$dgList@PAVdgListNode@?$dgList@VdgConvexHull4dTetraherum@@@@@@QAEXABQAVdgListNode@?$dgList@VdgConvexHull4dTetraherum@@@@@Z 100d5ef0 f i corelib:dgConvexHull4d.obj
 0001:000d4f20       ??0?$dgTree@PAVdgListNode@?$dgList@VdgConvexHull4dTetraherum@@@@PAV12@@@QAE@QAVdgMemoryAllocator@@@Z 100d5f20 f i corelib:dgConvexHull4d.obj
 0001:000d4f50       ??1?$dgTree@PAVdgListNode@?$dgList@VdgConvexHull4dTetraherum@@@@PAV12@@@QAE@XZ 100d5f50 f i corelib:dgConvexHull4d.obj
 0001:000d4f70       ?Minimum@?$dgTree@PAVdgListNode@?$dgList@VdgConvexHull4dTetraherum@@@@PAV12@@@QBEPAVdgTreeNode@1@XZ 100d5f70 f i corelib:dgConvexHull4d.obj
 0001:000d4fa0       ?Find@?$dgTree@PAVdgListNode@?$dgList@VdgConvexHull4dTetraherum@@@@PAV12@@@QBEPAVdgTreeNode@1@PAVdgListNode@?$dgList@VdgConvexHull4dTetraherum@@@@@Z 100d5fa0 f i corelib:dgConvexHull4d.obj
 0001:000d50c0       ?Insert@?$dgTree@PAVdgListNode@?$dgList@VdgConvexHull4dTetraherum@@@@PAV12@@@QAEPAVdgTreeNode@1@ABQAVdgListNode@?$dgList@VdgConvexHull4dTetraherum@@@@PAV34@@Z 100d60c0 f i corelib:dgConvexHull4d.obj
 0001:000d5100       ??1?$dgHeapBase@PAVdgListNode@?$dgList@VdgConvexHull4dTetraherum@@@@N@@IAE@XZ 100d6100 f i corelib:dgConvexHull4d.obj
 0001:000d5130       ?Value@?$dgHeapBase@PAVdgListNode@?$dgList@VdgConvexHull4dTetraherum@@@@N@@QBENH@Z 100d6130 f i corelib:dgConvexHull4d.obj
 0001:000d5150       ?GetCount@?$dgHeapBase@PAVdgListNode@?$dgList@VdgConvexHull4dTetraherum@@@@N@@QBEHXZ 100d6150 f i corelib:dgConvexHull4d.obj
 0001:000d5160       ?GetMaxCount@?$dgHeapBase@PAVdgListNode@?$dgList@VdgConvexHull4dTetraherum@@@@N@@QBEHXZ 100d6160 f i corelib:dgConvexHull4d.obj
 0001:000d5180       ??A?$dgHeapBase@PAVdgListNode@?$dgList@VdgConvexHull4dTetraherum@@@@N@@QBEABQAVdgListNode@?$dgList@VdgConvexHull4dTetraherum@@@@H@Z 100d6180 f i corelib:dgConvexHull4d.obj
 0001:000d51d0       ??0?$dgDownHeap@PAVdgListNode@?$dgList@VdgConvexHull4dTetraherum@@@@N@@QAE@QBXH@Z 100d61d0 f i corelib:dgConvexHull4d.obj
 0001:000d51f0       ?Pop@?$dgDownHeap@PAVdgListNode@?$dgList@VdgConvexHull4dTetraherum@@@@N@@QAEXXZ 100d61f0 f i corelib:dgConvexHull4d.obj
 0001:000d5320       ?Push@?$dgDownHeap@PAVdgListNode@?$dgList@VdgConvexHull4dTetraherum@@@@N@@QAEXAAPAVdgListNode@?$dgList@VdgConvexHull4dTetraherum@@@@N@Z 100d6320 f i corelib:dgConvexHull4d.obj
 0001:000d5440       ?Remove@?$dgDownHeap@PAVdgListNode@?$dgList@VdgConvexHull4dTetraherum@@@@N@@QAEXH@Z 100d6440 f i corelib:dgConvexHull4d.obj
 0001:000d5570       ??_GdgListNode@?$dgList@VdgConvexHull4dTetraherum@@@@AAEPAXI@Z 100d6570 f i corelib:dgConvexHull4d.obj
 0001:000d55a0       ??2dgListNode@?$dgList@VdgConvexHull4dTetraherum@@@@CAPAXIQAVdgMemoryAllocator@@@Z 100d65a0 f i corelib:dgConvexHull4d.obj
 0001:000d55c0       ??3dgListNode@?$dgList@VdgConvexHull4dTetraherum@@@@CAXPAX@Z 100d65c0 f i corelib:dgConvexHull4d.obj
 0001:000d55e0       ??0dgListNode@?$dgList@VdgConvexHull4dTetraherum@@@@AAE@QAV01@0@Z 100d65e0 f i corelib:dgConvexHull4d.obj
 0001:000d5670       ??1dgListNode@?$dgList@VdgConvexHull4dTetraherum@@@@AAE@XZ 100d6670 f i corelib:dgConvexHull4d.obj
 0001:000d5680       ?GetLeft@dgTreeNode@?$dgTree@PAVdgListNode@?$dgList@VdgConvexHull4dTetraherum@@@@PAV12@@@ABEPAV12@XZ 100d6680 f i corelib:dgConvexHull4d.obj
 0001:000d5690       ?GetRight@dgTreeNode@?$dgTree@PAVdgListNode@?$dgList@VdgConvexHull4dTetraherum@@@@PAV12@@@ABEPAV12@XZ 100d6690 f i corelib:dgConvexHull4d.obj
 0001:000d56b0       ?RemoveAll@?$dgList@VdgConvexHull4dTetraherum@@@@QAEXXZ 100d66b0 f i corelib:dgConvexHull4d.obj
 0001:000d5770       ?Unlink@?$dgList@VdgConvexHull4dTetraherum@@@@QAEXQAVdgListNode@1@@Z 100d6770 f i corelib:dgConvexHull4d.obj
 0001:000d5820       ?Find@?$dgList@PAVdgListNode@?$dgList@VdgConvexHull4dTetraherum@@@@@@QBEPAVdgListNode@1@ABQAV2?$dgList@VdgConvexHull4dTetraherum@@@@@Z 100d6820 f i corelib:dgConvexHull4d.obj
 0001:000d5860       ?Insert@?$dgTree@PAVdgListNode@?$dgList@VdgConvexHull4dTetraherum@@@@PAV12@@@QAEPAVdgTreeNode@1@ABQAVdgListNode@?$dgList@VdgConvexHull4dTetraherum@@@@PAV34@AA_N@Z 100d6860 f i corelib:dgConvexHull4d.obj
 0001:000d5a60       ?RemoveAll@?$dgTree@PAVdgListNode@?$dgList@VdgConvexHull4dTetraherum@@@@PAV12@@@QAEXXZ 100d6a60 f i corelib:dgConvexHull4d.obj
 0001:000d5aa0       ?CompareKeys@?$dgTree@PAVdgListNode@?$dgList@VdgConvexHull4dTetraherum@@@@PAV12@@@ABEHABQAVdgListNode@?$dgList@VdgConvexHull4dTetraherum@@@@0@Z 100d6aa0 f i corelib:dgConvexHull4d.obj
 0001:000d5ae0       ??0?$dgHeapBase@PAVdgListNode@?$dgList@VdgConvexHull4dTetraherum@@@@N@@IAE@QBXH@Z 100d6ae0 f i corelib:dgConvexHull4d.obj
 0001:000d5b20       ?Unlink@dgListNode@?$dgList@VdgConvexHull4dTetraherum@@@@AAEXXZ 100d6b20 f i corelib:dgConvexHull4d.obj
 0001:000d5b70       ?GetPrev@dgListNode@?$dgList@VdgConvexHull4dTetraherum@@@@QBEPAV12@XZ 100d6b70 f i corelib:dgConvexHull4d.obj
 0001:000d5b90       ??0dgTreeNode@?$dgTree@PAVdgListNode@?$dgList@VdgConvexHull4dTetraherum@@@@PAV12@@@AAE@ABQAVdgListNode@?$dgList@VdgConvexHull4dTetraherum@@@@0PAV01@@Z 100d6b90 f i corelib:dgConvexHull4d.obj
 0001:000d5c00       ?Flush@?$dgHeapBase@PAVdgListNode@?$dgList@VdgConvexHull4dTetraherum@@@@N@@QAEXXZ 100d6c00 f i corelib:dgConvexHull4d.obj
 0001:000d64a0       ??0dgAABBPolygonSoup@@IAE@XZ 100d74a0 f   corelib:dgAABBPolygonSoup.obj
 0001:000d64f0       ??1dgAABBPolygonSoup@@MAE@XZ 100d74f0 f   corelib:dgAABBPolygonSoup.obj
 0001:000d6540       ?GetRootNode@dgAABBPolygonSoup@@IBEPAXXZ 100d7540 f   corelib:dgAABBPolygonSoup.obj
 0001:000d6560       ?GetBackNode@dgAABBPolygonSoup@@IBEPAXQBX@Z 100d7560 f   corelib:dgAABBPolygonSoup.obj
 0001:000d65b0       ?GetFrontNode@dgAABBPolygonSoup@@IBEPAXQBX@Z 100d75b0 f   corelib:dgAABBPolygonSoup.obj
 0001:000d6600       ?GetNodeAABB@dgAABBPolygonSoup@@IBEXQBXAAVdgVector@@1@Z 100d7600 f   corelib:dgAABBPolygonSoup.obj
 0001:000d6700       ?ForAllSectorsSimd@dgAABBPolygonSoup@@MBEXABVdgVector@@0P6A?AW4dgIntersectStatus@@PAXQBMHQBHH@ZQAX@Z 100d7700 f   corelib:dgAABBPolygonSoup.obj
 0001:000d6750       ?ForAllSectors@dgAABBPolygonSoup@@MBEXABVdgVector@@0P6A?AW4dgIntersectStatus@@PAXQBMHQBHH@ZQAX@Z 100d7750 f   corelib:dgAABBPolygonSoup.obj
 0001:000d67a0       ?ForAllSectorsSupportVectex@dgAABBPolygonSoup@@MBE?AVdgVector@@ABV2@@Z 100d77a0 f   corelib:dgAABBPolygonSoup.obj
 0001:000d6810       ?GetAABB@dgAABBPolygonSoup@@UBEXAAVdgVector@@0@Z 100d7810 f   corelib:dgAABBPolygonSoup.obj
 0001:000d6930       ?ForAllSectorsRayHit@dgAABBPolygonSoup@@MBEXABVFastRayTest@@P6AMPAXQBMHQBHH@ZQAX@Z 100d7930 f   corelib:dgAABBPolygonSoup.obj
 0001:000d6980       ?ForAllSectorsRayHitSimd@dgAABBPolygonSoup@@MBEXABVFastRayTest@@P6AMPAXQBMHQBHH@ZQAX@Z 100d7980 f   corelib:dgAABBPolygonSoup.obj
 0001:000d69d0       ?Serialize@dgAABBPolygonSoup@@UBEXP6AXPAXPBXI@ZQAX@Z 100d79d0 f   corelib:dgAABBPolygonSoup.obj
 0001:000d6a90       ?Deserialize@dgAABBPolygonSoup@@UAEXP6AXPAX0I@ZQAX@Z 100d7a90 f   corelib:dgAABBPolygonSoup.obj
 0001:000d6bc0       ?CalculateThisFaceEdgeNormals@dgAABBPolygonSoup@@CA?AW4dgIntersectStatus@@PAXQBMHQBHH@Z 100d7bc0 f   corelib:dgAABBPolygonSoup.obj
 0001:000d6d80       ?CalculateAllFaceEdgeNormals@dgAABBPolygonSoup@@CA?AW4dgIntersectStatus@@PAXQBMHQBHH@Z 100d7d80 f   corelib:dgAABBPolygonSoup.obj
 0001:000d6fe0       ?CalculateFaceMaxSize@dgAABBPolygonSoup@@IBEMQAVdgTriplex@@HQBH@Z 100d7fe0 f   corelib:dgAABBPolygonSoup.obj
 0001:000d7290       ?Create@dgAABBPolygonSoup@@IAEXABVdgPolygonSoupDatabaseBuilder@@_N@Z 100d8290 f   corelib:dgAABBPolygonSoup.obj
 0001:000d7850       ??0dgPolygonSoupDatabase@@IAE@PBD@Z 100d8850 f i corelib:dgAABBPolygonSoup.obj
 0001:000d7890       ??_EdgPolygonSoupDatabase@@MAEPAXI@Z 100d8890 f i corelib:dgAABBPolygonSoup.obj
 0001:000d7890       ??_GdgPolygonSoupDatabase@@MAEPAXI@Z 100d8890 f i corelib:dgAABBPolygonSoup.obj
 0001:000d78c0       ??1dgPolygonSoupDatabase@@MAE@XZ 100d88c0 f i corelib:dgAABBPolygonSoup.obj
 0001:000d78f0       ?ForAllSectorsSimd@dgPolygonSoupDatabase@@MBEXABVdgVector@@0P6A?AW4dgIntersectStatus@@PAXQBMHQBHH@ZQAX@Z 100d88f0 f i corelib:dgAABBPolygonSoup.obj
 0001:000d7920       ?ForAllSectors@dgPolygonSoupDatabase@@MBEXABVdgVector@@0P6A?AW4dgIntersectStatus@@PAXQBMHQBHH@ZQAX@Z 100d8920 f i corelib:dgAABBPolygonSoup.obj
 0001:000d7950       ?GetAABB@dgPolygonSoupDatabase@@UBEXAAVdgVector@@0@Z 100d8950 f i corelib:dgAABBPolygonSoup.obj
 0001:000d7960       ?ForAllSectorsRayHit@dgPolygonSoupDatabase@@MBEXABVFastRayTest@@P6AMPAXQBMHQBHH@ZQAX@Z 100d8960 f i corelib:dgAABBPolygonSoup.obj
 0001:000d7990       ?ForAllSectorsRayHitSimd@dgPolygonSoupDatabase@@MBEXABVFastRayTest@@P6AMPAXQBMHQBHH@ZQAX@Z 100d8990 f i corelib:dgAABBPolygonSoup.obj
 0001:000d79d0       ??_GdgAABBPolygonSoup@@MAEPAXI@Z 100d89d0 f i corelib:dgAABBPolygonSoup.obj
 0001:000d79d0       ??_EdgAABBPolygonSoup@@MAEPAXI@Z 100d89d0 f i corelib:dgAABBPolygonSoup.obj
 0001:000d7a00       ?IsLeaf@TreeNode@dgAABBTree@@QBEIXZ 100d8a00 f i corelib:dgAABBPolygonSoup.obj
 0001:000d7a20       ?GetNode@TreeNode@dgAABBTree@@QBEPAV2@PBX@Z 100d8a20 f i corelib:dgAABBPolygonSoup.obj
 0001:000d7a40       ?ForAllSectorsSimd@dgAABBTree@@QBEXQBHQBMABVdgVector@@2P6A?AW4dgIntersectStatus@@PAX1H0H@ZQAX@Z 100d8a40 f i corelib:dgAABBPolygonSoup.obj
 0001:000d7c70       ?GetCount@TreeNode@dgAABBTree@@QBEIXZ 100d8c70 f i corelib:dgAABBPolygonSoup.obj
 0001:000d7cc0       ?GetIndex@TreeNode@dgAABBTree@@QBEIXZ 100d8cc0 f i corelib:dgAABBPolygonSoup.obj
 0001:000d7d00       ?BoxIntersectSimd@dgAABBTree@@QBEHQBVdgTriplex@@ABVdgVector@@1@Z 100d8d00 f i corelib:dgAABBPolygonSoup.obj
 0001:000d7e20       ?ForAllSectors@dgAABBTree@@QBEXQBHQBMABVdgVector@@2P6A?AW4dgIntersectStatus@@PAX1H0H@ZQAX@Z 100d8e20 f i corelib:dgAABBPolygonSoup.obj
 0001:000d8050       ?BoxIntersect@dgAABBTree@@QBEHQBVdgTriplex@@ABVdgVector@@1@Z 100d9050 f i corelib:dgAABBPolygonSoup.obj
 0001:000d80f0       ?ForAllSectorsSupportVertex@dgAABBTree@@QBE?AVdgVector@@ABV2@QBHQBM@Z 100d90f0 f i corelib:dgAABBPolygonSoup.obj
 0001:000d8970       ?ForAllSectorsRayHit@dgAABBTree@@QBEXABVFastRayTest@@PBHPBMP6AMPAXQBMHQBHH@ZQAX@Z 100d9970 f i corelib:dgAABBPolygonSoup.obj
 0001:000d8ca0       ?RayTest@dgAABBTree@@QBEHABVFastRayTest@@QBVdgTriplex@@@Z 100d9ca0 f i corelib:dgAABBPolygonSoup.obj
 0001:000d8e60       ?ForAllSectorsRayHitSimd@dgAABBTree@@QBEXABVFastRayTest@@PBHPBMP6AMPAXQBMHQBHH@ZQAX@Z 100d9e60 f i corelib:dgAABBPolygonSoup.obj
 0001:000d9190       ?RayTestSimd@dgAABBTree@@QBEHABVFastRayTest@@QBVdgTriplex@@@Z 100da190 f i corelib:dgAABBPolygonSoup.obj
 0001:000d9570       ??0AdjacentdFaces@@QAE@XZ  100da570 f i corelib:dgAABBPolygonSoup.obj
 0001:000d9590       ??0TreeNode@dgAABBTree@@QAE@II@Z 100da590 f i corelib:dgAABBPolygonSoup.obj
 0001:000d95e0       ?CalcExtends@dgAABBTree@@QAEXQAVdgTriplex@@HQBH@Z 100da5e0 f i corelib:dgAABBPolygonSoup.obj
 0001:000d97d0       ?BuildBottomUp@dgAABBTree@@QAEHQAVdgMemoryAllocator@@HQAV1@QAVdgTriplex@@AAH@Z 100da7d0 f i corelib:dgAABBPolygonSoup.obj
 0001:000da060       ??2dgConstructionTree@dgAABBTree@@SAPAXIQAVdgMemoryAllocator@@@Z 100db060 f i corelib:dgAABBPolygonSoup.obj
 0001:000da080       ??0dgConstructionTree@dgAABBTree@@QAE@XZ 100db080 f i corelib:dgAABBPolygonSoup.obj
 0001:000da0b0       ??0dgConstructionTree@dgAABBTree@@QAE@QAV01@0@Z 100db0b0 f i corelib:dgAABBPolygonSoup.obj
 0001:000da210       ?BuildTree@dgAABBTree@@QAEHPAVdgConstructionTree@1@QAV1@1QAVdgTriplex@@AAH@Z 100db210 f i corelib:dgAABBPolygonSoup.obj
 0001:000da480       ??0TreeNode@dgAABBTree@@QAE@I@Z 100db480 f i corelib:dgAABBPolygonSoup.obj
 0001:000da4d0       ?BuildTopDown@dgAABBTree@@QAEHQAVdgMemoryAllocator@@HQAV1@QAVdgTriplex@@AAH@Z 100db4d0 f i corelib:dgAABBPolygonSoup.obj
 0001:000da590       ?BuildTree@dgAABBTree@@QAEPAVdgConstructionTree@1@QAVdgMemoryAllocator@@HHQAV1@QBVdgTriplex@@@Z 100db590 f i corelib:dgAABBPolygonSoup.obj
 0001:000da800       ?GetAxis@dgAABBTree@@ABEHPAPAVdgConstructionTree@1@H@Z 100db800 f i corelib:dgAABBPolygonSoup.obj
 0001:000da9a0       ?CompareBox@dgAABBTree@@CAHQBVdgConstructionTree@1@0QAX@Z 100db9a0 f i corelib:dgAABBPolygonSoup.obj
 0001:000daa20       ??_GdgConstructionTree@dgAABBTree@@QAEPAXI@Z 100dba20 f i corelib:dgAABBPolygonSoup.obj
 0001:000daa50       ??3dgConstructionTree@dgAABBTree@@SAXPAX@Z 100dba50 f i corelib:dgAABBPolygonSoup.obj
 0001:000daa70       ??1dgConstructionTree@dgAABBTree@@QAE@XZ 100dba70 f i corelib:dgAABBPolygonSoup.obj
 0001:000daaf0       ??1?$dgDownHeap@VdgHeapNodePair@dgAABBTree@@M@@QAE@XZ 100dbaf0 f i corelib:dgAABBPolygonSoup.obj
 0001:000dab10       ??A?$dgArray@VdgTriplex@@@@QBEABVdgTriplex@@H@Z 100dbb10 f i corelib:dgAABBPolygonSoup.obj
 0001:000dab70       ??A?$dgArray@H@@QBEABHH@Z  100dbb70 f i corelib:dgAABBPolygonSoup.obj
 0001:000dabd0       ??0?$dgStack@VdgAABBTree@@@@QAE@H@Z 100dbbd0 f i corelib:dgAABBPolygonSoup.obj
 0001:000dac00       ??1?$dgStack@VdgAABBTree@@@@QAE@XZ 100dbc00 f i corelib:dgAABBPolygonSoup.obj
 0001:000dac20       ??A?$dgStack@VdgAABBTree@@@@QAEAAVdgAABBTree@@H@Z 100dbc20 f i corelib:dgAABBPolygonSoup.obj
 0001:000daca0       ??0?$dgStack@VdgHeapNodePair@dgAABBTree@@@@QAE@H@Z 100dbca0 f i corelib:dgAABBPolygonSoup.obj
 0001:000dacd0       ??1?$dgStack@VdgHeapNodePair@dgAABBTree@@@@QAE@XZ 100dbcd0 f i corelib:dgAABBPolygonSoup.obj
 0001:000dacf0       ?GetSizeInBytes@?$dgStack@VdgHeapNodePair@dgAABBTree@@@@QBEHXZ 100dbcf0 f i corelib:dgAABBPolygonSoup.obj
 0001:000dad10       ??A?$dgStack@VdgHeapNodePair@dgAABBTree@@@@QAEAAVdgHeapNodePair@dgAABBTree@@H@Z 100dbd10 f i corelib:dgAABBPolygonSoup.obj
 0001:000dad90       ??0?$dgStack@PAVdgConstructionTree@dgAABBTree@@@@QAE@H@Z 100dbd90 f i corelib:dgAABBPolygonSoup.obj
 0001:000dadc0       ??1?$dgStack@PAVdgConstructionTree@dgAABBTree@@@@QAE@XZ 100dbdc0 f i corelib:dgAABBPolygonSoup.obj
 0001:000dade0       ??A?$dgStack@PAVdgConstructionTree@dgAABBTree@@@@QAEAAPAVdgConstructionTree@dgAABBTree@@H@Z 100dbde0 f i corelib:dgAABBPolygonSoup.obj
 0001:000dae60       ??1?$dgHeapBase@VdgHeapNodePair@dgAABBTree@@M@@IAE@XZ 100dbe60 f i corelib:dgAABBPolygonSoup.obj
 0001:000dae90       ?Flush@?$dgHeapBase@VdgHeapNodePair@dgAABBTree@@M@@QAEXXZ 100dbe90 f i corelib:dgAABBPolygonSoup.obj
 0001:000daeb0       ?Value@?$dgHeapBase@VdgHeapNodePair@dgAABBTree@@M@@QBEMH@Z 100dbeb0 f i corelib:dgAABBPolygonSoup.obj
 0001:000daed0       ?GetCount@?$dgHeapBase@VdgHeapNodePair@dgAABBTree@@M@@QBEHXZ 100dbed0 f i corelib:dgAABBPolygonSoup.obj
 0001:000daee0       ?GetMaxCount@?$dgHeapBase@VdgHeapNodePair@dgAABBTree@@M@@QBEHXZ 100dbee0 f i corelib:dgAABBPolygonSoup.obj
 0001:000daf00       ??A?$dgHeapBase@VdgHeapNodePair@dgAABBTree@@M@@QBEABVdgHeapNodePair@dgAABBTree@@H@Z 100dbf00 f i corelib:dgAABBPolygonSoup.obj
 0001:000daf50       ??0?$dgDownHeap@VdgHeapNodePair@dgAABBTree@@M@@QAE@QBXH@Z 100dbf50 f i corelib:dgAABBPolygonSoup.obj
 0001:000daf70       ?Pop@?$dgDownHeap@VdgHeapNodePair@dgAABBTree@@M@@QAEXXZ 100dbf70 f i corelib:dgAABBPolygonSoup.obj
 0001:000db0a0       ?Push@?$dgDownHeap@VdgHeapNodePair@dgAABBTree@@M@@QAEXAAVdgHeapNodePair@dgAABBTree@@M@Z 100dc0a0 f i corelib:dgAABBPolygonSoup.obj
 0001:000db1c0       ?Sort@?$dgDownHeap@VdgHeapNodePair@dgAABBTree@@M@@QAEXXZ 100dc1c0 f i corelib:dgAABBPolygonSoup.obj
 0001:000db330       ??$dgSortIndirect@VdgConstructionTree@dgAABBTree@@@@YAXQAPAVdgConstructionTree@dgAABBTree@@HP6AHQBV01@1QAX@Z2@Z 100dc330 f i corelib:dgAABBPolygonSoup.obj
 0001:000db6b0       ??$Swap@VdgAABBTree@@@@YAXAAVdgAABBTree@@0@Z 100dc6b0 f i corelib:dgAABBPolygonSoup.obj
 0001:000db710       ?Resize@?$dgArray@VdgTriplex@@@@QBEXH@Z 100dc710 f i corelib:dgAABBPolygonSoup.obj
 0001:000db890       ?Resize@?$dgArray@H@@QBEXH@Z 100dc890 f i corelib:dgAABBPolygonSoup.obj
 0001:000db9f0       ??0?$dgHeapBase@VdgHeapNodePair@dgAABBTree@@M@@IAE@QBXH@Z 100dc9f0 f i corelib:dgAABBPolygonSoup.obj
 0001:000dba30       ??0dgPolygonSoupDatabaseBuilder@@QAE@QAVdgMemoryAllocator@@@Z 100dca30 f   corelib:dgPolygonSoupBuilder.obj
 0001:000dbac0       ??1dgPolygonSoupDatabaseBuilder@@QAE@XZ 100dcac0 f   corelib:dgPolygonSoupBuilder.obj
 0001:000dbb10       ?Begin@dgPolygonSoupDatabaseBuilder@@QAEXXZ 100dcb10 f   corelib:dgPolygonSoupBuilder.obj
 0001:000dbb50       ?AddMesh@dgPolygonSoupDatabaseBuilder@@QAEXQBMHHHQBH11ABVdgMatrix@@@Z 100dcb50 f   corelib:dgPolygonSoupBuilder.obj
 0001:000dbe70       ?SingleFaceFixup@dgPolygonSoupDatabaseBuilder@@QAEXXZ 100dce70 f   corelib:dgPolygonSoupBuilder.obj
 0001:000dbf30       ?EndAndOptimize@dgPolygonSoupDatabaseBuilder@@AAEX_N@Z 100dcf30 f   corelib:dgPolygonSoupBuilder.obj
 0001:000dc070       ?OptimizeByGroupID@dgPolygonSoupDatabaseBuilder@@AAEXXZ 100dd070 f   corelib:dgPolygonSoupBuilder.obj
 0001:000dc480       ?OptimizeByGroupID@dgPolygonSoupDatabaseBuilder@@AAEXAAV1@HH0@Z 100dd480 f   corelib:dgPolygonSoupBuilder.obj
 0001:000dca70       ?OptimizeByIndividualFaces@dgPolygonSoupDatabaseBuilder@@AAEXXZ 100dda70 f   corelib:dgPolygonSoupBuilder.obj
 0001:000dcbd0       ?End@dgPolygonSoupDatabaseBuilder@@QAEX_N@Z 100ddbd0 f   corelib:dgPolygonSoupBuilder.obj
 0001:000dcea0       ?Optimize@dgPolygonSoupDatabaseBuilder@@AAEX_N@Z 100ddea0 f   corelib:dgPolygonSoupBuilder.obj
 0001:000dd990       ?FilterFace@dgPolygonSoupDatabaseBuilder@@AAEHHQAH@Z 100de990 f   corelib:dgPolygonSoupBuilder.obj
 0001:000de520       ?AddConvexFace@dgPolygonSoupDatabaseBuilder@@AAEHHQAH0@Z 100df520 f   corelib:dgPolygonSoupBuilder.obj
 0001:000df080       ??0VertexArray@dgPolygonSoupDatabaseBuilder@@QAE@QAVdgMemoryAllocator@@@Z 100e0080 f i corelib:dgPolygonSoupBuilder.obj
 0001:000df0b0       ??0IndexArray@dgPolygonSoupDatabaseBuilder@@QAE@QAVdgMemoryAllocator@@@Z 100e00b0 f i corelib:dgPolygonSoupBuilder.obj
 0001:000df0e0       ??1IndexArray@dgPolygonSoupDatabaseBuilder@@QAE@XZ 100e00e0 f i corelib:dgPolygonSoupBuilder.obj
 0001:000df100       ??1VertexArray@dgPolygonSoupDatabaseBuilder@@QAE@XZ 100e0100 f i corelib:dgPolygonSoupBuilder.obj
 0001:000df120       ??0dgPolySoupFilterAllocator@@QAE@QAVdgMemoryAllocator@@@Z 100e0120 f i corelib:dgPolygonSoupBuilder.obj
 0001:000df150       ??1dgPolySoupFilterAllocator@@UAE@XZ 100e0150 f i corelib:dgPolygonSoupBuilder.obj
 0001:000df170       ?AddFilterFace@dgPolySoupFilterAllocator@@QAEHIQAH@Z 100e0170 f i corelib:dgPolygonSoupBuilder.obj
 0001:000df2c0       ??_EdgPolySoupFilterAllocator@@UAEPAXI@Z 100e02c0 f i corelib:dgPolygonSoupBuilder.obj
 0001:000df2c0       ??_GdgPolySoupFilterAllocator@@UAEPAXI@Z 100e02c0 f i corelib:dgPolygonSoupBuilder.obj
 0001:000df2f0       ??0?$dgArray@VdgTriplex@@@@QAE@HQAVdgMemoryAllocator@@@Z 100e02f0 f i corelib:dgPolygonSoupBuilder.obj
 0001:000df330       ??1?$dgArray@VdgTriplex@@@@QAE@XZ 100e0330 f i corelib:dgPolygonSoupBuilder.obj
 0001:000df360       ??A?$dgArray@VdgTriplex@@@@QAEAAVdgTriplex@@H@Z 100e0360 f i corelib:dgPolygonSoupBuilder.obj
 0001:000df3c0       ??0?$dgArray@H@@QAE@HQAVdgMemoryAllocator@@@Z 100e03c0 f i corelib:dgPolygonSoupBuilder.obj
 0001:000df400       ??1?$dgArray@H@@QAE@XZ     100e0400 f i corelib:dgPolygonSoupBuilder.obj
 0001:000df430       ??A?$dgArray@H@@QAEAAHH@Z  100e0430 f i corelib:dgPolygonSoupBuilder.obj
 0001:000df490       ??0?$dgTree@HH@@QAE@QAVdgMemoryAllocator@@@Z 100e0490 f i corelib:dgPolygonSoupBuilder.obj
 0001:000df4c0       ??1?$dgTree@HH@@QAE@XZ     100e04c0 f i corelib:dgPolygonSoupBuilder.obj
 0001:000df4e0       ?Find@?$dgTree@HH@@QBEPAVdgTreeNode@1@H@Z 100e04e0 f i corelib:dgPolygonSoupBuilder.obj
 0001:000df600       ?Insert@?$dgTree@HH@@QAEPAVdgTreeNode@1@ABHH@Z 100e0600 f i corelib:dgPolygonSoupBuilder.obj
 0001:000df640       ?GetLeft@dgTreeNode@?$dgTree@HH@@ABEPAV12@XZ 100e0640 f i corelib:dgPolygonSoupBuilder.obj
 0001:000df650       ?GetRight@dgTreeNode@?$dgTree@HH@@ABEPAV12@XZ 100e0650 f i corelib:dgPolygonSoupBuilder.obj
 0001:000df670       ?Insert@?$dgTree@HH@@QAEPAVdgTreeNode@1@ABHHAA_N@Z 100e0670 f i corelib:dgPolygonSoupBuilder.obj
 0001:000df870       ?RemoveAll@?$dgTree@HH@@QAEXXZ 100e0870 f i corelib:dgPolygonSoupBuilder.obj
 0001:000df8b0       ?CompareKeys@?$dgTree@HH@@ABEHABH0@Z 100e08b0 f i corelib:dgPolygonSoupBuilder.obj
 0001:000df8f0       ??0dgTreeNode@?$dgTree@HH@@AAE@ABH0PAV01@@Z 100e08f0 f i corelib:dgPolygonSoupBuilder.obj
 0001:000df960       ??0dgQuaternion@@QAE@ABVdgMatrix@@@Z 100e0960 f   corelib:dgQuaternion.obj
 0001:000dfdf0       ??0dgQuaternion@@QAE@ABVdgVector@@M@Z 100e0df0 f   corelib:dgQuaternion.obj
 0001:000dfed0       ?CalcAverageOmega@dgQuaternion@@QBE?AVdgVector@@ABV1@M@Z 100e0ed0 f   corelib:dgQuaternion.obj
 0001:000dff30       ?Slerp@dgQuaternion@@QBE?AV1@ABV1@M@Z 100e0f30 f   corelib:dgQuaternion.obj
 0001:000dff70       ?GetIdentitySphere@@YAABVdgSphere@@XZ 100e0f70 f   corelib:dgSphere.obj
 0001:000dff80       ??0dgSphere@@QAE@XZ        100e0f80 f   corelib:dgSphere.obj
 0001:000dffd0       ??0dgSphere@@QAE@ABVdgQuaternion@@ABVdgVector@@1@Z 100e0fd0 f   corelib:dgSphere.obj
 0001:000e0050       ??0dgSphere@@QAE@ABVdgMatrix@@ABVdgVector@@@Z 100e1050 f   corelib:dgSphere.obj
 0001:000e00b0       ?SetDimensions@dgSphere@@QAEXQBMHQBHHPBVdgMatrix@@@Z 100e10b0 f   corelib:dgSphere.obj
 0001:000e0f20       ?SetDimensions@dgSphere@@QAEXQBMHHPBVdgMatrix@@@Z 100e1f20 f   corelib:dgSphere.obj
 0001:000e1840       ?SetDimensions@dgSphere@@QAEXMMM@Z 100e2840 f i corelib:dgSphere.obj
 0001:000e18e0       ?sqrt@@YAMM@Z              100e28e0 f i corelib:dgSphere.obj
 0001:000e1900       _sqrtf                     100e2900 f i corelib:dgSphere.obj
 0001:000e1920       ?Determinant2x2@@YANQAY01$$CBNQAN@Z 100e2920 f   corelib:dgSmallDeterminant.obj
 0001:000e1990       ?Determinant2x2@@YA?AVdgGoogol@@QAY01$$CBV1@@Z 100e2990 f   corelib:dgSmallDeterminant.obj
 0001:000e1a10       ?Determinant3x3@@YANQAY02$$CBNQAN@Z 100e2a10 f   corelib:dgSmallDeterminant.obj
 0001:000e1b40       ?Determinant3x3@@YA?AVdgGoogol@@QAY02$$CBV1@@Z 100e2b40 f   corelib:dgSmallDeterminant.obj
 0001:000e1dc0       ?Determinant4x4@@YANQAY03$$CBNQAN@Z 100e2dc0 f   corelib:dgSmallDeterminant.obj
 0001:000e1f10       ?Determinant4x4@@YA?AVdgGoogol@@QAY03$$CBV1@@Z 100e2f10 f   corelib:dgSmallDeterminant.obj
 0001:000e21b0       ??0dgGoogol@@QAE@XZ        100e31b0 f   corelib:dgGoogol.obj
 0001:000e21e0       ??0dgGoogol@@QAE@N@Z       100e31e0 f   corelib:dgGoogol.obj
 0001:000e2210       ??1dgGoogol@@QAE@XZ        100e3210 f   corelib:dgGoogol.obj
 0001:000e2220       ?GetAproximateValue@dgGoogol@@QBENXZ 100e3220 f   corelib:dgGoogol.obj
 0001:000e2270       ?InitFloatFloat@dgGoogol@@QAEXN@Z 100e3270 f   corelib:dgGoogol.obj
 0001:000e2340       ??HdgGoogol@@QBE?AV0@ABV0@@Z 100e3340 f   corelib:dgGoogol.obj
 0001:000e2550       ??GdgGoogol@@QBE?AV0@ABV0@@Z 100e3550 f   corelib:dgGoogol.obj
 0001:000e25e0       ??DdgGoogol@@QBE?AV0@ABV0@@Z 100e35e0 f   corelib:dgGoogol.obj
 0001:000e26d0       ?AddFloat@dgGoogol@@ABEXNNAAN0@Z 100e36d0 f i corelib:dgGoogol.obj
 0001:000e2720       ?PackFloat@dgGoogol@@AAEXXZ 100e3720 f i corelib:dgGoogol.obj
 0001:000e2960       ?ScaleFloat@dgGoogol@@ABE?AV1@N@Z 100e3960 f i corelib:dgGoogol.obj
 0001:000e2b90       ?MulFloat@dgGoogol@@ABEXNNAAN0@Z 100e3b90 f i corelib:dgGoogol.obj
 0001:000e2c10       ?SplitFloat@dgGoogol@@ABEXNAAN0@Z 100e3c10 f i corelib:dgGoogol.obj
 0001:000e2c50       _strlen                    100e3c50 f   LIBCMTD:strlen.obj
 0001:000e2ce0       __fpmath                   100e3ce0 f   LIBCMTD:_fpinit_.obj
 0001:000e2d10       __fpclear                  100e3d10 f   LIBCMTD:_fpinit_.obj
 0001:000e2d20       __cfltcvt_init             100e3d20 f   LIBCMTD:_fpinit_.obj
 0001:000e2d90       ___setfflag                100e3d90 f   LIBCMTD:_fpinit_.obj
 0001:000e2db0       __ftol2_sse                100e3db0 f   LIBCMTD:ftol2.obj
 0001:000e2db9       __ftol2_pentium4           100e3db9 f   LIBCMTD:ftol2.obj
 0001:000e2dcc       __ftol2_sse_excpt          100e3dcc f   LIBCMTD:ftol2.obj
 0001:000e2de6       __ftol2                    100e3de6 f   LIBCMTD:ftol2.obj
 0001:000e2e60       _ceil                      100e3e60 f   LIBCMTD:_ceil_pentium4_.obj
 0001:000e2ea0       __ceil_pentium4            100e3ea0 f   LIBCMTD:_ceil_pentium4_.obj
 0001:000e2f80       __CrtSetReportHookW2       100e3f80 f   LIBCMTD:dbgrptw.obj
 0001:000e32a0       __CrtDbgReportW            100e42a0 f   LIBCMTD:dbgrptw.obj
 0001:000e32e0       __CrtDbgReportWV           100e42e0 f i LIBCMTD:dbgrptw.obj
 0001:000e3310       ___crtMessageWindowW       100e4310 f   LIBCMTD:dbgrptw.obj
 0001:000e3710       __invoke_watson_if_error   100e4710 f i LIBCMTD:dbgrptw.obj
 0001:000e3740       __invoke_watson_if_oneof   100e4740 f i LIBCMTD:dbgrptw.obj
 0001:000e3790       ?_CrtDbgReportW@@YAHHPBGH00ZZ 100e4790 f   LIBCMTD:dbgrptw.obj
 0001:000e37d0       __copysign                 100e47d0 f   LIBCMTD:_ieeemisc_.obj
 0001:000e3810       __chgsign                  100e4810 f   LIBCMTD:_ieeemisc_.obj
 0001:000e3850       __scalb                    100e4850 f   LIBCMTD:_ieeemisc_.obj
 0001:000e3870       __logb                     100e4870 f   LIBCMTD:_ieeemisc_.obj
 0001:000e39a0       __nextafter                100e49a0 f   LIBCMTD:_ieeemisc_.obj
 0001:000e3cc0       __finite                   100e4cc0 f   LIBCMTD:_ieeemisc_.obj
 0001:000e3ce0       __isnan                    100e4ce0 f   LIBCMTD:_ieeemisc_.obj
 0001:000e3d30       __fpclass                  100e4d30 f   LIBCMTD:_ieeemisc_.obj
 0001:000e3e00       _malloc                    100e4e00 f   LIBCMTD:dbgmalloc.obj
 0001:000e3e30       _free                      100e4e30 f   LIBCMTD:dbgfree.obj
 0001:000e3e50       _memset                    100e4e50 f   LIBCMTD:memset.obj
 0001:000e3ed0       __CRT_INIT@12              100e4ed0 f   LIBCMTD:dllcrt0.obj
 0001:000e40a0       __DllMainCRTStartup@12     100e50a0 f   LIBCMTD:dllcrt0.obj
 0001:000e4290       _sprintf                   100e5290 f   LIBCMTD:sprintf.obj
 0001:000e4410       __sprintf_l                100e5410 f   LIBCMTD:sprintf.obj
 0001:000e4440       _sprintf_s                 100e5440 f   LIBCMTD:sprintf.obj
 0001:000e4470       __sprintf_s_l              100e5470 f   LIBCMTD:sprintf.obj
 0001:000e44a0       __snprintf_s               100e54a0 f   LIBCMTD:sprintf.obj
 0001:000e44d0       __snprintf_s_l             100e54d0 f   LIBCMTD:sprintf.obj
 0001:000e4500       __sprintf_p                100e5500 f   LIBCMTD:sprintf.obj
 0001:000e4530       __sprintf_p_l              100e5530 f   LIBCMTD:sprintf.obj
 0001:000e4560       __scprintf                 100e5560 f   LIBCMTD:sprintf.obj
 0001:000e4580       __scprintf_p               100e5580 f   LIBCMTD:sprintf.obj
 0001:000e45a0       __scprintf_l               100e55a0 f   LIBCMTD:sprintf.obj
 0001:000e45d0       __scprintf_p_l             100e55d0 f   LIBCMTD:sprintf.obj
 0001:000e4600       __statusfp2                100e5600 f   LIBCMTD:_ieee87_.obj
 0001:000e4640       __statusfp                 100e5640 f   LIBCMTD:_ieee87_.obj
 0001:000e4690       __clearfp                  100e5690 f   LIBCMTD:_ieee87_.obj
 0001:000e46e0       ___control87_2             100e56e0 f   LIBCMTD:_ieee87_.obj
 0001:000e4790       __controlfp                100e5790 f   LIBCMTD:_ieee87_.obj
 0001:000e47b0       __control87                100e57b0 f i LIBCMTD:_ieee87_.obj
 0001:000e4860       __set_controlfp            100e5860 f   LIBCMTD:_ieee87_.obj
 0001:000e48f0       __fpreset                  100e58f0 f   LIBCMTD:_ieee87_.obj
 0001:000e50b0       __alloca_probe             100e60b0     LIBCMTD:chkstk.obj
 0001:000e50b0       __chkstk                   100e60b0 f   LIBCMTD:chkstk.obj
 0001:000e50e0       __purecall                 100e60e0 f   LIBCMTD:purevirt.obj
 0001:000e5120       __set_purecall_handler     100e6120 f   LIBCMTD:purevirt.obj
 0001:000e5160       __get_purecall_handler     100e6160 f   LIBCMTD:purevirt.obj
 0001:000e5180       ??3@YAXPAX@Z               100e6180 f   LIBCMTD:dbgdel.obj
 0001:000e5270       _log                       100e6270 f   LIBCMTD:_log_.obj
 0001:000e52b0       __CIlog                    100e62b0 f   LIBCMTD:_log_.obj
 0001:000e52eb       __CIlog_default            100e62eb f   LIBCMTD:_log_.obj
 0001:000e52ff       __log_default              100e62ff     LIBCMTD:_log_.obj
 0001:000e53c0       _pow                       100e63c0 f   LIBCMTD:_pow_.obj
 0001:000e5400       __CIpow                    100e6400 f   LIBCMTD:_pow_.obj
 0001:000e543b       __CIpow_default            100e643b f   LIBCMTD:_pow_.obj
 0001:000e5454       __pow_default              100e6454     LIBCMTD:_pow_.obj
 0001:000e5650       _memcpy                    100e6650 f   LIBCMTD:memcpy.obj
 0001:000e59c0       __allmul                   100e69c0 f   LIBCMTD:llmul.obj
 0001:000e5a00       __allshl                   100e6a00 f   LIBCMTD:llshl.obj
 0001:000e5a20       __CIsqrt                   100e6a20 f   LIBCMTD:_sqrt_.obj
 0001:000e5a34       _sqrt                      100e6a34     LIBCMTD:_sqrt_.obj
 0001:000e5ae0       _strcpy                    100e6ae0 f   LIBCMTD:strcat.obj
 0001:000e5af0       _strcat                    100e6af0 f   LIBCMTD:strcat.obj
 0001:000e5be0       _fabs                      100e6be0 f   LIBCMTD:_fabs_.obj
 0001:000e5ce0       __vsprintf_l               100e6ce0 f   LIBCMTD:vsprintf.obj
 0001:000e5e60       _vsprintf                  100e6e60 f   LIBCMTD:vsprintf.obj
 0001:000e5e80       __vscprintf_helper         100e6e80 f   LIBCMTD:vsprintf.obj
 0001:000e5f40       __vscprintf                100e6f40 f   LIBCMTD:vsprintf.obj
 0001:000e5f60       __vscprintf_l              100e6f60 f   LIBCMTD:vsprintf.obj
 0001:000e5f80       __vscprintf_p              100e6f80 f   LIBCMTD:vsprintf.obj
 0001:000e5fa0       __vscprintf_p_l            100e6fa0 f   LIBCMTD:vsprintf.obj
 0001:000e5fc0       __onexit                   100e6fc0 f   LIBCMTD:onexit.obj
 0001:000e6190       _atexit                    100e7190 f   LIBCMTD:onexit.obj
 0001:000e61b0       ___onexitinit              100e71b0 f   LIBCMTD:onexit.obj
 0001:000e6214       __except_handler3          100e7214 f   LIBCMTD:exsup3.obj
 0001:000e6312       __seh_longjmp_unwind@4     100e7312 f   LIBCMTD:exsup3.obj
 0001:000e6330       __beginthreadex            100e7330 f   LIBCMTD:threadex.obj
 0001:000e65d0       __endthreadex              100e75d0 f   LIBCMTD:threadex.obj
 0001:000e6620       __setdefaultprecision      100e7620 f   LIBCMTD:fp8.obj
 0001:000e6660       __ms_p5_test_fdiv          100e7660 f   LIBCMTD:_testfdiv_.obj
 0001:000e66b0       __ms_p5_mp_test_fdiv       100e76b0 f   LIBCMTD:_testfdiv_.obj
 0001:000e6700       __forcdecpt                100e7700 f   LIBCMTD:cvt.obj
 0001:000e6720       __forcdecpt_l              100e7720 f   LIBCMTD:cvt.obj
 0001:000e67e0       ??0_LocaleUpdate@@QAE@PAUlocaleinfo_struct@@@Z 100e77e0 f i LIBCMTD:cvt.obj
 0001:000e68c0       ??1_LocaleUpdate@@QAE@XZ   100e78c0 f i LIBCMTD:cvt.obj
 0001:000e68f0       ?GetLocaleT@_LocaleUpdate@@QAEPAUlocaleinfo_struct@@XZ 100e78f0 f i LIBCMTD:cvt.obj
 0001:000e6900       __cropzeros                100e7900 f   LIBCMTD:cvt.obj
 0001:000e6920       __cropzeros_l              100e7920 f   LIBCMTD:cvt.obj
 0001:000e6a30       __positive                 100e7a30 f   LIBCMTD:cvt.obj
 0001:000e6a60       __fassign_l                100e7a60 f   LIBCMTD:cvt.obj
 0001:000e6ac0       __fassign                  100e7ac0 f   LIBCMTD:cvt.obj
 0001:000e6ae0       __cftoe_l                  100e7ae0 f   LIBCMTD:cvt.obj
 0001:000e7030       __cftoe                    100e8030 f   LIBCMTD:cvt.obj
 0001:000e7060       __cftoa_l                  100e8060 f   LIBCMTD:cvt.obj
 0001:000e7840       ?strrchr@@YAPADPADH@Z      100e8840 f i LIBCMTD:cvt.obj
 0001:000e7860       __cftoa                    100e8860 f   LIBCMTD:cvt.obj
 0001:000e7890       __cftof_l                  100e8890 f   LIBCMTD:cvt.obj
 0001:000e7ca0       __cftof                    100e8ca0 f   LIBCMTD:cvt.obj
 0001:000e7cd0       __cftog_l                  100e8cd0 f   LIBCMTD:cvt.obj
 0001:000e7f00       __cftog                    100e8f00 f   LIBCMTD:cvt.obj
 0001:000e7f30       __cfltcvt_l                100e8f30 f   LIBCMTD:cvt.obj
 0001:000e7ff0       __cfltcvt                  100e8ff0 f   LIBCMTD:cvt.obj
 0001:000e8050       __initp_misc_cfltcvt_tab   100e9050 f   LIBCMTD:cmiscdat.obj
 0001:000e80a0       __get_sse2_info            100e90a0 f   LIBCMTD:cpu_disp.obj
 0001:000e81d0       ___sse2_available_init     100e91d0 f   LIBCMTD:cpu_disp.obj
 0001:000e81f0       ___libm_setusermatherr     100e91f0 f   LIBCMTD:_libm_error_.obj
 0001:000e8230       ___libm_error_support      100e9230 f   LIBCMTD:_libm_error_.obj
 0001:000e8d70       __sse2_mathfcns_init       100e9d70 f   LIBCMTD:_mathfcns_.obj
 0001:000e8d90       __set_SSE2_enable          100e9d90 f   LIBCMTD:_mathfcns_.obj
 0001:000e8db0       __ceil_default             100e9db0 f   LIBCMTD:_ceil_.obj
 0001:000e8ef0       __mtinitlocks              100e9ef0 f   LIBCMTD:mlock.obj
 0001:000e8f80       __mtdeletelocks            100e9f80 f   LIBCMTD:mlock.obj
 0001:000e9040       __mtinitlocknum            100ea040 f   LIBCMTD:mlock.obj
 0001:000e9190       __lock                     100ea190 f   LIBCMTD:mlock.obj
 0001:000e91d0       __unlock                   100ea1d0 f   LIBCMTD:mlock.obj
 0001:000e91f0       __lockerr_exit             100ea1f0 f   LIBCMTD:mlock.obj
 0001:000e9210       __malloc_dbg               100ea210 f   LIBCMTD:dbgheap.obj
 0001:000e9240       __nh_malloc                100ea240 f   LIBCMTD:dbgheap.obj
 0001:000e9260       __nh_malloc_dbg            100ea260 f   LIBCMTD:dbgheap.obj
 0001:000e9330       __heap_alloc               100ea330 f   LIBCMTD:dbgheap.obj
 0001:000e9700       __heap_alloc_dbg           100ea700 f   LIBCMTD:dbgheap.obj
 0001:000e9760       __calloc_dbg_impl          100ea760 f   LIBCMTD:dbgheap.obj
 0001:000e9830       __calloc_dbg               100ea830 f   LIBCMTD:dbgheap.obj
 0001:000e9890       __recalloc                 100ea890 f   LIBCMTD:dbgheap.obj
 0001:000e98c0       __realloc_dbg              100ea8c0 f   LIBCMTD:dbgheap.obj
 0001:000e9f60       __recalloc_dbg             100eaf60 f   LIBCMTD:dbgheap.obj
 0001:000ea060       __expand                   100eb060 f   LIBCMTD:dbgheap.obj
 0001:000ea090       __expand_dbg               100eb090 f   LIBCMTD:dbgheap.obj
 0001:000ea1a0       __free_nolock              100eb1a0 f   LIBCMTD:dbgheap.obj
 0001:000ea1c0       __free_dbg                 100eb1c0 f   LIBCMTD:dbgheap.obj
 0001:000ea240       __free_dbg_nolock          100eb240 f   LIBCMTD:dbgheap.obj
 0001:000ea720       __msize                    100eb720 f   LIBCMTD:dbgheap.obj
 0001:000ea740       __msize_dbg                100eb740 f   LIBCMTD:dbgheap.obj
 0001:000ea930       __CrtSetBreakAlloc         100eb930 f   LIBCMTD:dbgheap.obj
 0001:000ea950       __CrtSetDbgBlockType       100eb950 f   LIBCMTD:dbgheap.obj
 0001:000eaa40       __CrtSetAllocHook          100eba40 f   LIBCMTD:dbgheap.obj
 0001:000eaa60       __CrtGetAllocHook          100eba60 f   LIBCMTD:dbgheap.obj
 0001:000eaac0       __CrtCheckMemory           100ebac0 f   LIBCMTD:dbgheap.obj
 0001:000eaf20       __CrtSetDbgFlag            100ebf20 f   LIBCMTD:dbgheap.obj
 0001:000eb070       __CrtDoForAllClientObjects 100ec070 f   LIBCMTD:dbgheap.obj
 0001:000eb190       __CrtIsValidPointer        100ec190 f   LIBCMTD:dbgheap.obj
 0001:000eb1a0       __CrtIsValidHeapPointer    100ec1a0 f   LIBCMTD:dbgheap.obj
 0001:000eb240       __CrtIsMemoryBlock         100ec240 f   LIBCMTD:dbgheap.obj
 0001:000eb3b0       __CrtReportBlockType       100ec3b0 f   LIBCMTD:dbgheap.obj
 0001:000eb3e0       __CrtSetDumpClient         100ec3e0 f   LIBCMTD:dbgheap.obj
 0001:000eb400       __CrtGetDumpClient         100ec400 f   LIBCMTD:dbgheap.obj
 0001:000eb410       __CrtMemCheckpoint         100ec410 f   LIBCMTD:dbgheap.obj
 0001:000eb630       __CrtMemDifference         100ec630 f   LIBCMTD:dbgheap.obj
 0001:000eb850       __CrtMemDumpAllObjectsSince 100ec850 f   LIBCMTD:dbgheap.obj
 0001:000ebd40       __CrtDumpMemoryLeaks       100ecd40 f   LIBCMTD:dbgheap.obj
 0001:000ebdb0       __CrtMemDumpStatistics     100ecdb0 f   LIBCMTD:dbgheap.obj
 0001:000ebec0       __aligned_malloc           100ecec0 f   LIBCMTD:dbgheap.obj
 0001:000ebee0       __aligned_malloc_dbg       100ecee0 f   LIBCMTD:dbgheap.obj
 0001:000ebf10       __aligned_realloc          100ecf10 f   LIBCMTD:dbgheap.obj
 0001:000ebf40       __aligned_recalloc         100ecf40 f   LIBCMTD:dbgheap.obj
 0001:000ebf70       __aligned_realloc_dbg      100ecf70 f   LIBCMTD:dbgheap.obj
 0001:000ebfa0       __aligned_recalloc_dbg     100ecfa0 f   LIBCMTD:dbgheap.obj
 0001:000ebfd0       __aligned_offset_malloc    100ecfd0 f   LIBCMTD:dbgheap.obj
 0001:000ebff0       __aligned_offset_malloc_dbg 100ecff0 f   LIBCMTD:dbgheap.obj
 0001:000ec190       __aligned_offset_realloc   100ed190 f   LIBCMTD:dbgheap.obj
 0001:000ec1c0       __aligned_offset_recalloc  100ed1c0 f   LIBCMTD:dbgheap.obj
 0001:000ec1f0       __aligned_offset_realloc_dbg 100ed1f0 f   LIBCMTD:dbgheap.obj
 0001:000ec4c0       __aligned_offset_recalloc_dbg 100ed4c0 f   LIBCMTD:dbgheap.obj
 0001:000ec5d0       __aligned_free             100ed5d0 f   LIBCMTD:dbgheap.obj
 0001:000ec5f0       __aligned_free_dbg         100ed5f0 f   LIBCMTD:dbgheap.obj
 0001:000ec6a0       __CrtSetDebugFillThreshold 100ed6a0 f   LIBCMTD:dbgheap.obj
 0001:000ec6c0       __CrtSetCheckCount         100ed6c0 f   LIBCMTD:dbgheap.obj
 0001:000ec6e0       __CrtGetCheckCount         100ed6e0 f   LIBCMTD:dbgheap.obj
 0001:000ec6f0       __aligned_msize            100ed6f0 f   LIBCMTD:dbgheap.obj
 0001:000ec710       __aligned_msize_dbg        100ed710 f   LIBCMTD:dbgheap.obj
 0001:000ec820       __CrtDbgBreak              100ed820 f   LIBCMTD:dbgrptt.obj
 0001:000ec830       __CrtSetReportMode         100ed830 f   LIBCMTD:dbgrptt.obj
 0001:000ec970       __CrtSetReportFile         100ed970 f   LIBCMTD:dbgrptt.obj
 0001:000eca70       __CrtSetReportHook         100eda70 f   LIBCMTD:dbgrptt.obj
 0001:000eca90       __CrtGetReportHook         100eda90 f   LIBCMTD:dbgrptt.obj
 0001:000ecaa0       __VCrtDbgReportA           100edaa0 f   LIBCMTD:dbgrptt.obj
 0001:000ed2d0       __VCrtDbgReportW           100ee2d0 f   LIBCMTD:dbgrptt.obj
 0001:000edc00       __initp_misc_invarg        100eec00 f   LIBCMTD:invarg.obj
 0001:000edc10       __invalid_parameter        100eec10 f   LIBCMTD:invarg.obj
 0001:000edc80       __invoke_watson            100eec80 f   LIBCMTD:invarg.obj
 0001:000eddd0       __set_invalid_parameter_handler 100eedd0 f   LIBCMTD:invarg.obj
 0001:000ede20       __get_invalid_parameter_handler 100eee20 f   LIBCMTD:invarg.obj
 0001:000ede50       ?_invalid_parameter@@YAXPBG00II@Z 100eee50 f   LIBCMTD:invarg.obj
 0001:000ede80       ?_invoke_watson@@YAXPBG00II@Z 100eee80 f   LIBCMTD:invarg.obj
 0001:000edeb0       __dosmaperr                100eeeb0 f   LIBCMTD:dosmap.obj
 0001:000edee0       __get_errno_from_oserr     100eeee0 f   LIBCMTD:dosmap.obj
 0001:000edf60       __set_errno                100eef60 f   LIBCMTD:dosmap.obj
 0001:000edf90       __get_errno                100eef90 f   LIBCMTD:dosmap.obj
 0001:000ee010       __set_doserrno             100ef010 f   LIBCMTD:dosmap.obj
 0001:000ee040       __get_doserrno             100ef040 f   LIBCMTD:dosmap.obj
 0001:000ee0c0       __errno                    100ef0c0 f   LIBCMTD:dosmap.obj
 0001:000ee0f0       ___doserrno                100ef0f0 f   LIBCMTD:dosmap.obj
 0001:000ee120       __except_handler4          100ef120 f   LIBCMTD:chandler4.obj
 0001:000ee340       __crt_waiting_on_module_handle 100ef340 f   LIBCMTD:crt0dat.obj
 0001:000ee3a0       __cinit                    100ef3a0 f   LIBCMTD:crt0dat.obj
 0001:000ee440       _exit                      100ef440 f   LIBCMTD:crt0dat.obj
 0001:000ee460       __exit                     100ef460 f   LIBCMTD:crt0dat.obj
 0001:000ee480       __cexit                    100ef480 f   LIBCMTD:crt0dat.obj
 0001:000ee4a0       __c_exit                   100ef4a0 f   LIBCMTD:crt0dat.obj
 0001:000ee4c0       __amsg_exit                100ef4c0 f   LIBCMTD:crt0dat.obj
 0001:000ee500       ___freeCrtMemory           100ef500 f   LIBCMTD:crt0dat.obj
 0001:000ee850       ___crtCorExitProcess       100ef850 f   LIBCMTD:crt0dat.obj
 0001:000ee890       ___crtExitProcess          100ef890 f   LIBCMTD:crt0dat.obj
 0001:000ee8b0       __lockexit                 100ef8b0 f   LIBCMTD:crt0dat.obj
 0001:000ee8d0       __unlockexit               100ef8d0 f   LIBCMTD:crt0dat.obj
 0001:000ee8f0       __init_pointers            100ef8f0 f   LIBCMTD:crt0dat.obj
 0001:000ee9b0       __initterm_e               100ef9b0 f   LIBCMTD:crt0dat.obj
 0001:000ee9f0       __get_wpgmptr              100ef9f0 f   LIBCMTD:crt0dat.obj
 0001:000eeae0       __get_pgmptr               100efae0 f   LIBCMTD:crt0dat.obj
 0001:000eebd0       __initp_misc_winsig        100efbd0 f   LIBCMTD:winsig.obj
 0001:000eec00       _signal                    100efc00 f   LIBCMTD:winsig.obj
 0001:000ef0a0       _raise                     100f00a0 f   LIBCMTD:winsig.obj
 0001:000ef410       ___get_sigabrt             100f0410 f   LIBCMTD:winsig.obj
 0001:000ef430       ___fpecode                 100f0430 f   LIBCMTD:winsig.obj
 0001:000ef440       ___pxcptinfoptrs           100f0440 f   LIBCMTD:winsig.obj
 0001:000ef450       ___crtMessageBoxW          100f0450 f   LIBCMTD:crtmboxw.obj
 0001:000ef670       __swprintf                 100f0670 f   LIBCMTD:swprintf.obj
 0001:000ef840       ___swprintf_l              100f0840 f   LIBCMTD:swprintf.obj
 0001:000ef870       _swprintf_s                100f0870 f   LIBCMTD:swprintf.obj
 0001:000ef8a0       __snwprintf_s              100f08a0 f   LIBCMTD:swprintf.obj
 0001:000ef8d0       __swprintf_p               100f08d0 f   LIBCMTD:swprintf.obj
 0001:000ef900       __swprintf_s_l             100f0900 f   LIBCMTD:swprintf.obj
 0001:000ef930       __snwprintf_s_l            100f0930 f   LIBCMTD:swprintf.obj
 0001:000ef960       __swprintf_p_l             100f0960 f   LIBCMTD:swprintf.obj
 0001:000ef990       __scwprintf                100f0990 f   LIBCMTD:swprintf.obj
 0001:000ef9b0       __scwprintf_p              100f09b0 f   LIBCMTD:swprintf.obj
 0001:000ef9d0       __scwprintf_l              100f09d0 f   LIBCMTD:swprintf.obj
 0001:000efa00       __scwprintf_p_l            100f0a00 f   LIBCMTD:swprintf.obj
 0001:000efa30       _memcpy_s                  100f0a30 f   LIBCMTD:memcpy_s.obj
 0001:000efbc0       _wcslen                    100f0bc0 f   LIBCMTD:wcslen.obj
 0001:000efbf0       _wcscpy_s                  100f0bf0 f   LIBCMTD:wcscpy_s.obj
 0001:000efed0       @__security_check_cookie@4 100f0ed0 f   LIBCMTD:secchk.obj
 0001:000efee0       _ldexp                     100f0ee0 f   LIBCMTD:_ldexp_.obj
 0001:000f01a0       __set_exp                  100f11a0 f   LIBCMTD:_util_.obj
 0001:000f01e0       __get_exp                  100f11e0 f   LIBCMTD:_util_.obj
 0001:000f0210       __add_exp                  100f1210 f   LIBCMTD:_util_.obj
 0001:000f0250       __set_bexp                 100f1250 f   LIBCMTD:_util_.obj
 0001:000f0280       __sptype                   100f1280 f   LIBCMTD:_util_.obj
 0001:000f0300       __decomp                   100f1300 f   LIBCMTD:_util_.obj
 0001:000f0420       __handle_qnan1             100f1420 f   LIBCMTD:_fpexcept_.obj
 0001:000f0480       __handle_qnan2             100f1480 f   LIBCMTD:_fpexcept_.obj
 0001:000f04f0       __except1                  100f14f0 f   LIBCMTD:_fpexcept_.obj
 0001:000f05f0       __except2                  100f15f0 f   LIBCMTD:_fpexcept_.obj
 0001:000f0700       __raise_exc_ex             100f1700 f   LIBCMTD:_fpexcept_.obj
 0001:000f0c30       __raise_exc                100f1c30 f   LIBCMTD:_fpexcept_.obj
 0001:000f0c60       __raise_excf               100f1c60 f   LIBCMTD:_fpexcept_.obj
 0001:000f0c90       __handle_exc               100f1c90 f   LIBCMTD:_fpexcept_.obj
 0001:000f0fa0       __umatherr                 100f1fa0 f   LIBCMTD:_fpexcept_.obj
 0001:000f1040       __set_errno_from_matherr   100f2040 f   LIBCMTD:_fpexcept_.obj
 0001:000f10d0       __errcode                  100f20d0 f   LIBCMTD:_fpexcept_.obj
 0001:000f1140       __statfp                   100f2140 f   LIBCMTD:_fpctrl_.obj
 0001:000f1160       __clrfp                    100f2160 f   LIBCMTD:_fpctrl_.obj
 0001:000f1180       __ctrlfp                   100f2180 f   LIBCMTD:_fpctrl_.obj
 0001:000f11b0       __set_statfp               100f21b0 f   LIBCMTD:_fpctrl_.obj
 0001:000f1220       ___get_fpsr_sse2           100f2220 f   LIBCMTD:_fpctrl_.obj
 0001:000f1250       ___set_fpsr_sse2           100f2250 f   LIBCMTD:_fpctrl_.obj
 0001:000f1330       ___fclrf_sse2              100f2330 f   LIBCMTD:_fpctrl_.obj
 0001:000f1350       ___statfp_sse2             100f2350 f   LIBCMTD:_fpctrl_.obj
 0001:000f1380       ___clrfp_sse2              100f2380 f   LIBCMTD:_fpctrl_.obj
 0001:000f13c0       ___ctrlfp_sse2             100f23c0 f   LIBCMTD:_fpctrl_.obj
 0001:000f1420       ___set_statfp_sse2         100f2420 f   LIBCMTD:_fpctrl_.obj
 0001:000f1450       __VEC_memzero              100f2450 f   LIBCMTD:p4_memset.obj
 0001:000f1540       __encode_pointer           100f2540 f   LIBCMTD:tidtable.obj
 0001:000f15e0       __crt_wait_module_handle   100f25e0 f i LIBCMTD:tidtable.obj
 0001:000f1610       __encoded_null             100f2610 f   LIBCMTD:tidtable.obj
 0001:000f1630       __decode_pointer           100f2630 f   LIBCMTD:tidtable.obj
 0001:000f16d0       ___crtTlsAlloc@4           100f26d0 f   LIBCMTD:tidtable.obj
 0001:000f16e0       ___fls_getvalue@4          100f26e0 f   LIBCMTD:tidtable.obj
 0001:000f1700       ___get_flsindex            100f2700 f   LIBCMTD:tidtable.obj
 0001:000f1710       ___set_flsgetvalue         100f2710 f   LIBCMTD:tidtable.obj
 0001:000f1760       ___fls_setvalue@8          100f2760 f   LIBCMTD:tidtable.obj
 0001:000f1790       __mtinit                   100f2790 f   LIBCMTD:tidtable.obj
 0001:000f19a0       __mtterm                   100f29a0 f   LIBCMTD:tidtable.obj
 0001:000f1a00       __initptd                  100f2a00 f   LIBCMTD:tidtable.obj
 0001:000f1b60       __getptd_noexit            100f2b60 f   LIBCMTD:tidtable.obj
 0001:000f1c20       __getptd                   100f2c20 f   LIBCMTD:tidtable.obj
 0001:000f1c50       __freefls@4                100f2c50 f   LIBCMTD:tidtable.obj
 0001:000f1e60       __freeptd                  100f2e60 f   LIBCMTD:tidtable.obj
 0001:000f1ee0       ___threadid                100f2ee0 f   LIBCMTD:tidtable.obj
 0001:000f1ef0       ___threadhandle            100f2ef0 f   LIBCMTD:tidtable.obj
 0001:000f1f00       __ioinit                   100f2f00 f   LIBCMTD:ioinit.obj
 0001:000f23a0       __ioterm                   100f33a0 f   LIBCMTD:ioinit.obj
 0001:000f2440       __setenvp                  100f3440 f   LIBCMTD:stdenvp.obj
 0001:000f25e0       __setargv                  100f35e0 f   LIBCMTD:stdargv.obj
 0001:000f2700       __set_pgmptr               100f3700 f i LIBCMTD:stdargv.obj
 0001:000f2a70       ___crtGetEnvironmentStringsA 100f3a70 f   LIBCMTD:a_env.obj
 0001:000f2c90       __RTC_Initialize           100f3c90 f   LIBCMTD:_initsect_.obj
 0001:000f2cc0       __RTC_Terminate            100f3cc0 f   LIBCMTD:_initsect_.obj
 0001:000f2cf0       ___heap_select             100f3cf0 f   LIBCMTD:heapinit.obj
 0001:000f2d10       __heap_init                100f3d10 f   LIBCMTD:heapinit.obj
 0001:000f2d90       __heap_term                100f3d90 f   LIBCMTD:heapinit.obj
 0001:000f2e30       __get_heap_handle          100f3e30 f   LIBCMTD:heapinit.obj
 0001:000f2e70       ___security_init_cookie    100f3e70 f   LIBCMTD:gs_support.obj
 0001:000f2f50       __initp_misc_winxfltr      100f3f50 f   LIBCMTD:winxfltr.obj
 0001:000f2f60       ___CppXcptFilter           100f3f60 f   LIBCMTD:winxfltr.obj
 0001:000f2f90       __XcptFilter               100f3f90 f   LIBCMTD:winxfltr.obj
 0001:000f31c0       __flsbuf                   100f41c0 f   LIBCMTD:_flsbuf.obj
 0001:000f3480       __output_l                 100f4480 f   LIBCMTD:output.obj
 0001:000f48b0       _get_int_arg               100f58b0 f i LIBCMTD:output.obj
 0001:000f48d0       _get_int64_arg             100f58d0 f i LIBCMTD:output.obj
 0001:000f48f0       _get_short_arg             100f58f0 f i LIBCMTD:output.obj
 0001:000f4910       __vsnprintf_helper         100f5910 f   LIBCMTD:vsnprnc.obj
 0001:000f4ae0       __vsnprintf_c              100f5ae0 f   LIBCMTD:vsnprnc.obj
 0001:000f4b30       __vsnprintf_c_l            100f5b30 f   LIBCMTD:vsnprnc.obj
 0001:000f4b80       __vsprintf_s_l             100f5b80 f   LIBCMTD:vsnprnc.obj
 0001:000f4df0       _vsprintf_s                100f5df0 f   LIBCMTD:vsnprnc.obj
 0001:000f4e20       __vsnprintf_s_l            100f5e20 f   LIBCMTD:vsnprnc.obj
 0001:000f51c0       __vsnprintf_s              100f61c0 f   LIBCMTD:vsnprnc.obj
 0001:000f51f0       __vsprintf_p               100f61f0 f   LIBCMTD:vsnprnc.obj
 0001:000f5240       __vsprintf_p_l             100f6240 f   LIBCMTD:vsnprnc.obj
 0001:000f5290       __controlfp_s              100f6290 f   LIBCMTD:_contrlfp_.obj
 0001:000f5370       _abort                     100f6370 f   LIBCMTD:abort.obj
 0001:000f54b0       __set_abort_behavior       100f64b0 f   LIBCMTD:abort.obj
 0001:000f54e0       __FF_MSGBANNER             100f64e0 f   LIBCMTD:crt0msg.obj
 0001:000f5530       __NMSG_WRITE               100f6530 f   LIBCMTD:crt0msg.obj
 0001:000f57d0       __GET_RTERRMSG             100f67d0 f   LIBCMTD:crt0msg.obj
 0001:000f5820       ___getlocaleinfo           100f6820 f   LIBCMTD:inithelp.obj
 0001:000f5ac0       __initp_misc_purevirt      100f6ac0 f   LIBCMTD:inithelp.obj
 0001:000f5ad0       __CIlog_pentium4           100f6ad0 f   LIBCMTD:_log_pentium4_.obj
 0001:000f5ae8       __log_pentium4             100f6ae8     LIBCMTD:_log_pentium4_.obj
 0001:000f5d51       __fFEXP                    100f6d51     LIBCMTD:_87tran_.obj
 0001:000f5db8       __rtinfpopse               100f6db8     LIBCMTD:_87tran_.obj
 0001:000f5dba       __rtinfnpopse              100f6dba     LIBCMTD:_87tran_.obj
 0001:000f5dca       __fFLN                     100f6dca     LIBCMTD:_87tran_.obj
 0001:000f5e7f       __rtinfpop                 100f6e7f     LIBCMTD:_87tran_.obj
 0001:000f5e81       __rtinfnpop                100f6e81     LIBCMTD:_87tran_.obj
 0001:000f5e9e       __ffexpm1                  100f6e9e     LIBCMTD:_87tran_.obj
 0001:000f5f50       __trandisp1                100f6f50 f   LIBCMTD:_87disp_.obj
 0001:000f5fb7       __trandisp2                100f6fb7 f   LIBCMTD:_87disp_.obj
 0001:000f6043       __rttospopde               100f7043     LIBCMTD:_87disp_.obj
 0001:000f6048       __rttospop                 100f7048     LIBCMTD:_87disp_.obj
 0001:000f604a       __rtnospop                 100f704a     LIBCMTD:_87disp_.obj
 0001:000f604c       __rttosnpop                100f704c     LIBCMTD:_87disp_.obj
 0001:000f604d       __rtnospopde               100f704d     LIBCMTD:_87disp_.obj
 0001:000f6054       __rtzeropop                100f7054     LIBCMTD:_87disp_.obj
 0001:000f6056       __rtzeronpop               100f7056     LIBCMTD:_87disp_.obj
 0001:000f605b       __rtonepop                 100f705b     LIBCMTD:_87disp_.obj
 0001:000f605d       __rtonenpop                100f705d     LIBCMTD:_87disp_.obj
 0001:000f6062       __tosnan1                  100f7062     LIBCMTD:_87disp_.obj
 0001:000f608d       __nosnan2                  100f708d     LIBCMTD:_87disp_.obj
 0001:000f608f       __tosnan2                  100f708f     LIBCMTD:_87disp_.obj
 0001:000f60b7       __nan2                     100f70b7     LIBCMTD:_87disp_.obj
 0001:000f60f6       __rtindfpop                100f70f6     LIBCMTD:_87disp_.obj
 0001:000f60f8       __rtindfnpop               100f70f8     LIBCMTD:_87disp_.obj
 0001:000f6109       __rttosnpopde              100f7109     LIBCMTD:_87disp_.obj
 0001:000f6113       __rtchsifneg               100f7113     LIBCMTD:_87disp_.obj
 0001:000f6120       __twoToTOS                 100f7120 f   LIBCMTD:_common_.obj
 0001:000f6135       __load_CW                  100f7135 f   LIBCMTD:_common_.obj
 0001:000f614c       __convertTOStoQNaN         100f714c f   LIBCMTD:_common_.obj
 0001:000f6165       __fload_withFB             100f7165 f   LIBCMTD:_common_.obj
 0001:000f61a8       __checkTOS_withFB          100f71a8 f   LIBCMTD:_common_.obj
 0001:000f61be       __fast_exit                100f71be f   LIBCMTD:_common_.obj
 0001:000f61cb       __math_exit                100f71cb f   LIBCMTD:_common_.obj
 0001:000f61f5       __check_overflow_exit      100f71f5 f   LIBCMTD:_common_.obj
 0001:000f6209       __check_range_exit         100f7209 f   LIBCMTD:_common_.obj
 0001:000f62b0       __startTwoArgErrorHandling 100f72b0 f   LIBCMTD:_genexcep_.obj
 0001:000f62c7       __startOneArgErrorHandling 100f72c7 f   LIBCMTD:_genexcep_.obj
 0001:000f6310       __CIpow_pentium4           100f7310 f   LIBCMTD:_pow_pentium4_.obj
 0001:000f6329       __pow_pentium4             100f7329     LIBCMTD:_pow_pentium4_.obj
 0001:000f6e70       __powhlp                   100f7e70 f   LIBCMTD:_powhlp_.obj
 0001:000f7020       __d_inttype                100f8020 f   LIBCMTD:_powhlp_.obj
 0001:000f70b0       __VEC_memcpy               100f80b0 f   LIBCMTD:p4_memcpy.obj
 0001:000f7230       __validate_param_reuseA    100f8230 f   LIBCMTD:outputp.obj
 0001:000f74a0       __output_p_l               100f84a0 f   LIBCMTD:outputp.obj
 0001:000fb060       _get_crtdouble_arg         100fc060 f i LIBCMTD:outputp.obj
 0001:000fb080       _CallDestructExceptionObject 100fc080 f   LIBCMTD:calldtor.obj
 0001:000fb0c0       __global_unwind2           100fc0c0 f   LIBCMTD:exsup.obj
 0001:000fb125       __local_unwind2            100fc125 f   LIBCMTD:exsup.obj
 0001:000fb1a9       __abnormal_termination     100fc1a9 f   LIBCMTD:exsup.obj
 0001:000fb1cc       __NLG_Notify1              100fc1cc f   LIBCMTD:exsup.obj
 0001:000fb1d5       __NLG_Notify               100fc1d5 f   LIBCMTD:exsup.obj
 0001:000fb1ec       __NLG_Dispatch             100fc1ec     LIBCMTD:exsup.obj
 0001:000fb1ec       __NLG_Dispatch2            100fc1ec     LIBCMTD:exsup.obj
 0001:000fb1f4       __NLG_Call                 100fc1f4 f   LIBCMTD:exsup.obj
 0001:000fb1f6       __NLG_Return2              100fc1f6     LIBCMTD:exsup.obj
 0001:000fb200       __ValidateEH3RN            100fc200 f   LIBCMTD:eh3valid.obj
 0001:000fb830       __ValidateImageBase        100fc830 f   LIBCMTD:pesect.obj
 0001:000fb890       __FindPESection            100fc890 f   LIBCMTD:pesect.obj
 0001:000fb910       __IsNonwritableInCurrentImage 100fc910 f   LIBCMTD:pesect.obj
 0001:000fba30       __isalpha_l                100fca30 f i LIBCMTD:_ctype.obj
 0001:000fbac0       _isalpha                   100fcac0 f i LIBCMTD:_ctype.obj
 0001:000fbb00       __isupper_l                100fcb00 f i LIBCMTD:_ctype.obj
 0001:000fbb80       _isupper                   100fcb80 f i LIBCMTD:_ctype.obj
 0001:000fbbb0       __islower_l                100fcbb0 f i LIBCMTD:_ctype.obj
 0001:000fbc30       _islower                   100fcc30 f i LIBCMTD:_ctype.obj
 0001:000fbc60       __isdigit_l                100fcc60 f i LIBCMTD:_ctype.obj
 0001:000fbce0       _isdigit                   100fcce0 f i LIBCMTD:_ctype.obj
 0001:000fbd10       __isxdigit_l               100fcd10 f i LIBCMTD:_ctype.obj
 0001:000fbda0       _isxdigit                  100fcda0 f i LIBCMTD:_ctype.obj
 0001:000fbde0       __isspace_l                100fcde0 f i LIBCMTD:_ctype.obj
 0001:000fbe60       _isspace                   100fce60 f i LIBCMTD:_ctype.obj
 0001:000fbe90       __ispunct_l                100fce90 f i LIBCMTD:_ctype.obj
 0001:000fbf10       _ispunct                   100fcf10 f i LIBCMTD:_ctype.obj
 0001:000fbf40       __isalnum_l                100fcf40 f i LIBCMTD:_ctype.obj
 0001:000fbfd0       _isalnum                   100fcfd0 f i LIBCMTD:_ctype.obj
 0001:000fc010       __isprint_l                100fd010 f i LIBCMTD:_ctype.obj
 0001:000fc0a0       _isprint                   100fd0a0 f i LIBCMTD:_ctype.obj
 0001:000fc0e0       __isgraph_l                100fd0e0 f i LIBCMTD:_ctype.obj
 0001:000fc170       _isgraph                   100fd170 f i LIBCMTD:_ctype.obj
 0001:000fc1b0       __iscntrl_l                100fd1b0 f i LIBCMTD:_ctype.obj
 0001:000fc230       _iscntrl                   100fd230 f i LIBCMTD:_ctype.obj
 0001:000fc260       ___isascii                 100fd260 f i LIBCMTD:_ctype.obj
 0001:000fc280       ___toascii                 100fd280 f i LIBCMTD:_ctype.obj
 0001:000fc290       __iscsymf_l                100fd290 f i LIBCMTD:_ctype.obj
 0001:000fc2d0       ___iscsymf                 100fd2d0 f i LIBCMTD:_ctype.obj
 0001:000fc310       __iscsym_l                 100fd310 f i LIBCMTD:_ctype.obj
 0001:000fc350       ___iscsym                  100fd350 f i LIBCMTD:_ctype.obj
 0001:000fc390       __tolower                  100fd390 f   LIBCMTD:tolower.obj
 0001:000fc3a0       __tolower_l                100fd3a0 f   LIBCMTD:tolower.obj
 0001:000fc580       _tolower                   100fd580 f   LIBCMTD:tolower.obj
 0001:000fc5d0       ___updatetmbcinfo          100fd5d0 f   LIBCMTD:mbctype.obj
 0001:000fc6e0       __setmbcp                  100fd6e0 f   LIBCMTD:mbctype.obj
 0001:000fca90       __setmbcp_nolock           100fda90 f   LIBCMTD:mbctype.obj
 0001:000fd280       __getmbcp                  100fe280 f   LIBCMTD:mbctype.obj
 0001:000fd2f0       ___initmbctable            100fe2f0 f   LIBCMTD:mbctype.obj
 0001:000fd320       ____setlc_active_func      100fe320 f   LIBCMTD:setlocal.obj
 0001:000fd330       ____unguarded_readlc_active_add_func 100fe330 f   LIBCMTD:setlocal.obj
 0001:000fd340       ___freetlocinfo            100fe340 f   LIBCMTD:setlocal.obj
 0001:000fd620       ___addlocaleref            100fe620 f   LIBCMTD:setlocal.obj
 0001:000fd740       ___removelocaleref         100fe740 f   LIBCMTD:setlocal.obj
 0001:000fd870       ___updatetlocinfo          100fe870 f   LIBCMTD:setlocal.obj
 0001:000fd9c0       __configthreadlocale       100fe9c0 f   LIBCMTD:setlocal.obj
 0001:000fdad0       __locterm                  100fead0 f   LIBCMTD:setlocal.obj
 0001:000fdb70       __free_locale              100feb70 f   LIBCMTD:setlocal.obj
 0001:000fdcb0       ___free_locale             100fecb0 f   LIBCMTD:setlocal.obj
 0001:000fdcd0       __create_locale            100fecd0 f   LIBCMTD:setlocal.obj
 0001:000fdf00       ___create_locale           100fef00 f   LIBCMTD:setlocal.obj
 0001:000fdf20       __get_current_locale       100fef20 f   LIBCMTD:setlocal.obj
 0001:000fe040       ___get_current_locale      100ff040 f   LIBCMTD:setlocal.obj
 0001:000fe050       _setlocale                 100ff050 f   LIBCMTD:setlocal.obj
 0001:000fef60       __expandlocale             100fff60 f   LIBCMTD:setlocal.obj
 0001:000ff210       ___init_dummy              10100210 f   LIBCMTD:setlocal.obj
 0001:000ff220       __strcats                  10100220 f   LIBCMTD:setlocal.obj
 0001:000ff2a0       ___lc_strtolc              101002a0 f   LIBCMTD:setlocal.obj
 0001:000ff4a0       ___lc_lctostr              101004a0 f   LIBCMTD:setlocal.obj
 0001:000ff540       __atodbl_l                 10100540 f   LIBCMTD:atodbl.obj
 0001:000ff650       __atodbl                   10100650 f   LIBCMTD:atodbl.obj
 0001:000ff670       __atoldbl_l                10100670 f   LIBCMTD:atodbl.obj
 0001:000ff780       __atoldbl                  10100780 f   LIBCMTD:atodbl.obj
 0001:000ff7a0       __atoflt_l                 101007a0 f   LIBCMTD:atodbl.obj
 0001:000ff8b0       __atoflt                   101008b0 f   LIBCMTD:atodbl.obj
 0001:000ff8d0       __fptostr                  101008d0 f   LIBCMTD:_fptostr.obj
 0001:000ffb80       __fltout2                  10100b80 f   LIBCMTD:_cfout_.obj
 0001:000ffc30       ___dtold                   10100c30 f   LIBCMTD:_cfout_.obj
 0001:000ffd90       _memmove                   10100d90 f   LIBCMTD:memmove.obj
 0001:00100100       __set_output_format        10101100 f   LIBCMTD:outputformat.obj
 0001:00100180       __get_output_format        10101180 f   LIBCMTD:outputformat.obj
 0001:00100190       _strcpy_s                  10101190 f   LIBCMTD:strcpy_s.obj
 0001:00100470       __allrem                   10101470 f   LIBCMTD:llrem.obj
 0001:00100530       __alldiv                   10101530 f   LIBCMTD:lldiv.obj
 0001:001005e0       __aullshr                  101015e0 f   LIBCMTD:ullshr.obj
 0001:00100600       _strrchr                   10101600 f   LIBCMTD:strrchr.obj
 0001:00100630       __fptrap                   10101630 f   LIBCMTD:crt0fp.obj
 0001:00100650       __matherr                  10101650 f   LIBCMTD:_matherr_.obj
 0001:00100660       __frnd                     10101660 f   LIBCMTD:_frnd_.obj
 0001:00100680       __initp_misc_initcrit      10101680 f   LIBCMTD:initcrit.obj
 0001:00100690       ___crtInitCritSecAndSpinCount 10101690 f   LIBCMTD:initcrit.obj
 0001:00100740       __initp_heap_handler       10101740 f   LIBCMTD:handler.obj
 0001:00100750       ?_set_new_handler@@YAP6AHI@ZP6AHI@Z@Z 10101750 f   LIBCMTD:handler.obj
 0001:001007a0       ?_set_new_handler@@YAP6AHI@ZH@Z 101017a0 f   LIBCMTD:handler.obj
 0001:001007e0       ?_query_new_handler@@YAP6AHI@ZXZ 101017e0 f   LIBCMTD:handler.obj
 0001:00100800       __callnewh                 10101800 f   LIBCMTD:handler.obj
 0001:00100840       _V6_HeapAlloc              10101840 f   LIBCMTD:malloc.obj
 0001:001008e0       __malloc_base              101018e0 f   LIBCMTD:malloc.obj
 0001:00100970       __heap_alloc_base          10101970 f i LIBCMTD:malloc.obj
 0001:00100a30       __CrtSetReportHook2        10101a30 f   LIBCMTD:dbgrpt.obj
 0001:00100d50       __CrtDbgReport             10101d50 f   LIBCMTD:dbgrpt.obj
 0001:00100d90       __CrtDbgReportV            10101d90 f i LIBCMTD:dbgrpt.obj
 0001:00100dc0       ___crtMessageWindowA       10101dc0 f   LIBCMTD:dbgrpt.obj
 0001:001011c0       __CrtDefaultAllocHook      101021c0 f   LIBCMTD:dbghook.obj
 0001:001011d0       __crt_debugger_hook        101021d0 f   LIBCMTD:dbghook.obj
 0001:001011f0       __expand_base              101021f0 f   LIBCMTD:expand.obj
 0001:001014c0       __realloc_base             101024c0 f   LIBCMTD:realloc.obj
 0001:00101860       __free_base                10102860 f   LIBCMTD:free.obj
 0001:00101990       __heapchk                  10102990 f   LIBCMTD:heapchk.obj
 0001:00101a60       __heapset                  10102a60 f   LIBCMTD:heapchk.obj
 0001:00101a70       __get_sbh_threshold        10102a70 f   LIBCMTD:sbheap.obj
 0001:00101ac0       __set_sbh_threshold        10102ac0 f   LIBCMTD:sbheap.obj
 0001:00101c50       __set_amblksiz             10102c50 f   LIBCMTD:sbheap.obj
 0001:00101d60       __get_amblksiz             10102d60 f   LIBCMTD:sbheap.obj
 0001:00101e50       ___sbh_heap_init           10102e50 f   LIBCMTD:sbheap.obj
 0001:00101ec0       ___sbh_find_block          10102ec0 f   LIBCMTD:sbheap.obj
 0001:00101f20       ___sbh_verify_block        10102f20 f   LIBCMTD:sbheap.obj
 0001:00101f80       ___sbh_free_block          10102f80 f   LIBCMTD:sbheap.obj
 0001:00102540       ___sbh_alloc_block         10103540 f   LIBCMTD:sbheap.obj
 0001:00102a60       ___sbh_alloc_new_region    10103a60 f   LIBCMTD:sbheap.obj
 0001:00102b70       ___sbh_alloc_new_group     10103b70 f   LIBCMTD:sbheap.obj
 0001:00102d60       ___sbh_resize_block        10103d60 f   LIBCMTD:sbheap.obj
 0001:00103330       ___sbh_heapmin             10104330 f   LIBCMTD:sbheap.obj
 0001:00103460       ___sbh_heap_check          10104460 f   LIBCMTD:sbheap.obj
 0001:00103950       __chvalidator              10104950 f   LIBCMTD:isctype.obj
 0001:001039a0       __chvalidator_l            101049a0 f   LIBCMTD:isctype.obj
 0001:00103a50       __isctype_l                10104a50 f   LIBCMTD:isctype.obj
 0001:00103b70       __isctype                  10104b70 f   LIBCMTD:isctype.obj
 0001:00103bb0       __mbstowcs_l_helper        10104bb0 f   LIBCMTD:mbstowcs.obj
 0001:00103f00       __mbstowcs_l               10104f00 f   LIBCMTD:mbstowcs.obj
 0001:00103f20       _mbstowcs                  10104f20 f   LIBCMTD:mbstowcs.obj
 0001:00103f70       __mbstowcs_s_l             10104f70 f   LIBCMTD:mbstowcs.obj
 0001:001042f0       _mbstowcs_s                101052f0 f   LIBCMTD:mbstowcs.obj
 0001:00104320       _strcat_s                  10105320 f   LIBCMTD:strcat_s.obj
 0001:00104700       __itoa_s                   10105700 f   LIBCMTD:xtoas.obj
 0001:00104ad0       __ltoa_s                   10105ad0 f   LIBCMTD:xtoas.obj
 0001:00104b10       __ultoa_s                  10105b10 f   LIBCMTD:xtoas.obj
 0001:00104b30       __i64toa_s                 10105b30 f   LIBCMTD:xtoas.obj
 0001:00104f30       __ui64toa_s                10105f30 f   LIBCMTD:xtoas.obj
 0001:00104f50       __wcstombs_l_helper        10105f50 f   LIBCMTD:wcstombs.obj
 0001:00105440       __wcstombs_l               10106440 f   LIBCMTD:wcstombs.obj
 0001:00105460       _wcstombs                  10106460 f   LIBCMTD:wcstombs.obj
 0001:00105480       __wcstombs_s_l             10106480 f   LIBCMTD:wcstombs.obj
 0001:001057b0       _wcstombs_s                101067b0 f   LIBCMTD:wcstombs.obj
 0001:001057e0       _wcscat_s                  101067e0 f   LIBCMTD:wcscat_s.obj
 0001:00105bd0       __vswprintf_helper         10106bd0 f   LIBCMTD:vswprnc.obj
 0001:00105e00       __vswprintf_c              10106e00 f   LIBCMTD:vswprnc.obj
 0001:00105e50       __vswprintf_c_l            10106e50 f   LIBCMTD:vswprnc.obj
 0001:00105ea0       __vswprintf_s_l            10106ea0 f   LIBCMTD:vswprnc.obj
 0001:00106110       _vswprintf_s               10107110 f   LIBCMTD:vswprnc.obj
 0001:00106140       __vsnwprintf_s_l           10107140 f   LIBCMTD:vswprnc.obj
 0001:001064f0       __vsnwprintf_s             101074f0 f   LIBCMTD:vswprnc.obj
 0001:00106520       __vswprintf_p              10107520 f   LIBCMTD:vswprnc.obj
 0001:00106570       __vswprintf_p_l            10107570 f   LIBCMTD:vswprnc.obj
 0001:001065c0       __itow_s                   101075c0 f   LIBCMTD:xtows.obj
 0001:001069a0       __ltow_s                   101079a0 f   LIBCMTD:xtows.obj
 0001:001069e0       __ultow_s                  101079e0 f   LIBCMTD:xtows.obj
 0001:00106a00       __i64tow_s                 10107a00 f   LIBCMTD:xtows.obj
 0001:00106e20       __ui64tow_s                10107e20 f   LIBCMTD:xtows.obj
 0001:00106e40       __local_unwind4            10107e40 f   LIBCMTD:exsup4.obj
 0001:00106f16       __seh_longjmp_unwind4@4    10107f16 f   LIBCMTD:exsup4.obj
 0001:00106f32       @_EH4_CallFilterFunc@8     10107f32 f   LIBCMTD:exsup4.obj
 0001:00106f49       @_EH4_TransferToHandler@8  10107f49 f   LIBCMTD:exsup4.obj
 0001:00106f62       @_EH4_GlobalUnwind@4       10107f62 f   LIBCMTD:exsup4.obj
 0001:00106f7c       @_EH4_LocalUnwind@16       10107f7c f   LIBCMTD:exsup4.obj
 0001:00106fa0       __initp_eh_hooks           10107fa0 f   LIBCMTD:hooks.obj
 0001:00106fc0       ?terminate@@YAXXZ          10107fc0 f   LIBCMTD:hooks.obj
 0001:00107040       ?unexpected@@YAXXZ         10108040 f   LIBCMTD:hooks.obj
 0001:00107070       ?_inconsistency@@YAXXZ     10108070 f   LIBCMTD:hooks.obj
 0001:00107100       __initp_misc_rand_s        10108100 f   LIBCMTD:rand_s.obj
 0001:00107110       _rand_s                    10108110 f   LIBCMTD:rand_s.obj
 0001:00107330       __woutput_l                10108330 f   LIBCMTD:woutput.obj
 0001:00108500       __vswprintf_l              10109500 f   LIBCMTD:vswprint.obj
 0001:001086d0       __vswprintf                101096d0 f   LIBCMTD:vswprint.obj
 0001:001086f0       ___vswprintf_l             101096f0 f   LIBCMTD:vswprint.obj
 0001:00108710       __vscwprintf_helper        10109710 f   LIBCMTD:vswprint.obj
 0001:001087d0       __vscwprintf               101097d0 f   LIBCMTD:vswprint.obj
 0001:001087f0       __vscwprintf_l             101097f0 f   LIBCMTD:vswprint.obj
 0001:00108810       __vscwprintf_p             10109810 f   LIBCMTD:vswprint.obj
 0001:00108830       __vscwprintf_p_l           10109830 f   LIBCMTD:vswprint.obj
 0001:00108850       ___report_gsfailure        10109850 f   LIBCMTD:gs_report.obj
 0001:00108960       __ismbbkalnum_l            10109960 f   LIBCMTD:ismbbyte.obj
 0001:00108980       __ismbbkalnum              10109980 f   LIBCMTD:ismbbyte.obj
 0001:001089a0       __ismbbkprint_l            101099a0 f   LIBCMTD:ismbbyte.obj
 0001:001089c0       __ismbbkprint              101099c0 f   LIBCMTD:ismbbyte.obj
 0001:001089e0       __ismbbkpunct_l            101099e0 f   LIBCMTD:ismbbyte.obj
 0001:00108a00       __ismbbkpunct              10109a00 f   LIBCMTD:ismbbyte.obj
 0001:00108a20       __ismbbalnum_l             10109a20 f   LIBCMTD:ismbbyte.obj
 0001:00108a40       __ismbbalnum               10109a40 f   LIBCMTD:ismbbyte.obj
 0001:00108a60       __ismbbalpha_l             10109a60 f   LIBCMTD:ismbbyte.obj
 0001:00108a80       __ismbbalpha               10109a80 f   LIBCMTD:ismbbyte.obj
 0001:00108aa0       __ismbbgraph_l             10109aa0 f   LIBCMTD:ismbbyte.obj
 0001:00108ac0       __ismbbgraph               10109ac0 f   LIBCMTD:ismbbyte.obj
 0001:00108ae0       __ismbbprint_l             10109ae0 f   LIBCMTD:ismbbyte.obj
 0001:00108b00       __ismbbprint               10109b00 f   LIBCMTD:ismbbyte.obj
 0001:00108b20       __ismbbpunct_l             10109b20 f   LIBCMTD:ismbbyte.obj
 0001:00108b40       __ismbbpunct               10109b40 f   LIBCMTD:ismbbyte.obj
 0001:00108b60       __ismbblead_l              10109b60 f   LIBCMTD:ismbbyte.obj
 0001:00108b80       __ismbblead                10109b80 f   LIBCMTD:ismbbyte.obj
 0001:00108ba0       __ismbbtrail_l             10109ba0 f   LIBCMTD:ismbbyte.obj
 0001:00108bc0       __ismbbtrail               10109bc0 f   LIBCMTD:ismbbyte.obj
 0001:00108be0       __ismbbkana_l              10109be0 f   LIBCMTD:ismbbyte.obj
 0001:00108c50       __ismbbkana                10109c50 f   LIBCMTD:ismbbyte.obj
 0001:00108d40       __lseeki64                 10109d40 f   LIBCMTD:lseeki64.obj
 0001:00108f90       __lseeki64_nolock          10109f90 f   LIBCMTD:lseeki64.obj
 0001:00109080       __write                    1010a080 f   LIBCMTD:write.obj
 0001:001092b0       __write_nolock             1010a2b0 f   LIBCMTD:write.obj
 0001:00109df0       __getbuf                   1010adf0 f   LIBCMTD:_getbuf.obj
 0001:00109eb0       __isatty                   1010aeb0 f   LIBCMTD:isatty.obj
 0001:00109f90       ___iob_func                1010af90 f   LIBCMTD:_file.obj
 0001:00109fa0       ___initstdio               1010afa0 f   LIBCMTD:_file.obj
 0001:0010a0f0       ___endstdio                1010b0f0 f   LIBCMTD:_file.obj
 0001:0010a120       __lock_file                1010b120 f   LIBCMTD:_file.obj
 0001:0010a180       __lock_file2               1010b180 f   LIBCMTD:_file.obj
 0001:0010a1c0       __unlock_file              1010b1c0 f   LIBCMTD:_file.obj
 0001:0010a220       __unlock_file2             1010b220 f   LIBCMTD:_file.obj
 0001:0010a260       __fileno                   1010b260 f   LIBCMTD:fileno.obj
 0001:0010a2e0       _printf                    1010b2e0 f   LIBCMTD:printf.obj
 0001:0010a420       __printf_l                 1010b420 f   LIBCMTD:printf.obj
 0001:0010a450       __printf_s_l               1010b450 f   LIBCMTD:printf.obj
 0001:0010a480       _printf_s                  1010b480 f   LIBCMTD:printf.obj
 0001:0010a4b0       __printf_p_l               1010b4b0 f   LIBCMTD:printf.obj
 0001:0010a4e0       __printf_p                 1010b4e0 f   LIBCMTD:printf.obj
 0001:0010a510       __set_printf_count_output  1010b510 f   LIBCMTD:printf.obj
 0001:0010a560       __get_printf_count_output  1010b560 f   LIBCMTD:printf.obj
 0001:0010a580       __wctomb_s_l               1010b580 f   LIBCMTD:wctomb.obj
 0001:0010a880       _wctomb_s                  1010b880 f   LIBCMTD:wctomb.obj
 0001:0010a8b0       __wctomb_l                 1010b8b0 f   LIBCMTD:wctomb.obj
 0001:0010a930       _wctomb                    1010b930 f   LIBCMTD:wctomb.obj
 0001:0010a980       __isleadbyte_l             1010b980 f i LIBCMTD:_wctype.obj
 0001:0010a9d0       _isleadbyte                1010b9d0 f i LIBCMTD:_wctype.obj
 0001:0010a9f0       __iswalpha_l               1010b9f0 f i LIBCMTD:_wctype.obj
 0001:0010aa10       _iswalpha                  1010ba10 f i LIBCMTD:_wctype.obj
 0001:0010aa30       __iswupper_l               1010ba30 f i LIBCMTD:_wctype.obj
 0001:0010aa50       _iswupper                  1010ba50 f i LIBCMTD:_wctype.obj
 0001:0010aa70       __iswlower_l               1010ba70 f i LIBCMTD:_wctype.obj
 0001:0010aa90       _iswlower                  1010ba90 f i LIBCMTD:_wctype.obj
 0001:0010aab0       __iswdigit_l               1010bab0 f i LIBCMTD:_wctype.obj
 0001:0010aad0       _iswdigit                  1010bad0 f i LIBCMTD:_wctype.obj
 0001:0010aaf0       __iswxdigit_l              1010baf0 f i LIBCMTD:_wctype.obj
 0001:0010ab10       _iswxdigit                 1010bb10 f i LIBCMTD:_wctype.obj
 0001:0010ab30       __iswspace_l               1010bb30 f i LIBCMTD:_wctype.obj
 0001:0010ab50       _iswspace                  1010bb50 f i LIBCMTD:_wctype.obj
 0001:0010ab70       __iswpunct_l               1010bb70 f i LIBCMTD:_wctype.obj
 0001:0010ab90       _iswpunct                  1010bb90 f i LIBCMTD:_wctype.obj
 0001:0010abb0       __iswalnum_l               1010bbb0 f i LIBCMTD:_wctype.obj
 0001:0010abd0       _iswalnum                  1010bbd0 f i LIBCMTD:_wctype.obj
 0001:0010abf0       __iswprint_l               1010bbf0 f i LIBCMTD:_wctype.obj
 0001:0010ac10       _iswprint                  1010bc10 f i LIBCMTD:_wctype.obj
 0001:0010ac30       __iswgraph_l               1010bc30 f i LIBCMTD:_wctype.obj
 0001:0010ac50       _iswgraph                  1010bc50 f i LIBCMTD:_wctype.obj
 0001:0010ac70       __iswcntrl_l               1010bc70 f i LIBCMTD:_wctype.obj
 0001:0010ac90       _iswcntrl                  1010bc90 f i LIBCMTD:_wctype.obj
 0001:0010acb0       _iswascii                  1010bcb0 f i LIBCMTD:_wctype.obj
 0001:0010acd0       __iswcsym_l                1010bcd0 f i LIBCMTD:_wctype.obj
 0001:0010ad10       ___iswcsym                 1010bd10 f i LIBCMTD:_wctype.obj
 0001:0010ad50       __iswcsymf_l               1010bd50 f i LIBCMTD:_wctype.obj
 0001:0010ad90       ___iswcsymf                1010bd90 f i LIBCMTD:_wctype.obj
 0001:0010add0       __aulldiv                  1010bdd0 f   LIBCMTD:ulldiv.obj
 0001:0010ae40       __aullrem                  1010be40 f   LIBCMTD:ullrem.obj
 0001:0010aec0       __output_s_l               1010bec0 f   LIBCMTD:outputs.obj
 0001:0010c450       __set_error_mode           1010d450 f   LIBCMTD:errmode.obj
 0001:0010c510       ___set_app_type            1010d510 f   LIBCMTD:errmode.obj
 0001:0010c520       ___get_app_type            1010d520 f   LIBCMTD:errmode.obj
 0001:0010c530       ___crtMessageBoxA          1010d530 f   LIBCMTD:crtmbox.obj
 0001:0010c750       _strncpy_s                 1010d750 f   LIBCMTD:strncpy_s.obj
 0001:0010cb40       ___crtGetLocaleInfoW       1010db40 f   LIBCMTD:w_loc.obj
 0001:0010cbb0       ___crtGetLocaleInfoA       1010dbb0 f   LIBCMTD:a_loc.obj
 0001:0010cd90       __MarkAllocaS              1010dd90 f i LIBCMTD:a_loc.obj
 0001:0010cdc0       __freea                    1010ddc0 f i LIBCMTD:a_loc.obj
 0001:0010ce30       _fdiv_main_routine         1010de30 f   LIBCMTD:_adj_fdiv_.obj
 0001:0010cf47       __adj_fdiv_r               1010df47 f   LIBCMTD:_adj_fdiv_.obj
 0001:0010d3e6       __fdivp_sti_st             1010e3e6 f   LIBCMTD:_adj_fdiv_.obj
 0001:0010d3f9       __fdivrp_sti_st            1010e3f9 f   LIBCMTD:_adj_fdiv_.obj
 0001:0010d40c       __adj_fdiv_m32             1010e40c f   LIBCMTD:_adj_fdiv_.obj
 0001:0010d458       __adj_fdiv_m64             1010e458 f   LIBCMTD:_adj_fdiv_.obj
 0001:0010d4a4       __adj_fdiv_m16i            1010e4a4 f   LIBCMTD:_adj_fdiv_.obj
 0001:0010d4d8       __adj_fdiv_m32i            1010e4d8 f   LIBCMTD:_adj_fdiv_.obj
 0001:0010d50c       __adj_fdivr_m32            1010e50c f   LIBCMTD:_adj_fdiv_.obj
 0001:0010d558       __adj_fdivr_m64            1010e558 f   LIBCMTD:_adj_fdiv_.obj
 0001:0010d5a4       __adj_fdivr_m16i           1010e5a4 f   LIBCMTD:_adj_fdiv_.obj
 0001:0010d5d8       __adj_fdivr_m32i           1010e5d8 f   LIBCMTD:_adj_fdiv_.obj
 0001:0010d60c       __safe_fdiv                1010e60c f   LIBCMTD:_adj_fdiv_.obj
 0001:0010d621       __safe_fdivr               1010e621 f   LIBCMTD:_adj_fdiv_.obj
 0001:0010d636       __fprem_common             1010e636 f   LIBCMTD:_adj_fdiv_.obj
 0001:0010d83c       __adj_fprem                1010e83c f   LIBCMTD:_adj_fdiv_.obj
 0001:0010d8ee       __fprem1_common            1010e8ee f   LIBCMTD:_adj_fdiv_.obj
 0001:0010daf4       __adj_fprem1               1010eaf4 f   LIBCMTD:_adj_fdiv_.obj
 0001:0010dba9       __safe_fprem               1010eba9 f   LIBCMTD:_adj_fdiv_.obj
 0001:0010dbaf       __safe_fprem1              1010ebaf f   LIBCMTD:_adj_fdiv_.obj
 0001:0010dbb5       __adj_fpatan               1010ebb5 f   LIBCMTD:_adj_fdiv_.obj
 0001:0010dbb8       __adj_fptan                1010ebb8 f   LIBCMTD:_adj_fdiv_.obj
 0001:0010dbc0       __87except                 1010ebc0 f   LIBCMTD:_87except_.obj
 0001:0010dd70       _strtol                    1010ed70 f   LIBCMTD:strtol.obj
 0001:0010e2a0       __strtol_l                 1010f2a0 f   LIBCMTD:strtol.obj
 0001:0010e2d0       _strtoul                   1010f2d0 f   LIBCMTD:strtol.obj
 0001:0010e320       __strtoul_l                1010f320 f   LIBCMTD:strtol.obj
 0001:0010e350       ___crtLCMapStringA         1010f350 f   LIBCMTD:a_map.obj
 0001:0010e900       ?_JumpToContinuation@@YGXPAXPAUEHRegistrationNode@@@Z 1010f900 f   LIBCMTD:_trnsctrl_.obj
 0001:0010e940       ?_CallMemberFunction0@@YGXPAX0@Z 1010f940 f   LIBCMTD:_trnsctrl_.obj
 0001:0010e950       ?_CallMemberFunction1@@YGXPAX00@Z 1010f950 f   LIBCMTD:_trnsctrl_.obj
 0001:0010e960       ?_CallMemberFunction2@@YGXPAX00H@Z 1010f960 f   LIBCMTD:_trnsctrl_.obj
 0001:0010e970       ?_UnwindNestedFrames@@YGXPAUEHRegistrationNode@@PAUEHExceptionRecord@@@Z 1010f970 f   LIBCMTD:_trnsctrl_.obj
 0001:0010e9d0       ___CxxFrameHandler         1010f9d0 f   LIBCMTD:_trnsctrl_.obj
 0001:0010ea10       ___CxxFrameHandler3        1010fa10 f   LIBCMTD:_trnsctrl_.obj
 0001:0010ea50       ___CxxFrameHandler2        1010fa50 f   LIBCMTD:_trnsctrl_.obj
 0001:0010ea90       ___CxxLongjmpUnwind@4      1010fa90 f   LIBCMTD:_trnsctrl_.obj
 0001:0010eac0       ?_CallCatchBlock2@@YAPAXPAUEHRegistrationNode@@PBU_s_FuncInfo@@PAXHK@Z 1010fac0 f   LIBCMTD:_trnsctrl_.obj
 0001:0010eb80       ?_CallSETranslator@@YAHPAUEHExceptionRecord@@PAUEHRegistrationNode@@PAX2PBU_s_FuncInfo@@H1@Z 1010fb80 f   LIBCMTD:_trnsctrl_.obj
 0001:0010ed20       ?_GetRangeOfTrysToCheck@@YAPBU_s_TryBlockMapEntry@@PBU_s_FuncInfo@@HHPAI1@Z 1010fd20 f   LIBCMTD:_trnsctrl_.obj
 0001:0010eda0       __CreateFrameInfo          1010fda0 f   LIBCMTD:_trnsctrl_.obj
 0001:0010edd0       __IsExceptionObjectToBeDestroyed 1010fdd0 f   LIBCMTD:_trnsctrl_.obj
 0001:0010ee00       __FindAndUnlinkFrame       1010fe00 f   LIBCMTD:_trnsctrl_.obj
 0001:0010ee60       ___crtGetStringTypeA       1010fe60 f   LIBCMTD:a_str.obj
 0001:0010f0f0       ___pwctype_func            101100f0 f   LIBCMTD:ctype.obj
 0001:0010f100       ___pctype_func             10110100 f   LIBCMTD:ctype.obj
 0001:0010f150       ___init_time               10110150 f   LIBCMTD:inittime.obj
 0001:0010f870       ___free_lc_time            10110870 f   LIBCMTD:inittime.obj
 0001:0010fb80       ___init_numeric            10110b80 f   LIBCMTD:initnum.obj
 0001:0010fee0       ___free_lconv_num          10110ee0 f   LIBCMTD:initnum.obj
 0001:0010ff50       ___init_monetary           10110f50 f   LIBCMTD:initmon.obj
 0001:00110450       ___free_lconv_mon          10111450 f   LIBCMTD:initmon.obj
 0001:00110540       ___init_ctype              10111540 f   LIBCMTD:initctyp.obj
 0001:00110af0       ____mb_cur_max_func        10111af0 f   LIBCMTD:initctyp.obj
 0001:00110b40       ____mb_cur_max_l_func      10111b40 f   LIBCMTD:initctyp.obj
 0001:00110b70       ____lc_codepage_func       10111b70 f   LIBCMTD:initctyp.obj
 0001:00110bc0       ____lc_collate_cp_func     10111bc0 f   LIBCMTD:initctyp.obj
 0001:00110c10       ____lc_handle_func         10111c10 f   LIBCMTD:initctyp.obj
 0001:00110c60       ___init_collate            10111c60 f   LIBCMTD:initcoll.obj
 0001:00110c70       __Getdays_l                10111c70 f   LIBCMTD:strftime.obj
 0001:00110e30       __Getdays                  10111e30 f   LIBCMTD:strftime.obj
 0001:00110e50       __Getmonths_l              10111e50 f   LIBCMTD:strftime.obj
 0001:00111010       __Getmonths                10112010 f   LIBCMTD:strftime.obj
 0001:00111030       __Gettnames_l              10112030 f   LIBCMTD:strftime.obj
 0001:001115a0       __Gettnames                101125a0 f   LIBCMTD:strftime.obj
 0001:001115c0       __strftime_l               101125c0 f   LIBCMTD:strftime.obj
 0001:001115f0       _strftime                  101125f0 f   LIBCMTD:strftime.obj
 0001:00111620       __Strftime                 10112620 f   LIBCMTD:strftime.obj
 0001:00111650       __Strftime_l               10112650 f   LIBCMTD:strftime.obj
 0001:00113460       _localeconv                10114460 f   LIBCMTD:lconv.obj
 0001:001134b0       _strcmp                    101144b0 f   LIBCMTD:strcmp.obj
 0001:00113540       _strcspn                   10114540 f   LIBCMTD:strcspn.obj
 0001:00113590       _strncmp                   10114590 f   LIBCMTD:strncmp.obj
 0001:00113710       _strpbrk                   10114710 f   LIBCMTD:strpbrk.obj
 0001:00113750       _memcmp                    10114750 f   LIBCMTD:memcmp.obj
 0001:001141c0       ___get_qualified_locale    101151c0 f   LIBCMTD:getqloc.obj
 0001:00115060       __ld12tod                  10116060 f   LIBCMTD:_intrncvt_.obj
 0001:00115080       __ld12cvt                  10116080 f i LIBCMTD:_intrncvt_.obj
 0001:001152d0       __RoundMan                 101162d0 f i LIBCMTD:_intrncvt_.obj
 0001:001153b0       __ZeroTail                 101163b0 f i LIBCMTD:_intrncvt_.obj
 0001:00115440       __IncMan                   10116440 f i LIBCMTD:_intrncvt_.obj
 0001:001154f0       ___addl                    101164f0 f i LIBCMTD:_intrncvt_.obj
 0001:00115530       __CopyMan                  10116530 f i LIBCMTD:_intrncvt_.obj
 0001:00115580       __FillZeroMan              10116580 f i LIBCMTD:_intrncvt_.obj
 0001:001155c0       __IsZeroMan                101165c0 f i LIBCMTD:_intrncvt_.obj
 0001:00115600       __ShrMan                   10116600 f i LIBCMTD:_intrncvt_.obj
 0001:001156f0       __ld12tof                  101166f0 f   LIBCMTD:_intrncvt_.obj
 0001:00115710       __ld12told                 10116710 f   LIBCMTD:_intrncvt_.obj
 0001:001157c0       ___strgtold12_l            101167c0 f   LIBCMTD:_strgtold_.obj
 0001:00116270       ___multtenpow12            10117270 f i LIBCMTD:_strgtold_.obj
 0001:00116350       ___ld12mul                 10117350 f i LIBCMTD:_strgtold_.obj
 0001:00116750       ___shl_12                  10117750 f i LIBCMTD:_strgtold_.obj
 0001:001167c0       ___shr_12                  101177c0 f i LIBCMTD:_strgtold_.obj
 0001:00116830       ___STRINGTOLD_L            10117830 f   LIBCMTD:_strgtold_.obj
 0001:001168a0       _$I10_OUTPUT               101178a0 f   LIBCMTD:_x10fout_.obj
 0001:00116e50       ___add_12                  10117e50 f i LIBCMTD:_x10fout_.obj
 0001:00116f00       __woutput_s_l              10117f00 f   LIBCMTD:woutputs.obj
 0001:00118230       __validate_param_reuseW    10119230 f   LIBCMTD:woutputp.obj
 0001:001184a0       __woutput_p_l              101194a0 f   LIBCMTD:woutputp.obj
 0001:0011bc00       __mbtowc_l                 1011cc00 f   LIBCMTD:mbtowc.obj
 0001:0011be20       _mbtowc                    1011ce20 f   LIBCMTD:mbtowc.obj
 0001:0011be40       _fputwc                    1011ce40 f   LIBCMTD:fputwc.obj
 0001:0011bf40       __fputwc_nolock            1011cf40 f   LIBCMTD:fputwc.obj
 0001:0011c230       _putwc                     1011d230 f   LIBCMTD:fputwc.obj
 0001:0011c250       __alloc_osfhnd             1011d250 f   LIBCMTD:osfinfo.obj
 0001:0011c500       __set_osfhnd               1011d500 f   LIBCMTD:osfinfo.obj
 0001:0011c5d0       __free_osfhnd              1011d5d0 f   LIBCMTD:osfinfo.obj
 0001:0011c6c0       __get_osfhandle            1011d6c0 f   LIBCMTD:osfinfo.obj
 0001:0011c830       __open_osfhandle           1011d830 f   LIBCMTD:osfinfo.obj
 0001:0011ca60       ___lock_fhandle            1011da60 f   LIBCMTD:osfinfo.obj
 0001:0011cb60       __unlock_fhandle           1011db60 f   LIBCMTD:osfinfo.obj
 0001:0011cb90       __putwch                   1011db90 f   LIBCMTD:putwch.obj
 0001:0011cc20       __putwch_nolock            1011dc20 f   LIBCMTD:putwch.obj
 0001:0011cd20       __cputws                   1011dd20 f   LIBCMTD:putwch.obj
 0001:0011ce70       _DebuggerKnownHandle       1011de70 f   LIBCMTD:_error_.obj
 0001:0011cf30       ?_RTC_Failure@@YAXPAXH@Z   1011df30 f   LIBCMTD:_error_.obj
 0001:0011d240       ?_RTC_StackFailure@@YAXPAXPBD@Z 1011e240 f   LIBCMTD:_error_.obj
 0001:0011d340       ?_RTC_AllocaFailure@@YAXPAXPAU_RTC_ALLOCA_NODE@@H@Z 1011e340 f   LIBCMTD:_error_.obj
 0001:0011d4f0       __RTC_UninitUse            1011e4f0 f   LIBCMTD:_error_.obj
 0001:0011d5e0       __fcloseall                1011e5e0 f   LIBCMTD:closeall.obj
 0001:0011d710       _fflush                    1011e710 f   LIBCMTD:fflush.obj
 0001:0011d7b0       __fflush_nolock            1011e7b0 f   LIBCMTD:fflush.obj
 0001:0011d810       __flush                    1011e810 f   LIBCMTD:fflush.obj
 0001:0011d8d0       __flushall                 1011e8d0 f   LIBCMTD:fflush.obj
 0001:0011daa0       __stbuf                    1011eaa0 f   LIBCMTD:_sftbuf.obj
 0001:0011dc00       __ftbuf                    1011ec00 f   LIBCMTD:_sftbuf.obj
 0001:0011dc90       _vprintf_helper            1011ec90 f   LIBCMTD:vprintf.obj
 0001:0011ddb0       __vprintf_l                1011edb0 f   LIBCMTD:vprintf.obj
 0001:0011ddd0       __vprintf_s_l              1011edd0 f   LIBCMTD:vprintf.obj
 0001:0011ddf0       __vprintf_p_l              1011edf0 f   LIBCMTD:vprintf.obj
 0001:0011de10       _vprintf                   1011ee10 f   LIBCMTD:vprintf.obj
 0001:0011de30       _vprintf_s                 1011ee30 f   LIBCMTD:vprintf.obj
 0001:0011de50       __vprintf_p                1011ee50 f   LIBCMTD:vprintf.obj
 0001:0011de70       __iswctype_l               1011ee70 f   LIBCMTD:iswctype.obj
 0001:0011df20       _iswctype                  1011ef20 f   LIBCMTD:iswctype.obj
 0001:0011dfb0       _is_wctype                 1011efb0 f   LIBCMTD:iswctype.obj
 0001:0011dfd0       ___ansicp                  1011efd0 f   LIBCMTD:convrtcp.obj
 0001:0011e030       ___convertcp               1011f030 f   LIBCMTD:convrtcp.obj
 0001:0011e280       ___InternalCxxFrameHandler 1011f280 f   LIBCMTD:frame.obj
 0001:0011e880       ??0bad_exception@std@@QAE@PBD@Z 1011f880 f i LIBCMTD:frame.obj
 0001:0011e8b0       ??1bad_exception@std@@UAE@XZ 1011f8b0 f i LIBCMTD:frame.obj
 0001:0011e8d0       ??_Gbad_exception@std@@UAEPAXI@Z 1011f8d0 f i LIBCMTD:frame.obj
 0001:0011e8d0       ??_Ebad_exception@std@@UAEPAXI@Z 1011f8d0 f i LIBCMTD:frame.obj
 0001:0011e900       ??0bad_exception@std@@QAE@ABV01@@Z 1011f900 f i LIBCMTD:frame.obj
 0001:0011eab0       ___TypeMatch               1011fab0 f   LIBCMTD:frame.obj
 0001:0011eb60       ___FrameUnwindFilter       1011fb60 f   LIBCMTD:frame.obj
 0001:0011ebe0       ___FrameUnwindToState      1011fbe0 f   LIBCMTD:frame.obj
 0001:0011f120       ___BuildCatchObjectHelper  10120120 f   LIBCMTD:frame.obj
 0001:0011f390       ___BuildCatchObject        10120390 f   LIBCMTD:frame.obj
 0001:0011f4a0       ___DestructExceptionObject 101204a0 f   LIBCMTD:frame.obj
 0001:0011f550       ___AdjustPointer           10120550 f   LIBCMTD:frame.obj
 0001:0011f5a0       ?__uncaught_exception@@YA_NXZ 101205a0 f   LIBCMTD:frame.obj
 0001:0011f5c0       ___CxxExceptionFilter      101205c0 f   LIBCMTD:frame.obj
 0001:0011f7b0       ___CxxRegisterExceptionObject 101207b0 f   LIBCMTD:frame.obj
 0001:0011f8e0       ___CxxDetectRethrow        101208e0 f   LIBCMTD:frame.obj
 0001:0011f970       ___CxxUnregisterExceptionObject 10120970 f   LIBCMTD:frame.obj
 0001:0011faf0       ___CxxQueryExceptionSize   10120af0 f   LIBCMTD:frame.obj
 0001:0011fb00       ___CxxCallUnwindDtor       10120b00 f   LIBCMTD:frame.obj
 0001:0011fb80       ___CxxCallUnwindDelDtor    10120b80 f   LIBCMTD:frame.obj
 0001:0011fc00       ___CxxCallUnwindStdDelDtor 10120c00 f   LIBCMTD:frame.obj
 0001:0011fc80       ___CxxCallUnwindVecDtor    10120c80 f   LIBCMTD:frame.obj
 0001:0011feb0       ?_is_exception_typeof@@YAHABVtype_info@@PAU_EXCEPTION_POINTERS@@@Z 10120eb0 f   LIBCMTD:frame.obj
 0001:0011ff90       __CallSettingFrame@12      10120f90 f   LIBCMTD:lowhelpr.obj
 0001:0011ffb7       __NLG_Return               10120fb7     LIBCMTD:lowhelpr.obj
 0001:0011ffe0       __get_daylight             10120fe0 f   LIBCMTD:timeset.obj
 0001:00120060       __get_dstbias              10121060 f   LIBCMTD:timeset.obj
 0001:001200e0       __get_timezone             101210e0 f   LIBCMTD:timeset.obj
 0001:00120160       __get_tzname               10121160 f   LIBCMTD:timeset.obj
 0001:00120330       ___daylight                10121330 f   LIBCMTD:timeset.obj
 0001:00120340       ___dstbias                 10121340 f   LIBCMTD:timeset.obj
 0001:00120350       ___timezone                10121350 f   LIBCMTD:timeset.obj
 0001:00120360       ___tzname                  10121360 f   LIBCMTD:timeset.obj
 0001:00120370       ___tzset                   10121370 f   LIBCMTD:tzset.obj
 0001:00120410       __tzset                    10121410 f   LIBCMTD:tzset.obj
 0001:001209c0       __set_daylight             101219c0 f i LIBCMTD:tzset.obj
 0001:001209e0       __set_dstbias              101219e0 f i LIBCMTD:tzset.obj
 0001:00120a00       __set_timezone             10121a00 f i LIBCMTD:tzset.obj
 0001:00120a20       __isindst                  10121a20 f   LIBCMTD:tzset.obj
 0001:001210d0       __stricmp_l                101220d0 f   LIBCMTD:stricmp.obj
 0001:00121280       ___ascii_stricmp           10122280 f   LIBCMTD:stricmp.obj
 0001:00121300       __stricmp                  10122300 f   LIBCMTD:stricmp.obj
 0001:00121410       __strnicmp_l               10122410 f   LIBCMTD:strnicmp.obj
 0001:00121650       __strnicmp                 10122650 f   LIBCMTD:strnicmp.obj
 0001:001217e0       _atol                      101227e0 f   LIBCMTD:atox.obj
 0001:00121800       __atol_l                   10122800 f   LIBCMTD:atox.obj
 0001:00121820       _atoi                      10122820 f   LIBCMTD:atox.obj
 0001:00121840       __atoi_l                   10122840 f   LIBCMTD:atox.obj
 0001:00121860       __atoi64                   10122860 f   LIBCMTD:atox.obj
 0001:00121880       __atoi64_l                 10122880 f   LIBCMTD:atox.obj
 0001:001218a0       ___mtold12                 101228a0 f   LIBCMTD:_mantold_.obj
 0001:00121a00       _wcstol                    10122a00 f   LIBCMTD:wcstol.obj
 0001:00121e80       __wcstol_l                 10122e80 f   LIBCMTD:wcstol.obj
 0001:00121eb0       _wcstoul                   10122eb0 f   LIBCMTD:wcstol.obj
 0001:00121f00       __wcstoul_l                10122f00 f   LIBCMTD:wcstol.obj
 0001:00121f30       __flswbuf                  10122f30 f   LIBCMTD:_flswbuf.obj
 0001:00122210       ___initconin               10123210 f   LIBCMTD:initcon.obj
 0001:00122240       ___initconout              10123240 f   LIBCMTD:initcon.obj
 0001:00122270       ___termcon                 10123270 f   LIBCMTD:initcon.obj
 0001:001222c0       ?_RTC_GetSrcLine@@YAHPAEPA_WKPAH1K@Z 101232c0 f   LIBCMTD:_pdblkup_.obj
 0001:00122760       __RTC_NumErrors            10123760 f   LIBCMTD:_userapi_.obj
 0001:00122770       __RTC_GetErrDesc           10123770 f   LIBCMTD:_userapi_.obj
 0001:00122790       __RTC_SetErrorType         10123790 f   LIBCMTD:_userapi_.obj
 0001:001227c0       __RTC_SetErrorFunc         101237c0 f   LIBCMTD:_userapi_.obj
 0001:001227e0       __RTC_SetErrorFuncW        101237e0 f   LIBCMTD:_userapi_.obj
 0001:00122800       ?_RTC_GetErrorFunc@@YAP6AHHPBDH00ZZPBX@Z 10123800 f   LIBCMTD:_userapi_.obj
 0001:00122810       ?_RTC_GetErrorFuncW@@YAP6AHHPB_WH00ZZPBX@Z 10123810 f   LIBCMTD:_userapi_.obj
 0001:00122820       _fclose                    10123820 f   LIBCMTD:fclose.obj
 0001:00122930       __fclose_nolock            10123930 f   LIBCMTD:fclose.obj
 0001:00122a30       __commit                   10123a30 f   LIBCMTD:commit.obj
 0001:00122c50       ___crtGetStringTypeW       10123c50 f   LIBCMTD:w_str.obj
 0001:00122cd0       ?_ValidateRead@@YAHPBXI@Z  10123cd0 f   LIBCMTD:validate.obj
 0001:00122d00       ?_ValidateWrite@@YAHPAXI@Z 10123d00 f   LIBCMTD:validate.obj
 0001:00122d30       ?_ValidateExecute@@YAHP6GHXZ@Z 10123d30 f   LIBCMTD:validate.obj
 0001:00122d60       __CxxThrowException@8      10123d60 f   LIBCMTD:throw.obj
 0001:00122dc0       ?name@type_info@@QBEPBDPAU__type_info_node@@@Z 10123dc0 f   LIBCMTD:typinfo.obj
 0001:00122de0       ??1type_info@@UAE@XZ       10123de0 f   LIBCMTD:typinfo.obj
 0001:00122e10       ??_Gtype_info@@UAEPAXI@Z   10123e10 f i LIBCMTD:typinfo.obj
 0001:00122e10       ??_Etype_info@@UAEPAXI@Z   10123e10 f i LIBCMTD:typinfo.obj
 0001:00122e40       ?_name_internal_method@type_info@@QBEPBDPAU__type_info_node@@@Z 10123e40 f   LIBCMTD:typinfo.obj
 0001:00122e60       ?_type_info_dtor_internal_method@type_info@@QAEXXZ 10123e60 f   LIBCMTD:typinfo.obj
 0001:00122e80       ??8type_info@@QBE_NABV0@@Z 10123e80 f   LIBCMTD:typinfo.obj
 0001:00122eb0       ??9type_info@@QBE_NABV0@@Z 10123eb0 f   LIBCMTD:typinfo.obj
 0001:00122ee0       ?before@type_info@@QBEHABV1@@Z 10123ee0 f   LIBCMTD:typinfo.obj
 0001:00122f10       ?raw_name@type_info@@QBEPBDXZ 10123f10 f   LIBCMTD:typinfo.obj
 0001:00122f30       ??0type_info@@AAE@ABV0@@Z  10123f30 f   LIBCMTD:typinfo.obj
 0001:00122f50       ??4type_info@@AAEAAV0@ABV0@@Z 10123f50 f   LIBCMTD:typinfo.obj
 0001:00122f70       ??0exception@std@@QAE@XZ   10123f70 f   LIBCMTD:stdexcpt.obj
 0001:00122fa0       ??_Gexception@std@@UAEPAXI@Z 10123fa0 f i LIBCMTD:stdexcpt.obj
 0001:00122fa0       ??_Eexception@std@@UAEPAXI@Z 10123fa0 f i LIBCMTD:stdexcpt.obj
 0001:00122fd0       ??0exception@std@@QAE@ABQBD@Z 10123fd0 f   LIBCMTD:stdexcpt.obj
 0001:00123060       ??0exception@std@@QAE@ABQBDH@Z 10124060 f   LIBCMTD:stdexcpt.obj
 0001:00123090       ??0exception@std@@QAE@ABV01@@Z 10124090 f   LIBCMTD:stdexcpt.obj
 0001:00123130       ??4exception@std@@QAEAAV01@ABV01@@Z 10124130 f   LIBCMTD:stdexcpt.obj
 0001:001231e0       ??1exception@std@@UAE@XZ   101241e0 f   LIBCMTD:stdexcpt.obj
 0001:00123210       ?what@exception@std@@UBEPBDXZ 10124210 f   LIBCMTD:stdexcpt.obj
 0001:00123240       ??0bad_cast@std@@QAE@PBD@Z 10124240 f   LIBCMTD:stdexcpt.obj
 0001:00123270       ??_Gbad_cast@std@@UAEPAXI@Z 10124270 f i LIBCMTD:stdexcpt.obj
 0001:00123270       ??_Ebad_cast@std@@UAEPAXI@Z 10124270 f i LIBCMTD:stdexcpt.obj
 0001:001232a0       ??0bad_cast@std@@QAE@ABV01@@Z 101242a0 f   LIBCMTD:stdexcpt.obj
 0001:001232d0       ??1bad_cast@std@@UAE@XZ    101242d0 f   LIBCMTD:stdexcpt.obj
 0001:001232f0       ??0bad_typeid@std@@QAE@PBD@Z 101242f0 f   LIBCMTD:stdexcpt.obj
 0001:00123320       ??_Gbad_typeid@std@@UAEPAXI@Z 10124320 f i LIBCMTD:stdexcpt.obj
 0001:00123320       ??_Ebad_typeid@std@@UAEPAXI@Z 10124320 f i LIBCMTD:stdexcpt.obj
 0001:00123350       ??0bad_typeid@std@@QAE@ABV01@@Z 10124350 f   LIBCMTD:stdexcpt.obj
 0001:00123380       ??1bad_typeid@std@@UAE@XZ  10124380 f   LIBCMTD:stdexcpt.obj
 0001:001233a0       ??0__non_rtti_object@std@@QAE@PBD@Z 101243a0 f   LIBCMTD:stdexcpt.obj
 0001:001233d0       ??_G__non_rtti_object@std@@UAEPAXI@Z 101243d0 f i LIBCMTD:stdexcpt.obj
 0001:001233d0       ??_E__non_rtti_object@std@@UAEPAXI@Z 101243d0 f i LIBCMTD:stdexcpt.obj
 0001:00123400       ??0__non_rtti_object@std@@QAE@ABV01@@Z 10124400 f   LIBCMTD:stdexcpt.obj
 0001:00123430       ??1__non_rtti_object@std@@UAE@XZ 10124430 f   LIBCMTD:stdexcpt.obj
 0001:00123450       _getenv                    10124450 f   LIBCMTD:getenv.obj
 0001:001235a0       __getenv_helper_nolock     101245a0 f   LIBCMTD:getenv.obj
 0001:001236c0       _getenv_s                  101246c0 f   LIBCMTD:getenv.obj
 0001:001238f0       __dupenv_s                 101248f0 f   LIBCMTD:getenv.obj
 0001:00123920       __dupenv_s_dbg             10124920 f   LIBCMTD:getenv.obj
 0001:00123b70       ___ascii_strnicmp          10124b70 f   LIBCMTD:_strnicm.obj
 0001:00123be0       __strtoi64                 10124be0 f   LIBCMTD:strtoq.obj
 0001:00124150       __strtoi64_l               10125150 f   LIBCMTD:strtoq.obj
 0001:00124180       __strtoui64                10125180 f   LIBCMTD:strtoq.obj
 0001:001241d0       __strtoui64_l              101251d0 f   LIBCMTD:strtoq.obj
 0001:00124200       __wchartodigit             10125200 f   LIBCMTD:wchtodig.obj
 0001:00124530       __close                    10125530 f   LIBCMTD:close.obj
 0001:00124740       __close_nolock             10125740 f   LIBCMTD:close.obj
 0001:00124810       __freebuf                  10125810 f   LIBCMTD:_freebuf.obj
 0001:001248a0       ?_Type_info_dtor@type_info@@CAXPAV1@@Z 101258a0 f   LIBCMTD:typname.obj
 0001:001249b0       ?_Name_base@type_info@@CAPBDPBV1@PAU__type_info_node@@@Z 101259b0 f   LIBCMTD:typname.obj
 0001:00124b50       ?_Type_info_dtor_internal@type_info@@CAXPAV1@@Z 10125b50 f   LIBCMTD:typname.obj
 0001:00124c60       ___unDNameHelper           10125c60 f   LIBCMTD:typname.obj
 0001:00124ca0       ?_Name_base_internal@type_info@@CAPBDPBV1@PAU__type_info_node@@@Z 10125ca0 f   LIBCMTD:typname.obj
 0001:00124e60       ___clean_type_info_names_internal 10125e60 f   LIBCMTD:typname.obj
 0001:00124f20       _strnlen                   10125f20 f   LIBCMTD:strlen_s.obj
 0001:00124f60       __mbsnbicoll_l             10125f60 f   LIBCMTD:mbsnbico.obj
 0001:001251a0       __mbsnbicoll               101261a0 f   LIBCMTD:mbsnbico.obj
 0001:001251c0       ___wtomb_environ           101261c0 f   LIBCMTD:wtombenv.obj
 0001:001252b0       ___unDName                 101262b0 f   LIBCMTD:undname.obj
 0001:00125390       ?Constructor@HeapManager@@QAEXP6APAXI@ZP6AXPAX@Z@Z 10126390 f i LIBCMTD:undname.obj
 0001:001253d0       ?Destructor@HeapManager@@QAEXXZ 101263d0 f i LIBCMTD:undname.obj
 0001:00125420       ___unDNameEx               10126420 f   LIBCMTD:undname.obj
 0001:00125500       ??0UnDecorator@@QAE@PADPBDHP6APADJ@ZK@Z 10126500 f i LIBCMTD:undname.obj
 0001:001255a0       ??BUnDecorator@@QAEPADXZ   101265a0 f i LIBCMTD:undname.obj
 0001:001257d0       ?dbGetString@DName@@QBEPADXZ 101267d0 f   LIBCMTD:undname.obj
 0001:00125800       ?getDecoratedName@UnDecorator@@CA?AVDName@@XZ 10126800 f   LIBCMTD:undname.obj
 0001:00125b10       ?getSymbolName@UnDecorator@@CA?AVDName@@XZ 10126b10 f i LIBCMTD:undname.obj
 0001:00125b90       ?getZName@UnDecorator@@CA?AVDName@@_N0@Z 10126b90 f   LIBCMTD:undname.obj
 0001:00125e30       ?getOperatorName@UnDecorator@@CA?AVDName@@_NPA_N@Z 10126e30 f i LIBCMTD:undname.obj
 0001:001267a0       ?getStringEncoding@UnDecorator@@CA?AVDName@@PADH@Z 101277a0 f   LIBCMTD:undname.obj
 0001:001268a0       ?getScope@UnDecorator@@CA?AVDName@@XZ 101278a0 f   LIBCMTD:undname.obj
 0001:00126c80       ?getSignedDimension@UnDecorator@@CA?AVDName@@XZ 10127c80 f   LIBCMTD:undname.obj
 0001:00126d00       ?getDimension@UnDecorator@@CA?AVDName@@_N@Z 10127d00 f   LIBCMTD:undname.obj
 0001:00126fb0       ?getNumberOfDimensions@UnDecorator@@CAHXZ 10127fb0 f   LIBCMTD:undname.obj
 0001:001270b0       ?getTemplateName@UnDecorator@@CA?AVDName@@_N@Z 101280b0 f   LIBCMTD:undname.obj
 0001:00127270       ?getTemplateArgumentList@UnDecorator@@CA?AVDName@@XZ 10128270 f   LIBCMTD:undname.obj
 0001:001274f0       ?getTemplateConstant@UnDecorator@@CA?AVDName@@XZ 101284f0 f   LIBCMTD:undname.obj
 0001:00127980       ?composeDeclaration@UnDecorator@@CA?AVDName@@ABV2@@Z 10128980 f i LIBCMTD:undname.obj
 0001:00128f80       ?getTypeEncoding@UnDecorator@@CAHXZ 10129f80 f i LIBCMTD:undname.obj
 0001:001299c0       ?getBasedType@UnDecorator@@CA?AVDName@@XZ 1012a9c0 f   LIBCMTD:undname.obj
 0001:00129a80       ?getScopedName@UnDecorator@@CA?AVDName@@XZ 1012aa80 f   LIBCMTD:undname.obj
 0001:00129ba0       ?getCallingConvention@UnDecorator@@CA?AVDName@@XZ 1012aba0 f   LIBCMTD:undname.obj
 0001:00129d00       ?getReturnType@UnDecorator@@CA?AVDName@@PAV2@@Z 1012ad00 f   LIBCMTD:undname.obj
 0001:00129d50       ?getDataType@UnDecorator@@CA?AVDName@@PAV2@@Z 1012ad50 f   LIBCMTD:undname.obj
 0001:00129e60       ?getPrimaryDataType@UnDecorator@@CA?AVDName@@ABV2@@Z 1012ae60 f   LIBCMTD:undname.obj
 0001:0012a110       ?getArgumentTypes@UnDecorator@@CA?AVDName@@XZ 1012b110 f   LIBCMTD:undname.obj
 0001:0012a270       ?getArgumentList@UnDecorator@@CA?AVDName@@XZ 1012b270 f   LIBCMTD:undname.obj
 0001:0012a3c0       ?getThrowTypes@UnDecorator@@CA?AVDName@@XZ 1012b3c0 f   LIBCMTD:undname.obj
 0001:0012a470       ?getBasicDataType@UnDecorator@@CA?AVDName@@ABV2@@Z 1012b470 f   LIBCMTD:undname.obj
 0001:0012aa20       ?getECSUDataType@UnDecorator@@CA?AVDName@@XZ 1012ba20 f   LIBCMTD:undname.obj
 0001:0012abf0       ?getECSUName@UnDecorator@@CA?AVDName@@XZ 1012bbf0 f i LIBCMTD:undname.obj
 0001:0012ac10       ?getEnumType@UnDecorator@@CA?AVDName@@XZ 1012bc10 f i LIBCMTD:undname.obj
 0001:0012ad60       ?getFunctionIndirectType@UnDecorator@@CA?AVDName@@ABV2@@Z 1012bd60 f   LIBCMTD:undname.obj
 0001:0012b1a0       ?getPtrRefType@UnDecorator@@CA?AVDName@@ABV2@0D@Z 1012c1a0 f   LIBCMTD:undname.obj
 0001:0012b300       ?getExtendedDataIndirectType@UnDecorator@@CA?AVDName@@AADAA_NH@Z 1012c300 f   LIBCMTD:undname.obj
 0001:0012b510       ?getDataIndirectType@UnDecorator@@CA?AVDName@@ABV2@D0H@Z 1012c510 f   LIBCMTD:undname.obj
 0001:0012bc10       ?getPtrRefDataType@UnDecorator@@CA?AVDName@@ABV2@H@Z 1012cc10 f i LIBCMTD:undname.obj
 0001:0012bd50       ?getArrayType@UnDecorator@@CA?AVDName@@ABV2@@Z 1012cd50 f i LIBCMTD:undname.obj
 0001:0012bf80       ?getLexicalFrame@UnDecorator@@CA?AVDName@@XZ 1012cf80 f i LIBCMTD:undname.obj
 0001:0012bfc0       ?getThisType@UnDecorator@@CA?AVDName@@XZ 1012cfc0 f i LIBCMTD:undname.obj
 0001:0012c000       ?getPointerType@UnDecorator@@CA?AVDName@@ABV2@0@Z 1012d000 f i LIBCMTD:undname.obj
 0001:0012c020       ?getPointerTypeArray@UnDecorator@@CA?AVDName@@ABV2@0@Z 1012d020 f i LIBCMTD:undname.obj
 0001:0012c040       ?getReferenceType@UnDecorator@@CA?AVDName@@ABV2@0@Z 1012d040 f i LIBCMTD:undname.obj
 0001:0012c060       ?getDisplacement@UnDecorator@@CA?AVDName@@XZ 1012d060 f i LIBCMTD:undname.obj
 0001:0012c080       ?getCallIndex@UnDecorator@@CA?AVDName@@XZ 1012d080 f i LIBCMTD:undname.obj
 0001:0012c0a0       ?getGuardNumber@UnDecorator@@CA?AVDName@@XZ 1012d0a0 f i LIBCMTD:undname.obj
 0001:0012c0c0       ?getVbTableType@UnDecorator@@CA?AVDName@@ABV2@@Z 1012d0c0 f i LIBCMTD:undname.obj
 0001:0012c0e0       ?getVCallThunkType@UnDecorator@@CA?AVDName@@XZ 1012d0e0 f i LIBCMTD:undname.obj
 0001:0012c140       ?getVfTableType@UnDecorator@@CA?AVDName@@ABV2@@Z 1012d140 f i LIBCMTD:undname.obj
 0001:0012c300       ?getStorageConvention@UnDecorator@@CA?AVDName@@XZ 1012d300 f i LIBCMTD:undname.obj
 0001:0012c320       ?getDataIndirectType@UnDecorator@@CA?AVDName@@XZ 1012d320 f i LIBCMTD:undname.obj
 0001:0012c360       ?getVdispMapType@UnDecorator@@CA?AVDName@@ABV2@@Z 1012d360 f i LIBCMTD:undname.obj
 0001:0012c3d0       ?getExternalDataType@UnDecorator@@CA?AVDName@@ABV2@@Z 1012d3d0 f i LIBCMTD:undname.obj
 0001:0012c460       ?doMSKeywords@UnDecorator@@SAHXZ 1012d460 f i LIBCMTD:undname.obj
 0001:0012c480       ?doPtr64@UnDecorator@@SAHXZ 1012d480 f i LIBCMTD:undname.obj
 0001:0012c4a0       ?doFunctionReturns@UnDecorator@@SAHXZ 1012d4a0 f i LIBCMTD:undname.obj
 0001:0012c4c0       ?doAllocationModel@UnDecorator@@SAHXZ 1012d4c0 f i LIBCMTD:undname.obj
 0001:0012c4e0       ?doAllocationLanguage@UnDecorator@@SAHXZ 1012d4e0 f i LIBCMTD:undname.obj
 0001:0012c500       ?doThisTypes@UnDecorator@@SAHXZ 1012d500 f i LIBCMTD:undname.obj
 0001:0012c520       ?doAccessSpecifiers@UnDecorator@@SAHXZ 1012d520 f i LIBCMTD:undname.obj
 0001:0012c540       ?doThrowTypes@UnDecorator@@SAHXZ 1012d540 f i LIBCMTD:undname.obj
 0001:0012c560       ?doMemberTypes@UnDecorator@@SAHXZ 1012d560 f i LIBCMTD:undname.obj
 0001:0012c580       ?doNameOnly@UnDecorator@@SAHXZ 1012d580 f i LIBCMTD:undname.obj
 0001:0012c5a0       ?doTypeOnly@UnDecorator@@SAHXZ 1012d5a0 f i LIBCMTD:undname.obj
 0001:0012c5c0       ?haveTemplateParameters@UnDecorator@@SAHXZ 1012d5c0 f i LIBCMTD:undname.obj
 0001:0012c5e0       ?doEcsu@UnDecorator@@SAHXZ 1012d5e0 f i LIBCMTD:undname.obj
 0001:0012c600       ?doEllipsis@UnDecorator@@SAHXZ 1012d600 f i LIBCMTD:undname.obj
 0001:0012c620       ?UScore@UnDecorator@@SAPBDW4Tokens@@@Z 1012d620 f   LIBCMTD:undname.obj
 0001:0012c650       ?doUnderScore@UnDecorator@@SAHXZ 1012d650 f i LIBCMTD:undname.obj
 0001:0012c670       ??2@YAPAXIAAVHeapManager@@H@Z 1012d670 f i LIBCMTD:undname.obj
 0001:0012c690       ?getMemory@HeapManager@@QAEPAXIH@Z 1012d690 f   LIBCMTD:undname.obj
 0001:0012c7a0       ??0Block@HeapManager@@QAE@XZ 1012d7a0 f i LIBCMTD:undname.obj
 0001:0012c7c0       ??H@YA?AVDName@@DABV0@@Z   1012d7c0 f i LIBCMTD:undname.obj
 0001:0012c7f0       ??H@YA?AVDName@@W4DNameStatus@@ABV0@@Z 1012d7f0 f i LIBCMTD:undname.obj
 0001:0012c820       ??H@YA?AVDName@@PBDABV0@@Z 1012d820 f i LIBCMTD:undname.obj
 0001:0012c850       ??0DName@@QAE@XZ           1012d850 f i LIBCMTD:undname.obj
 0001:0012c910       ??0DName@@QAE@D@Z          1012d910 f   LIBCMTD:undname.obj
 0001:0012c9f0       ??0DName@@QAE@ABV0@@Z      1012d9f0 f i LIBCMTD:undname.obj
 0001:0012ca20       ??0DName@@QAE@PAV0@@Z      1012da20 f   LIBCMTD:undname.obj
 0001:0012cb50       ??0DName@@QAE@PBD@Z        1012db50 f   LIBCMTD:undname.obj
 0001:0012cc30       ??0DName@@QAE@AAPBDD@Z     1012dc30 f   LIBCMTD:undname.obj
 0001:0012cef0       ?doNoIdentCharCheck@UnDecorator@@SAHXZ 1012def0 f i LIBCMTD:undname.obj
 0001:0012cf10       ??0DName@@QAE@_K@Z         1012df10 f   LIBCMTD:undname.obj
 0001:0012d050       ??0DName@@QAE@_J@Z         1012e050 f   LIBCMTD:undname.obj
 0001:0012d1d0       ??0DName@@QAE@W4DNameStatus@@@Z 1012e1d0 f   LIBCMTD:undname.obj
 0001:0012d2f0       ?isValid@DName@@QBEHXZ     1012e2f0 f i LIBCMTD:undname.obj
 0001:0012d320       ?isEmpty@DName@@QBEHXZ     1012e320 f i LIBCMTD:undname.obj
 0001:0012d340       ?status@DName@@QBE?AW4DNameStatus@@XZ 1012e340 f i LIBCMTD:undname.obj
 0001:0012d360       ?setPtrRef@DName@@QAEAAV1@XZ 1012e360 f i LIBCMTD:undname.obj
 0001:0012d390       ?isPtrRef@DName@@QBEHXZ    1012e390 f i LIBCMTD:undname.obj
 0001:0012d3b0       ?isUDC@DName@@QBEHXZ       1012e3b0 f i LIBCMTD:undname.obj
 0001:0012d3f0       ?setIsUDC@DName@@QAEXXZ    1012e3f0 f i LIBCMTD:undname.obj
 0001:0012d420       ?isUDTThunk@DName@@QBEHXZ  1012e420 f i LIBCMTD:undname.obj
 0001:0012d460       ?setIsArray@DName@@QAEXXZ  1012e460 f i LIBCMTD:undname.obj
 0001:0012d480       ?isArray@DName@@QBEHXZ     1012e480 f i LIBCMTD:undname.obj
 0001:0012d4a0       ?isNoTE@DName@@QBEHXZ      1012e4a0 f i LIBCMTD:undname.obj
 0001:0012d4c0       ?setIsNoTE@DName@@QAEXXZ   1012e4c0 f i LIBCMTD:undname.obj
 0001:0012d4e0       ?isPinPtr@DName@@QBEHXZ    1012e4e0 f i LIBCMTD:undname.obj
 0001:0012d500       ?setIsPinPtr@DName@@QAEXXZ 1012e500 f i LIBCMTD:undname.obj
 0001:0012d520       ?isComArray@DName@@QBEHXZ  1012e520 f i LIBCMTD:undname.obj
 0001:0012d540       ?setIsComArray@DName@@QAEXXZ 1012e540 f i LIBCMTD:undname.obj
 0001:0012d560       ?isVCallThunk@DName@@QBEHXZ 1012e560 f i LIBCMTD:undname.obj
 0001:0012d580       ?setIsVCallThunk@DName@@QAEXXZ 1012e580 f i LIBCMTD:undname.obj
 0001:0012d5a0       ?length@DName@@QBEHXZ      1012e5a0 f i LIBCMTD:undname.obj
 0001:0012d5d0       ?getLastChar@DName@@QBEDXZ 1012e5d0 f i LIBCMTD:undname.obj
 0001:0012d600       ?getString@DName@@QBEPADPADH@Z 1012e600 f i LIBCMTD:undname.obj
 0001:0012d690       ?getString@DName@@QBEPADPAD0@Z 1012e690 f i LIBCMTD:undname.obj
 0001:0012d6d0       ??HDName@@QBE?AV0@D@Z      1012e6d0 f   LIBCMTD:undname.obj
 0001:0012d710       ??HDName@@QBE?AV0@PBD@Z    1012e710 f   LIBCMTD:undname.obj
 0001:0012d750       ??HDName@@QBE?AV0@ABV0@@Z  1012e750 f   LIBCMTD:undname.obj
 0001:0012d790       ??HDName@@QBE?AV0@PAV0@@Z  1012e790 f   LIBCMTD:undname.obj
 0001:0012d7d0       ??HDName@@QBE?AV0@W4DNameStatus@@@Z 1012e7d0 f   LIBCMTD:undname.obj
 0001:0012d810       ?append@DName@@AAEXPAVDNameNode@@@Z 1012e810 f   LIBCMTD:undname.obj
 0001:0012d8a0       ??YDName@@QAEAAV0@D@Z      1012e8a0 f   LIBCMTD:undname.obj
 0001:0012d930       ??YDName@@QAEAAV0@PBD@Z    1012e930 f   LIBCMTD:undname.obj
 0001:0012d9d0       ??YDName@@QAEAAV0@ABV0@@Z  1012e9d0 f   LIBCMTD:undname.obj
 0001:0012da40       ??YDName@@QAEAAV0@PAV0@@Z  1012ea40 f   LIBCMTD:undname.obj
 0001:0012db00       ??YDName@@QAEAAV0@W4DNameStatus@@@Z 1012eb00 f   LIBCMTD:undname.obj
 0001:0012db70       ??_5DName@@QAEAAV0@ABV0@@Z 1012eb70 f   LIBCMTD:undname.obj
 0001:0012dbd0       ??4DName@@QAEAAV0@D@Z      1012ebd0 f i LIBCMTD:undname.obj
 0001:0012dcb0       ??4DName@@QAEAAV0@PBD@Z    1012ecb0 f   LIBCMTD:undname.obj
 0001:0012dd90       ??4DName@@QAEAAV0@ABV0@@Z  1012ed90 f   LIBCMTD:undname.obj
 0001:0012ddc0       ??4DName@@QAEAAV0@PAV0@@Z  1012edc0 f   LIBCMTD:undname.obj
 0001:0012df00       ??4DName@@QAEAAV0@W4DNameStatus@@@Z 1012ef00 f   LIBCMTD:undname.obj
 0001:0012e000       ?doPchar@DName@@AAEXPBDH@Z 1012f000 f   LIBCMTD:undname.obj
 0001:0012e140       ?isFull@Replicator@@QBEHXZ 1012f140 f i LIBCMTD:undname.obj
 0001:0012e160       ??0Replicator@@QAE@XZ      1012f160 f i LIBCMTD:undname.obj
 0001:0012e180       ??YReplicator@@QAEAAV0@ABVDName@@@Z 1012f180 f   LIBCMTD:undname.obj
 0001:0012e210       ??AReplicator@@QBE?AVDName@@H@Z 1012f210 f   LIBCMTD:undname.obj
 0001:0012e280       ??0DNameNode@@IAE@XZ       1012f280 f   LIBCMTD:undname.obj
 0001:0012e2a0       ??0charNode@@QAE@D@Z       1012f2a0 f   LIBCMTD:undname.obj
 0001:0012e2d0       ?length@charNode@@UBEHXZ   1012f2d0 f i LIBCMTD:undname.obj
 0001:0012e2f0       ?getLastChar@charNode@@UBEDXZ 1012f2f0 f i LIBCMTD:undname.obj
 0001:0012e310       ?getString@charNode@@UBEPADPAD0@Z 1012f310 f i LIBCMTD:undname.obj
 0001:0012e340       ??0pcharNode@@QAE@PBDH@Z   1012f340 f   LIBCMTD:undname.obj
 0001:0012e3d0       ?length@pcharNode@@UBEHXZ  1012f3d0 f i LIBCMTD:undname.obj
 0001:0012e3f0       ?getLastChar@pcharNode@@UBEDXZ 1012f3f0 f i LIBCMTD:undname.obj
 0001:0012e430       ?getString@pcharNode@@UBEPADPAD0@Z 1012f430 f i LIBCMTD:undname.obj
 0001:0012e460       ?getStringHelper@@YAPADPAD00H@Z 1012f460 f i LIBCMTD:undname.obj
 0001:0012e4a0       ??0pDNameNode@@QAE@PAVDName@@@Z 1012f4a0 f   LIBCMTD:undname.obj
 0001:0012e500       ?length@pDNameNode@@UBEHXZ 1012f500 f i LIBCMTD:undname.obj
 0001:0012e540       ?getLastChar@pDNameNode@@UBEDXZ 1012f540 f i LIBCMTD:undname.obj
 0001:0012e570       ?getString@pDNameNode@@UBEPADPAD0@Z 1012f570 f i LIBCMTD:undname.obj
 0001:0012e5b0       ??0DNameStatusNode@@AAE@W4DNameStatus@@@Z 1012f5b0 f   LIBCMTD:undname.obj
 0001:0012e600       ?length@DNameStatusNode@@UBEHXZ 1012f600 f i LIBCMTD:undname.obj
 0001:0012e620       ?getLastChar@DNameStatusNode@@UBEDXZ 1012f620 f i LIBCMTD:undname.obj
 0001:0012e640       ?getString@DNameStatusNode@@UBEPADPAD0@Z 1012f640 f i LIBCMTD:undname.obj
 0001:0012e680       ?make@DNameStatusNode@@SAPAV1@W4DNameStatus@@@Z 1012f680 f i LIBCMTD:undname.obj
 0001:0012e730       ??0pairNode@@QAE@PAVDNameNode@@0@Z 1012f730 f   LIBCMTD:undname.obj
 0001:0012e770       ?length@pairNode@@UBEHXZ   1012f770 f i LIBCMTD:undname.obj
 0001:0012e7c0       ?getLastChar@pairNode@@UBEDXZ 1012f7c0 f i LIBCMTD:undname.obj
 0001:0012e810       ?getString@pairNode@@UBEPADPAD0@Z 1012f810 f i LIBCMTD:undname.obj
 0001:0012e950       ___crtCompareStringA       1012f950 f   LIBCMTD:a_cmp.obj
 0001:0012ef10       __strnicoll_l              1012ff10 f   LIBCMTD:strnicol.obj
 0001:0012f160       __strnicoll                10130160 f   LIBCMTD:strnicol.obj
 0001:0012f1a0       ___crtsetenv               101301a0 f   LIBCMTD:setenv.obj
 0001:0012f820       __mbschr_l                 10130820 f   LIBCMTD:mbschr.obj
 0001:0012f9b0       __mbschr                   101309b0 f   LIBCMTD:mbschr.obj
 0001:0012f9e0       _strchr                    101309e0 f   LIBCMTD:strchr.obj
 0001:0012f9e6       ___from_strstr_to_strchr   101309e6     LIBCMTD:strchr.obj
 0001:0012fa9e       _OutputDebugStringA@4      10130a9e f   kernel32:KERNEL32.dll
 0001:0012faa4       _InterlockedExchangeAdd@8  10130aa4 f   kernel32:KERNEL32.dll
 0001:0012faaa       _GetSystemInfo@4           10130aaa f   kernel32:KERNEL32.dll
 0001:0012fab0       _InitializeCriticalSection@4 10130ab0 f   kernel32:KERNEL32.dll
 0001:0012fab6       _CreateEventA@16           10130ab6 f   kernel32:KERNEL32.dll
 0001:0012fabc       _CreateSemaphoreA@16       10130abc f   kernel32:KERNEL32.dll
 0001:0012fac2       _CloseHandle@4             10130ac2 f   kernel32:KERNEL32.dll
 0001:0012fac8       _WaitForMultipleObjects@16 10130ac8 f   kernel32:KERNEL32.dll
 0001:0012face       _DeleteCriticalSection@4   10130ace f   kernel32:KERNEL32.dll
 0001:0012fad4       _SetEvent@4                10130ad4 f   kernel32:KERNEL32.dll
 0001:0012fada       _Sleep@4                   10130ada f   kernel32:KERNEL32.dll
 0001:0012fae0       _LeaveCriticalSection@4    10130ae0 f   kernel32:KERNEL32.dll
 0001:0012fae6       _ReleaseSemaphore@12       10130ae6 f   kernel32:KERNEL32.dll
 0001:0012faec       _EnterCriticalSection@4    10130aec f   kernel32:KERNEL32.dll
 0001:0012faf2       _WaitForSingleObject@8     10130af2 f   kernel32:KERNEL32.dll
 0001:0012faf8       _InterlockedIncrement@4    10130af8 f   kernel32:KERNEL32.dll
 0001:0012fafe       _InterlockedDecrement@4    10130afe f   kernel32:KERNEL32.dll
 0001:0012fb04       _InterlockedExchange@8     10130b04 f   kernel32:KERNEL32.dll
 0001:0012fb0a       _GetModuleFileNameW@12     10130b0a f   kernel32:KERNEL32.dll
 0001:0012fb10       _GetCurrentThreadId@0      10130b10 f   kernel32:KERNEL32.dll
 0001:0012fb16       _GetCommandLineA@0         10130b16 f   kernel32:KERNEL32.dll
 0001:0012fb1c       _GetLastError@0            10130b1c f   kernel32:KERNEL32.dll
 0001:0012fb22       _CreateThread@24           10130b22 f   kernel32:KERNEL32.dll
 0001:0012fb28       _ExitThread@4              10130b28 f   kernel32:KERNEL32.dll
 0001:0012fb2e       _GetProcAddress@8          10130b2e f   kernel32:KERNEL32.dll
 0001:0012fb34       _GetModuleHandleA@4        10130b34 f   kernel32:KERNEL32.dll
 0001:0012fb3a       _FatalAppExitA@8           10130b3a f   kernel32:KERNEL32.dll
 0001:0012fb40       _HeapValidate@12           10130b40 f   kernel32:KERNEL32.dll
 0001:0012fb46       _IsBadReadPtr@8            10130b46 f   kernel32:KERNEL32.dll
 0001:0012fb4c       _DebugBreak@0              10130b4c f   kernel32:KERNEL32.dll
 0001:0012fb52       _GetStdHandle@4            10130b52 f   kernel32:KERNEL32.dll
 0001:0012fb58       _WriteFile@20              10130b58 f   kernel32:KERNEL32.dll
 0001:0012fb5e       _WriteConsoleW@20          10130b5e f   kernel32:KERNEL32.dll
 0001:0012fb64       _GetFileType@4             10130b64 f   kernel32:KERNEL32.dll
 0001:0012fb6a       _OutputDebugStringW@4      10130b6a f   kernel32:KERNEL32.dll
 0001:0012fb70       _TerminateProcess@8        10130b70 f   kernel32:KERNEL32.dll
 0001:0012fb76       _GetCurrentProcess@0       10130b76 f   kernel32:KERNEL32.dll
 0001:0012fb7c       _UnhandledExceptionFilter@4 10130b7c f   kernel32:KERNEL32.dll
 0001:0012fb82       _SetUnhandledExceptionFilter@4 10130b82 f   kernel32:KERNEL32.dll
 0001:0012fb88       _IsDebuggerPresent@0       10130b88 f   kernel32:KERNEL32.dll
 0001:0012fb8e       _GetModuleHandleW@4        10130b8e f   kernel32:KERNEL32.dll
 0001:0012fb94       _ExitProcess@4             10130b94 f   kernel32:KERNEL32.dll
 0001:0012fb9a       _SetConsoleCtrlHandler@8   10130b9a f   kernel32:KERNEL32.dll
 0001:0012fba0       _LoadLibraryW@4            10130ba0 f   kernel32:KERNEL32.dll
 0001:0012fba6       _RaiseException@16         10130ba6 f   kernel32:KERNEL32.dll
 0001:0012fbac       _TlsGetValue@4             10130bac f   kernel32:KERNEL32.dll
 0001:0012fbb2       _TlsAlloc@0                10130bb2 f   kernel32:KERNEL32.dll
 0001:0012fbb8       _TlsSetValue@8             10130bb8 f   kernel32:KERNEL32.dll
 0001:0012fbbe       _TlsFree@4                 10130bbe f   kernel32:KERNEL32.dll
 0001:0012fbc4       _SetLastError@4            10130bc4 f   kernel32:KERNEL32.dll
 0001:0012fbca       _GetCurrentThread@0        10130bca f   kernel32:KERNEL32.dll
 0001:0012fbd0       _SetHandleCount@4          10130bd0 f   kernel32:KERNEL32.dll
 0001:0012fbd6       _GetStartupInfoA@4         10130bd6 f   kernel32:KERNEL32.dll
 0001:0012fbdc       _GetModuleFileNameA@12     10130bdc f   kernel32:KERNEL32.dll
 0001:0012fbe2       _FreeEnvironmentStringsA@4 10130be2 f   kernel32:KERNEL32.dll
 0001:0012fbe8       _GetEnvironmentStrings@0   10130be8 f   kernel32:KERNEL32.dll
 0001:0012fbee       _FreeEnvironmentStringsW@4 10130bee f   kernel32:KERNEL32.dll
 0001:0012fbf4       _WideCharToMultiByte@32    10130bf4 f   kernel32:KERNEL32.dll
 0001:0012fbfa       _GetEnvironmentStringsW@0  10130bfa f   kernel32:KERNEL32.dll
 0001:0012fc00       _HeapDestroy@4             10130c00 f   kernel32:KERNEL32.dll
 0001:0012fc06       _HeapCreate@12             10130c06 f   kernel32:KERNEL32.dll
 0001:0012fc0c       _HeapFree@12               10130c0c f   kernel32:KERNEL32.dll
 0001:0012fc12       _VirtualFree@12            10130c12 f   kernel32:KERNEL32.dll
 0001:0012fc18       _QueryPerformanceCounter@4 10130c18 f   kernel32:KERNEL32.dll
 0001:0012fc1e       _GetTickCount@0            10130c1e f   kernel32:KERNEL32.dll
 0001:0012fc24       _GetCurrentProcessId@0     10130c24 f   kernel32:KERNEL32.dll
 0001:0012fc2a       _GetSystemTimeAsFileTime@4 10130c2a f   kernel32:KERNEL32.dll
 0001:0012fc30       _RtlUnwind@16              10130c30 f   kernel32:KERNEL32.dll
 0001:0012fc36       _VirtualQuery@12           10130c36 f   kernel32:KERNEL32.dll
 0001:0012fc3c       _GetACP@0                  10130c3c f   kernel32:KERNEL32.dll
 0001:0012fc42       _GetOEMCP@0                10130c42 f   kernel32:KERNEL32.dll
 0001:0012fc48       _GetCPInfo@8               10130c48 f   kernel32:KERNEL32.dll
 0001:0012fc4e       _IsValidCodePage@4         10130c4e f   kernel32:KERNEL32.dll
 0001:0012fc54       _InitializeCriticalSectionAndSpinCount@8 10130c54 f   kernel32:KERNEL32.dll
 0001:0012fc5a       _HeapAlloc@12              10130c5a f   kernel32:KERNEL32.dll
 0001:0012fc60       _HeapSize@12               10130c60 f   kernel32:KERNEL32.dll
 0001:0012fc66       _HeapReAlloc@16            10130c66 f   kernel32:KERNEL32.dll
 0001:0012fc6c       _VirtualAlloc@16           10130c6c f   kernel32:KERNEL32.dll
 0001:0012fc72       _MultiByteToWideChar@24    10130c72 f   kernel32:KERNEL32.dll
 0001:0012fc78       _FreeLibrary@4             10130c78 f   kernel32:KERNEL32.dll
 0001:0012fc7e       _LoadLibraryA@4            10130c7e f   kernel32:KERNEL32.dll
 0001:0012fc84       _SetFilePointer@16         10130c84 f   kernel32:KERNEL32.dll
 0001:0012fc8a       _GetConsoleCP@0            10130c8a f   kernel32:KERNEL32.dll
 0001:0012fc90       _GetConsoleMode@8          10130c90 f   kernel32:KERNEL32.dll
 0001:0012fc96       _GetLocaleInfoW@16         10130c96 f   kernel32:KERNEL32.dll
 0001:0012fc9c       _GetLocaleInfoA@16         10130c9c f   kernel32:KERNEL32.dll
 0001:0012fca2       _LCMapStringA@24           10130ca2 f   kernel32:KERNEL32.dll
 0001:0012fca8       _LCMapStringW@24           10130ca8 f   kernel32:KERNEL32.dll
 0001:0012fcae       _GetStringTypeA@20         10130cae f   kernel32:KERNEL32.dll
 0001:0012fcb4       _GetStringTypeW@16         10130cb4 f   kernel32:KERNEL32.dll
 0001:0012fcba       _GetTimeFormatA@24         10130cba f   kernel32:KERNEL32.dll
 0001:0012fcc0       _GetDateFormatA@24         10130cc0 f   kernel32:KERNEL32.dll
 0001:0012fcc6       _IsValidLocale@8           10130cc6 f   kernel32:KERNEL32.dll
 0001:0012fccc       _EnumSystemLocalesA@8      10130ccc f   kernel32:KERNEL32.dll
 0001:0012fcd2       _GetUserDefaultLCID@0      10130cd2 f   kernel32:KERNEL32.dll
 0001:0012fcd8       _SetStdHandle@8            10130cd8 f   kernel32:KERNEL32.dll
 0001:0012fcde       _WriteConsoleA@20          10130cde f   kernel32:KERNEL32.dll
 0001:0012fce4       _GetConsoleOutputCP@0      10130ce4 f   kernel32:KERNEL32.dll
 0001:0012fcea       _lstrlenA@4                10130cea f   kernel32:KERNEL32.dll
 0001:0012fcf0       _GetTimeZoneInformation@4  10130cf0 f   kernel32:KERNEL32.dll
 0001:0012fcf6       _CreateFileA@28            10130cf6 f   kernel32:KERNEL32.dll
 0001:0012fcfc       _GetProcessHeap@0          10130cfc f   kernel32:KERNEL32.dll
 0001:0012fd02       _FlushFileBuffers@4        10130d02 f   kernel32:KERNEL32.dll
 0001:0012fd08       _CompareStringA@24         10130d08 f   kernel32:KERNEL32.dll
 0001:0012fd0e       _CompareStringW@24         10130d0e f   kernel32:KERNEL32.dll
 0001:0012fd14       _SetEnvironmentVariableA@8 10130d14 f   kernel32:KERNEL32.dll
 0002:00000000       ___xc_a                    1017e000     LIBCMTD:crt0init.obj
 0002:00000268       ___xc_z                    1017e268     LIBCMTD:crt0init.obj
 0002:0000036c       ___xi_a                    1017e36c     LIBCMTD:crt0init.obj
 0002:00000588       ___xi_z                    1017e588     LIBCMTD:crt0init.obj
 0002:0000068c       ___xp_a                    1017e68c     LIBCMTD:crt0init.obj
 0002:000009a0       ___xp_z                    1017e9a0     LIBCMTD:crt0init.obj
 0002:00000aa4       ___xt_a                    1017eaa4     LIBCMTD:crt0init.obj
 0002:00000ba8       ___xt_z                    1017eba8     LIBCMTD:crt0init.obj
 0002:00001de8       __real@42c80000            1017fde8     Newton.obj
 0002:00001dec       __real@c2c80000            1017fdec     Newton.obj
 0002:00001df0       __real@3f800000            1017fdf0     Newton.obj
 0002:00001df8       __real@3ddb7cdfe0000000    1017fdf8     Newton.obj
 0002:00001e04       __real@3a83126f            1017fe04     Newton.obj
 0002:00001e08       __real@3c888889            1017fe08     Newton.obj
 0002:00001e10       __real@3ff0000000000000    1017fe10     Newton.obj
 0002:00001e1c       __real@426fffff            1017fe1c     Newton.obj
 0002:00001e20       __real@4479ffff            1017fe20     Newton.obj
 0002:00001e24       __real@00000000            1017fe24     Newton.obj
 0002:00001e28       __real@3e000000            1017fe28     Newton.obj
 0002:00001e2c       __real@3c23d70a            1017fe2c     Newton.obj
 0002:00001e30       __real@40000000            1017fe30     Newton.obj
 0002:00001e38       __real@3f847ae140000000    1017fe38     Newton.obj
 0002:00001e44       __real@3f333333            1017fe44     Newton.obj
 0002:00001e48       __real@bf800000            1017fe48     Newton.obj
 0002:00001e50       __real@0000000000000000    1017fe50     Newton.obj
 0002:00001e60       __real@3eb0c6f7a0000000    1017fe60     Newton.obj
 0002:00001e70       __real@3ee4f8b580000000    1017fe70     Newton.obj
 0002:00001e7c       __real@58aa87bf            1017fe7c     Newton.obj
 0002:00001e80       __real@3f50624de0000000    1017fe80     Newton.obj
 0002:00001e90       __real@4059000000000000    1017fe90     Newton.obj
 0002:00001ea0       __real@42fc6bf520000000    1017fea0     Newton.obj
 0002:00001eb0       __real@3e45798ee0000000    1017feb0     Newton.obj
 0002:00001ec0       __real@3f91df45c0000000    1017fec0     Newton.obj
 0002:00001ed0       __real@3feff7cee0000000    1017fed0     Newton.obj
 0002:00001ee0       ??_C@_1FC@CDAHNMJI@?$AAc?$AA?3?$AA?2?$AAn?$AAe?$AAw?$AAt?$AAo?$AAn?$AA_?$AA2?$AA0?$AA0?$AA?2?$AA3?$AAd?$AAl?$AAi?$AAb?$AA?2?$AAs?$AAd?$AAk?$AA?2?$AAc?$AAo?$AAr?$AAe?$AAl?$AAi?$AAb?$AA?2@ 1017fee0     Newton.obj
 0002:00001f48       ??_C@_1EK@IMIPNHCJ@?$AA?$CI?$AAd?$AAg?$AAU?$AAn?$AAs?$AAi?$AAg?$AAn?$AAe?$AAd?$AA6?$AA4?$AA?5?$AA?$CI?$AA?$CG?$AAm?$AA_?$AAi?$AAn?$AAf?$AAo?$AA?$CJ?$AA?5?$AA?$CG?$AA?5?$AA0?$AAx?$AA0?$AAf?$AA?$CJ?$AA?5@ 1017ff48     Newton.obj
 0002:00001fa0       ??_C@_1FG@DPADFPDA@?$AAc?$AA?3?$AA?2?$AAn?$AAe?$AAw?$AAt?$AAo?$AAn?$AA_?$AA2?$AA0?$AA0?$AA?2?$AA3?$AAd?$AAl?$AAi?$AAb?$AA?2?$AAs?$AAd?$AAk?$AA?2?$AAc?$AAo?$AAr?$AAe?$AAl?$AAi?$AAb?$AA?2@ 1017ffa0     Newton.obj
 0002:00002008       ??_C@_1DA@JDEKGPJE@?$AAd?$AAg?$AAC?$AAh?$AAe?$AAc?$AAk?$AAV?$AAe?$AAc?$AAt?$AAo?$AAr?$AA?5?$AA?$CI?$AA?$CI?$AA?$CK?$AAt?$AAh?$AAi?$AAs?$AA?$CJ?$AA?$CJ?$AA?$AA@ 10180008     Newton.obj
 0002:00002048       ??_C@_1JK@PNNLFPPH@?$AA?$CI?$AAd?$AAg?$AAA?$AAb?$AAs?$AAf?$AA?5?$AA?$CI?$AAm?$AA_?$AAr?$AAi?$AAg?$AAh?$AAt?$AA?5?$AA?$CF?$AA?5?$AA?$CI?$AAm?$AA_?$AAf?$AAr?$AAo?$AAn?$AAt?$AA?5?$AA?$CK?$AA?5?$AAm?$AA_@ 10180048     Newton.obj
 0002:00002100       ??_C@_1II@JNGBILOA@?$AA?$CI?$AAd?$AAg?$AAA?$AAb?$AAs?$AAf?$AA?5?$AA?$CI?$AAm?$AA_?$AAr?$AAi?$AAg?$AAh?$AAt?$AA?5?$AA?$CF?$AA?5?$AAm?$AA_?$AAr?$AAi?$AAg?$AAh?$AAt?$AA?$CJ?$AA?5?$AA?9?$AA?5?$AAd?$AAg@ 10180100     Newton.obj
 0002:000021a8       ??_C@_1HM@GJAKGBDD@?$AA?$CI?$AAd?$AAg?$AAA?$AAb?$AAs?$AAf?$AA?5?$AA?$CI?$AAm?$AA_?$AAu?$AAp?$AA?5?$AA?$CF?$AA?5?$AAm?$AA_?$AAu?$AAp?$AA?$CJ?$AA?5?$AA?9?$AA?5?$AAd?$AAg?$AAF?$AAl?$AAo?$AAa?$AAt?$AA3@ 101801a8     Newton.obj
 0002:00002240       ??_C@_1FG@EINKGDAC@?$AAc?$AA?3?$AA?2?$AAn?$AAe?$AAw?$AAt?$AAo?$AAn?$AA_?$AA2?$AA0?$AA0?$AA?2?$AA3?$AAd?$AAl?$AAi?$AAb?$AA?2?$AAs?$AAd?$AAk?$AA?2?$AAc?$AAo?$AAr?$AAe?$AAl?$AAi?$AAb?$AA?2@ 10180240     Newton.obj
 0002:000022a8       ??_C@_1II@FFGMHNGG@?$AA?$CI?$AAd?$AAg?$AAA?$AAb?$AAs?$AAf?$AA?5?$AA?$CI?$AAm?$AA_?$AAf?$AAr?$AAo?$AAn?$AAt?$AA?5?$AA?$CF?$AA?5?$AAm?$AA_?$AAf?$AAr?$AAo?$AAn?$AAt?$AA?$CJ?$AA?5?$AA?9?$AA?5?$AAd?$AAg@ 101802a8     Newton.obj
 0002:00002350       __real@3fe276c8c0000000    10180350     Newton.obj
 0002:0000235c       ??_C@_1O@ILILCEBJ@?$AAi?$AA?5?$AA?$DO?$AA?$DN?$AA?5?$AA0?$AA?$AA@ 1018035c     Newton.obj
 0002:0000236c       ??_C@_1M@NEALEACL@?$AAi?$AA?5?$AA?$DM?$AA?5?$AA4?$AA?$AA@ 1018036c     Newton.obj
 0002:00002380       ??_C@_1FM@OAIKGLAI@?$AAc?$AA?3?$AA?2?$AAn?$AAe?$AAw?$AAt?$AAo?$AAn?$AA_?$AA2?$AA0?$AA0?$AA?2?$AA3?$AAd?$AAl?$AAi?$AAb?$AA?2?$AAs?$AAd?$AAk?$AA?2?$AAc?$AAo?$AAr?$AAe?$AAl?$AAi?$AAb?$AA?2@ 10180380     Newton.obj
 0002:000023f0       ??_C@_1DA@PEKPEHMI@?$AAm?$AA_?$AAe?$AAd?$AAg?$AAe?$AAM?$AAa?$AAr?$AAk?$AA?5?$AA?$DM?$AA?5?$AA0?$AAx?$AA7?$AAf?$AAf?$AAf?$AAf?$AAf?$AAf?$AAf?$AA?$AA@ 101803f0     Newton.obj
 0002:00002430       __real@3f947ae140000000    10180430     Newton.obj
 0002:00002440       __real@3f1a36e2e0000000    10180440     Newton.obj
 0002:000033d0       ??_7NewtonUserJoint@@6B@   101813d0     NewtonClass.obj
 0002:0000340c       __real@58635fa9            1018140c     NewtonClass.obj
 0002:00003410       __real@d8635fa9            10181410     NewtonClass.obj
 0002:00003414       __real@ba83126f            10181414     NewtonClass.obj
 0002:00003418       __real@4058c00000000000    10181418     NewtonClass.obj
 0002:00003424       ??_C@_1M@IHBNDPOD@?$AAm?$AA_?$AAp?$AAt?$AAr?$AA?$AA@ 10181424     NewtonClass.obj
 0002:00003438       ??_C@_1HA@CCBMCHMB@?$AAc?$AA?3?$AA?2?$AAn?$AAe?$AAw?$AAt?$AAo?$AAn?$AA_?$AA2?$AA0?$AA0?$AA?2?$AA3?$AAd?$AAl?$AAi?$AAb?$AA?2?$AAs?$AAd?$AAk?$AA?2?$AAp?$AAh?$AAy?$AAs?$AAi?$AAc?$AAs?$AA?2@ 10181438     NewtonClass.obj
 0002:000034c0       ??_C@_13COJANIEC@?$AA0?$AA?$AA@ 101814c0     NewtonClass.obj
 0002:000034c4       ??_C@_0P@GHFPNOJB@bad?5allocation?$AA@ 101814c4     physics:dgWorld.obj
 0002:000034e0       __real@3dcccccd            101814e0     physics:dgWorld.obj
 0002:000034e4       __real@3fb33333            101814e4     physics:dgWorld.obj
 0002:000034e8       __real@3fc00000            101814e8     physics:dgWorld.obj
 0002:000034ec       __real@3c23d70b            101814ec     physics:dgWorld.obj
 0002:000034f0       __real@3e800000            101814f0     physics:dgWorld.obj
 0002:000034f8       ??_7dgCollisionPoint@@6B@  101814f8     physics:dgWorld.obj
 0002:00003574       __real@501502f9            10181574     physics:dgWorld.obj
 0002:00003578       ??_C@_04IABPNMKE@simd?$AA@ 10181578     physics:dgWorld.obj
 0002:00003580       ??_C@_03MKEPLMIM@x87?$AA@  10181580     physics:dgWorld.obj
 0002:00003588       ??_C@_1EK@JJJDNOME@?$AAd?$AAg?$AAB?$AAo?$AAd?$AAy?$AAC?$AAo?$AAl?$AAl?$AAi?$AAs?$AAi?$AAo?$AAn?$AAL?$AAi?$AAs?$AAt?$AA?3?$AA?3?$AAG?$AAe?$AAt?$AAC?$AAo?$AAu?$AAn?$AAt?$AA?$CI?$AA?$CJ?$AA?5@ 10181588     physics:dgWorld.obj
 0002:000035d8       ??_C@_1FC@BAACEGC@?$AAm?$AAe?$AA?4?$AAG?$AAe?$AAt?$AAF?$AAi?$AAr?$AAs?$AAt?$AA?$CI?$AA?$CJ?$AA?9?$AA?$DO?$AAG?$AAe?$AAt?$AAI?$AAn?$AAf?$AAo?$AA?$CI?$AA?$CJ?$AA?4?$AAG?$AAe?$AAt?$AAC?$AAo?$AAu?$AAn@ 101815d8     physics:dgWorld.obj
 0002:00003630       ??_C@_1EC@DHKPNDAL@?$AA?4?$AA?4?$AA?2?$AA?4?$AA?4?$AA?2?$AA?4?$AA?4?$AA?2?$AAs?$AAd?$AAk?$AA?2?$AAp?$AAh?$AAy?$AAs?$AAi?$AAc?$AAs?$AA?2?$AAd?$AAg?$AAW?$AAo?$AAr?$AAl?$AAd?$AA?4?$AAc?$AAp?$AAp@ 10181630     physics:dgWorld.obj
 0002:00003678       ??_C@_1IK@FBKAMGPG@?$AAd?$AAg?$AAB?$AAo?$AAd?$AAy?$AAM?$AAa?$AAs?$AAt?$AAe?$AAr?$AAL?$AAi?$AAs?$AAt?$AA?3?$AA?3?$AAG?$AAe?$AAt?$AAF?$AAi?$AAr?$AAs?$AAt?$AA?$CI?$AA?$CJ?$AA?9?$AA?$DO?$AAG?$AAe@ 10181678     physics:dgWorld.obj
 0002:00003704       __real@58e35fa9            10181704     physics:dgWorld.obj
 0002:00003708       __real@3dd60419            10181708     physics:dgWorld.obj
 0002:00003710       ??_C@_1EC@ICCOIKME@?$AA?$CI?$AAd?$AAg?$AAU?$AAn?$AAs?$AAi?$AAg?$AAn?$AAe?$AAd?$AA6?$AA4?$AA?5?$AA?$CI?$AAb?$AAo?$AAd?$AAy?$AA?$CJ?$AA?5?$AA?$CG?$AA?5?$AA0?$AAx?$AAf?$AA?$CJ?$AA?5?$AA?$DN?$AA?$DN?$AA?5?$AA0@ 10181710     physics:dgWorld.obj
 0002:00003754       ??_C@_1BE@BMACBLPL@?$AAc?$AAo?$AAl?$AAl?$AAi?$AAs?$AAi?$AAo?$AAn?$AA?$AA@ 10181754     physics:dgWorld.obj
 0002:00003768       __real@3ca3d70a            10181768     physics:dgWorld.obj
 0002:0000376c       ??_C@_1CE@OCAGGPEK@?$AAb?$AAo?$AAd?$AAy?$AA?9?$AA?$DO?$AAm?$AA_?$AAc?$AAo?$AAl?$AAl?$AAi?$AAs?$AAi?$AAo?$AAn?$AA?$AA@ 1018176c     physics:dgWorld.obj
 0002:00003790       ??_C@_1CM@OCIJBPJL@?$AAm?$AA_?$AAn?$AAu?$AAm?$AAb?$AAe?$AAr?$AAO?$AAf?$AAT?$AAh?$AAe?$AAa?$AAd?$AAs?$AA?5?$AA?$DO?$AA?$DN?$AA?5?$AA1?$AA?$AA@ 10181790     physics:dgWorld.obj
 0002:000037bc       ??_C@_1CA@FKFNLNJ@?$AAm?$AA_?$AAi?$AAn?$AAU?$AAp?$AAd?$AAa?$AAt?$AAe?$AA?5?$AA?$DN?$AA?$DN?$AA?5?$AA0?$AA?$AA@ 101817bc     physics:dgWorld.obj
 0002:000037dc       ??_C@_1BO@NBLPCMLH@?$AAb?$AAo?$AAd?$AAy?$AA0?$AA?5?$AA?$CB?$AA?$DN?$AA?5?$AAb?$AAo?$AAd?$AAy?$AA1?$AA?$AA@ 101817dc     physics:dgWorld.obj
 0002:000037fc       ??_C@_1M@OIAIJOBD@?$AAb?$AAo?$AAd?$AAy?$AA0?$AA?$AA@ 101817fc     physics:dgWorld.obj
 0002:00003808       ??_C@_19EFPOFDIJ@?$AAb?$AAo?$AAd?$AAy?$AA?$AA@ 10181808     physics:dgWorld.obj
 0002:00003814       ??_C@_1DE@PINLMFAK@?$AAi?$AAn?$AAd?$AAe?$AAx?$AA?5?$AA?$DM?$AA?5?$AAD?$AAG?$AA_?$AAR?$AAE?$AAC?$AAU?$AAR?$AAS?$AAI?$AAV?$AAE?$AA_?$AAS?$AAI?$AAZ?$AAE?$AA?$AA@ 10181814     physics:dgWorld.obj
 0002:00003848       ??_C@_1DA@MHEAPLEG@?$AAb?$AAo?$AAd?$AAy?$AA?5?$AA?$CB?$AA?$DN?$AA?5?$AAm?$AA_?$AAs?$AAe?$AAn?$AAt?$AAi?$AAo?$AAn?$AAe?$AAl?$AAB?$AAo?$AAd?$AAy?$AA?$AA@ 10181848     physics:dgWorld.obj
 0002:00003878       ??_C@_1FC@JBMHHHCK@?$AAc?$AA?3?$AA?2?$AAn?$AAe?$AAw?$AAt?$AAo?$AAn?$AA_?$AA2?$AA0?$AA0?$AA?2?$AA3?$AAd?$AAl?$AAi?$AAb?$AA?2?$AAs?$AAd?$AAk?$AA?2?$AAc?$AAo?$AAr?$AAe?$AAl?$AAi?$AAb?$AA?2@ 10181878     physics:dgWorld.obj
 0002:000038cc       ??_C@_1BK@LKMNECAF@?$AAm?$AA_?$AAc?$AAo?$AAu?$AAn?$AAt?$AA?5?$AA?$DN?$AA?$DN?$AA?5?$AA0?$AA?$AA@ 101818cc     physics:dgWorld.obj
 0002:000038e8       ??_7dgWorkerThread@@6B@    101818e8     physics:dgWorld.obj
 0002:000038f0       ??_C@_1FO@HJAMEBAD@?$AA?4?$AA?4?$AA?2?$AA?4?$AA?4?$AA?2?$AA?4?$AA?4?$AA?2?$AAs?$AAd?$AAk?$AA?2?$AAp?$AAh?$AAy?$AAs?$AAi?$AAc?$AAs?$AA?2?$AAd?$AAg?$AAB?$AAr?$AAo?$AAa?$AAd?$AAP?$AAh?$AAa?$AAs@ 101818f0     physics:dgBroadPhaseCollision.obj
 0002:00003950       ??_C@_1CA@GLNLFIMP@?$AAG?$AAe?$AAt?$AAC?$AAo?$AAu?$AAn?$AAt?$AA?$CI?$AA?$CJ?$AA?5?$AA?$DN?$AA?$DN?$AA?5?$AA0?$AA?$AA@ 10181950     physics:dgBroadPhaseCollision.obj
 0002:00003970       ??_C@_19EFANFLCA@?$AAn?$AAo?$AAd?$AAe?$AA?$AA@ 10181970     physics:dgBroadPhaseCollision.obj
 0002:00003980       ??_C@_1EA@PHHFFPM@?$AAl?$AAi?$AAn?$AAe?$AA?4?$AAm?$AA_?$AAb?$AAo?$AAx?$AAL?$AA0?$AA?$FL?$AAm?$AA_?$AAi?$AAn?$AAd?$AAe?$AAx?$AA?$FN?$AA?5?$AA?$DM?$AA?$DN?$AA?5?$AAm?$AAa?$AAx?$AAV?$AAa?$AAl?$AA?$AA@ 10181980     physics:dgBroadPhaseCollision.obj
 0002:000039c0       ??_C@_1DM@NDMBHPPP@?$AA?$CB?$AAb?$AAo?$AAd?$AAy?$AA?9?$AA?$DO?$AAm?$AA_?$AAc?$AAo?$AAl?$AAl?$AAi?$AAs?$AAi?$AAo?$AAn?$AAC?$AAe?$AAl?$AAl?$AA?4?$AAm?$AA_?$AAc?$AAe?$AAl?$AAl?$AA?$AA@ 101819c0     physics:dgBroadPhaseCollision.obj
 0002:000039fc       ??_C@_1DK@ONJJLKBC@?$AAb?$AAo?$AAd?$AAy?$AA?9?$AA?$DO?$AAm?$AA_?$AAc?$AAo?$AAl?$AAl?$AAi?$AAs?$AAi?$AAo?$AAn?$AAC?$AAe?$AAl?$AAl?$AA?4?$AAm?$AA_?$AAc?$AAe?$AAl?$AAl?$AA?$AA@ 101819fc     physics:dgBroadPhaseCollision.obj
 0002:00003a38       ??_C@_1BK@FBPKPJAG@?$AAm?$AA_?$AAc?$AAo?$AAu?$AAn?$AAt?$AA?5?$AA?$DO?$AA?$DN?$AA?5?$AA0?$AA?$AA@ 10181a38     physics:dgBroadPhaseCollision.obj
 0002:00003a54       ??_C@_1BI@PKPDJDDM@?$AA?$CB?$AAG?$AAe?$AAt?$AAC?$AAo?$AAu?$AAn?$AAt?$AA?$CI?$AA?$CJ?$AA?$AA@ 10181a54     physics:dgBroadPhaseCollision.obj
 0002:00003a6c       __real@447a0000            10181a6c     physics:dgBroadPhaseCollision.obj
 0002:00003a70       __real@c47a0000            10181a70     physics:dgBroadPhaseCollision.obj
 0002:00003a74       ??_7dgBroadPhaseApplyExternalForce@@6B@ 10181a74     physics:dgBroadPhaseCollision.obj
 0002:00003a7c       ??_7dgBroadPhaseCellPairsWorkerThread@@6B@ 10181a7c     physics:dgBroadPhaseCollision.obj
 0002:00003a84       ??_7dgBroadPhaseMaterialCallbackWorkerThread@@6B@ 10181a84     physics:dgBroadPhaseCollision.obj
 0002:00003a8c       ??_7dgBroadPhaseCalculateContactsWorkerThread@@6B@ 10181a8c     physics:dgBroadPhaseCollision.obj
 0002:00003a94       ??_C@_1DM@PJPFHIBL@?$AAm?$AA_?$AAl?$AAa?$AAy?$AAe?$AAr?$AAM?$AAa?$AAp?$AA?$FL?$AAi?$AA?$FN?$AA?4?$AAG?$AAe?$AAt?$AAC?$AAo?$AAu?$AAn?$AAt?$AA?$CI?$AA?$CJ?$AA?5?$AA?$DN?$AA?$DN?$AA?5?$AA0?$AA?$AA@ 10181a94     physics:dgBroadPhaseCollision.obj
 0002:00003ad0       __real@3f000000            10181ad0     physics:dgBroadPhaseCollision.obj
 0002:00003ad4       __real@43000000            10181ad4     physics:dgBroadPhaseCollision.obj
 0002:00003ad8       __real@3f7fbe77            10181ad8     physics:dgBroadPhaseCollision.obj
 0002:00003adc       __real@3c800000            10181adc     physics:dgBroadPhaseCollision.obj
 0002:00003ae0       __real@3f99999a            10181ae0     physics:dgBroadPhaseCollision.obj
 0002:00003ae4       ??_C@_1CM@IIKMBBJF@?$AAi?$AAn?$AAd?$AAe?$AAx?$AA?5?$AA?$DN?$AA?$DN?$AA?5?$AAc?$AAo?$AAn?$AAt?$AAa?$AAc?$AAt?$AAC?$AAo?$AAu?$AAn?$AAt?$AA?$AA@ 10181ae4     physics:dgBroadPhaseCollision.obj
 0002:00003b10       ??_C@_1EM@OLIAFOJM@?$AAb?$AAo?$AAd?$AAy?$AA?9?$AA?$DO?$AAm?$AA_?$AAi?$AAn?$AAv?$AAM?$AAa?$AAs?$AAs?$AA?4?$AAm?$AA_?$AAw?$AA?5?$AA?$DO?$AA?5?$AAd?$AAg?$AAF?$AAl?$AAo?$AAa?$AAt?$AA3?$AA2?$AA?$CI@ 10181b10     physics:dgBroadPhaseCollision.obj
 0002:00003b60       ??_C@_1BJK@BJNAOAON@?$AAb?$AAo?$AAd?$AAy?$AA?9?$AA?$DO?$AAm?$AA_?$AAc?$AAo?$AAl?$AAl?$AAi?$AAs?$AAi?$AAo?$AAn?$AA?9?$AA?$DO?$AAI?$AAs?$AAT?$AAy?$AAp?$AAe?$AA?$CI?$AAd?$AAg?$AAC?$AAo?$AAl?$AAl@ 10181b60     physics:dgBroadPhaseCollision.obj
 0002:00003cfc       __real@38d1b717            10181cfc     physics:dgBroadPhaseCollision.obj
 0002:00003d00       ??_C@_1DG@MDIEFPOL@?$AAc?$AAo?$AAn?$AAt?$AAa?$AAc?$AAt?$AAI?$AAn?$AAd?$AAe?$AAx?$AA?5?$AA?$DM?$AA?5?$AAc?$AAo?$AAn?$AAt?$AAa?$AAc?$AAt?$AAS?$AAi?$AAz?$AAe?$AA?$AA@ 10181d00     physics:dgBroadPhaseCollision.obj
 0002:00003d38       ??_C@_1GI@GIJIHCPK@?$AAp?$AAa?$AAi?$AAr?$AA?4?$AAm?$AA_?$AAc?$AAo?$AAn?$AAt?$AAa?$AAc?$AAt?$AAC?$AAo?$AAu?$AAn?$AAt?$AA?5?$AA?$DM?$AA?$DN?$AA?5?$AA?$CI?$AAD?$AAG?$AA_?$AAC?$AAO?$AAN?$AAS?$AAT@ 10181d38     physics:dgBroadPhaseCollision.obj
 0002:00003da0       ??_C@_1CM@KEMNMPHD@?$AAc?$AAe?$AAl?$AAl?$AA?9?$AA?$DO?$AAm?$AA_?$AAl?$AAa?$AAs?$AAt?$AAS?$AAo?$AAr?$AAt?$AAA?$AAr?$AAr?$AAa?$AAy?$AA?$AA@ 10181da0     physics:dgBroadPhaseCollision.obj
 0002:00003dcc       __real@3f8ccccd            10181dcc     physics:dgBroadPhaseCollision.obj
 0002:00003dd0       __real@322bcc77            10181dd0     physics:dgBroadPhaseCollision.obj
 0002:00003dd4       ??_C@_1BK@MKKPHAPO@?$AAc?$AAe?$AAl?$AAl?$AA?4?$AAm?$AA_?$AAc?$AAo?$AAu?$AAn?$AAt?$AA?$AA@ 10181dd4     physics:dgBroadPhaseCollision.obj
 0002:00003df0       ??_C@_1II@MLILGNIF@?$AAm?$AAa?$AAs?$AAt?$AAe?$AAr?$AAL?$AAi?$AAs?$AAt?$AA?4?$AAG?$AAe?$AAt?$AAF?$AAi?$AAr?$AAs?$AAt?$AA?$CI?$AA?$CJ?$AA?9?$AA?$DO?$AAG?$AAe?$AAt?$AAI?$AAn?$AAf?$AAo?$AA?$CI?$AA?$CJ@ 10181df0     physics:dgBroadPhaseCollision.obj
 0002:00003e78       ??_C@_1BO@IHOIJOM@?$AAS?$AAa?$AAn?$AAi?$AAt?$AAy?$AAC?$AAh?$AAe?$AAc?$AAk?$AA?5?$AA?$CI?$AA?$CJ?$AA?$AA@ 10181e78     physics:dgBroadPhaseCollision.obj
 0002:00003e98       ??_C@_1CC@JGAIKKLL@?$AA?$CB?$AAm?$AA_?$AAf?$AAi?$AAr?$AAs?$AAt?$AA?9?$AA?$DO?$AAm?$AA_?$AAp?$AAr?$AAe?$AAv?$AA?$AA@ 10181e98     physics:dgBroadPhaseCollision.obj
 0002:00003ebc       ??_C@_1BA@DPNDDMAE@?$AAm?$AA_?$AAf?$AAi?$AAr?$AAs?$AAt?$AA?$AA@ 10181ebc     physics:dgBroadPhaseCollision.obj
 0002:00003ecc       ??_C@_1CA@DOMNDHPO@?$AA?$CB?$AAm?$AA_?$AAl?$AAa?$AAs?$AAt?$AA?9?$AA?$DO?$AAm?$AA_?$AAn?$AAe?$AAx?$AAt?$AA?$AA@ 10181ecc     physics:dgBroadPhaseCollision.obj
 0002:00003eec       ??_C@_1O@OFPNLAEI@?$AAm?$AA_?$AAl?$AAa?$AAs?$AAt?$AA?$AA@ 10181eec     physics:dgBroadPhaseCollision.obj
 0002:00003efc       ??_C@_1BK@FGIOLLGP@?$AAn?$AAo?$AAd?$AAe?$AA?5?$AA?$CB?$AA?$DN?$AA?5?$AAr?$AAo?$AAo?$AAt?$AA?$AA@ 10181efc     physics:dgBroadPhaseCollision.obj
 0002:00003f18       ??_C@_19PKPNPKHP@?$AAr?$AAo?$AAo?$AAt?$AA?$AA@ 10181f18     physics:dgBroadPhaseCollision.obj
 0002:00003f28       ??_C@_1EG@BMMEDIOC@?$AAC?$AAo?$AAm?$AAp?$AAa?$AAr?$AAe?$AAK?$AAe?$AAy?$AAs?$AA?5?$AA?$CI?$AAp?$AAt?$AAr?$AA?9?$AA?$DO?$AAm?$AA_?$AAk?$AAe?$AAy?$AA?0?$AA?5?$AAk?$AAe?$AAy?$AA?$CJ?$AA?5?$AA?$DN?$AA?$DN@ 10181f28     physics:dgBroadPhaseCollision.obj
 0002:00003f70       ??_C@_1EG@KEHIFPIH@?$AAC?$AAo?$AAm?$AAp?$AAa?$AAr?$AAe?$AAK?$AAe?$AAy?$AAs?$AA?5?$AA?$CI?$AAp?$AAt?$AAr?$AA?9?$AA?$DO?$AAm?$AA_?$AAk?$AAe?$AAy?$AA?0?$AA?5?$AAk?$AAe?$AAy?$AA?$CJ?$AA?5?$AA?$DN?$AA?$DN@ 10181f70     physics:dgBroadPhaseCollision.obj
 0002:00003fb8       ??_C@_1EI@LDJFLLLF@?$AAC?$AAo?$AAm?$AAp?$AAa?$AAr?$AAe?$AAK?$AAe?$AAy?$AAs?$AA?5?$AA?$CI?$AAp?$AAt?$AAr?$AA?9?$AA?$DO?$AAm?$AA_?$AAk?$AAe?$AAy?$AA?0?$AA?5?$AAk?$AAe?$AAy?$AA?$CJ?$AA?5?$AA?$DN?$AA?$DN@ 10181fb8     physics:dgBroadPhaseCollision.obj
 0002:00004000       ??_C@_1DM@NFANGFEF@?$AA?$CG?$AAr?$AAe?$AAt?$AAn?$AAo?$AAd?$AAe?$AA?9?$AA?$DO?$AAG?$AAe?$AAt?$AAI?$AAn?$AAf?$AAo?$AA?5?$AA?$CI?$AA?$CJ?$AA?5?$AA?$DN?$AA?$DN?$AA?5?$AA?$CG?$AAi?$AAn?$AAf?$AAo?$AA?$AA@ 10182000     physics:dgBroadPhaseCollision.obj
 0002:0000403c       ??_C@_1CK@MKDPNEDG@?$AAr?$AAe?$AAt?$AAn?$AAo?$AAd?$AAe?$AA?9?$AA?$DO?$AAI?$AAs?$AAI?$AAn?$AAT?$AAr?$AAe?$AAe?$AA?5?$AA?$CI?$AA?$CJ?$AA?$AA@ 1018203c     physics:dgBroadPhaseCollision.obj
 0002:00004068       ??_C@_1EG@JEFAAEMN@?$AAn?$AAo?$AAd?$AAe?$AA?9?$AA?$DO?$AAG?$AAe?$AAt?$AAP?$AAr?$AAe?$AAv?$AA?$CI?$AA?$CJ?$AA?5?$AA?$CB?$AA?$DN?$AA?5?$AAn?$AAo?$AAd?$AAe?$AA?9?$AA?$DO?$AAG?$AAe?$AAt?$AAN?$AAe?$AAx?$AAt@ 10182068     physics:dgBroadPhaseCollision.obj
 0002:000040b0       ??_C@_1BI@IFCFADMF@?$AAm?$AA_?$AAa?$AAl?$AAl?$AAo?$AAc?$AAa?$AAt?$AAo?$AAr?$AA?$AA@ 101820b0     physics:dgBroadPhaseCollision.obj
 0002:000040c8       ??_7dgSolverWorlkerThreads@@6B@ 101820c8     physics:dgWorldDynamicUpdate.obj
 0002:000040d0       ??_7dgParallelSolverClear@@6B@ 101820d0     physics:dgWorldDynamicUpdate.obj
 0002:000040d8       ??_7dgParallelSolverBodyInertia@@6B@ 101820d8     physics:dgWorldDynamicUpdate.obj
 0002:000040e0       ??_7dgParallelSolverUpdateVeloc@@6B@ 101820e0     physics:dgWorldDynamicUpdate.obj
 0002:000040e8       ??_7dgParallelSolverUpdateForce@@6B@ 101820e8     physics:dgWorldDynamicUpdate.obj
 0002:000040f0       ??_7dgParallelSolverCalculateForces@@6B@ 101820f0     physics:dgWorldDynamicUpdate.obj
 0002:000040f8       ??_7dgParallelSolverInitInternalForces@@6B@ 101820f8     physics:dgWorldDynamicUpdate.obj
 0002:00004100       ??_7dgParallelSolverBuildJacobianRows@@6B@ 10182100     physics:dgWorldDynamicUpdate.obj
 0002:00004108       ??_7dgParallelSolverJointAcceleration@@6B@ 10182108     physics:dgWorldDynamicUpdate.obj
 0002:00004110       ??_7dgParallelSolverInitFeedbackUpdate@@6B@ 10182110     physics:dgWorldDynamicUpdate.obj
 0002:00004118       ??_7dgParallelSolverBuildJacobianMatrix@@6B@ 10182118     physics:dgWorldDynamicUpdate.obj
 0002:00004120       __real@3d4ccccd            10182120     physics:dgWorldDynamicUpdate.obj
 0002:00004128       ??_C@_1GA@MACEKHJI@?$AA?$CB?$AAm?$AA_?$AAi?$AAs?$AAl?$AAa?$AAn?$AAd?$AAA?$AAr?$AAr?$AAa?$AAy?$AA?$FL?$AAm?$AA_?$AAi?$AAs?$AAl?$AAa?$AAn?$AAd?$AAs?$AA?$FN?$AA?4?$AAm?$AA_?$AAi?$AAs?$AAC?$AAo@ 10182128     physics:dgWorldDynamicUpdate.obj
 0002:00004188       ??_C@_1HI@NNFFOOPN@?$AAn?$AAo?$AAd?$AAe?$AA?9?$AA?$DO?$AAG?$AAe?$AAt?$AAI?$AAn?$AAf?$AAo?$AA?$CI?$AA?$CJ?$AA?4?$AAG?$AAe?$AAt?$AAB?$AAo?$AAd?$AAy?$AA?$CI?$AA?$CJ?$AA?9?$AA?$DO?$AAm?$AA_?$AAi?$AAn?$AAv@ 10182188     physics:dgWorldDynamicUpdate.obj
 0002:00004200       ??_C@_1FM@KCOJDKEJ@?$AA?4?$AA?4?$AA?2?$AA?4?$AA?4?$AA?2?$AA?4?$AA?4?$AA?2?$AAs?$AAd?$AAk?$AA?2?$AAp?$AAh?$AAy?$AAs?$AAi?$AAc?$AAs?$AA?2?$AAd?$AAg?$AAW?$AAo?$AAr?$AAl?$AAd?$AAD?$AAy?$AAn?$AAa@ 10182200     physics:dgWorldDynamicUpdate.obj
 0002:00004260       ??_C@_1HO@PLNBCEKC@?$AAm?$AAe?$AA?4?$AAG?$AAe?$AAt?$AAF?$AAi?$AAr?$AAs?$AAt?$AA?$CI?$AA?$CJ?$AA?9?$AA?$DO?$AAG?$AAe?$AAt?$AAI?$AAn?$AAf?$AAo?$AA?$CI?$AA?$CJ?$AA?4?$AAG?$AAe?$AAt?$AAB?$AAo?$AAd?$AAy@ 10182260     physics:dgWorldDynamicUpdate.obj
 0002:000042e0       ??_C@_1BO@JBEOGDBL@?$AAp?$AAa?$AAi?$AAr?$AA?4?$AAm?$AA_?$AAc?$AAo?$AAn?$AAt?$AAa?$AAc?$AAt?$AA?$AA@ 101822e0     physics:dgWorldDynamicUpdate.obj
 0002:00004300       ??_C@_1CC@NMGBAKDJ@?$AAc?$AAo?$AAn?$AAt?$AAa?$AAc?$AAt?$AA?9?$AA?$DO?$AAm?$AA_?$AAb?$AAo?$AAd?$AAy?$AA1?$AA?$AA@ 10182300     physics:dgWorldDynamicUpdate.obj
 0002:00004324       ??_C@_1CC@GENNGNFM@?$AAc?$AAo?$AAn?$AAt?$AAa?$AAc?$AAt?$AA?9?$AA?$DO?$AAm?$AA_?$AAb?$AAo?$AAd?$AAy?$AA0?$AA?$AA@ 10182324     physics:dgWorldDynamicUpdate.obj
 0002:00004348       __real@40800000            10182348     physics:dgWorldDynamicUpdate.obj
 0002:0000434c       ??_C@_1DA@BOHIOHFH@?$AAd?$AAi?$AAs?$AAt?$AA?5?$AA?$DO?$AA?5?$AAd?$AAg?$AAF?$AAl?$AAo?$AAa?$AAt?$AA3?$AA2?$AA?5?$AA?$CI?$AA0?$AA?4?$AA0?$AAf?$AA?$CJ?$AA?$AA@ 1018234c     physics:dgWorldDynamicUpdate.obj
 0002:00004380       ??_C@_1EI@KEEBECEA@?$AAb?$AAo?$AAd?$AAy?$AA?9?$AA?$DO?$AAm?$AA_?$AAm?$AAa?$AAs?$AAs?$AA?4?$AAm?$AA_?$AAw?$AA?5?$AA?$DO?$AA?5?$AAd?$AAg?$AAF?$AAl?$AAo?$AAa?$AAt?$AA3?$AA2?$AA?5?$AA?$CI?$AA0?$AA?4@ 10182380     physics:dgWorldDynamicUpdate.obj
 0002:000043c8       ??_C@_1FC@PBDLAJMC@?$AA?$CI?$AAd?$AAg?$AAU?$AAn?$AAs?$AAi?$AAg?$AAn?$AAe?$AAd?$AA6?$AA4?$AA?5?$AA?$CI?$AAm?$AA_?$AAb?$AAo?$AAd?$AAy?$AAA?$AAr?$AAr?$AAa?$AAy?$AA?$CJ?$AA?5?$AA?$CG?$AA?5?$AA0?$AAx@ 101823c8     physics:dgWorldDynamicUpdate.obj
 0002:00004420       ??_C@_1FG@NKLDEJCN@?$AA?$CI?$AAd?$AAg?$AAU?$AAn?$AAs?$AAi?$AAg?$AAn?$AAe?$AAd?$AA6?$AA4?$AA?5?$AA?$CI?$AAm?$AA_?$AAi?$AAs?$AAl?$AAa?$AAn?$AAd?$AAA?$AAr?$AAr?$AAa?$AAy?$AA?$CJ?$AA?5?$AA?$CG?$AA?5@ 10182420     physics:dgWorldDynamicUpdate.obj
 0002:00004478       ??_C@_1FM@GMGJJDEK@?$AA?$CI?$AAd?$AAg?$AAU?$AAn?$AAs?$AAi?$AAg?$AAn?$AAe?$AAd?$AA6?$AA4?$AA?$CI?$AAm?$AA_?$AAc?$AAo?$AAn?$AAs?$AAt?$AAr?$AAa?$AAi?$AAn?$AAt?$AAA?$AAr?$AAr?$AAa?$AAy?$AA?$CJ@ 10182478     physics:dgWorldDynamicUpdate.obj
 0002:000044d8       ??_C@_1FC@IOCBOGAA@?$AA?$CI?$AAd?$AAg?$AAU?$AAn?$AAs?$AAi?$AAg?$AAn?$AAe?$AAd?$AA6?$AA4?$AA?$CI?$AAa?$AAc?$AAc?$AAe?$AAl?$AAI?$AAs?$AAM?$AAo?$AAt?$AAo?$AAr?$AA?$CJ?$AA?5?$AA?$CG?$AA?5?$AA0?$AAx@ 101824d8     physics:dgWorldDynamicUpdate.obj
 0002:00004530       ??_C@_1FK@NFABCNJH@?$AA?$CI?$AAd?$AAg?$AAU?$AAn?$AAs?$AAi?$AAg?$AAn?$AAe?$AAd?$AA6?$AA4?$AA?$CI?$AAn?$AAo?$AAr?$AAm?$AAa?$AAl?$AAF?$AAo?$AAr?$AAc?$AAe?$AAI?$AAn?$AAd?$AAe?$AAx?$AA?$CJ?$AA?5@ 10182530     physics:dgWorldDynamicUpdate.obj
 0002:00004590       ??_C@_1FE@HDMNFCD@?$AA?$CI?$AAd?$AAg?$AAU?$AAn?$AAs?$AAi?$AAg?$AAn?$AAe?$AAd?$AA6?$AA4?$AA?$CI?$AAf?$AAo?$AAr?$AAc?$AAe?$AAF?$AAe?$AAe?$AAd?$AAb?$AAa?$AAc?$AAk?$AA?$CJ?$AA?5?$AA?$CG?$AA?5?$AA0@ 10182590     physics:dgWorldDynamicUpdate.obj
 0002:000045e8       ??_C@_1HC@LLELBKDC@?$AA?$CI?$AAd?$AAg?$AAU?$AAn?$AAs?$AAi?$AAg?$AAn?$AAe?$AAd?$AA6?$AA4?$AA?$CI?$AAu?$AAp?$AAp?$AAe?$AAr?$AAB?$AAo?$AAu?$AAn?$AAd?$AAF?$AAr?$AAi?$AAc?$AAt?$AAi?$AAo?$AAn@ 101825e8     physics:dgWorldDynamicUpdate.obj
 0002:00004660       ??_C@_1HC@GBFJHIJK@?$AA?$CI?$AAd?$AAg?$AAU?$AAn?$AAs?$AAi?$AAg?$AAn?$AAe?$AAd?$AA6?$AA4?$AA?$CI?$AAl?$AAo?$AAw?$AAe?$AAr?$AAB?$AAo?$AAu?$AAn?$AAd?$AAF?$AAr?$AAi?$AAc?$AAt?$AAi?$AAo?$AAn@ 10182660     physics:dgWorldDynamicUpdate.obj
 0002:000046d8       ??_C@_1GC@HLCKOBKB@?$AA?$CI?$AAd?$AAg?$AAU?$AAn?$AAs?$AAi?$AAg?$AAn?$AAe?$AAd?$AA6?$AA4?$AA?$CI?$AAp?$AAe?$AAn?$AAe?$AAt?$AAr?$AAa?$AAt?$AAi?$AAo?$AAn?$AAS?$AAt?$AAi?$AAf?$AAf?$AAn?$AAe@ 101826d8     physics:dgWorldDynamicUpdate.obj
 0002:00004740       ??_C@_1FI@PJDHHJIM@?$AA?$CI?$AAd?$AAg?$AAU?$AAn?$AAs?$AAi?$AAg?$AAn?$AAe?$AAd?$AA6?$AA4?$AA?$CI?$AAc?$AAo?$AAo?$AAr?$AAd?$AAe?$AAn?$AAa?$AAt?$AAe?$AAA?$AAc?$AAc?$AAe?$AAl?$AA?$CJ?$AA?5?$AA?$CG@ 10182740     physics:dgWorldDynamicUpdate.obj
 0002:00004798       ??_C@_1FA@HKOLNDGP@?$AA?$CI?$AAd?$AAg?$AAU?$AAn?$AAs?$AAi?$AAg?$AAn?$AAe?$AAd?$AA6?$AA4?$AA?$CI?$AAi?$AAn?$AAv?$AAD?$AAJ?$AAM?$AAi?$AAn?$AAv?$AAJ?$AAt?$AA?$CJ?$AA?5?$AA?$CG?$AA?5?$AA0?$AAx?$AA0@ 10182798     physics:dgWorldDynamicUpdate.obj
 0002:000047e8       ??_C@_1FA@NAGEEDJL@?$AA?$CI?$AAd?$AAg?$AAU?$AAn?$AAs?$AAi?$AAg?$AAn?$AAe?$AAd?$AA6?$AA4?$AA?$CI?$AAr?$AAe?$AAs?$AAt?$AAi?$AAt?$AAu?$AAt?$AAi?$AAo?$AAn?$AA?$CJ?$AA?5?$AA?$CG?$AA?5?$AA0?$AAx?$AA0@ 101827e8     physics:dgWorldDynamicUpdate.obj
 0002:00004838       ??_C@_1FA@OOKELIPG@?$AA?$CI?$AAd?$AAg?$AAU?$AAn?$AAs?$AAi?$AAg?$AAn?$AAe?$AAd?$AA6?$AA4?$AA?$CI?$AAp?$AAe?$AAn?$AAe?$AAt?$AAr?$AAa?$AAt?$AAi?$AAo?$AAn?$AA?$CJ?$AA?5?$AA?$CG?$AA?5?$AA0?$AAx?$AA0@ 10182838     physics:dgWorldDynamicUpdate.obj
 0002:00004888       ??_C@_1EK@FNIAMEON@?$AA?$CI?$AAd?$AAg?$AAU?$AAn?$AAs?$AAi?$AAg?$AAn?$AAe?$AAd?$AA6?$AA4?$AA?$CI?$AAd?$AAi?$AAa?$AAg?$AAD?$AAa?$AAm?$AAp?$AA?$CJ?$AA?5?$AA?$CG?$AA?5?$AA0?$AAx?$AA0?$AAf?$AA?$CJ?$AA?5@ 10182888     physics:dgWorldDynamicUpdate.obj
 0002:000048d8       ??_C@_1EO@CODLCIAH@?$AA?$CI?$AAd?$AAg?$AAU?$AAn?$AAs?$AAi?$AAg?$AAn?$AAe?$AAd?$AA6?$AA4?$AA?$CI?$AAd?$AAe?$AAl?$AAt?$AAa?$AAF?$AAo?$AAr?$AAc?$AAe?$AA?$CJ?$AA?5?$AA?$CG?$AA?5?$AA0?$AAx?$AA0?$AAf@ 101828d8     physics:dgWorldDynamicUpdate.obj
 0002:00004928       ??_C@_1EO@IFCFLNAO@?$AA?$CI?$AAd?$AAg?$AAU?$AAn?$AAs?$AAi?$AAg?$AAn?$AAe?$AAd?$AA6?$AA4?$AA?$CI?$AAd?$AAe?$AAl?$AAt?$AAa?$AAA?$AAc?$AAc?$AAe?$AAl?$AA?$CJ?$AA?5?$AA?$CG?$AA?5?$AA0?$AAx?$AA0?$AAf@ 10182928     physics:dgWorldDynamicUpdate.obj
 0002:00004978       ??_C@_1EE@HFLOCGIE@?$AA?$CI?$AAd?$AAg?$AAU?$AAn?$AAs?$AAi?$AAg?$AAn?$AAe?$AAd?$AA6?$AA4?$AA?$CI?$AAa?$AAc?$AAc?$AAe?$AAl?$AA?$CJ?$AA?5?$AA?$CG?$AA?5?$AA0?$AAx?$AA0?$AAf?$AA?$CJ?$AA?5?$AA?$DN?$AA?$DN?$AA?5@ 10182978     physics:dgWorldDynamicUpdate.obj
 0002:000049c0       ??_C@_1EE@NOKALDIN@?$AA?$CI?$AAd?$AAg?$AAU?$AAn?$AAs?$AAi?$AAg?$AAn?$AAe?$AAd?$AA6?$AA4?$AA?$CI?$AAf?$AAo?$AAr?$AAc?$AAe?$AA?$CJ?$AA?5?$AA?$CG?$AA?5?$AA0?$AAx?$AA0?$AAf?$AA?$CJ?$AA?5?$AA?$DN?$AA?$DN?$AA?5@ 101829c0     physics:dgWorldDynamicUpdate.obj
 0002:00004a08       ??_C@_1EE@FODGDJML@?$AA?$CI?$AAd?$AAg?$AAU?$AAn?$AAs?$AAi?$AAg?$AAn?$AAe?$AAd?$AA6?$AA4?$AA?$CI?$AAJ?$AAM?$AAi?$AAn?$AAv?$AA?$CJ?$AA?5?$AA?$CG?$AA?5?$AA0?$AAx?$AA0?$AAf?$AA?$CJ?$AA?5?$AA?$DN?$AA?$DN?$AA?5@ 10182a08     physics:dgWorldDynamicUpdate.obj
 0002:00004a4c       ??_C@_1DO@OKIJPGOM@?$AA?$CI?$AAd?$AAg?$AAU?$AAn?$AAs?$AAi?$AAg?$AAn?$AAe?$AAd?$AA6?$AA4?$AA?$CI?$AAJ?$AAt?$AA?$CJ?$AA?5?$AA?$CG?$AA?5?$AA0?$AAx?$AA0?$AAf?$AA?$CJ?$AA?5?$AA?$DN?$AA?$DN?$AA?5?$AA0?$AA?$AA@ 10182a4c     physics:dgWorldDynamicUpdate.obj
 0002:00004a90       ??_C@_1FE@NBMMFAIG@?$AA?$CI?$AAd?$AAg?$AAU?$AAn?$AAs?$AAi?$AAg?$AAn?$AAe?$AAd?$AA6?$AA4?$AA?$CI?$AAi?$AAn?$AAt?$AAe?$AAr?$AAn?$AAa?$AAl?$AAV?$AAe?$AAl?$AAo?$AAc?$AA?$CJ?$AA?5?$AA?$CG?$AA?5?$AA0@ 10182a90     physics:dgWorldDynamicUpdate.obj
 0002:00004ae8       ??_C@_1FG@NLEJHBJI@?$AA?$CI?$AAd?$AAg?$AAU?$AAn?$AAs?$AAi?$AAg?$AAn?$AAe?$AAd?$AA6?$AA4?$AA?$CI?$AAi?$AAn?$AAt?$AAe?$AAr?$AAn?$AAa?$AAl?$AAF?$AAo?$AAr?$AAc?$AAe?$AAs?$AA?$CJ?$AA?5?$AA?$CG?$AA?5@ 10182ae8     physics:dgWorldDynamicUpdate.obj
 0002:00004b40       ??_C@_1OO@LIGLDACN@?$AA?$CI?$AA?$CI?$AA?$CI?$AAd?$AAg?$AAI?$AAn?$AAt?$AA8?$AA?5?$AA?$CK?$AA?$CJ?$AA?$CG?$AAt?$AAr?$AAe?$AAa?$AAd?$AAL?$AAo?$AAc?$AAk?$AAs?$AA?$FL?$AAn?$AAe?$AAw?$AAC?$AAo?$AAu?$AAn?$AAt@ 10182b40     physics:dgWorldDynamicUpdate.obj
 0002:00004c30       ??_C@_1CI@OIEHBPCD@?$AAc?$AAo?$AAn?$AAs?$AAt?$AAr?$AAa?$AAi?$AAn?$AAt?$AA?9?$AA?$DO?$AAm?$AA_?$AAb?$AAo?$AAd?$AAy?$AA1?$AA?$AA@ 10182c30     physics:dgWorldDynamicUpdate.obj
 0002:00004c58       ??_C@_1CI@FAPLHIEG@?$AAc?$AAo?$AAn?$AAs?$AAt?$AAr?$AAa?$AAi?$AAn?$AAt?$AA?9?$AA?$DO?$AAm?$AA_?$AAb?$AAo?$AAd?$AAy?$AA0?$AA?$AA@ 10182c58     physics:dgWorldDynamicUpdate.obj
 0002:00004c80       ??_C@_1MO@CFIABINL@?$AA?$CI?$AAc?$AAo?$AAn?$AAs?$AAt?$AAr?$AAa?$AAi?$AAn?$AAt?$AA?9?$AA?$DO?$AAm?$AA_?$AAb?$AAo?$AAd?$AAy?$AA0?$AA?5?$AA?$DN?$AA?$DN?$AA?5?$AAm?$AA_?$AAw?$AAo?$AAr?$AAl?$AAd?$AA?9@ 10182c80     physics:dgWorldDynamicUpdate.obj
 0002:00004d50       ??_C@_1CG@PJILLGLK@?$AAb?$AAo?$AAd?$AAy?$AA?9?$AA?$DO?$AAm?$AA_?$AAm?$AAa?$AAs?$AAt?$AAe?$AAr?$AAN?$AAo?$AAd?$AAe?$AA?$AA@ 10182d50     physics:dgWorldDynamicUpdate.obj
 0002:00004d78       ??_C@_1FC@BNNDKFKK@?$AAd?$AAg?$AAI?$AAn?$AAt?$AA3?$AA2?$AA?5?$AA?$CI?$AAb?$AAo?$AAd?$AAy?$AA?9?$AA?$DO?$AAm?$AA_?$AAd?$AAy?$AAn?$AAa?$AAm?$AAi?$AAc?$AAs?$AAL?$AAr?$AAu?$AA?$CJ?$AA?5?$AA?$DN?$AA?$DN@ 10182d78     physics:dgWorldDynamicUpdate.obj
 0002:00004dd0       ??_C@_1HO@DDICFMNC@?$AAd?$AAg?$AAI?$AAn?$AAt?$AA3?$AA2?$AA?5?$AA?$CI?$AAm?$AA_?$AAw?$AAo?$AAr?$AAl?$AAd?$AA?9?$AA?$DO?$AAm?$AA_?$AAs?$AAe?$AAn?$AAt?$AAi?$AAo?$AAn?$AAe?$AAl?$AAB?$AAo?$AAd@ 10182dd0     physics:dgWorldDynamicUpdate.obj
 0002:00004e50       ??_C@_1EO@KPEFEBLO@?$AAm?$AA_?$AAw?$AAo?$AAr?$AAl?$AAd?$AA?9?$AA?$DO?$AAm?$AA_?$AAs?$AAe?$AAn?$AAt?$AAi?$AAo?$AAn?$AAe?$AAl?$AAB?$AAo?$AAd?$AAy?$AA?9?$AA?$DO?$AAm?$AA_?$AAi?$AAn?$AAd?$AAe@ 10182e50     physics:dgWorldDynamicUpdate.obj
 0002:00004ea0       ??_C@_1BK@JLEADMJE@?$AAh?$AAe?$AAa?$AAv?$AAi?$AAe?$AAs?$AAt?$AAB?$AAo?$AAd?$AAy?$AA?$AA@ 10182ea0     physics:dgWorldDynamicUpdate.obj
 0002:00004ec0       ??_C@_1FG@MENMJKFD@?$AAd?$AAg?$AAI?$AAn?$AAt?$AA3?$AA2?$AA?5?$AA?$CI?$AAb?$AAo?$AAd?$AAy?$AA?9?$AA?$DO?$AAm?$AA_?$AAd?$AAy?$AAn?$AAa?$AAm?$AAi?$AAc?$AAs?$AAL?$AAr?$AAu?$AA?$CJ?$AA?5?$AA?$DN?$AA?$DN@ 10182ec0     physics:dgWorldDynamicUpdate.obj
 0002:00004f18       ??_C@_1GC@OPNEJCKO@?$AAd?$AAg?$AAI?$AAn?$AAt?$AA3?$AA2?$AA?5?$AA?$CI?$AAc?$AAo?$AAn?$AAs?$AAt?$AAr?$AAa?$AAi?$AAn?$AAt?$AA?9?$AA?$DO?$AAm?$AA_?$AAd?$AAy?$AAn?$AAa?$AAm?$AAi?$AAc?$AAs?$AAL@ 10182f18     physics:dgWorldDynamicUpdate.obj
 0002:00004f7c       ??_C@_1DA@EOOLEIEM@?$AAb?$AAo?$AAd?$AAy?$AA?5?$AA?$DN?$AA?$DN?$AA?5?$AAc?$AAe?$AAl?$AAl?$AA?4?$AAm?$AA_?$AAb?$AAo?$AAd?$AAy?$AAN?$AAo?$AAd?$AAe?$AA?$AA@ 10182f7c     physics:dgWorldDynamicUpdate.obj
 0002:00004fac       ??_C@_1CM@LBCGOMJK@?$AAs?$AAr?$AAc?$AAB?$AAo?$AAd?$AAy?$AA?9?$AA?$DO?$AAm?$AA_?$AAm?$AAa?$AAs?$AAt?$AAe?$AAr?$AAN?$AAo?$AAd?$AAe?$AA?$AA@ 10182fac     physics:dgWorldDynamicUpdate.obj
 0002:00004fd8       ??_C@_1FI@PPFGEKKI@?$AAd?$AAg?$AAI?$AAn?$AAt?$AA3?$AA2?$AA?5?$AA?$CI?$AAs?$AAr?$AAc?$AAB?$AAo?$AAd?$AAy?$AA?9?$AA?$DO?$AAm?$AA_?$AAd?$AAy?$AAn?$AAa?$AAm?$AAi?$AAc?$AAs?$AAL?$AAr?$AAu?$AA?$CJ@ 10182fd8     physics:dgWorldDynamicUpdate.obj
 0002:00005030       ??_C@_1FE@KDFNNLGP@?$AAs?$AAr?$AAc?$AAB?$AAo?$AAd?$AAy?$AA?9?$AA?$DO?$AAm?$AA_?$AAi?$AAn?$AAv?$AAM?$AAa?$AAs?$AAs?$AA?4?$AAm?$AA_?$AAw?$AA?5?$AA?$DO?$AA?5?$AAd?$AAg?$AAF?$AAl?$AAo?$AAa?$AAt@ 10183030     physics:dgWorldDynamicUpdate.obj
 0002:00005084       ??_C@_1BA@KHPBLNIB@?$AAs?$AAr?$AAc?$AAB?$AAo?$AAd?$AAy?$AA?$AA@ 10183084     physics:dgWorldDynamicUpdate.obj
 0002:00005094       __real@42700000            10183094     physics:dgWorldDynamicUpdate.obj
 0002:00005098       __real@3f7ff972            10183098     physics:dgWorldDynamicUpdate.obj
 0002:0000509c       __real@3f666666            1018309c     physics:dgWorldDynamicUpdate.obj
 0002:000050a0       ??_C@_1FE@LGCGGBMH@?$AA?$CI?$AAr?$AAo?$AAw?$AAC?$AAo?$AAu?$AAn?$AAt?$AA?5?$AA?$CG?$AA?5?$AA?$CI?$AAD?$AAG?$AA_?$AAS?$AAI?$AAM?$AAD?$AA_?$AAW?$AAO?$AAR?$AAD?$AA_?$AAS?$AAI?$AAZ?$AAE?$AA?5?$AA?9@ 101830a0     physics:dgWorldDynamicUpdate.obj
 0002:000050f8       ??_C@_1HE@PJNFGLMO@?$AAc?$AAo?$AAn?$AAs?$AAt?$AAr?$AAa?$AAi?$AAn?$AAt?$AAP?$AAa?$AAr?$AAa?$AAm?$AAs?$AA?4?$AAm?$AA_?$AAj?$AAo?$AAi?$AAn?$AAt?$AAS?$AAt?$AAi?$AAf?$AAf?$AAn?$AAe?$AAs@ 101830f8     physics:dgWorldDynamicUpdate.obj
 0002:00005170       ??_C@_1HA@PKOCAFKK@?$AAc?$AAo?$AAn?$AAs?$AAt?$AAr?$AAa?$AAi?$AAn?$AAt?$AAP?$AAa?$AAr?$AAa?$AAm?$AAs?$AA?4?$AAm?$AA_?$AAj?$AAo?$AAi?$AAn?$AAt?$AAS?$AAt?$AAi?$AAf?$AAf?$AAn?$AAe?$AAs@ 10183170     physics:dgWorldDynamicUpdate.obj
 0002:000051e0       ??_C@_1FO@BOCJMMGO@?$AAc?$AAo?$AAn?$AAs?$AAt?$AAr?$AAa?$AAi?$AAn?$AAt?$AAP?$AAa?$AAr?$AAa?$AAm?$AAs?$AA?4?$AAm?$AA_?$AAf?$AAo?$AAr?$AAc?$AAe?$AAB?$AAo?$AAu?$AAn?$AAd?$AAs?$AA?$FL?$AAi@ 101831e0     physics:dgWorldDynamicUpdate.obj
 0002:00005240       ??_C@_1EO@JMBCDEMB@?$AAc?$AAo?$AAn?$AAs?$AAt?$AAr?$AAa?$AAi?$AAn?$AAt?$AA?9?$AA?$DO?$AAm?$AA_?$AAi?$AAn?$AAd?$AAe?$AAx?$AA?5?$AA?$DN?$AA?$DN?$AA?5?$AAd?$AAg?$AAU?$AAn?$AAs?$AAi?$AAg?$AAn?$AAe@ 10183240     physics:dgWorldDynamicUpdate.obj
 0002:00005290       ??_C@_1DM@OEHDKDHA@?$AAd?$AAo?$AAf?$AA?5?$AA?$DM?$AA?$DN?$AA?5?$AAD?$AAG?$AA_?$AAC?$AAO?$AAN?$AAS?$AAT?$AAR?$AAA?$AAI?$AAN?$AAT?$AA_?$AAM?$AAA?$AAX?$AA_?$AAR?$AAO?$AAW?$AAS?$AA?$AA@ 10183290     physics:dgWorldDynamicUpdate.obj
 0002:000052cc       ??_C@_1DA@KODFPJGN@?$AAd?$AAi?$AAa?$AAg?$AA?5?$AA?$DO?$AA?5?$AAd?$AAg?$AAF?$AAl?$AAo?$AAa?$AAt?$AA3?$AA2?$AA?5?$AA?$CI?$AA0?$AA?4?$AA0?$AAf?$AA?$CJ?$AA?$AA@ 101832cc     physics:dgWorldDynamicUpdate.obj
 0002:00005300       ??_C@_1EK@GHHCKKMO@?$AAd?$AAi?$AAa?$AAg?$AAD?$AAa?$AAm?$AAp?$AA?$FL?$AAi?$AAn?$AAd?$AAe?$AAx?$AA?$FN?$AA?5?$AA?$DM?$AA?$DN?$AA?5?$AAd?$AAg?$AAF?$AAl?$AAo?$AAa?$AAt?$AA3?$AA2?$AA?$CI?$AA1?$AA0?$AA0@ 10183300     physics:dgWorldDynamicUpdate.obj
 0002:00005350       ??_C@_1EG@MPFCENIH@?$AAd?$AAi?$AAa?$AAg?$AAD?$AAa?$AAm?$AAp?$AA?$FL?$AAi?$AAn?$AAd?$AAe?$AAx?$AA?$FN?$AA?5?$AA?$DO?$AA?$DN?$AA?5?$AAd?$AAg?$AAF?$AAl?$AAo?$AAa?$AAt?$AA3?$AA2?$AA?$CI?$AA0?$AA?4?$AA1@ 10183350     physics:dgWorldDynamicUpdate.obj
 0002:00005398       ??_C@_1FC@HDMNEIPN@?$AAt?$AAm?$AAp?$AAA?$AAc?$AAc?$AAe?$AAl?$AA?4?$AAm?$AA1?$AA2?$AA8?$AA_?$AAf?$AA3?$AA2?$AA?$FL?$AA3?$AA?$FN?$AA?5?$AA?$DN?$AA?$DN?$AA?5?$AAd?$AAg?$AAF?$AAl?$AAo?$AAa?$AAt?$AA3@ 10183398     physics:dgWorldDynamicUpdate.obj
 0002:000053f0       ??_C@_1HK@ECEOPHFK@?$AA?$CI?$AAd?$AAg?$AAU?$AAn?$AAs?$AAi?$AAg?$AAn?$AAe?$AAd?$AA6?$AA4?$AA?5?$AA?$CI?$AA?$CG?$AAb?$AAo?$AAd?$AAy?$AA1?$AA?9?$AA?$DO?$AAm?$AA_?$AAi?$AAn?$AAv?$AAW?$AAo?$AAr?$AAl@ 101833f0     physics:dgWorldDynamicUpdate.obj
 0002:00005470       ??_C@_1HK@ILCPBGBP@?$AA?$CI?$AAd?$AAg?$AAU?$AAn?$AAs?$AAi?$AAg?$AAn?$AAe?$AAd?$AA6?$AA4?$AA?5?$AA?$CI?$AA?$CG?$AAb?$AAo?$AAd?$AAy?$AA0?$AA?9?$AA?$DO?$AAm?$AA_?$AAi?$AAn?$AAv?$AAW?$AAo?$AAr?$AAl@ 10183470     physics:dgWorldDynamicUpdate.obj
 0002:000054ec       ??_C@_1BO@OKOLCLND@?$AAm?$AA1?$AA?5?$AA?$DM?$AA?5?$AAb?$AAo?$AAd?$AAy?$AAC?$AAo?$AAu?$AAn?$AAt?$AA?$AA@ 101834ec     physics:dgWorldDynamicUpdate.obj
 0002:0000550c       ??_C@_1BA@JCNCAMPO@?$AAm?$AA1?$AA?5?$AA?$DO?$AA?$DN?$AA?5?$AA0?$AA?$AA@ 1018350c     physics:dgWorldDynamicUpdate.obj
 0002:0000551c       ??_C@_1BO@OLFONGMO@?$AAm?$AA0?$AA?5?$AA?$DM?$AA?5?$AAb?$AAo?$AAd?$AAy?$AAC?$AAo?$AAu?$AAn?$AAt?$AA?$AA@ 1018351c     physics:dgWorldDynamicUpdate.obj
 0002:0000553c       ??_C@_1BA@PNNONII@?$AAm?$AA0?$AA?5?$AA?$DO?$AA?$DN?$AA?5?$AA0?$AA?$AA@ 1018353c     physics:dgWorldDynamicUpdate.obj
 0002:00005550       ??_C@_1EO@BLOMMCIF@?$AAb?$AAo?$AAd?$AAy?$AA?9?$AA?$DO?$AAm?$AA_?$AAi?$AAn?$AAv?$AAM?$AAa?$AAs?$AAs?$AA?4?$AAm?$AA_?$AAw?$AA?5?$AA?$DO?$AA?5?$AAd?$AAg?$AAF?$AAl?$AAo?$AAa?$AAt?$AA3?$AA2?$AA?5@ 10183550     physics:dgWorldDynamicUpdate.obj
 0002:000055a0       ??_C@_1KE@DLJEBMOD@?$AA?$CI?$AAb?$AAo?$AAd?$AAy?$AAA?$AAr?$AAr?$AAa?$AAy?$AA?$FL?$AA0?$AA?$FN?$AA?4?$AAm?$AA_?$AAb?$AAo?$AAd?$AAy?$AA?9?$AA?$DO?$AAm?$AA_?$AAa?$AAl?$AAp?$AAh?$AAa?$AA?5?$AA?$CF?$AA?5@ 101835a0     physics:dgWorldDynamicUpdate.obj
 0002:00005648       ??_C@_1KE@NPJLDACM@?$AA?$CI?$AAb?$AAo?$AAd?$AAy?$AAA?$AAr?$AAr?$AAa?$AAy?$AA?$FL?$AA0?$AA?$FN?$AA?4?$AAm?$AA_?$AAb?$AAo?$AAd?$AAy?$AA?9?$AA?$DO?$AAm?$AA_?$AAa?$AAc?$AAc?$AAe?$AAl?$AA?5?$AA?$CF?$AA?5@ 10183648     physics:dgWorldDynamicUpdate.obj
 0002:000056ec       ??_C@_1DA@HENMIEMC@?$AAi?$AAs?$AAl?$AAa?$AAn?$AAd?$AA?4?$AAm?$AA_?$AAb?$AAo?$AAd?$AAy?$AAC?$AAo?$AAu?$AAn?$AAt?$AA?5?$AA?$DO?$AA?$DN?$AA?5?$AA2?$AA?$AA@ 101836ec     physics:dgWorldDynamicUpdate.obj
 0002:0000571c       ??_C@_1CE@FDEPKLL@?$AAd?$AAg?$AAC?$AAh?$AAe?$AAc?$AAk?$AAF?$AAl?$AAo?$AAa?$AAt?$AA?$CI?$AAv?$AAa?$AAl?$AA?$CJ?$AA?$AA@ 1018371c     physics:dgWorldDynamicUpdate.obj
 0002:00005740       ??_C@_1O@PJJOBBLK@?$AAi?$AA?5?$AA?$CB?$AA?$DN?$AA?5?$AAj?$AA?$AA@ 10183740     physics:dgWorldDynamicUpdate.obj
 0002:00005750       __real@233877aa            10183750     physics:dgWorldDynamicUpdate.obj
 0002:00005754       ??_C@_1CO@FMKMOHBM@?$AAc?$AAl?$AAa?$AAm?$AAp?$AAe?$AAd?$AAF?$AAo?$AAr?$AAc?$AAe?$AAI?$AAn?$AAd?$AAe?$AAx?$AA?5?$AA?$CB?$AA?$DN?$AA?9?$AA1?$AA?$AA@ 10183754     physics:dgWorldDynamicUpdate.obj
 0002:00005784       __real@40400000            10183784     physics:dgWorldDynamicUpdate.obj
 0002:00005788       ??_C@_1FA@GAIJIFNM@?$AAc?$AAo?$AAn?$AAs?$AAt?$AAr?$AAa?$AAi?$AAn?$AAt?$AAA?$AAr?$AAr?$AAa?$AAy?$AA?$FL?$AA0?$AA?$FN?$AA?4?$AAm?$AA_?$AAa?$AAu?$AAt?$AAo?$AAP?$AAa?$AAi?$AAr?$AAs?$AAt?$AAa@ 10183788     physics:dgWorldDynamicUpdate.obj
 0002:000057d8       __real@a4e69595            101837d8     physics:dgWorldDynamicUpdate.obj
 0002:000057dc       __real@24e69595            101837dc     physics:dgWorldDynamicUpdate.obj
 0002:000057e0       __real@3727c5ac            101837e0     physics:dgWorldDynamicUpdate.obj
 0002:000057e4       ??_C@_1DA@EPCBADKC@?$AAa?$AAk?$AAD?$AAe?$AAn?$AA?5?$AA?$DO?$AA?5?$AAd?$AAg?$AAF?$AAl?$AAo?$AAa?$AAt?$AA3?$AA2?$AA?$CI?$AA0?$AA?4?$AA0?$AAf?$AA?$CJ?$AA?$AA@ 101837e4     physics:dgWorldDynamicUpdate.obj
 0002:00005814       ??_C@_1CO@ELIGDHHP@?$AAd?$AAg?$AAC?$AAh?$AAe?$AAc?$AAk?$AAF?$AAl?$AAo?$AAa?$AAt?$AA?$CI?$AAa?$AAc?$AAc?$AAe?$AAl?$AA?$FL?$AAk?$AA?$FN?$AA?$CJ?$AA?$AA@ 10183814     physics:dgWorldDynamicUpdate.obj
 0002:00005844       ??_C@_1CO@JLBPDGMO@?$AAd?$AAg?$AAC?$AAh?$AAe?$AAc?$AAk?$AAF?$AAl?$AAo?$AAa?$AAt?$AA?$CI?$AAf?$AAo?$AAr?$AAc?$AAe?$AA?$FL?$AAk?$AA?$FN?$AA?$CJ?$AA?$AA@ 10183844     physics:dgWorldDynamicUpdate.obj
 0002:00005878       ??_C@_1EA@IABBDMFB@?$AAa?$AAc?$AAt?$AAi?$AAv?$AAe?$AAR?$AAo?$AAw?$AA?$FL?$AAk?$AA?$FN?$AA?5?$AA?$DO?$AA?5?$AAd?$AAg?$AAF?$AAl?$AAo?$AAa?$AAt?$AA3?$AA2?$AA?5?$AA?$CI?$AA0?$AA?4?$AA0?$AAf?$AA?$CJ?$AA?$AA@ 10183878     physics:dgWorldDynamicUpdate.obj
 0002:000058b8       ??_C@_1EM@CIBAJANJ@?$AAd?$AAg?$AAA?$AAb?$AAs?$AAf?$AA?5?$AA?$CI?$AAa?$AAk?$AAD?$AAe?$AAn?$AA?$CJ?$AA?5?$AA?$DO?$AA?$DN?$AA?5?$AAd?$AAg?$AAF?$AAl?$AAo?$AAa?$AAt?$AA3?$AA2?$AA?$CI?$AA1?$AA?4?$AA0?$AAe@ 101838b8     physics:dgWorldDynamicUpdate.obj
 0002:00005904       ??_C@_1DC@EPPDFABA@?$AAa?$AAk?$AAD?$AAe?$AAn?$AA?5?$AA?$DO?$AA?5?$AAd?$AAg?$AAF?$AAl?$AAo?$AAa?$AAt?$AA3?$AA2?$AA?5?$AA?$CI?$AA0?$AA?4?$AA0?$AAf?$AA?$CJ?$AA?$AA@ 10183904     physics:dgWorldDynamicUpdate.obj
 0002:00005938       ??_C@_1LG@EDCMBOML@?$AA?$CI?$AA?$CI?$AAk?$AA?5?$AA?$DM?$AA0?$AA?$CJ?$AA?5?$AA?$CG?$AA?$CG?$AA?5?$AA?$CI?$AAf?$AAo?$AAr?$AAc?$AAe?$AA?$FL?$AAk?$AA?$FN?$AA?5?$AA?$DN?$AA?$DN?$AA?5?$AAd?$AAg?$AAF?$AAl?$AAo?$AAa?$AAt?$AA3@ 10183938     physics:dgWorldDynamicUpdate.obj
 0002:000059f0       ??_C@_1DE@POBPAAI@?$AAa?$AAk?$AAN?$AAu?$AAm?$AA?5?$AA?$DO?$AA?$DN?$AA?5?$AAd?$AAg?$AAF?$AAl?$AAo?$AAa?$AAt?$AA3?$AA2?$AA?5?$AA?$CI?$AA0?$AA?4?$AA0?$AAf?$AA?$CJ?$AA?$AA@ 101839f0     physics:dgWorldDynamicUpdate.obj
 0002:00005a24       __real@b727c5ac            10183a24     physics:dgWorldDynamicUpdate.obj
 0002:00005a28       ??_C@_1EA@IAIADLFH@?$AAd?$AAg?$AAC?$AAh?$AAe?$AAc?$AAk?$AAF?$AAl?$AAo?$AAa?$AAt?$AA?$CI?$AAd?$AAe?$AAl?$AAt?$AAa?$AAF?$AAo?$AAr?$AAc?$AAe?$AA?$FL?$AAi?$AAn?$AAd?$AAe?$AAx?$AA?$FN?$AA?$CJ?$AA?$AA@ 10183a28     physics:dgWorldDynamicUpdate.obj
 0002:00005a68       ??_C@_1BBG@IHGLHKEM@?$AA?$CI?$AAi?$AA?5?$AA?$CB?$AA?$DN?$AA?5?$AAc?$AAl?$AAa?$AAm?$AAp?$AAe?$AAd?$AAF?$AAo?$AAr?$AAc?$AAe?$AAJ?$AAo?$AAi?$AAn?$AAt?$AA?$CJ?$AA?5?$AA?$HM?$AA?$HM?$AA?5?$AA?$CB?$AA?$CI?$AA?$CI?$AAd@ 10183a68     physics:dgWorldDynamicUpdate.obj
 0002:00005b80       ??_C@_1BBG@LMPKHGHL@?$AA?$CI?$AAi?$AA?5?$AA?$CB?$AA?$DN?$AA?5?$AAc?$AAl?$AAa?$AAm?$AAp?$AAe?$AAd?$AAF?$AAo?$AAr?$AAc?$AAe?$AAJ?$AAo?$AAi?$AAn?$AAt?$AA?$CJ?$AA?5?$AA?$HM?$AA?$HM?$AA?5?$AA?$CB?$AA?$CI?$AA?$CI?$AAd@ 10183b80     physics:dgWorldDynamicUpdate.obj
 0002:00005c98       ??_C@_1CO@IDCCMBOH@?$AAa?$AAk?$AA?5?$AA?$DO?$AA?$DN?$AA?5?$AAd?$AAg?$AAF?$AAl?$AAo?$AAa?$AAt?$AA3?$AA2?$AA?5?$AA?$CI?$AA0?$AA?4?$AA0?$AAf?$AA?$CJ?$AA?$AA@ 10183c98     physics:dgWorldDynamicUpdate.obj
 0002:00005cc8       ??_C@_1LI@BFKOOOMI@?$AA?$CI?$AA?$CI?$AAj?$AA?5?$AA?$DM?$AA?5?$AA0?$AA?$CJ?$AA?5?$AA?$CG?$AA?$CG?$AA?5?$AA?$CI?$AAf?$AAo?$AAr?$AAc?$AAe?$AA?$FL?$AAj?$AA?$FN?$AA?5?$AA?$DN?$AA?$DN?$AA?5?$AAd?$AAg?$AAF?$AAl?$AAo?$AAa?$AAt@ 10183cc8     physics:dgWorldDynamicUpdate.obj
 0002:00005d80       ??_C@_1GC@KHMDPBDC@?$AAa?$AAc?$AAt?$AAi?$AAv?$AAe?$AAR?$AAo?$AAw?$AA?$FL?$AAc?$AAl?$AAa?$AAm?$AAp?$AAe?$AAd?$AAF?$AAo?$AAr?$AAc?$AAe?$AAI?$AAn?$AAd?$AAe?$AAx?$AA?$FN?$AA?5?$AA?$DN?$AA?$DN?$AA?5@ 10183d80     physics:dgWorldDynamicUpdate.obj
 0002:00005de4       ??_C@_1CO@IHCMDHOB@?$AAd?$AAg?$AAC?$AAh?$AAe?$AAc?$AAk?$AAF?$AAl?$AAo?$AAa?$AAt?$AA?$CI?$AAa?$AAc?$AAc?$AAe?$AAl?$AA?$FL?$AAj?$AA?$FN?$AA?$CJ?$AA?$AA@ 10183de4     physics:dgWorldDynamicUpdate.obj
 0002:00005e18       ??_C@_1EA@KKDJAEDD@?$AAa?$AAc?$AAt?$AAi?$AAv?$AAe?$AAR?$AAo?$AAw?$AA?$FL?$AAj?$AA?$FN?$AA?5?$AA?$DO?$AA?5?$AAd?$AAg?$AAF?$AAl?$AAo?$AAa?$AAt?$AA3?$AA2?$AA?5?$AA?$CI?$AA0?$AA?4?$AA0?$AAf?$AA?$CJ?$AA?$AA@ 10183e18     physics:dgWorldDynamicUpdate.obj
 0002:00005e58       ??_C@_1BBI@JNAIJFL@?$AA?$CI?$AA?$CI?$AAf?$AAr?$AAi?$AAc?$AAt?$AAi?$AAo?$AAn?$AAI?$AAn?$AAd?$AAe?$AAx?$AA?5?$AA?$DM?$AA?5?$AA0?$AA?$CJ?$AA?5?$AA?$CG?$AA?$CG?$AA?5?$AA?$CI?$AAf?$AAo?$AAr?$AAc?$AAe?$AA?$FL?$AAf@ 10183e58     physics:dgWorldDynamicUpdate.obj
 0002:00005f70       ??_C@_1GE@GOKLNKJD@?$AAm?$AA_?$AAb?$AAo?$AAd?$AAy?$AAA?$AAr?$AAr?$AAa?$AAy?$AA?$FL?$AA0?$AA?$FN?$AA?4?$AAm?$AA_?$AAb?$AAo?$AAd?$AAy?$AA?5?$AA?$DN?$AA?$DN?$AA?5?$AAm?$AA_?$AAw?$AAo?$AAr?$AAl?$AAd@ 10183f70     physics:dgWorldDynamicUpdate.obj
 0002:00005fd4       ??_C@_1CC@OBEEGFED@?$AAm?$AA1?$AA?5?$AA?$DM?$AA?5?$AAm?$AA_?$AAb?$AAo?$AAd?$AAy?$AAC?$AAo?$AAu?$AAn?$AAt?$AA?$AA@ 10183fd4     physics:dgWorldDynamicUpdate.obj
 0002:00005ff8       ??_C@_1CC@BAJOGAOJ@?$AAm?$AA0?$AA?5?$AA?$DM?$AA?5?$AAm?$AA_?$AAb?$AAo?$AAd?$AAy?$AAC?$AAo?$AAu?$AAn?$AAt?$AA?$AA@ 10183ff8     physics:dgWorldDynamicUpdate.obj
 0002:00006020       ??_C@_1BCA@EGANFMLG@?$AA?$CI?$AA?$CI?$AAf?$AAr?$AAi?$AAc?$AAt?$AAi?$AAo?$AAn?$AAI?$AAn?$AAd?$AAe?$AAx?$AA?5?$AA?$DM?$AA?5?$AA0?$AA?$CJ?$AA?5?$AA?$CG?$AA?$CG?$AA?5?$AA?$CI?$AAm?$AA_?$AAf?$AAo?$AAr?$AAc?$AAe@ 10184020     physics:dgWorldDynamicUpdate.obj
 0002:00006140       ??_C@_1GO@JEMKLGM@?$AAc?$AA?3?$AA?2?$AAn?$AAe?$AAw?$AAt?$AAo?$AAn?$AA_?$AA2?$AA0?$AA0?$AA?2?$AA3?$AAd?$AAl?$AAi?$AAb?$AA?2?$AAs?$AAd?$AAk?$AA?2?$AAp?$AAh?$AAy?$AAs?$AAi?$AAc?$AAs?$AA?2@ 10184140     physics:dgWorldDynamicUpdate.obj
 0002:000061b0       ??_C@_1DI@LDBLCLBK@?$AAm?$AA_?$AAf?$AAi?$AAr?$AAs?$AAt?$AAI?$AAn?$AAd?$AAe?$AAx?$AA?5?$AA?$CB?$AA?$DN?$AA?5?$AAm?$AA_?$AAl?$AAa?$AAs?$AAt?$AAI?$AAn?$AAd?$AAe?$AAx?$AA?$AA@ 101841b0     physics:dgWorldDynamicUpdate.obj
 0002:000061e8       ??_C@_1GC@GFFGBDPB@?$AAc?$AAo?$AAm?$AAp?$AAa?$AAr?$AAe?$AA?5?$AA?$CI?$AA?$CG?$AAa?$AAr?$AAr?$AAa?$AAy?$AA?$FL?$AAi?$AA?$FN?$AA?0?$AA?5?$AA?$CG?$AAa?$AAr?$AAr?$AAa?$AAy?$AA?$FL?$AAi?$AA?5?$AA?$CL?$AA?5?$AA1@ 101841e8     physics:dgWorldDynamicUpdate.obj
 0002:00006250       ??_C@_1FE@EMOMMGB@?$AAc?$AA?3?$AA?2?$AAn?$AAe?$AAw?$AAt?$AAo?$AAn?$AA_?$AA2?$AA0?$AA0?$AA?2?$AA3?$AAd?$AAl?$AAi?$AAb?$AA?2?$AAs?$AAd?$AAk?$AA?2?$AAc?$AAo?$AAr?$AAe?$AAl?$AAi?$AAb?$AA?2@ 10184250     physics:dgWorldDynamicUpdate.obj
 0002:000062a8       ??_C@_1HC@HIOKGLOE@?$AAs?$AAt?$AAa?$AAc?$AAk?$AAI?$AAn?$AAd?$AAe?$AAx?$AA?5?$AA?$DM?$AA?5?$AAs?$AAi?$AAz?$AAe?$AAo?$AAf?$AA?5?$AA?$CI?$AAs?$AAt?$AAa?$AAc?$AAk?$AA?$CJ?$AA?5?$AA?1?$AA?5?$AA?$CI?$AA2@ 101842a8     physics:dgWorldDynamicUpdate.obj
 0002:00006320       ??_C@_1GA@EIHBHMGF@?$AA?4?$AA?4?$AA?2?$AA?4?$AA?4?$AA?2?$AA?4?$AA?4?$AA?2?$AAs?$AAd?$AAk?$AA?2?$AAp?$AAh?$AAy?$AAs?$AAi?$AAc?$AAs?$AA?2?$AAd?$AAg?$AAN?$AAa?$AAr?$AAr?$AAo?$AAw?$AAP?$AAh?$AAa@ 10184320     physics:dgNarrowPhaseCollision.obj
 0002:00006380       ??_C@_1BC@HHAMINCA@?$AAt?$AAh?$AAi?$AAs?$AAN?$AAo?$AAd?$AAe?$AA?$AA@ 10184380     physics:dgNarrowPhaseCollision.obj
 0002:00006394       ??_C@_1DK@EOPAFJHD@?$AAn?$AAo?$AAd?$AAe?$AA?9?$AA?$DO?$AAG?$AAe?$AAt?$AAI?$AAn?$AAf?$AAo?$AA?$CI?$AA?$CJ?$AA?5?$AA?$DN?$AA?$DN?$AA?5?$AAc?$AAo?$AAl?$AAl?$AAi?$AAs?$AAi?$AAo?$AAn?$AA?$AA@ 10184394     physics:dgNarrowPhaseCollision.obj
 0002:000063d0       ??_C@_1HC@OBLHMFHO@?$AAc?$AAo?$AAl?$AAl?$AAi?$AAs?$AAi?$AAo?$AAn?$AA?9?$AA?$DO?$AAI?$AAs?$AAT?$AAy?$AAp?$AAe?$AA?$CI?$AAd?$AAg?$AAC?$AAo?$AAl?$AAl?$AAi?$AAs?$AAi?$AAo?$AAn?$AA?3?$AA?3?$AAd@ 101843d0     physics:dgNarrowPhaseCollision.obj
 0002:00006444       ??_C@_1BM@NIOOJLGL@?$AAj?$AA?5?$AA?$DN?$AA?$DN?$AA?5?$AAm?$AAa?$AAx?$AAC?$AAo?$AAu?$AAn?$AAt?$AA?$AA@ 10184444     physics:dgNarrowPhaseCollision.obj
 0002:00006460       ??_C@_1BO@HAGCCGEI@?$AAc?$AAo?$AAu?$AAn?$AAt?$AAO?$AAv?$AAe?$AAr?$AA?5?$AA?$DO?$AA?$DN?$AA?5?$AA0?$AA?$AA@ 10184460     physics:dgNarrowPhaseCollision.obj
 0002:00006480       ??_C@_1FI@CCHIMPFJ@?$AAc?$AAo?$AAn?$AAt?$AAa?$AAc?$AAt?$AAM?$AAa?$AAt?$AAe?$AAr?$AAi?$AAa?$AAl?$AA?4?$AAm?$AA_?$AAb?$AAo?$AAd?$AAy?$AA1?$AA?5?$AA?$DN?$AA?$DN?$AA?5?$AAc?$AAo?$AAn?$AAt?$AAa@ 10184480     physics:dgNarrowPhaseCollision.obj
 0002:000064d8       ??_C@_1FI@LAOMJAFO@?$AAc?$AAo?$AAn?$AAt?$AAa?$AAc?$AAt?$AAM?$AAa?$AAt?$AAe?$AAr?$AAi?$AAa?$AAl?$AA?4?$AAm?$AA_?$AAb?$AAo?$AAd?$AAy?$AA0?$AA?5?$AA?$DN?$AA?$DN?$AA?5?$AAc?$AAo?$AAn?$AAt?$AAa@ 101844d8     physics:dgNarrowPhaseCollision.obj
 0002:00006530       ??_C@_1DK@NFMIGGKJ@?$AAc?$AAo?$AAn?$AAt?$AAa?$AAc?$AAt?$AAM?$AAa?$AAt?$AAe?$AAr?$AAi?$AAa?$AAl?$AA?4?$AAm?$AA_?$AAc?$AAo?$AAl?$AAl?$AAi?$AAs?$AAi?$AAo?$AAn?$AA1?$AA?$AA@ 10184530     physics:dgNarrowPhaseCollision.obj
 0002:0000656c       ??_C@_1DK@GNHEABMM@?$AAc?$AAo?$AAn?$AAt?$AAa?$AAc?$AAt?$AAM?$AAa?$AAt?$AAe?$AAr?$AAi?$AAa?$AAl?$AA?4?$AAm?$AA_?$AAc?$AAo?$AAl?$AAl?$AAi?$AAs?$AAi?$AAo?$AAn?$AA0?$AA?$AA@ 1018456c     physics:dgNarrowPhaseCollision.obj
 0002:000065a8       ??_C@_1DA@OHMGINNH@?$AAc?$AAo?$AAn?$AAt?$AAa?$AAc?$AAt?$AAM?$AAa?$AAt?$AAe?$AAr?$AAi?$AAa?$AAl?$AA?4?$AAm?$AA_?$AAb?$AAo?$AAd?$AAy?$AA1?$AA?$AA@ 101845a8     physics:dgNarrowPhaseCollision.obj
 0002:000065d8       ??_C@_1DA@FPHKOKLC@?$AAc?$AAo?$AAn?$AAt?$AAa?$AAc?$AAt?$AAM?$AAa?$AAt?$AAe?$AAr?$AAi?$AAa?$AAl?$AA?4?$AAm?$AA_?$AAb?$AAo?$AAd?$AAy?$AA0?$AA?$AA@ 101845d8     physics:dgNarrowPhaseCollision.obj
 0002:00006608       ??_C@_1FE@JMBPPOMA@?$AAd?$AAg?$AAC?$AAh?$AAe?$AAc?$AAk?$AAF?$AAl?$AAo?$AAa?$AAt?$AA?$CI?$AAc?$AAo?$AAn?$AAt?$AAa?$AAc?$AAt?$AAM?$AAa?$AAt?$AAe?$AAr?$AAi?$AAa?$AAl?$AA?4?$AAm?$AA_?$AAp@ 10184608     physics:dgNarrowPhaseCollision.obj
 0002:00006660       ??_C@_1FE@BKILIMGO@?$AAd?$AAg?$AAC?$AAh?$AAe?$AAc?$AAk?$AAF?$AAl?$AAo?$AAa?$AAt?$AA?$CI?$AAc?$AAo?$AAn?$AAt?$AAa?$AAc?$AAt?$AAM?$AAa?$AAt?$AAe?$AAr?$AAi?$AAa?$AAl?$AA?4?$AAm?$AA_?$AAp@ 10184660     physics:dgNarrowPhaseCollision.obj
 0002:000066b8       ??_C@_1FE@NBNHFPML@?$AAd?$AAg?$AAC?$AAh?$AAe?$AAc?$AAk?$AAF?$AAl?$AAo?$AAa?$AAt?$AA?$CI?$AAc?$AAo?$AAn?$AAt?$AAa?$AAc?$AAt?$AAM?$AAa?$AAt?$AAe?$AAr?$AAi?$AAa?$AAl?$AA?4?$AAm?$AA_?$AAp@ 101846b8     physics:dgNarrowPhaseCollision.obj
 0002:00006710       ??_C@_1EK@LLHHHKBH@?$AAc?$AAo?$AAn?$AAt?$AAa?$AAc?$AAt?$AA?9?$AA?$DO?$AAm?$AA_?$AAb?$AAo?$AAd?$AAy?$AA0?$AA?5?$AA?$CB?$AA?$DN?$AA?5?$AAc?$AAo?$AAn?$AAt?$AAa?$AAc?$AAt?$AA?9?$AA?$DO?$AAm?$AA_?$AAb@ 10184710     physics:dgNarrowPhaseCollision.obj
 0002:00006760       ??_C@_1EO@EGCJOACM@?$AAc?$AAo?$AAn?$AAt?$AAa?$AAc?$AAt?$AA?9?$AA?$DO?$AAm?$AA_?$AAm?$AAy?$AAC?$AAa?$AAc?$AAh?$AAe?$AAM?$AAa?$AAt?$AAe?$AAr?$AAi?$AAa?$AAl?$AA?5?$AA?$DN?$AA?$DN?$AA?5?$AAm?$AAa@ 10184760     physics:dgNarrowPhaseCollision.obj
 0002:000067b0       ??_C@_1DG@BAIGFKMA@?$AAc?$AAo?$AAn?$AAt?$AAa?$AAc?$AAt?$AA?9?$AA?$DO?$AAm?$AA_?$AAm?$AAy?$AAC?$AAa?$AAc?$AAh?$AAe?$AAM?$AAa?$AAt?$AAe?$AAr?$AAi?$AAa?$AAl?$AA?$AA@ 101847b0     physics:dgNarrowPhaseCollision.obj
 0002:000067e8       ??_C@_1BA@JBDJMGOO@?$AAc?$AAo?$AAn?$AAt?$AAa?$AAc?$AAt?$AA?$AA@ 101847e8     physics:dgNarrowPhaseCollision.obj
 0002:000067f8       ??_C@_1DE@NABCEGKL@?$AAc?$AAo?$AAn?$AAt?$AAa?$AAc?$AAt?$AA?9?$AA?$DO?$AAm?$AA_?$AAb?$AAo?$AAd?$AAy?$AA1?$AA?5?$AA?$DN?$AA?$DN?$AA?5?$AAb?$AAo?$AAd?$AAy?$AA1?$AA?$AA@ 101847f8     physics:dgNarrowPhaseCollision.obj
 0002:0000682c       ??_C@_1DE@HPIGEFAO@?$AAc?$AAo?$AAn?$AAt?$AAa?$AAc?$AAt?$AA?9?$AA?$DO?$AAm?$AA_?$AAb?$AAo?$AAd?$AAy?$AA0?$AA?5?$AA?$DN?$AA?$DN?$AA?5?$AAb?$AAo?$AAd?$AAy?$AA0?$AA?$AA@ 1018482c     physics:dgNarrowPhaseCollision.obj
 0002:00006860       ??_C@_1M@FALEPJHG@?$AAb?$AAo?$AAd?$AAy?$AA1?$AA?$AA@ 10184860     physics:dgNarrowPhaseCollision.obj
 0002:0000686c       ??_C@_1DM@ECGDKDOL@?$AAc?$AAo?$AAn?$AAt?$AAa?$AAc?$AAt?$AA1?$AA?9?$AA?$DO?$AAG?$AAe?$AAt?$AAB?$AAo?$AAd?$AAy?$AA0?$AA?$CI?$AA?$CJ?$AA?5?$AA?$DN?$AA?$DN?$AA?5?$AAb?$AAo?$AAd?$AAy?$AA1?$AA?$AA@ 1018486c     physics:dgNarrowPhaseCollision.obj
 0002:000068a8       ??_C@_1DM@BNMCGCBJ@?$AAc?$AAo?$AAn?$AAt?$AAa?$AAc?$AAt?$AA1?$AA?9?$AA?$DO?$AAG?$AAe?$AAt?$AAB?$AAo?$AAd?$AAy?$AA1?$AA?$CI?$AA?$CJ?$AA?5?$AA?$DN?$AA?$DN?$AA?5?$AAb?$AAo?$AAd?$AAy?$AA0?$AA?$AA@ 101848a8     physics:dgNarrowPhaseCollision.obj
 0002:000068e8       ??_C@_1BAC@PODLHCIA@?$AAd?$AAg?$AAA?$AAb?$AAs?$AAf?$AA?$CI?$AA?$CI?$AAc?$AAo?$AAn?$AAt?$AAa?$AAc?$AAt?$AAM?$AAa?$AAt?$AAe?$AAr?$AAi?$AAa?$AAl?$AA?9?$AA?$DO?$AAm?$AA_?$AAd?$AAi?$AAr?$AA0?$AA?5@ 101848e8     physics:dgNarrowPhaseCollision.obj
 0002:000069f0       ??_C@_1JA@KNFIFNBN@?$AAc?$AAo?$AAn?$AAt?$AAa?$AAc?$AAt?$AAM?$AAa?$AAt?$AAe?$AAr?$AAi?$AAa?$AAl?$AA?9?$AA?$DO?$AAm?$AA_?$AAd?$AAi?$AAr?$AA0?$AA?5?$AA?$CF?$AA?5?$AAc?$AAo?$AAn?$AAt?$AAa?$AAc@ 101849f0     physics:dgNarrowPhaseCollision.obj
 0002:00006a80       __real@3f7fdf3b            10184a80     physics:dgNarrowPhaseCollision.obj
 0002:00006a88       ??_C@_1NC@IBAMDNBP@?$AA?$CI?$AAd?$AAg?$AAA?$AAb?$AAs?$AAf?$AA?$CI?$AAc?$AAo?$AAn?$AAt?$AAa?$AAc?$AAt?$AAM?$AAa?$AAt?$AAe?$AAr?$AAi?$AAa?$AAl?$AA?9?$AA?$DO?$AAm?$AA_?$AAn?$AAo?$AAr?$AAm?$AAa@ 10184a88     physics:dgNarrowPhaseCollision.obj
 0002:00006b60       ??_C@_1EC@EAJOHEOF@?$AAc?$AAo?$AAn?$AAt?$AAa?$AAc?$AAt?$AAA?$AAr?$AAr?$AAa?$AAy?$AA?$FL?$AAi?$AA?$FN?$AA?4?$AAm?$AA_?$AAb?$AAo?$AAd?$AAy?$AA1?$AA?5?$AA?$DN?$AA?$DN?$AA?5?$AAb?$AAo?$AAd?$AAy?$AA1@ 10184b60     physics:dgNarrowPhaseCollision.obj
 0002:00006ba8       ??_C@_1EC@OPAKHHEA@?$AAc?$AAo?$AAn?$AAt?$AAa?$AAc?$AAt?$AAA?$AAr?$AAr?$AAa?$AAy?$AA?$FL?$AAi?$AA?$FN?$AA?4?$AAm?$AA_?$AAb?$AAo?$AAd?$AAy?$AA0?$AA?5?$AA?$DN?$AA?$DN?$AA?5?$AAb?$AAo?$AAd?$AAy?$AA0@ 10184ba8     physics:dgNarrowPhaseCollision.obj
 0002:00006bec       ??_C@_1DK@KPECONDF@?$AAc?$AAo?$AAn?$AAt?$AAa?$AAc?$AAt?$AAA?$AAr?$AAr?$AAa?$AAy?$AA?$FL?$AAi?$AA?$FN?$AA?4?$AAm?$AA_?$AAc?$AAo?$AAl?$AAl?$AAi?$AAs?$AAi?$AAo?$AAn?$AA1?$AA?$AA@ 10184bec     physics:dgNarrowPhaseCollision.obj
 0002:00006c28       ??_C@_1DK@BHPOIKFA@?$AAc?$AAo?$AAn?$AAt?$AAa?$AAc?$AAt?$AAA?$AAr?$AAr?$AAa?$AAy?$AA?$FL?$AAi?$AA?$FN?$AA?4?$AAm?$AA_?$AAc?$AAo?$AAl?$AAl?$AAi?$AAs?$AAi?$AAo?$AAn?$AA0?$AA?$AA@ 10184c28     physics:dgNarrowPhaseCollision.obj
 0002:00006c64       ??_C@_1DA@IJJPFII@?$AAc?$AAo?$AAn?$AAt?$AAa?$AAc?$AAt?$AAA?$AAr?$AAr?$AAa?$AAy?$AA?$FL?$AAi?$AA?$FN?$AA?4?$AAm?$AA_?$AAb?$AAo?$AAd?$AAy?$AA1?$AA?$AA@ 10184c64     physics:dgNarrowPhaseCollision.obj
 0002:00006c94       ??_C@_1DA@LACFJCON@?$AAc?$AAo?$AAn?$AAt?$AAa?$AAc?$AAt?$AAA?$AAr?$AAr?$AAa?$AAy?$AA?$FL?$AAi?$AA?$FN?$AA?4?$AAm?$AA_?$AAb?$AAo?$AAd?$AAy?$AA0?$AA?$AA@ 10184c94     physics:dgNarrowPhaseCollision.obj
 0002:00006cc8       ??_C@_1FE@OGJFHFFM@?$AAd?$AAg?$AAC?$AAh?$AAe?$AAc?$AAk?$AAF?$AAl?$AAo?$AAa?$AAt?$AA?$CI?$AAc?$AAo?$AAn?$AAt?$AAa?$AAc?$AAt?$AAA?$AAr?$AAr?$AAa?$AAy?$AA?$FL?$AAi?$AA?$FN?$AA?4?$AAm?$AA_?$AAp@ 10184cc8     physics:dgNarrowPhaseCollision.obj
 0002:00006d20       ??_C@_1FE@GAABAHPC@?$AAd?$AAg?$AAC?$AAh?$AAe?$AAc?$AAk?$AAF?$AAl?$AAo?$AAa?$AAt?$AA?$CI?$AAc?$AAo?$AAn?$AAt?$AAa?$AAc?$AAt?$AAA?$AAr?$AAr?$AAa?$AAy?$AA?$FL?$AAi?$AA?$FN?$AA?4?$AAm?$AA_?$AAp@ 10184d20     physics:dgNarrowPhaseCollision.obj
 0002:00006d78       ??_C@_1FE@KLFNNEFH@?$AAd?$AAg?$AAC?$AAh?$AAe?$AAc?$AAk?$AAF?$AAl?$AAo?$AAa?$AAt?$AA?$CI?$AAc?$AAo?$AAn?$AAt?$AAa?$AAc?$AAt?$AAA?$AAr?$AAr?$AAa?$AAy?$AA?$FL?$AAi?$AA?$FN?$AA?4?$AAm?$AA_?$AAp@ 10184d78     physics:dgNarrowPhaseCollision.obj
 0002:00006dcc       ??_C@_1BI@EJPMDGBF@?$AAi?$AAn?$AAd?$AAe?$AAx?$AA?5?$AA?$CB?$AA?$DN?$AA?5?$AA?9?$AA1?$AA?$AA@ 10184dcc     physics:dgNarrowPhaseCollision.obj
 0002:00006de4       __real@60ad78ec            10184de4     physics:dgNarrowPhaseCollision.obj
 0002:00006de8       ??_C@_1LK@ILOPNGGH@?$AAd?$AAg?$AAA?$AAb?$AAs?$AAf?$AA?$CI?$AA?$CI?$AAc?$AAo?$AAn?$AAt?$AAr?$AAo?$AAl?$AAD?$AAi?$AAr?$AA0?$AA?5?$AA?$CK?$AA?5?$AAc?$AAo?$AAn?$AAt?$AAr?$AAo?$AAl?$AAD?$AAi?$AAr@ 10184de8     physics:dgNarrowPhaseCollision.obj
 0002:00006ea8       ??_C@_1GA@BGNKBJAC@?$AAc?$AAo?$AAn?$AAt?$AAr?$AAo?$AAl?$AAD?$AAi?$AAr?$AA0?$AA?5?$AA?$CF?$AA?5?$AAc?$AAo?$AAn?$AAt?$AAr?$AAo?$AAl?$AAD?$AAi?$AAr?$AA0?$AA?5?$AA?$DO?$AA?5?$AAd?$AAg?$AAF?$AAl@ 10184ea8     physics:dgNarrowPhaseCollision.obj
 0002:00006f08       __real@3f13b646            10184f08     physics:dgNarrowPhaseCollision.obj
 0002:00006f0c       __real@358637be            10184f0c     physics:dgNarrowPhaseCollision.obj
 0002:00006f10       ??_C@_1JG@DMDHGNLH@?$AA?$CI?$AAc?$AAo?$AAn?$AAt?$AAa?$AAc?$AAt?$AA?9?$AA?$DO?$AAG?$AAe?$AAt?$AAB?$AAo?$AAd?$AAy?$AA0?$AA?$CI?$AA?$CJ?$AA?5?$AA?$DN?$AA?$DN?$AA?5?$AAc?$AAo?$AAn?$AAv?$AAe?$AAx?$AAB?$AAo@ 10184f10     physics:dgNarrowPhaseCollision.obj
 0002:00006fa8       ??_C@_1JC@MDOOCNNH@?$AA?$CI?$AAc?$AAo?$AAn?$AAt?$AAa?$AAc?$AAt?$AA?9?$AA?$DO?$AAG?$AAe?$AAt?$AAB?$AAo?$AAd?$AAy?$AA0?$AA?$CI?$AA?$CJ?$AA?5?$AA?$DN?$AA?$DN?$AA?5?$AAo?$AAt?$AAh?$AAe?$AAr?$AAB?$AAo?$AAd@ 10184fa8     physics:dgNarrowPhaseCollision.obj
 0002:00007040       ??_C@_1GO@OEDFKMFL@?$AAc?$AAo?$AAn?$AAt?$AAa?$AAc?$AAt?$AA?5?$AA?$CG?$AA?$CG?$AA?5?$AA?$CI?$AAc?$AAo?$AAn?$AAt?$AAa?$AAc?$AAt?$AA?9?$AA?$DO?$AAG?$AAe?$AAt?$AAI?$AAd?$AA?$CI?$AA?$CJ?$AA?5?$AA?$DN?$AA?$DN?$AA?5@ 10185040     physics:dgNarrowPhaseCollision.obj
 0002:000070b0       ??_C@_1JC@NOABOKBA@?$AAp?$AAa?$AAi?$AAr?$AA?9?$AA?$DO?$AAm?$AA_?$AAb?$AAo?$AAd?$AAy?$AA1?$AA?9?$AA?$DO?$AAm?$AA_?$AAc?$AAo?$AAl?$AAl?$AAi?$AAs?$AAi?$AAo?$AAn?$AA?9?$AA?$DO?$AAI?$AAs?$AAT?$AAy@ 101850b0     physics:dgNarrowPhaseCollision.obj
 0002:00007148       ??_C@_1JC@ELFCFCGO@?$AAp?$AAa?$AAi?$AAr?$AA?9?$AA?$DO?$AAm?$AA_?$AAb?$AAo?$AAd?$AAy?$AA0?$AA?9?$AA?$DO?$AAm?$AA_?$AAc?$AAo?$AAl?$AAl?$AAi?$AAs?$AAi?$AAo?$AAn?$AA?9?$AA?$DO?$AAI?$AAs?$AAT?$AAy@ 10185148     physics:dgNarrowPhaseCollision.obj
 0002:000071e0       ??_C@_1IK@JHFEFMEK@?$AAo?$AAt?$AAh?$AAe?$AAr?$AAB?$AAo?$AAd?$AAy?$AA?9?$AA?$DO?$AAm?$AA_?$AAc?$AAo?$AAl?$AAl?$AAi?$AAs?$AAi?$AAo?$AAn?$AA?9?$AA?$DO?$AAI?$AAs?$AAT?$AAy?$AAp?$AAe?$AA?5?$AA?$CI@ 101851e0     physics:dgNarrowPhaseCollision.obj
 0002:00007270       ??_C@_1IM@KNDBJEME@?$AAc?$AAo?$AAn?$AAv?$AAe?$AAx?$AAB?$AAo?$AAd?$AAy?$AA?9?$AA?$DO?$AAm?$AA_?$AAc?$AAo?$AAl?$AAl?$AAi?$AAs?$AAi?$AAo?$AAn?$AA?9?$AA?$DO?$AAI?$AAs?$AAT?$AAy?$AAp?$AAe?$AA?5@ 10185270     physics:dgNarrowPhaseCollision.obj
 0002:000072fc       __real@358637bd            101852fc     physics:dgNarrowPhaseCollision.obj
 0002:00007300       ??_C@_1JE@HNJGLOHL@?$AAp?$AAa?$AAi?$AAr?$AA?9?$AA?$DO?$AAm?$AA_?$AAb?$AAo?$AAd?$AAy?$AA1?$AA?9?$AA?$DO?$AAG?$AAe?$AAt?$AAC?$AAo?$AAl?$AAl?$AAi?$AAs?$AAi?$AAo?$AAn?$AA?$CI?$AA?$CJ?$AA?9?$AA?$DO?$AAI@ 10185300     physics:dgNarrowPhaseCollision.obj
 0002:00007398       ??_C@_1GE@IKCOFHOD@?$AAs?$AAc?$AAe?$AAn?$AAe?$AA?9?$AA?$DO?$AAI?$AAs?$AAT?$AAy?$AAp?$AAe?$AA?$CI?$AAd?$AAg?$AAC?$AAo?$AAl?$AAl?$AAi?$AAs?$AAi?$AAo?$AAn?$AA?3?$AA?3?$AAd?$AAg?$AAC?$AAo?$AAl@ 10185398     physics:dgNarrowPhaseCollision.obj
 0002:00007400       ??_C@_1GI@PPEODKDJ@?$AA?$CI?$AAe?$AAn?$AAt?$AAr?$AAy?$AA?5?$AA?$DM?$AA?5?$AAm?$AA_?$AAs?$AAi?$AAz?$AAe?$AA?$CJ?$AA?5?$AA?$HM?$AA?$HM?$AA?5?$AA?$CI?$AA?$CI?$AAm?$AA_?$AAs?$AAi?$AAz?$AAe?$AA?5?$AA?$DN?$AA?$DN?$AA?5@ 10185400     physics:dgNarrowPhaseCollision.obj
 0002:00007468       ??_C@_1FE@HLDALPAF@?$AAc?$AA?3?$AA?2?$AAn?$AAe?$AAw?$AAt?$AAo?$AAn?$AA_?$AA2?$AA0?$AA0?$AA?2?$AA3?$AAd?$AAl?$AAi?$AAb?$AA?2?$AAs?$AAd?$AAk?$AA?2?$AAc?$AAo?$AAr?$AAe?$AAl?$AAi?$AAb?$AA?2@ 10185468     physics:dgNarrowPhaseCollision.obj
 0002:000074bc       ??_C@_1BG@DBAJPINI@?$AAe?$AAn?$AAt?$AAr?$AAy?$AA?5?$AA?$DO?$AA?$DN?$AA?5?$AA0?$AA?$AA@ 101854bc     physics:dgNarrowPhaseCollision.obj
 0002:000074d4       ??_7dgMeshEffect@@6BdgRefCounter@@@ 101854d4     physics:dgMeshEffect.obj
 0002:000074d8       ??_7dgMeshEffect@@6BdgPolyhedra@@@ 101854d8     physics:dgMeshEffect.obj
 0002:000074e0       ??_C@_1EM@GGCFLOGM@?$AA?4?$AA?4?$AA?2?$AA?4?$AA?4?$AA?2?$AA?4?$AA?4?$AA?2?$AAs?$AAd?$AAk?$AA?2?$AAp?$AAh?$AAy?$AAs?$AAi?$AAc?$AAs?$AA?2?$AAd?$AAg?$AAM?$AAe?$AAs?$AAh?$AAE?$AAf?$AAf?$AAe?$AAc@ 101854e0     physics:dgMeshEffect.obj
 0002:0000752c       __real@3f490ff9            1018552c     physics:dgMeshEffect.obj
 0002:00007530       ??_C@_1DK@LCGJEALI@?$AAl?$AAe?$AAf?$AAt?$AAO?$AAv?$AAe?$AAr?$AAs?$AAO?$AAu?$AAt?$AA?4?$AAG?$AAe?$AAt?$AAC?$AAo?$AAu?$AAn?$AAt?$AA?$CI?$AA?$CJ?$AA?5?$AA?$DN?$AA?$DN?$AA?5?$AA0?$AA?$AA@ 10185530     physics:dgMeshEffect.obj
 0002:0000756c       ??_C@_1CK@IIMFGCAP@?$AAi?$AAn?$AAd?$AAe?$AAx?$AA?5?$AA?$DM?$AA?5?$AAm?$AA_?$AAa?$AAt?$AAr?$AAi?$AAb?$AAC?$AAo?$AAu?$AAn?$AAt?$AA?$AA@ 1018556c     physics:dgMeshEffect.obj
 0002:00007598       ??_C@_1BE@IJOJNKEB@?$AAi?$AAn?$AAd?$AAe?$AAx?$AA?5?$AA?$DO?$AA?$DN?$AA0?$AA?$AA@ 10185598     physics:dgMeshEffect.obj
 0002:000075ac       __real@3f19999a            101855ac     physics:dgMeshEffect.obj
 0002:000075b0       __real@3e22f986            101855b0     physics:dgMeshEffect.obj
 0002:000075b4       __real@3fc90fd8            101855b4     physics:dgMeshEffect.obj
 0002:000075b8       __real@bf7ff972            101855b8     physics:dgMeshEffect.obj
 0002:000075bc       __real@40c90fd8            101855bc     physics:dgMeshEffect.obj
 0002:000075c0       __real@3f7d70a4            101855c0     physics:dgMeshEffect.obj
 0002:000075c4       __real@d01502f9            101855c4     physics:dgMeshEffect.obj
 0002:000075c8       __real@3089705f            101855c8     physics:dgMeshEffect.obj
 0002:000075cc       ??_C@_19GGBDMOCP@?$AAe?$AAd?$AAg?$AAe?$AA?$AA@ 101855cc     physics:dgMeshEffect.obj
 0002:000075d8       ??_C@_1EM@KBBPACIM@?$AA?$CI?$AAm?$AA_?$AAp?$AAo?$AAi?$AAn?$AAt?$AAC?$AAo?$AAu?$AAn?$AAt?$AA?5?$AA?$CL?$AA?5?$AA3?$AA?$CJ?$AA?5?$AA?$DM?$AA?$DN?$AA?5?$AAm?$AA_?$AAm?$AAa?$AAx?$AAP?$AAo?$AAi?$AAn?$AAt@ 101855d8     physics:dgMeshEffect.obj
 0002:00007628       ??_C@_1FA@CLHGDIMC@?$AAm?$AAa?$AAg?$AA2?$AA?5?$AA?$DO?$AA?5?$AAD?$AAG?$AA_?$AAM?$AAE?$AAS?$AAH?$AA_?$AAE?$AAF?$AAF?$AAE?$AAC?$AAT?$AA_?$AAT?$AAR?$AAI?$AAA?$AAN?$AAG?$AAL?$AAE?$AA_?$AAM@ 10185628     physics:dgMeshEffect.obj
 0002:00007678       ??_C@_1GA@HCFHLFGE@?$AAi?$AAn?$AAd?$AAe?$AAx?$AAC?$AAo?$AAu?$AAn?$AAt?$AA?5?$AA?$DM?$AA?5?$AAs?$AAi?$AAz?$AAe?$AAo?$AAf?$AA?5?$AA?$CI?$AAi?$AAn?$AAd?$AAe?$AAx?$AA?$CJ?$AA?5?$AA?1?$AA?5?$AAs?$AAi@ 10185678     physics:dgMeshEffect.obj
 0002:000076d8       ??_C@_1EE@GCJOCHLI@?$AA?$CI?$AAe?$AAd?$AAg?$AAe?$AA?5?$AA?$CG?$AA?$CG?$AA?5?$AAt?$AAw?$AAi?$AAn?$AA?$CJ?$AA?5?$AA?$HM?$AA?$HM?$AA?5?$AA?$CB?$AA?$CI?$AAe?$AAd?$AAg?$AAe?$AA?5?$AA?$HM?$AA?$HM?$AA?5?$AAt?$AAw?$AAi?$AAn@ 101856d8     physics:dgMeshEffect.obj
 0002:0000771c       ??_C@_1CM@HNBEGNNC@?$AAt?$AA1?$AA?5?$AA?$DM?$AA?$DN?$AA?5?$AAd?$AAg?$AAF?$AAl?$AAo?$AAa?$AAt?$AA3?$AA2?$AA?$CI?$AA1?$AA?4?$AA0?$AAf?$AA?$CJ?$AA?$AA@ 1018571c     physics:dgMeshEffect.obj
 0002:00007748       ??_C@_1CM@CGNBNMDI@?$AAt?$AA1?$AA?5?$AA?$DO?$AA?$DN?$AA?5?$AAd?$AAg?$AAF?$AAl?$AAo?$AAa?$AAt?$AA3?$AA2?$AA?$CI?$AA0?$AA?4?$AA0?$AAf?$AA?$CJ?$AA?$AA@ 10185748     physics:dgMeshEffect.obj
 0002:00007774       __real@26901d7d            10185774     physics:dgMeshEffect.obj
 0002:00007778       ??_C@_1EK@IKHLOKAK@?$AAa?$AAt?$AAt?$AAr?$AA0?$AA?4?$AAm?$AA_?$AAm?$AAa?$AAt?$AAe?$AAr?$AAi?$AAa?$AAl?$AA?5?$AA?$DN?$AA?$DN?$AA?5?$AAa?$AAt?$AAt?$AAr?$AA2?$AA?4?$AAm?$AA_?$AAm?$AAa?$AAt?$AAe@ 10185778     physics:dgMeshEffect.obj
 0002:000077c8       ??_C@_1EK@HICMAHPC@?$AAa?$AAt?$AAt?$AAr?$AA0?$AA?4?$AAm?$AA_?$AAm?$AAa?$AAt?$AAe?$AAr?$AAi?$AAa?$AAl?$AA?5?$AA?$DN?$AA?$DN?$AA?5?$AAa?$AAt?$AAt?$AAr?$AA1?$AA?4?$AAm?$AA_?$AAm?$AAa?$AAt?$AAe@ 101857c8     physics:dgMeshEffect.obj
 0002:00007818       ??_C@_1HC@EINBGOON@?$AAd?$AAg?$AAA?$AAb?$AAs?$AAf?$AA?5?$AA?$CI?$AAt?$AAe?$AAs?$AAt?$AAP?$AAo?$AAi?$AAn?$AAt?$AA?4?$AAm?$AA_?$AAz?$AA?5?$AA?9?$AA?5?$AAp?$AAo?$AAi?$AAn?$AAt?$AA?4?$AAm?$AA_@ 10185818     physics:dgMeshEffect.obj
 0002:00007890       ??_C@_1HC@ONFCGHBD@?$AAd?$AAg?$AAA?$AAb?$AAs?$AAf?$AA?5?$AA?$CI?$AAt?$AAe?$AAs?$AAt?$AAP?$AAo?$AAi?$AAn?$AAt?$AA?4?$AAm?$AA_?$AAy?$AA?5?$AA?9?$AA?5?$AAp?$AAo?$AAi?$AAn?$AAt?$AA?4?$AAm?$AA_@ 10185890     physics:dgMeshEffect.obj
 0002:00007908       ??_C@_1HC@IOCMJPLJ@?$AAd?$AAg?$AAA?$AAb?$AAs?$AAf?$AA?5?$AA?$CI?$AAt?$AAe?$AAs?$AAt?$AAP?$AAo?$AAi?$AAn?$AAt?$AA?4?$AAm?$AA_?$AAx?$AA?5?$AA?9?$AA?5?$AAp?$AAo?$AAi?$AAn?$AAt?$AA?4?$AAm?$AA_@ 10185908     physics:dgMeshEffect.obj
 0002:0000797c       ??_C@_1CI@GKGNCHC@?$AAf?$AAr?$AAo?$AAn?$AAt?$AAF?$AAa?$AAc?$AAe?$AAC?$AAo?$AAu?$AAn?$AAt?$AA?5?$AA?$DO?$AA?$DN?$AA?5?$AA3?$AA?$AA@ 1018597c     physics:dgMeshEffect.obj
 0002:000079a4       ??_C@_1CG@HGOJHACP@?$AAb?$AAa?$AAc?$AAk?$AAF?$AAa?$AAc?$AAe?$AAC?$AAo?$AAu?$AAn?$AAt?$AA?5?$AA?$DO?$AA?$DN?$AA?5?$AA3?$AA?$AA@ 101859a4     physics:dgMeshEffect.obj
 0002:000079d0       ??_C@_1FK@NFKCCPOJ@?$AAb?$AAa?$AAc?$AAk?$AAF?$AAa?$AAc?$AAe?$AAC?$AAo?$AAu?$AAn?$AAt?$AA?5?$AA?$DM?$AA?5?$AAD?$AAG?$AA_?$AAM?$AAE?$AAS?$AAH?$AA_?$AAE?$AAF?$AAF?$AAE?$AAC?$AAT?$AA_?$AAP@ 101859d0     physics:dgMeshEffect.obj
 0002:00007a30       ??_C@_1FM@GFMIMOCN@?$AAf?$AAr?$AAo?$AAn?$AAt?$AAF?$AAa?$AAc?$AAe?$AAC?$AAo?$AAu?$AAn?$AAt?$AA?5?$AA?$DM?$AA?5?$AAD?$AAG?$AA_?$AAM?$AAE?$AAS?$AAH?$AA_?$AAE?$AAF?$AAF?$AAE?$AAC?$AAT?$AA_@ 10185a30     physics:dgMeshEffect.obj
 0002:00007a90       ??_C@_1EO@DNBHCKIE@?$AAm?$AA_?$AAc?$AAo?$AAu?$AAn?$AAt?$AA?5?$AA?$DM?$AA?5?$AAD?$AAG?$AA_?$AAM?$AAE?$AAS?$AAH?$AA_?$AAE?$AAF?$AAF?$AAE?$AAC?$AAT?$AA_?$AAP?$AAO?$AAI?$AAN?$AAT?$AA_?$AAS@ 10185a90     physics:dgMeshEffect.obj
 0002:00007ae0       ??_7dgMeshTreeCSGFace@@6B@ 10185ae0     physics:dgMeshEffect.obj
 0002:00007ae4       ??_C@_1CA@JNPNHFAE@?$AAd?$AAi?$AAs?$AAt?$AA2?$AA0?$AA?5?$AA?$DM?$AA?5?$AAd?$AAi?$AAs?$AAt?$AA1?$AA0?$AA?$AA@ 10185ae4     physics:dgMeshEffect.obj
 0002:00007b08       ??_C@_1FC@KBGNHKFB@?$AAc?$AAo?$AAr?$AAn?$AAe?$AAr?$AA?9?$AA?$DO?$AAm?$AA_?$AAn?$AAe?$AAx?$AAt?$AA?9?$AA?$DO?$AAm?$AA_?$AAn?$AAe?$AAx?$AAt?$AA?9?$AA?$DO?$AAm?$AA_?$AAn?$AAe?$AAx?$AAt?$AA?5?$AA?$DN@ 10185b08     physics:dgMeshEffect.obj
 0002:00007b5c       ??_C@_1CK@IKDGJMBB@?$AAt?$AA?5?$AA?$DM?$AA?5?$AAd?$AAg?$AAF?$AAl?$AAo?$AAa?$AAt?$AA3?$AA2?$AA?5?$AA?$CI?$AA1?$AA?4?$AA0?$AAf?$AA?$CJ?$AA?$AA@ 10185b5c     physics:dgMeshEffect.obj
 0002:00007b88       ??_C@_1CK@NBPDCNPL@?$AAt?$AA?5?$AA?$DO?$AA?5?$AAd?$AAg?$AAF?$AAl?$AAo?$AAa?$AAt?$AA3?$AA2?$AA?5?$AA?$CI?$AA0?$AA?4?$AA0?$AAf?$AA?$CJ?$AA?$AA@ 10185b88     physics:dgMeshEffect.obj
 0002:00007bb4       ??_7dgRefCounter@@6B@      10185bb4     physics:dgMeshEffect.obj
 0002:00007bb8       ??_C@_1FO@CAALOGPD@?$AAc?$AA?3?$AA?2?$AAn?$AAe?$AAw?$AAt?$AAo?$AAn?$AA_?$AA2?$AA0?$AA0?$AA?2?$AA3?$AAd?$AAl?$AAi?$AAb?$AA?2?$AAs?$AAd?$AAk?$AA?2?$AAc?$AAo?$AAr?$AAe?$AAl?$AAi?$AAb?$AA?2@ 10185bb8     physics:dgMeshEffect.obj
 0002:00007c18       ??_C@_1CA@NOGIDNLK@?$AAm?$AA_?$AAr?$AAe?$AAf?$AAC?$AAo?$AAu?$AAn?$AAt?$AA?5?$AA?$DM?$AA?$DN?$AA?5?$AA1?$AA?$AA@ 10185c18     physics:dgMeshEffect.obj
 0002:00007c38       ??_C@_1DC@LPGDALEK@?$AAx?$AAx?$AAx?$AAx?$AA?9?$AA?$DO?$AAm?$AA_?$AAi?$AAn?$AAc?$AAi?$AAd?$AAe?$AAn?$AAt?$AAF?$AAa?$AAc?$AAe?$AA?5?$AA?$DO?$AA?5?$AA0?$AA?$AA@ 10185c38     physics:dgMeshEffect2.obj
 0002:00007c70       ??_C@_1EO@BOMMGGDM@?$AA?4?$AA?4?$AA?2?$AA?4?$AA?4?$AA?2?$AA?4?$AA?4?$AA?2?$AAs?$AAd?$AAk?$AA?2?$AAp?$AAh?$AAy?$AAs?$AAi?$AAc?$AAs?$AA?2?$AAd?$AAg?$AAM?$AAe?$AAs?$AAh?$AAE?$AAf?$AAf?$AAe?$AAc@ 10185c70     physics:dgMeshEffect2.obj
 0002:00007cc0       ??_C@_1DC@MNJCFLIH@?$AA?$CB?$AAt?$AAm?$AAp?$AAM?$AAe?$AAs?$AAh?$AA?4?$AAH?$AAa?$AAs?$AAO?$AAp?$AAe?$AAn?$AAE?$AAd?$AAg?$AAe?$AAs?$AA?5?$AA?$CI?$AA?$CJ?$AA?$AA@ 10185cc0     physics:dgMeshEffect2.obj
 0002:00007cf4       ??_7Tetrahedralization@@6B@ 10185cf4     physics:dgMeshEffect2.obj
 0002:00007d08       ??_C@_1BC@DJGBKJIN@?$AAe?$AAd?$AAg?$AAe?$AAN?$AAo?$AAd?$AAe?$AA?$AA@ 10185d08     physics:dgMeshEffect2.obj
 0002:00007d20       __real@3fe0000000000000    10185d20     physics:dgMeshEffect2.obj
 0002:00007d28       ??_C@_1CO@KHGDPPGM@?$AAp?$AAt?$AAr?$AA?9?$AA?$DO?$AAG?$AAe?$AAt?$AAI?$AAn?$AAf?$AAo?$AA?$CI?$AA?$CJ?$AA?5?$AA?$CB?$AA?$DN?$AA?5?$AAn?$AAo?$AAd?$AAe?$AA?$AA@ 10185d28     physics:dgMeshEffect2.obj
 0002:00007d58       ??_C@_1GG@CEMAOKJH@?$AAs?$AAt?$AAa?$AAc?$AAk?$AA?5?$AA?$DM?$AA?5?$AAs?$AAi?$AAz?$AAe?$AAo?$AAf?$AA?5?$AA?$CI?$AAs?$AAt?$AAa?$AAc?$AAk?$AAP?$AAo?$AAo?$AAl?$AA?$CJ?$AA?5?$AA?1?$AA?5?$AAs?$AAi?$AAz@ 10185d58     physics:dgMeshEffect2.obj
 0002:00007dc0       ??_C@_1CE@GOPCOCHL@?$AAf?$AAa?$AAc?$AAe?$AAM?$AAa?$AAp?$AA?4?$AAF?$AAi?$AAn?$AAd?$AA?$CI?$AAk?$AAe?$AAy?$AA?$CJ?$AA?$AA@ 10185dc0     physics:dgMeshEffect2.obj
 0002:00007de4       ??_C@_1CG@KBCBNGGE@?$AA?$CB?$AAf?$AAa?$AAc?$AAe?$AAM?$AAa?$AAp?$AA?4?$AAF?$AAi?$AAn?$AAd?$AA?$CI?$AAk?$AAe?$AAy?$AA?$CJ?$AA?$AA@ 10185de4     physics:dgMeshEffect2.obj
 0002:00007e0c       ??_C@_1DM@MDNMOBAN@?$AA?$CB?$AAe?$AAd?$AAg?$AAe?$AAI?$AAn?$AAc?$AAo?$AAn?$AAf?$AAl?$AAi?$AAc?$AAt?$AA?4?$AAF?$AAi?$AAn?$AAd?$AA?$CI?$AAn?$AAe?$AAw?$AAE?$AAd?$AAg?$AAe?$AA?$CJ?$AA?$AA@ 10185e0c     physics:dgMeshEffect2.obj
 0002:00007e48       ??_C@_17IEGMIADH@?$AAe?$AAn?$AAd?$AA?$AA@ 10185e48     physics:dgMeshEffect2.obj
 0002:00007e50       ??_C@_1M@FJKBHDDD@?$AAb?$AAe?$AAg?$AAi?$AAn?$AA?$AA@ 10185e50     physics:dgMeshEffect2.obj
 0002:00007e5c       ??_C@_1BG@LMDECMDF@?$AAb?$AAo?$AAr?$AAd?$AAe?$AAr?$AAE?$AAd?$AAg?$AAe?$AA?$AA@ 10185e5c     physics:dgMeshEffect2.obj
 0002:00007e74       ??_C@_1BG@NEAFAJPB@?$AAc?$AAo?$AAu?$AAn?$AAt?$AA?5?$AA?$DN?$AA?$DN?$AA?5?$AA0?$AA?$AA@ 10185e74     physics:dgMeshEffect2.obj
 0002:00007e90       ??_C@_1GK@OIGBILHO@?$AAt?$AAr?$AAi?$AAa?$AAn?$AAg?$AAl?$AAe?$AAF?$AAa?$AAc?$AAe?$AA?5?$AA?$DN?$AA?$DN?$AA?5?$AAt?$AAr?$AAi?$AAa?$AAn?$AAg?$AAl?$AAe?$AAF?$AAa?$AAc?$AAe?$AA?9?$AA?$DO?$AAm?$AA_@ 10185e90     physics:dgMeshEffect2.obj
 0002:00007f00       ??_C@_1GG@FIHPGPLO@?$AAc?$AAo?$AAu?$AAn?$AAt?$AA?5?$AA?$DM?$AA?5?$AAs?$AAi?$AAz?$AAe?$AAo?$AAf?$AA?5?$AA?$CI?$AAe?$AAd?$AAg?$AAe?$AAA?$AAr?$AAr?$AAa?$AAy?$AA?$CJ?$AA?5?$AA?1?$AA?5?$AAs?$AAi?$AAz@ 10185f00     physics:dgMeshEffect2.obj
 0002:00007f68       ??_C@_1DC@NPAKBDMJ@?$AAf?$AAa?$AAc?$AAe?$AAE?$AAd?$AAg?$AAe?$AA?9?$AA?$DO?$AAm?$AA_?$AAp?$AAr?$AAe?$AAv?$AA?5?$AA?$DN?$AA?$DN?$AA?5?$AAe?$AAd?$AAg?$AAe?$AA?$AA@ 10185f68     physics:dgMeshEffect2.obj
 0002:00007fa0       ??_C@_1EC@EALBHNNE@?$AAf?$AAa?$AAc?$AAe?$AAE?$AAd?$AAg?$AAe?$AA?9?$AA?$DO?$AAm?$AA_?$AAn?$AAe?$AAx?$AAt?$AA?5?$AA?$DN?$AA?$DN?$AA?5?$AAe?$AAd?$AAg?$AAe?$AA?9?$AA?$DO?$AAm?$AA_?$AAt?$AAw?$AAi?$AAn@ 10185fa0     physics:dgMeshEffect2.obj
 0002:00007fe4       ??_C@_1CK@FLCPLECN@?$AAe?$AAd?$AAg?$AAe?$AA?9?$AA?$DO?$AAm?$AA_?$AAt?$AAw?$AAi?$AAn?$AA?9?$AA?$DO?$AAm?$AA_?$AAp?$AAr?$AAe?$AAv?$AA?$AA@ 10185fe4     physics:dgMeshEffect2.obj
 0002:00008010       ??_C@_1CK@BHHOEIK@?$AAe?$AAd?$AAg?$AAe?$AA?9?$AA?$DO?$AAm?$AA_?$AAt?$AAw?$AAi?$AAn?$AA?9?$AA?$DO?$AAm?$AA_?$AAn?$AAe?$AAx?$AAt?$AA?$AA@ 10186010     physics:dgMeshEffect2.obj
 0002:0000803c       ??_C@_1BK@EAPBBPIA@?$AAe?$AAd?$AAg?$AAe?$AA?9?$AA?$DO?$AAm?$AA_?$AAp?$AAr?$AAe?$AAv?$AA?$AA@ 1018603c     physics:dgMeshEffect2.obj
 0002:00008058       ??_C@_1BK@BKKJEPCH@?$AAe?$AAd?$AAg?$AAe?$AA?9?$AA?$DO?$AAm?$AA_?$AAn?$AAe?$AAx?$AAt?$AA?$AA@ 10186058     physics:dgMeshEffect2.obj
 0002:00008078       ??_C@_1FO@PJJLEKLK@?$AAi?$AAn?$AAd?$AAe?$AAx?$AA?$FL?$AA1?$AA?$FN?$AA?5?$AA?$DN?$AA?$DN?$AA?5?$AAf?$AAa?$AAc?$AAe?$AAE?$AAd?$AAg?$AAe?$AA?9?$AA?$DO?$AAm?$AA_?$AAn?$AAe?$AAx?$AAt?$AA?9?$AA?$DO?$AAm?$AA_@ 10186078     physics:dgMeshEffect2.obj
 0002:000080d8       ??_C@_1EO@HFBGGHHL@?$AAi?$AAn?$AAd?$AAe?$AAx?$AA?$FL?$AA0?$AA?$FN?$AA?5?$AA?$DN?$AA?$DN?$AA?5?$AAf?$AAa?$AAc?$AAe?$AAE?$AAd?$AAg?$AAe?$AA?9?$AA?$DO?$AAm?$AA_?$AAi?$AAn?$AAc?$AAi?$AAd?$AAe?$AAn?$AAt@ 101860d8     physics:dgMeshEffect2.obj
 0002:00008128       ??_C@_1FE@KDJIDGCJ@?$AAc?$AA?3?$AA?2?$AAn?$AAe?$AAw?$AAt?$AAo?$AAn?$AA_?$AA2?$AA0?$AA0?$AA?2?$AA3?$AAd?$AAl?$AAi?$AAb?$AA?2?$AAs?$AAd?$AAk?$AA?2?$AAc?$AAo?$AAr?$AAe?$AAl?$AAi?$AAb?$AA?2@ 10186128     physics:dgMeshEffect2.obj
 0002:0000817c       ??_C@_1CA@KNEOOMDG@?$AAi?$AAn?$AAd?$AAe?$AAx?$AA?5?$AA?$DM?$AA?5?$AAm?$AA_?$AAc?$AAo?$AAu?$AAn?$AAt?$AA?$AA@ 1018617c     physics:dgMeshEffect2.obj
 0002:000081a0       ??_C@_1GC@KMKBHEGM@?$AAc?$AA?3?$AA?2?$AAn?$AAe?$AAw?$AAt?$AAo?$AAn?$AA_?$AA2?$AA0?$AA0?$AA?2?$AA3?$AAd?$AAl?$AAi?$AAb?$AA?2?$AAs?$AAd?$AAk?$AA?2?$AAc?$AAo?$AAr?$AAe?$AAl?$AAi?$AAb?$AA?2@ 101861a0     physics:dgMeshEffect2.obj
 0002:00008204       ??_C@_1BG@HMJJDGFN@?$AAi?$AAn?$AAd?$AAe?$AAx?$AA?5?$AA?$DO?$AA?$DN?$AA?5?$AA0?$AA?$AA@ 10186204     physics:dgMeshEffect2.obj
 0002:0000821c       __real@451c4000            1018621c     physics:dgCollisionCompoundBreakable.obj
 0002:00008220       ??_7dgCollisionConvexIntance@dgCollisionCompoundBreakable@@6B@ 10186220     physics:dgCollisionCompoundBreakable.obj
 0002:0000829c       ??_7dgVertexBuffer@dgCollisionCompoundBreakable@@6B@ 1018629c     physics:dgCollisionCompoundBreakable.obj
 0002:000082a0       ??_7dgMesh@dgCollisionCompoundBreakable@@6B@ 101862a0     physics:dgCollisionCompoundBreakable.obj
 0002:000082a8       ??_C@_1GM@DMHGGEGO@?$AA?4?$AA?4?$AA?2?$AA?4?$AA?4?$AA?2?$AA?4?$AA?4?$AA?2?$AAs?$AAd?$AAk?$AA?2?$AAp?$AAh?$AAy?$AAs?$AAi?$AAc?$AAs?$AA?2?$AAd?$AAg?$AAC?$AAo?$AAl?$AAl?$AAi?$AAs?$AAi?$AAo?$AAn@ 101862a8     physics:dgCollisionCompoundBreakable.obj
 0002:00008314       ??_C@_1DG@MAKNIFOD@?$AAt?$AAr?$AAe?$AAe?$AAN?$AAo?$AAd?$AAe?$AA?9?$AA?$DO?$AAm?$AA_?$AAt?$AAy?$AAp?$AAe?$AA?5?$AA?$DN?$AA?$DN?$AA?5?$AAm?$AA_?$AAn?$AAo?$AAd?$AAe?$AA?$AA@ 10186314     physics:dgCollisionCompoundBreakable.obj
 0002:00008350       ??_7dgCollisionCompoundBreakable@@6B@ 10186350     physics:dgCollisionCompoundBreakable.obj
 0002:000083bc       ??_C@_1CK@LFDKLODI@?$AAm?$AAe?$AA?9?$AA?$DO?$AAm?$AA_?$AAt?$AAy?$AAp?$AAe?$AA?5?$AA?$DN?$AA?$DN?$AA?5?$AAm?$AA_?$AAn?$AAo?$AAd?$AAe?$AA?$AA@ 101863bc     physics:dgCollisionCompoundBreakable.obj
 0002:000083e8       ??_C@_1FG@DCPKOHF@?$AA?$CB?$AAi?$AAn?$AAf?$AAo?$AA?4?$AAm?$AA_?$AAn?$AAo?$AAd?$AAe?$AA?9?$AA?$DO?$AAG?$AAe?$AAt?$AAI?$AAn?$AAf?$AAo?$AA?$CI?$AA?$CJ?$AA?4?$AAm?$AA_?$AAn?$AAo?$AAd?$AAe?$AAD?$AAa@ 101863e8     physics:dgCollisionCompoundBreakable.obj
 0002:00008440       ??_C@_1DM@JFFHONCI@?$AAm?$AA_?$AAa?$AAr?$AAr?$AAa?$AAy?$AA?$FL?$AAi?$AAn?$AAd?$AAe?$AAx?$AA?$FN?$AA?5?$AA?$DN?$AA?$DN?$AA?5?$AAm?$AAe?$AA?9?$AA?$DO?$AAm?$AA_?$AAs?$AAh?$AAa?$AAp?$AAe?$AA?$AA@ 10186440     physics:dgCollisionCompoundBreakable.obj
 0002:00008480       ??_C@_1EG@CAEMDABG@?$AAm?$AA_?$AAa?$AAr?$AAr?$AAa?$AAy?$AA?$FL?$AAs?$AAt?$AAa?$AAc?$AAk?$AA?$FN?$AA?5?$AA?$DN?$AA?$DN?$AA?5?$AAn?$AAo?$AAd?$AAe?$AAI?$AAn?$AAf?$AAo?$AA?4?$AAm?$AA_?$AAs?$AAh?$AAa@ 10186480     physics:dgCollisionCompoundBreakable.obj
 0002:000084c8       ??_C@_1CO@CLNFCBIM@?$AAn?$AAo?$AAd?$AAe?$AA?9?$AA?$DO?$AAm?$AA_?$AAt?$AAy?$AAp?$AAe?$AA?5?$AA?$DN?$AA?$DN?$AA?5?$AAm?$AA_?$AAn?$AAo?$AAd?$AAe?$AA?$AA@ 101864c8     physics:dgCollisionCompoundBreakable.obj
 0002:000084f8       ??_C@_1GE@IABBNNFH@?$AAs?$AAt?$AAa?$AAc?$AAk?$AA?5?$AA?$DM?$AA?5?$AAs?$AAi?$AAz?$AAe?$AAo?$AAf?$AA?5?$AA?$CI?$AAs?$AAt?$AAa?$AAc?$AAk?$AAP?$AAo?$AAo?$AAl?$AA?$CJ?$AA?5?$AA?1?$AA?5?$AAs?$AAi?$AAz@ 101864f8     physics:dgCollisionCompoundBreakable.obj
 0002:0000855c       ??_C@_15PGKPEFOJ@?$AAm?$AAe?$AA?$AA@ 1018655c     physics:dgCollisionCompoundBreakable.obj
 0002:00008564       ??_C@_1DM@MMHLBEDG@?$AAl?$AAe?$AAa?$AAd?$AAi?$AAn?$AAg?$AAI?$AAn?$AAd?$AAe?$AAx?$AA?5?$AA?$CB?$AA?$DN?$AA?5?$AAt?$AAr?$AAe?$AAa?$AAl?$AAi?$AAn?$AAg?$AAI?$AAn?$AAd?$AAe?$AAx?$AA?$AA@ 10186564     physics:dgCollisionCompoundBreakable.obj
 0002:000085a0       ??_C@_1IO@FALAEBM@?$AAs?$AAh?$AAa?$AAp?$AAe?$AA?9?$AA?$DO?$AAm?$AA_?$AAg?$AAr?$AAa?$AAp?$AAh?$AAN?$AAo?$AAd?$AAe?$AA?9?$AA?$DO?$AAG?$AAe?$AAt?$AAI?$AAn?$AAf?$AAo?$AA?$CI?$AA?$CJ?$AA?4?$AAG?$AAe@ 101865a0     physics:dgCollisionCompoundBreakable.obj
 0002:00008630       ??_C@_1FC@LKLJFPIM@?$AAn?$AAe?$AAw?$AAI?$AAs?$AAl?$AAa?$AAn?$AAd?$AAP?$AAi?$AAe?$AAc?$AAe?$AAs?$AA?$FL?$AAi?$AA?$FN?$AA?5?$AA?$CB?$AA?$DN?$AA?5?$AAn?$AAe?$AAw?$AAI?$AAs?$AAl?$AAa?$AAn?$AAd?$AAP@ 10186630     physics:dgCollisionCompoundBreakable.obj
 0002:00008688       ??_C@_1GO@NDAIHECE@?$AAn?$AAo?$AAd?$AAe?$AA?9?$AA?$DO?$AAG?$AAe?$AAt?$AAI?$AAn?$AAf?$AAo?$AA?$CI?$AA?$CJ?$AA?4?$AAm?$AA_?$AAn?$AAo?$AAd?$AAe?$AAD?$AAa?$AAt?$AAa?$AA?4?$AAm?$AA_?$AAc?$AAo?$AAm@ 10186688     physics:dgCollisionCompoundBreakable.obj
 0002:000086f8       ??_C@_1CA@IJCKNGFD@?$AAj?$AA?5?$AA?$DM?$AA?5?$AAm?$AA_?$AAf?$AAa?$AAc?$AAe?$AAC?$AAo?$AAu?$AAn?$AAt?$AA?$AA@ 101866f8     physics:dgCollisionConvexHull.obj
 0002:00008718       ??_C@_1FO@HMIMDAHJ@?$AA?4?$AA?4?$AA?2?$AA?4?$AA?4?$AA?2?$AA?4?$AA?4?$AA?2?$AAs?$AAd?$AAk?$AA?2?$AAp?$AAh?$AAy?$AAs?$AAi?$AAc?$AAs?$AA?2?$AAd?$AAg?$AAC?$AAo?$AAl?$AAl?$AAi?$AAs?$AAi?$AAo?$AAn@ 10186718     physics:dgCollisionConvexHull.obj
 0002:00008778       ??_C@_1HM@HGDIMONC@?$AAp?$AAl?$AAa?$AAn?$AAe?$AAC?$AAo?$AAu?$AAn?$AAt?$AA?5?$AA?$DM?$AA?5?$AA?$CI?$AAs?$AAi?$AAz?$AAe?$AAo?$AAf?$AA?5?$AA?$CI?$AAp?$AAl?$AAa?$AAn?$AAe?$AAs?$AAA?$AAr?$AAr?$AAa@ 10186778     physics:dgCollisionConvexHull.obj
 0002:000087f4       __real@3f7ae148            101867f4     physics:dgCollisionConvexHull.obj
 0002:000087f8       ??_7dgCollisionConvexHull@@6B@ 101867f8     physics:dgCollisionConvexHull.obj
 0002:00008874       ??_C@_1CO@LEBDKPKA@?$AAx?$AA?5?$AA?$DO?$AA?5?$AA?9?$AAd?$AAg?$AAF?$AAl?$AAo?$AAa?$AAt?$AA6?$AA4?$AA?5?$AA?$CI?$AA0?$AA?4?$AA0?$AA1?$AAf?$AA?$CJ?$AA?$AA@ 10186874     physics:dgCollisionConvexHull.obj
 0002:000088a8       __real@bf847ae140000000    101868a8     physics:dgCollisionConvexHull.obj
 0002:000088b0       __real@3af357c2a0000000    101868b0     physics:dgCollisionConvexHull.obj
 0002:000088b8       ??_C@_1DC@NCLIPJLA@?$AAm?$AAa?$AAg?$AA?5?$AA?$DO?$AA?$DN?$AA?5?$AA?9?$AAd?$AAg?$AAF?$AAl?$AAo?$AAa?$AAt?$AA3?$AA2?$AA?5?$AA?$CI?$AA0?$AA?4?$AA1?$AAf?$AA?$CJ?$AA?$AA@ 101868b8     physics:dgCollisionConvexHull.obj
 0002:000088f0       __real@bfb99999a0000000    101868f0     physics:dgCollisionConvexHull.obj
 0002:000088f8       ??_C@_1DE@GLBCNPDK@?$AA?$CG?$AA?$CI?$AA?$CK?$AAi?$AAt?$AAe?$AAr?$AA?$CJ?$AA?5?$AA?$CB?$AA?$DN?$AA?5?$AAe?$AAd?$AAg?$AAe?$AA0?$AA?9?$AA?$DO?$AAm?$AA_?$AAt?$AAw?$AAi?$AAn?$AA?$AA@ 101868f8     physics:dgCollisionConvexHull.obj
 0002:0000892c       ??_C@_1CE@PCGGEDGO@?$AA?$CG?$AA?$CI?$AA?$CK?$AAi?$AAt?$AAe?$AAr?$AA?$CJ?$AA?5?$AA?$CB?$AA?$DN?$AA?5?$AAe?$AAd?$AAg?$AAe?$AA0?$AA?$AA@ 1018692c     physics:dgCollisionConvexHull.obj
 0002:00008950       ??_C@_1DM@MNNLPJO@?$AA?$CI?$AAe?$AA1?$AA?5?$AA?$CF?$AA?5?$AAe?$AA1?$AA?$CJ?$AA?5?$AA?$DO?$AA?$DN?$AA?5?$AAd?$AAg?$AAF?$AAl?$AAo?$AAa?$AAt?$AA6?$AA4?$AA?5?$AA?$CI?$AA0?$AA?4?$AA0?$AAf?$AA?$CJ?$AA?$AA@ 10186950     physics:dgCollisionConvexHull.obj
 0002:0000898c       ??_C@_1DM@GOIBDHNK@?$AA?$CI?$AAe?$AA0?$AA?5?$AA?$CF?$AA?5?$AAe?$AA0?$AA?$CJ?$AA?5?$AA?$DO?$AA?$DN?$AA?5?$AAd?$AAg?$AAF?$AAl?$AAo?$AAa?$AAt?$AA6?$AA4?$AA?5?$AA?$CI?$AA0?$AA?4?$AA0?$AAf?$AA?$CJ?$AA?$AA@ 1018698c     physics:dgCollisionConvexHull.obj
 0002:000089c8       __real@3fefff9720000000    101869c8     physics:dgCollisionConvexHull.obj
 0002:000089d0       ??_C@_1CO@ILFLODH@?$AA?$CI?$AAp?$AAt?$AAr?$AA?5?$AA?9?$AA?5?$AAm?$AA_?$AAs?$AAi?$AAm?$AAp?$AAl?$AAe?$AAx?$AA?$CJ?$AA?5?$AA?$DO?$AA?$DN?$AA?5?$AA0?$AA?$AA@ 101869d0     physics:dgCollisionConvexHull.obj
 0002:00008a00       ??_C@_1EO@OAHGNNKB@?$AAf?$AAi?$AAr?$AAs?$AAt?$AAF?$AAa?$AAc?$AAe?$AA?9?$AA?$DO?$AAm?$AA_?$AAt?$AAw?$AAi?$AAn?$AA?9?$AA?$DO?$AAm?$AA_?$AAn?$AAe?$AAx?$AAt?$AA?5?$AA?$CB?$AA?$DN?$AA?5?$AAf?$AAi?$AAr@ 10186a00     physics:dgCollisionConvexHull.obj
 0002:00008a50       ??_C@_1BG@FEJIFKCF@?$AAc?$AAa?$AAc?$AAh?$AAe?$AAO?$AAr?$AAd?$AAe?$AAr?$AA?$AA@ 10186a50     physics:dgCollisionConvexHull.obj
 0002:00008a68       ??_7dgCollisionScene@@6B@  10186a68     physics:dgCollisionScene.obj
 0002:00008ad4       ??_C@_1DK@JPIKCFFK@?$AAn?$AAo?$AAd?$AAe?$AA?9?$AA?$DO?$AAm?$AA_?$AAl?$AAe?$AAf?$AAt?$AAI?$AAs?$AAP?$AAr?$AAo?$AAx?$AAy?$AA?5?$AA?$DN?$AA?$DN?$AA?5?$AAf?$AAa?$AAl?$AAs?$AAe?$AA?$AA@ 10186ad4     physics:dgCollisionScene.obj
 0002:00008b10       ??_C@_1FM@CPJHMCEG@?$AAs?$AAt?$AAa?$AAc?$AAk?$AA?5?$AA?$DM?$AA?5?$AAs?$AAi?$AAz?$AAe?$AAo?$AAf?$AA?5?$AA?$CI?$AAs?$AAt?$AAa?$AAc?$AAk?$AAP?$AAo?$AAo?$AAl?$AA?$CJ?$AA?5?$AA?1?$AA?5?$AAs?$AAi?$AAz@ 10186b10     physics:dgCollisionScene.obj
 0002:00008b70       ??_C@_1FE@LIDKOHGA@?$AA?4?$AA?4?$AA?2?$AA?4?$AA?4?$AA?2?$AA?4?$AA?4?$AA?2?$AAs?$AAd?$AAk?$AA?2?$AAp?$AAh?$AAy?$AAs?$AAi?$AAc?$AAs?$AA?2?$AAd?$AAg?$AAC?$AAo?$AAl?$AAl?$AAi?$AAs?$AAi?$AAo?$AAn@ 10186b70     physics:dgCollisionScene.obj
 0002:00008bc4       ??_C@_1DM@OBINAIDH@?$AAn?$AAo?$AAd?$AAe?$AA?9?$AA?$DO?$AAm?$AA_?$AAr?$AAi?$AAg?$AAh?$AAt?$AAI?$AAs?$AAP?$AAr?$AAo?$AAx?$AAy?$AA?5?$AA?$DN?$AA?$DN?$AA?5?$AAf?$AAa?$AAl?$AAs?$AAe?$AA?$AA@ 10186bc4     physics:dgCollisionScene.obj
 0002:00008c00       ??_C@_1EC@CKLMLEBB@?$AAi?$AAn?$AAd?$AAe?$AAx?$AA?5?$AA?$DN?$AA?$DN?$AA?5?$AA?$CI?$AAm?$AA_?$AAl?$AAi?$AAs?$AAt?$AA?4?$AAG?$AAe?$AAt?$AAC?$AAo?$AAu?$AAn?$AAt?$AA?$CI?$AA?$CJ?$AA?5?$AA?9?$AA?5?$AA1?$AA?$CJ@ 10186c00     physics:dgCollisionScene.obj
 0002:00008c44       ??_C@_1CC@BHCEAJJE@?$AAn?$AAo?$AAd?$AAe?$AA?9?$AA?$DO?$AAm?$AA_?$AAl?$AAe?$AAf?$AAt?$AAN?$AAo?$AAd?$AAe?$AA?$AA@ 10186c44     physics:dgCollisionScene.obj
 0002:00008c68       ??_C@_1CE@KPFGDLEP@?$AAn?$AAo?$AAd?$AAe?$AA?9?$AA?$DO?$AAm?$AA_?$AAr?$AAi?$AAg?$AAh?$AAt?$AAN?$AAo?$AAd?$AAe?$AA?$AA@ 10186c68     physics:dgCollisionScene.obj
 0002:00008c8c       ??_C@_1DG@DJOCCIEH@?$AAe?$AAn?$AAt?$AAr?$AAy?$AA?4?$AAm?$AA_?$AAp?$AAa?$AAr?$AAe?$AAn?$AAt?$AAN?$AAo?$AAd?$AAe?$AA?5?$AA?$DN?$AA?$DN?$AA?5?$AAN?$AAU?$AAL?$AAL?$AA?$AA@ 10186c8c     physics:dgCollisionScene.obj
 0002:00008cc4       ??_C@_1CC@JPJCBFBE@?$AAp?$AA0?$AA?4?$AAm?$AA_?$AAz?$AA?5?$AA?$DM?$AA?$DN?$AA?5?$AAp?$AA1?$AA?4?$AAm?$AA_?$AAz?$AA?$AA@ 10186cc4     physics:dgCollisionScene.obj
 0002:00008ce8       ??_C@_1CC@NFDJBDNC@?$AAp?$AA0?$AA?4?$AAm?$AA_?$AAy?$AA?5?$AA?$DM?$AA?$DN?$AA?5?$AAp?$AA1?$AA?4?$AAm?$AA_?$AAy?$AA?$AA@ 10186ce8     physics:dgCollisionScene.obj
 0002:00008d0c       ??_C@_1CC@OMKABBJA@?$AAp?$AA0?$AA?4?$AAm?$AA_?$AAx?$AA?5?$AA?$DM?$AA?$DN?$AA?5?$AAp?$AA1?$AA?4?$AAm?$AA_?$AAx?$AA?$AA@ 10186d0c     physics:dgCollisionScene.obj
 0002:00008d30       ??_C@_1DI@FCPJDMEJ@?$AAm?$AAe?$AA?9?$AA?$DO?$AAm?$AA_?$AAr?$AAi?$AAg?$AAh?$AAt?$AAI?$AAs?$AAP?$AAr?$AAo?$AAx?$AAy?$AA?5?$AA?$DN?$AA?$DN?$AA?5?$AAf?$AAa?$AAl?$AAs?$AAe?$AA?$AA@ 10186d30     physics:dgCollisionScene.obj
 0002:00008d68       ??_C@_1DG@GGDDINAD@?$AAm?$AAe?$AA?9?$AA?$DO?$AAm?$AA_?$AAl?$AAe?$AAf?$AAt?$AAI?$AAs?$AAP?$AAr?$AAo?$AAx?$AAy?$AA?5?$AA?$DN?$AA?$DN?$AA?5?$AAf?$AAa?$AAl?$AAs?$AAe?$AA?$AA@ 10186d68     physics:dgCollisionScene.obj
 0002:00008da0       ??_C@_1DE@KGNMGEBD@?$AAp?$AAa?$AAr?$AAa?$AAm?$AA?5?$AA?$DO?$AA?$DN?$AA?5?$AAd?$AAg?$AAF?$AAl?$AAo?$AAa?$AAt?$AA3?$AA2?$AA?5?$AA?$CI?$AA0?$AA?4?$AA0?$AAf?$AA?$CJ?$AA?$AA@ 10186da0     physics:dgCollisionScene.obj
 0002:00008dd4       ??_C@_1CA@IAAIIBKJ@?$AAm?$AAe?$AA?9?$AA?$DO?$AAm?$AA_?$AAr?$AAi?$AAg?$AAh?$AAt?$AAN?$AAo?$AAd?$AAe?$AA?$AA@ 10186dd4     physics:dgCollisionScene.obj
 0002:00008df4       ??_C@_1BO@LPMLNKDK@?$AAm?$AAe?$AA?9?$AA?$DO?$AAm?$AA_?$AAl?$AAe?$AAf?$AAt?$AAN?$AAo?$AAd?$AAe?$AA?$AA@ 10186df4     physics:dgCollisionScene.obj
 0002:00008e14       ??_C@_1DA@OFGCCMGD@?$AAm?$AA_?$AAr?$AAo?$AAo?$AAt?$AAN?$AAo?$AAd?$AAe?$AA?9?$AA?$DO?$AAm?$AA_?$AAr?$AAi?$AAg?$AAh?$AAt?$AAN?$AAo?$AAd?$AAe?$AA?$AA@ 10186e14     physics:dgCollisionScene.obj
 0002:00008e48       ??_C@_1EM@LKHKLHCM@?$AAp?$AAa?$AAi?$AAr?$AA?9?$AA?$DO?$AAm?$AA_?$AAb?$AAo?$AAd?$AAy?$AA1?$AA?9?$AA?$DO?$AAG?$AAe?$AAt?$AAC?$AAo?$AAl?$AAl?$AAi?$AAs?$AAi?$AAo?$AAn?$AA?$CI?$AA?$CJ?$AA?5?$AA?$DN?$AA?$DN@ 10186e48     physics:dgCollisionScene.obj
 0002:00008e98       ??_C@_1JG@FPJKAEEG@?$AAa?$AAr?$AAr?$AAa?$AAy?$AA?$FL?$AAj?$AA?$FN?$AA?9?$AA?$DO?$AAG?$AAe?$AAt?$AAI?$AAn?$AAf?$AAo?$AA?$CI?$AA?$CJ?$AA?4?$AAm?$AA_?$AAb?$AAo?$AAx?$AAP?$AA1?$AA?$FL?$AAa?$AAx?$AAi?$AAs@ 10186e98     physics:dgCollisionScene.obj
 0002:00008f30       __real@42800000            10186f30     physics:dgCollisionScene.obj
 0002:00008f38       ??_C@_1KO@LEMFCNKI@?$AAa?$AAr?$AAr?$AAa?$AAy?$AA?$FL?$AAD?$AAG?$AA_?$AAM?$AAA?$AAX?$AA_?$AAL?$AAA?$AAR?$AAG?$AAE?$AA_?$AAS?$AAI?$AAX?$AAE?$AA?5?$AA?9?$AA?5?$AA1?$AA?$FN?$AA?9?$AA?$DO?$AAG?$AAe@ 10186f38     physics:dgCollisionScene.obj
 0002:00008fe8       ??_C@_1IO@GMAMOHMG@?$AAa?$AAr?$AAr?$AAa?$AAy?$AA?$FL?$AAj?$AA?$FN?$AA?9?$AA?$DO?$AAG?$AAe?$AAt?$AAI?$AAn?$AAf?$AAo?$AA?$CI?$AA?$CJ?$AA?4?$AAm?$AA_?$AAb?$AAo?$AAx?$AAP?$AA0?$AA?4?$AAm?$AA_?$AAw?$AA?5@ 10186fe8     physics:dgCollisionScene.obj
 0002:00009078       ??_C@_1DK@GPGPBDEI@?$AAr?$AAo?$AAo?$AAt?$AA?9?$AA?$DO?$AAm?$AA_?$AAl?$AAe?$AAf?$AAt?$AAI?$AAs?$AAP?$AAr?$AAo?$AAx?$AAy?$AA?5?$AA?$DN?$AA?$DN?$AA?5?$AAf?$AAa?$AAl?$AAs?$AAe?$AA?$AA@ 10187078     physics:dgCollisionScene.obj
 0002:000090b4       ??_C@_1DM@FGMDBNJI@?$AAr?$AAo?$AAo?$AAt?$AA?9?$AA?$DO?$AAm?$AA_?$AAr?$AAi?$AAg?$AAh?$AAt?$AAI?$AAs?$AAP?$AAr?$AAo?$AAx?$AAy?$AA?5?$AA?$DN?$AA?$DN?$AA?5?$AAf?$AAa?$AAl?$AAs?$AAe?$AA?$AA@ 101870b4     physics:dgCollisionScene.obj
 0002:000090f0       ??_C@_1CC@LNJFCFMI@?$AAs?$AAp?$AAl?$AAi?$AAt?$AAe?$AAC?$AAo?$AAu?$AAn?$AAt?$AA?5?$AA?$DO?$AA?$DN?$AA?5?$AA1?$AA?$AA@ 101870f0     physics:dgCollisionScene.obj
 0002:00009114       ??_C@_1O@MLMILHIB@?$AAp?$AAa?$AAr?$AAe?$AAn?$AAt?$AA?$AA@ 10187114     physics:dgCollisionScene.obj
 0002:00009128       ??_C@_1FO@MKJDEGEE@?$AAc?$AAo?$AAm?$AAp?$AAa?$AAr?$AAe?$AA?5?$AA?$CI?$AAa?$AAr?$AAr?$AAa?$AAy?$AA?$FL?$AAi?$AA?$FN?$AA?0?$AA?5?$AAa?$AAr?$AAr?$AAa?$AAy?$AA?$FL?$AAi?$AA?5?$AA?$CL?$AA?5?$AA1?$AA?$FN?$AA?0@ 10187128     physics:dgCollisionScene.obj
 0002:00009188       ??_7dgCollisionConvexPolygon@dgCollisionMesh@@6B@ 10187188     physics:dgCollisionMesh.obj
 0002:00009208       ??_C@_1FC@CBCBDCHG@?$AA?4?$AA?4?$AA?2?$AA?4?$AA?4?$AA?2?$AA?4?$AA?4?$AA?2?$AAs?$AAd?$AAk?$AA?2?$AAp?$AAh?$AAy?$AAs?$AAi?$AAc?$AAs?$AA?2?$AAd?$AAg?$AAC?$AAo?$AAl?$AAl?$AAi?$AAs?$AAi?$AAo?$AAn@ 10187208     physics:dgCollisionMesh.obj
 0002:00009260       ??_C@_1GA@GBBJHEKN@?$AAd?$AAg?$AAA?$AAb?$AAs?$AAf?$AA?5?$AA?$CI?$AAd?$AAi?$AAr?$AA?5?$AA?$CF?$AA?5?$AAd?$AAi?$AAr?$AA?5?$AA?9?$AA?5?$AA1?$AA?4?$AA0?$AAf?$AA?$CJ?$AA?5?$AA?$DM?$AA?5?$AAd?$AAg?$AAF?$AAl@ 10187260     physics:dgCollisionMesh.obj
 0002:000092c0       ??_C@_1GA@KNLDHEDD@?$AAd?$AAg?$AAA?$AAb?$AAs?$AAf?$AA?5?$AA?$CI?$AAd?$AAi?$AAr?$AA?5?$AA?$CF?$AA?5?$AAd?$AAi?$AAr?$AA?5?$AA?9?$AA?5?$AA1?$AA?4?$AA0?$AAf?$AA?$CJ?$AA?5?$AA?$DM?$AA?5?$AAd?$AAg?$AAF?$AAl@ 101872c0     physics:dgCollisionMesh.obj
 0002:00009320       ??_C@_1FK@DNMHDPEH@?$AA?$CI?$AA?$CI?$AAd?$AAg?$AAF?$AAl?$AAo?$AAa?$AAt?$AA3?$AA2?$AA?$CK?$AA?$CJ?$AA?$CG?$AAn?$AAo?$AAr?$AAm?$AAa?$AAl?$AA?$CJ?$AA?$FL?$AA3?$AA?$FN?$AA?5?$AA?$DN?$AA?$DN?$AA?5?$AAd?$AAg?$AAF?$AAl@ 10187320     physics:dgCollisionMesh.obj
 0002:0000937c       __real@179abe15            1018737c     physics:dgCollisionMesh.obj
 0002:00009380       ??_C@_1EK@CMFBNAMH@?$AA?$CI?$AAn?$AAo?$AAr?$AAm?$AAa?$AAl?$AA?5?$AA?$CF?$AA?5?$AAn?$AAo?$AAr?$AAm?$AAa?$AAl?$AA?$CJ?$AA?5?$AA?$DO?$AA?5?$AAd?$AAg?$AAF?$AAl?$AAo?$AAa?$AAt?$AA3?$AA2?$AA?5?$AA?$CI?$AA0@ 10187380     physics:dgCollisionMesh.obj
 0002:000093d0       ??_C@_1HG@JOIGIOKJ@?$AAm?$AA_?$AAc?$AAo?$AAu?$AAn?$AAt?$AA?5?$AA?$DM?$AA?5?$AA?$CI?$AAs?$AAi?$AAz?$AAe?$AAo?$AAf?$AA?5?$AA?$CI?$AAm?$AA_?$AAl?$AAo?$AAc?$AAa?$AAl?$AAP?$AAo?$AAl?$AAy?$AA?$CJ?$AA?5@ 101873d0     physics:dgCollisionMesh.obj
 0002:00009448       __real@3b23d70b            10187448     physics:dgCollisionMesh.obj
 0002:0000944c       __real@3d800000            1018744c     physics:dgCollisionMesh.obj
 0002:00009450       ??_C@_1CM@NGNHFLII@?$AAm?$AA_?$AAa?$AAd?$AAj?$AAa?$AAc?$AAe?$AAn?$AAt?$AAN?$AAo?$AAr?$AAm?$AAa?$AAl?$AAI?$AAn?$AAd?$AAe?$AAx?$AA?$AA@ 10187450     physics:dgCollisionMesh.obj
 0002:0000947c       __real@3f7ff2e5            1018747c     physics:dgCollisionMesh.obj
 0002:00009480       ??_C@_1DI@NMIEEKHI@?$AAp?$AAt?$AAr?$AA?9?$AA?$DO?$AAm?$AA_?$AAi?$AAn?$AAc?$AAi?$AAd?$AAe?$AAn?$AAt?$AAN?$AAo?$AAr?$AAm?$AAa?$AAl?$AA?5?$AA?$DN?$AA?$DN?$AA?5?$AA?9?$AA1?$AA?$AA@ 10187480     physics:dgCollisionMesh.obj
 0002:000094b8       ??_C@_1CC@NIBPIAGG@?$AAc?$AAo?$AAn?$AAe?$AAc?$AAt?$AAC?$AAo?$AAu?$AAn?$AAt?$AA?5?$AA?$DN?$AA?$DN?$AA?5?$AA2?$AA?$AA@ 101874b8     physics:dgCollisionMesh.obj
 0002:000094e0       ??_C@_1FA@KJMPBPAN@?$AAp?$AAl?$AAa?$AAn?$AAe?$AA?4?$AAE?$AAv?$AAa?$AAl?$AAu?$AAe?$AA?$CI?$AAo?$AAr?$AAi?$AAg?$AAi?$AAn?$AA?$CJ?$AA?5?$AA?$DO?$AA?5?$AAd?$AAg?$AAF?$AAl?$AAo?$AAa?$AAt?$AA3?$AA2@ 101874e0     physics:dgCollisionMesh.obj
 0002:00009530       ??_C@_1EE@FGPMPA@?$AA?$CI?$AAd?$AAi?$AAr?$AA?5?$AA?$CF?$AA?5?$AAd?$AAi?$AAr?$AA?$CJ?$AA?5?$AA?$DO?$AA?5?$AAd?$AAg?$AAF?$AAl?$AAo?$AAa?$AAt?$AA3?$AA2?$AA?5?$AA?$CI?$AA1?$AA?4?$AA0?$AAe?$AA?9?$AA8?$AAf@ 10187530     physics:dgCollisionMesh.obj
 0002:00009574       ??_C@_1CM@PGOCNPKL@?$AAs?$AA?5?$AA?$DM?$AA?$DN?$AA?5?$AAd?$AAg?$AAF?$AAl?$AAo?$AAa?$AAt?$AA3?$AA2?$AA?5?$AA?$CI?$AA1?$AA?4?$AA0?$AAf?$AA?$CJ?$AA?$AA@ 10187574     physics:dgCollisionMesh.obj
 0002:000095a0       ??_C@_1CM@OILPLBAL@?$AAs?$AA?5?$AA?$DO?$AA?$DN?$AA?5?$AAd?$AAg?$AAF?$AAl?$AAo?$AAa?$AAt?$AA3?$AA2?$AA?5?$AA?$CI?$AA0?$AA?4?$AA0?$AAf?$AA?$CJ?$AA?$AA@ 101875a0     physics:dgCollisionMesh.obj
 0002:000095cc       ??_C@_1CM@CADKHGIF@?$AAt?$AA?5?$AA?$DM?$AA?$DN?$AA?5?$AAd?$AAg?$AAF?$AAl?$AAo?$AAa?$AAt?$AA3?$AA2?$AA?5?$AA?$CI?$AA1?$AA?4?$AA0?$AAf?$AA?$CJ?$AA?$AA@ 101875cc     physics:dgCollisionMesh.obj
 0002:000095f8       ??_C@_1CM@DOGHBICF@?$AAt?$AA?5?$AA?$DO?$AA?$DN?$AA?5?$AAd?$AAg?$AAF?$AAl?$AAo?$AAa?$AAt?$AA3?$AA2?$AA?5?$AA?$CI?$AA0?$AA?4?$AA0?$AAf?$AA?$CJ?$AA?$AA@ 101875f8     physics:dgCollisionMesh.obj
 0002:00009624       ??_C@_1DI@JOFCJOOA@?$AAt?$AAi?$AAm?$AAe?$AAs?$AAt?$AAe?$AAp?$AA?5?$AA?$DO?$AA?5?$AAd?$AAg?$AAF?$AAl?$AAo?$AAa?$AAt?$AA3?$AA2?$AA?5?$AA?$CI?$AA0?$AA?4?$AA0?$AAf?$AA?$CJ?$AA?$AA@ 10187624     physics:dgCollisionMesh.obj
 0002:0000965c       __real@c0000000            1018765c     physics:dgCollisionMesh.obj
 0002:00009660       __real@bdcccccd            10187660     physics:dgCollisionMesh.obj
 0002:00009664       __real@3c000000            10187664     physics:dgCollisionMesh.obj
 0002:00009668       __real@bb800000            10187668     physics:dgCollisionMesh.obj
 0002:0000966c       ??_C@_1DC@FLFFIKGA@?$AAd?$AAi?$AAs?$AAt?$AA2?$AA?5?$AA?$DO?$AA?5?$AAd?$AAg?$AAF?$AAl?$AAo?$AAa?$AAt?$AA3?$AA2?$AA?5?$AA?$CI?$AA0?$AA?4?$AA0?$AAf?$AA?$CJ?$AA?$AA@ 1018766c     physics:dgCollisionMesh.obj
 0002:000096a0       ??_C@_1CO@ENGPGANH@?$AAv?$AAa?$AAl?$AA?5?$AA?$DO?$AA?5?$AAd?$AAg?$AAF?$AAl?$AAo?$AAa?$AAt?$AA3?$AA2?$AA?5?$AA?$CI?$AA0?$AA?4?$AA9?$AAf?$AA?$CJ?$AA?$AA@ 101876a0     physics:dgCollisionMesh.obj
 0002:000096d0       ??_C@_1DO@IJMEBFKM@?$AAd?$AAg?$AAA?$AAb?$AAs?$AAf?$AA?5?$AA?$CI?$AAt?$AA?$CJ?$AA?5?$AA?$DO?$AA?$DN?$AA?5?$AAd?$AAg?$AAF?$AAl?$AAo?$AAa?$AAt?$AA3?$AA2?$AA?5?$AA?$CI?$AA0?$AA?4?$AA0?$AAf?$AA?$CJ?$AA?$AA@ 101876d0     physics:dgCollisionMesh.obj
 0002:00009710       __real@3e31c433            10187710     physics:dgCollisionMesh.obj
 0002:00009718       ??_C@_1EO@FDGBCKIA@?$AA?$CI?$AAe?$AAr?$AAr?$AAo?$AAr?$AA?5?$AA?$CF?$AA?5?$AAe?$AAr?$AAr?$AAo?$AAr?$AA?$CJ?$AA?5?$AA?$DO?$AA?5?$AAd?$AAg?$AAF?$AAl?$AAo?$AAa?$AAt?$AA3?$AA2?$AA?5?$AA?$CI?$AA1?$AA?4?$AA0@ 10187718     physics:dgCollisionMesh.obj
 0002:00009768       __real@1e3ce508            10187768     physics:dgCollisionMesh.obj
 0002:00009770       ??_7dgCollisionMesh@@6B@   10187770     physics:dgCollisionMesh.obj
 0002:000097e8       ??_C@_1EC@KCELAOKH@?$AA?$CI?$AAd?$AAg?$AAU?$AAn?$AAs?$AAi?$AAg?$AAn?$AAe?$AAd?$AA6?$AA4?$AA?$CI?$AAt?$AAh?$AAi?$AAs?$AA?$CJ?$AA?5?$AA?$CG?$AA?5?$AA0?$AAx?$AA0?$AAf?$AA?$CJ?$AA?5?$AA?$DN?$AA?$DN?$AA?5?$AA0@ 101877e8     physics:dgCollisionMesh.obj
 0002:0000982c       ??_7dgCollisionBVH@@6BdgAABBPolygonSoup@@@ 1018782c     physics:dgCollisionBVH.obj
 0002:00009850       ??_7dgCollisionBVH@@6BdgCollisionMesh@@@ 10187850     physics:dgCollisionBVH.obj
 0002:000098c8       ??_C@_1FA@MOCOILIP@?$AA?4?$AA?4?$AA?2?$AA?4?$AA?4?$AA?2?$AA?4?$AA?4?$AA?2?$AAs?$AAd?$AAk?$AA?2?$AAp?$AAh?$AAy?$AAs?$AAi?$AAc?$AAs?$AA?2?$AAd?$AAg?$AAC?$AAo?$AAl?$AAl?$AAi?$AAs?$AAi?$AAo?$AAn@ 101878c8     physics:dgCollisionBVH.obj
 0002:00009918       ??_C@_1HC@OOLDFONA@?$AAv?$AAe?$AAr?$AAt?$AAe?$AAx?$AAC?$AAo?$AAu?$AAn?$AAt?$AA?5?$AA?$DM?$AA?5?$AAs?$AAi?$AAz?$AAe?$AAo?$AAf?$AA?5?$AA?$CI?$AAi?$AAn?$AAd?$AAe?$AAx?$AAL?$AAi?$AAs?$AAt?$AA?$CJ@ 10187918     physics:dgCollisionBVH.obj
 0002:00009990       ??_C@_1GG@CAKMCPEO@?$AA?$CI?$AAd?$AAa?$AAt?$AAa?$AA?4?$AAm?$AA_?$AAt?$AAr?$AAi?$AAa?$AAn?$AAg?$AAl?$AAe?$AAC?$AAo?$AAu?$AAn?$AAt?$AA?5?$AA?$CK?$AA?5?$AA3?$AA?$CJ?$AA?5?$AA?$DM?$AA?$DN?$AA?5?$AAd?$AAa@ 10187990     physics:dgCollisionBVH.obj
 0002:000099f8       ??_C@_1DE@IPCGNCGD@?$AAj?$AA?5?$AA?$DM?$AA?$DN?$AA?5?$AAd?$AAa?$AAt?$AAa?$AA?4?$AAm?$AA_?$AAm?$AAa?$AAx?$AAI?$AAn?$AAd?$AAe?$AAx?$AAC?$AAo?$AAu?$AAn?$AAt?$AA?$AA@ 101879f8     physics:dgCollisionBVH.obj
 0002:00009a2c       __real@3f800347            10187a2c     physics:dgCollisionBVH.obj
 0002:00009a30       ??_C@_1DC@KFJBGHGC@?$AAd?$AAa?$AAt?$AAa?$AA?4?$AAm?$AA_?$AAv?$AAe?$AAr?$AAt?$AAe?$AAx?$AA?5?$AA?$DN?$AA?$DN?$AA?5?$AAp?$AAo?$AAl?$AAy?$AAg?$AAo?$AAn?$AA?$AA@ 10187a30     physics:dgCollisionBVH.obj
 0002:00009a64       __real@e0ad78ec            10187a64     physics:dgCollisionBVH.obj
 0002:00009a68       ??_7dgCollisionHeightField@@6B@ 10187a68     physics:dgCollisionHeightField.obj
 0002:00009ae0       ??_C@_1GA@PKNADDGB@?$AA?4?$AA?4?$AA?2?$AA?4?$AA?4?$AA?2?$AA?4?$AA?4?$AA?2?$AAs?$AAd?$AAk?$AA?2?$AAp?$AAh?$AAy?$AAs?$AAi?$AAc?$AAs?$AA?2?$AAd?$AAg?$AAC?$AAo?$AAl?$AAl?$AAi?$AAs?$AAi?$AAo?$AAn@ 10187ae0     physics:dgCollisionHeightField.obj
 0002:00009b40       __real@41200000            10187b40     physics:dgCollisionHeightField.obj
 0002:00009b48       ??_C@_1IG@FFJOIEDB@?$AAv?$AAe?$AAr?$AAt?$AAe?$AAx?$AAI?$AAn?$AAd?$AAe?$AAx?$AA?5?$AA?$DM?$AA?$DN?$AA?5?$AAm?$AA_?$AAi?$AAn?$AAs?$AAt?$AAa?$AAn?$AAc?$AAe?$AAD?$AAa?$AAt?$AAa?$AA?9?$AA?$DO?$AAm@ 10187b48     physics:dgCollisionHeightField.obj
 0002:00009bd0       ??_C@_1DI@EGIMAPIH@?$AAb?$AAo?$AAd?$AAy?$AA?9?$AA?$DO?$AAm?$AA_?$AAi?$AAn?$AAv?$AAM?$AAa?$AAs?$AAs?$AA?4?$AAm?$AA_?$AAw?$AA?5?$AA?$CB?$AA?$DN?$AA?5?$AA0?$AA?4?$AA0?$AAf?$AA?$AA@ 10187bd0     physics:dgBody.obj
 0002:00009c08       ??_C@_1CM@OFOMIDHA@?$AAI?$AAz?$AA?5?$AA?$DO?$AA?5?$AAd?$AAg?$AAF?$AAl?$AAo?$AAa?$AAt?$AA3?$AA2?$AA?5?$AA?$CI?$AA0?$AA?4?$AA0?$AAf?$AA?$CJ?$AA?$AA@ 10187c08     physics:dgBody.obj
 0002:00009c34       ??_C@_1CM@NNNHAIAD@?$AAI?$AAy?$AA?5?$AA?$DO?$AA?5?$AAd?$AAg?$AAF?$AAl?$AAo?$AAa?$AAt?$AA3?$AA2?$AA?5?$AA?$CI?$AA0?$AA?4?$AA0?$AAf?$AA?$CJ?$AA?$AA@ 10187c34     physics:dgBody.obj
 0002:00009c60       ??_C@_1EA@LOCEOEFO@?$AA?4?$AA?4?$AA?2?$AA?4?$AA?4?$AA?2?$AA?4?$AA?4?$AA?2?$AAs?$AAd?$AAk?$AA?2?$AAp?$AAh?$AAy?$AAs?$AAi?$AAc?$AAs?$AA?2?$AAd?$AAg?$AAB?$AAo?$AAd?$AAy?$AA?4?$AAc?$AAp?$AAp?$AA?$AA@ 10187c60     physics:dgBody.obj
 0002:00009ca0       ??_C@_1CM@HMOOIMON@?$AAI?$AAx?$AA?5?$AA?$DO?$AA?5?$AAd?$AAg?$AAF?$AAl?$AAo?$AAa?$AAt?$AA3?$AA2?$AA?5?$AA?$CI?$AA0?$AA?4?$AA0?$AAf?$AA?$CJ?$AA?$AA@ 10187ca0     physics:dgBody.obj
 0002:00009ccc       ??_C@_1DM@NECKCLLN@?$AAd?$AAg?$AAA?$AAb?$AAs?$AAf?$AA?5?$AA?$CI?$AAv?$AAa?$AAl?$AA?5?$AA?9?$AA?5?$AA1?$AA?4?$AA0?$AAf?$AA?$CJ?$AA?5?$AA?$DM?$AA?5?$AA1?$AA?4?$AA0?$AAe?$AA?9?$AA5?$AAf?$AA?$AA@ 10187ccc     physics:dgBody.obj
 0002:00009d08       ??_C@_1CO@LOIGNJNG@?$AAm?$AA_?$AAm?$AAa?$AAt?$AAr?$AAi?$AAx?$AA?$FL?$AAi?$AA?$FN?$AA?$FL?$AA3?$AA?$FN?$AA?5?$AA?$DN?$AA?$DN?$AA?5?$AA0?$AA?4?$AA0?$AAf?$AA?$AA@ 10187d08     physics:dgBody.obj
 0002:00009d38       ??_C@_1FC@BOHPKJI@?$AAc?$AA?3?$AA?2?$AAn?$AAe?$AAw?$AAt?$AAo?$AAn?$AA_?$AA2?$AA0?$AA0?$AA?2?$AA3?$AAd?$AAl?$AAi?$AAb?$AA?2?$AAs?$AAd?$AAk?$AA?2?$AAp?$AAh?$AAy?$AAs?$AAi?$AAc?$AAs?$AA?2@ 10187d38     physics:dgBody.obj
 0002:00009d8c       ??_C@_1DK@EFAHJHNM@?$AAd?$AAg?$AAC?$AAh?$AAe?$AAc?$AAk?$AAF?$AAl?$AAo?$AAa?$AAt?$AA?$CI?$AAm?$AA_?$AAm?$AAa?$AAt?$AAr?$AAi?$AAx?$AA?$FL?$AAi?$AA?$FN?$AA?$FL?$AAj?$AA?$FN?$AA?$CJ?$AA?$AA@ 10187d8c     physics:dgBody.obj
 0002:00009dc8       ??_C@_1BA@HOJAKAB@?$AAm?$AA_?$AAw?$AAo?$AAr?$AAl?$AAd?$AA?$AA@ 10187dc8     physics:dgBody.obj
 0002:00009dd8       ??_C@_1BE@PJOCDAP@?$AAt?$AA?5?$AA?$DM?$AA?$DN?$AA?5?$AA1?$AA?4?$AA0?$AAf?$AA?$AA@ 10187dd8     physics:dgBody.obj
 0002:00009dec       ??_C@_1BE@GHPMGNFC@?$AAt?$AA?5?$AA?$DO?$AA?$DN?$AA?5?$AA0?$AA?4?$AA0?$AAf?$AA?$AA@ 10187dec     physics:dgBody.obj
 0002:00009e00       ??_C@_1O@JFGOJJFE@?$AAf?$AAi?$AAl?$AAt?$AAe?$AAr?$AA?$AA@ 10187e00     physics:dgBody.obj
 0002:00009e10       ??_C@_1GE@MBBFNLFF@?$AAm?$AA_?$AAi?$AAn?$AAv?$AAW?$AAo?$AAr?$AAl?$AAd?$AAI?$AAn?$AAe?$AAr?$AAt?$AAi?$AAa?$AAM?$AAa?$AAt?$AAr?$AAi?$AAx?$AA?$FL?$AA3?$AA?$FN?$AA?$FL?$AA3?$AA?$FN?$AA?5?$AA?$DN?$AA?$DN@ 10187e10     physics:dgBody.obj
 0002:00009e78       ??_C@_1GE@DDHMGLDH@?$AAm?$AA_?$AAi?$AAn?$AAv?$AAW?$AAo?$AAr?$AAl?$AAd?$AAI?$AAn?$AAe?$AAr?$AAt?$AAi?$AAa?$AAM?$AAa?$AAt?$AAr?$AAi?$AAx?$AA?$FL?$AA2?$AA?$FN?$AA?$FL?$AA3?$AA?$FN?$AA?5?$AA?$DN?$AA?$DN@ 10187e78     physics:dgBody.obj
 0002:00009ee0       ??_C@_1GE@IJCJGPCA@?$AAm?$AA_?$AAi?$AAn?$AAv?$AAW?$AAo?$AAr?$AAl?$AAd?$AAI?$AAn?$AAe?$AAr?$AAt?$AAi?$AAa?$AAM?$AAa?$AAt?$AAr?$AAi?$AAx?$AA?$FL?$AA1?$AA?$FN?$AA?$FL?$AA3?$AA?$FN?$AA?5?$AA?$DN?$AA?$DN@ 10187ee0     physics:dgBody.obj
 0002:00009f48       ??_C@_1GE@OAOFJDCN@?$AAm?$AA_?$AAi?$AAn?$AAv?$AAW?$AAo?$AAr?$AAl?$AAd?$AAI?$AAn?$AAe?$AAr?$AAt?$AAi?$AAa?$AAM?$AAa?$AAt?$AAr?$AAi?$AAx?$AA?$FL?$AA0?$AA?$FN?$AA?$FL?$AA3?$AA?$FN?$AA?5?$AA?$DN?$AA?$DN@ 10187f48     physics:dgBody.obj
 0002:00009fac       __real@334c6ccb            10187fac     physics:dgBody.obj
 0002:00009fb0       __real@3f4ccccd            10187fb0     physics:dgBody.obj
 0002:00009fb4       __real@3f1de9d6            10187fb4     physics:dgBody.obj
 0002:00009fb8       __real@3fcccccd            10187fb8     physics:dgBody.obj
 0002:00009fc0       ??_C@_1FE@FFANEAKH@?$AA?4?$AA?4?$AA?2?$AA?4?$AA?4?$AA?2?$AA?4?$AA?4?$AA?2?$AAs?$AAd?$AAk?$AA?2?$AAp?$AAh?$AAy?$AAs?$AAi?$AAc?$AAs?$AA?2?$AAd?$AAg?$AAB?$AAa?$AAl?$AAl?$AAC?$AAo?$AAn?$AAs?$AAt@ 10187fc0     physics:dgBallConstraint.obj
 0002:0000a018       ??_C@_1FK@DNIAGHFH@?$AA?$CI?$AA?$CI?$AA?$CI?$AAd?$AAg?$AAU?$AAn?$AAs?$AAi?$AAg?$AAn?$AAe?$AAd?$AA6?$AA4?$AA?$CJ?$AA?5?$AA?$CG?$AAm?$AA_?$AAl?$AAo?$AAc?$AAa?$AAl?$AAM?$AAa?$AAt?$AAr?$AAi?$AAx?$AA0@ 10188018     physics:dgBallConstraint.obj
 0002:0000a074       ??_7dgBallConstraint@@6B@  10188074     physics:dgBallConstraint.obj
 0002:0000a0a4       ??_C@_1BA@IGEOMEPJ@?$AAm?$AA_?$AAb?$AAo?$AAd?$AAy?$AA1?$AA?$AA@ 101880a4     physics:dgBallConstraint.obj
 0002:0000a0b4       ??_C@_1BA@DOPCKDJM@?$AAm?$AA_?$AAb?$AAo?$AAd?$AAy?$AA0?$AA?$AA@ 101880b4     physics:dgBallConstraint.obj
 0002:0000a0c4       __real@bfc90fd0            101880c4     physics:dgBallConstraint.obj
 0002:0000a0c8       __real@3fc90fd0            101880c8     physics:dgBallConstraint.obj
 0002:0000a0cc       __real@40437a0a            101880cc     physics:dgBallConstraint.obj
 0002:0000a0d0       __real@3db2b8b9            101880d0     physics:dgBallConstraint.obj
 0002:0000a0d8       ??_C@_1EG@BAAIBGDC@?$AAp?$AAe?$AAn?$AAe?$AAt?$AAr?$AAa?$AAt?$AAi?$AAo?$AAn?$AAE?$AAr?$AAr?$AA?5?$AA?$DO?$AA?$DN?$AA?5?$AAd?$AAg?$AAF?$AAl?$AAo?$AAa?$AAt?$AA3?$AA2?$AA?5?$AA?$CI?$AA0?$AA?4?$AA0@ 101880d8     physics:dgBallConstraint.obj
 0002:0000a120       __real@41800000            10188120     physics:dgBallConstraint.obj
 0002:0000a128       ??_C@_1FG@KCDKLMDC@?$AA?4?$AA?4?$AA?2?$AA?4?$AA?4?$AA?2?$AA?4?$AA?4?$AA?2?$AAs?$AAd?$AAk?$AA?2?$AAp?$AAh?$AAy?$AAs?$AAi?$AAc?$AAs?$AA?2?$AAd?$AAg?$AAH?$AAi?$AAn?$AAg?$AAe?$AAC?$AAo?$AAn?$AAs@ 10188128     physics:dgHingeConstraint.obj
 0002:0000a180       ??_7dgHingeConstraint@@6B@ 10188180     physics:dgHingeConstraint.obj
 0002:0000a1b0       __real@3f8147ae            101881b0     physics:dgHingeConstraint.obj
 0002:0000a1b8       ??_C@_1JE@HKBIGFGI@?$AAd?$AAg?$AAA?$AAb?$AAs?$AAf?$AA?5?$AA?$CI?$AA1?$AA?4?$AA0?$AAf?$AA?5?$AA?9?$AA?5?$AA?$CI?$AAm?$AAa?$AAt?$AAr?$AAi?$AAx?$AA0?$AA?4?$AAm?$AA_?$AAr?$AAi?$AAg?$AAh?$AAt?$AA?5@ 101881b8     physics:dgHingeConstraint.obj
 0002:0000a250       ??_C@_1II@FBLNIFMG@?$AAd?$AAg?$AAA?$AAb?$AAs?$AAf?$AA?5?$AA?$CI?$AA1?$AA?4?$AA0?$AAf?$AA?5?$AA?9?$AA?5?$AA?$CI?$AAm?$AAa?$AAt?$AAr?$AAi?$AAx?$AA0?$AA?4?$AAm?$AA_?$AAu?$AAp?$AA?5?$AA?$CF?$AA?5?$AAm@ 10188250     physics:dgHingeConstraint.obj
 0002:0000a2d8       ??_C@_1JE@LIJAPIAJ@?$AAd?$AAg?$AAA?$AAb?$AAs?$AAf?$AA?5?$AA?$CI?$AA1?$AA?4?$AA0?$AAf?$AA?5?$AA?9?$AA?5?$AA?$CI?$AAm?$AAa?$AAt?$AAr?$AAi?$AAx?$AA0?$AA?4?$AAm?$AA_?$AAf?$AAr?$AAo?$AAn?$AAt?$AA?5@ 101882d8     physics:dgHingeConstraint.obj
 0002:0000a370       ??_C@_1FK@KMNNCHJE@?$AA?4?$AA?4?$AA?2?$AA?4?$AA?4?$AA?2?$AA?4?$AA?4?$AA?2?$AAs?$AAd?$AAk?$AA?2?$AAp?$AAh?$AAy?$AAs?$AAi?$AAc?$AAs?$AA?2?$AAd?$AAg?$AAS?$AAl?$AAi?$AAd?$AAi?$AAn?$AAg?$AAC?$AAo@ 10188370     physics:dgSlidingConstraint.obj
 0002:0000a3cc       ??_7dgSlidingConstraint@@6B@ 101883cc     physics:dgSlidingConstraint.obj
 0002:0000a400       ??_C@_1KM@CNMIFNIK@?$AAd?$AAg?$AAA?$AAb?$AAs?$AAf?$AA?5?$AA?$CI?$AAd?$AAg?$AAF?$AAl?$AAo?$AAa?$AAt?$AA3?$AA2?$AA?5?$AA?$CI?$AA1?$AA?4?$AA0?$AAf?$AA?$CJ?$AA?5?$AA?9?$AA?5?$AA?$CI?$AAm?$AAa?$AAt?$AAr@ 10188400     physics:dgSlidingConstraint.obj
 0002:0000a4b0       ??_C@_1KA@BNHFCCIE@?$AAd?$AAg?$AAA?$AAb?$AAs?$AAf?$AA?5?$AA?$CI?$AAd?$AAg?$AAF?$AAl?$AAo?$AAa?$AAt?$AA3?$AA2?$AA?5?$AA?$CI?$AA1?$AA?4?$AA0?$AAf?$AA?$CJ?$AA?5?$AA?9?$AA?5?$AA?$CI?$AAm?$AAa?$AAt?$AAr@ 101884b0     physics:dgSlidingConstraint.obj
 0002:0000a550       ??_C@_1KM@OPEAMAOL@?$AAd?$AAg?$AAA?$AAb?$AAs?$AAf?$AA?5?$AA?$CI?$AAd?$AAg?$AAF?$AAl?$AAo?$AAa?$AAt?$AA3?$AA2?$AA?5?$AA?$CI?$AA1?$AA?4?$AA0?$AAf?$AA?$CJ?$AA?5?$AA?9?$AA?5?$AA?$CI?$AAm?$AAa?$AAt?$AAr@ 10188550     physics:dgSlidingConstraint.obj
 0002:0000a600       ??_C@_1FO@OIOOJEMJ@?$AA?4?$AA?4?$AA?2?$AA?4?$AA?4?$AA?2?$AA?4?$AA?4?$AA?2?$AAs?$AAd?$AAk?$AA?2?$AAp?$AAh?$AAy?$AAs?$AAi?$AAc?$AAs?$AA?2?$AAd?$AAg?$AAC?$AAo?$AAr?$AAk?$AAs?$AAc?$AAr?$AAe?$AAw@ 10188600     physics:dgCorkscrewConstraint.obj
 0002:0000a660       ??_7dgCorkscrewConstraint@@6B@ 10188660     physics:dgCorkscrewConstraint.obj
 0002:0000a690       ??_C@_1FO@LHEJMLKG@?$AA?4?$AA?4?$AA?2?$AA?4?$AA?4?$AA?2?$AA?4?$AA?4?$AA?2?$AAs?$AAd?$AAk?$AA?2?$AAp?$AAh?$AAy?$AAs?$AAi?$AAc?$AAs?$AA?2?$AAd?$AAg?$AAU?$AAn?$AAi?$AAv?$AAe?$AAr?$AAs?$AAa?$AAl@ 10188690     physics:dgUniversalConstraint.obj
 0002:0000a6f0       ??_7dgUniversalConstraint@@6B@ 101886f0     physics:dgUniversalConstraint.obj
 0002:0000a720       __real@3f7eb852            10188720     physics:dgUpVectorConstraint.obj
 0002:0000a728       ??_C@_1FM@JHEIKOJD@?$AA?4?$AA?4?$AA?2?$AA?4?$AA?4?$AA?2?$AA?4?$AA?4?$AA?2?$AAs?$AAd?$AAk?$AA?2?$AAp?$AAh?$AAy?$AAs?$AAi?$AAc?$AAs?$AA?2?$AAd?$AAg?$AAU?$AAp?$AAV?$AAe?$AAc?$AAt?$AAo?$AAr?$AAC@ 10188728     physics:dgUpVectorConstraint.obj
 0002:0000a784       ??_7dgUpVectorConstraint@@6B@ 10188784     physics:dgUpVectorConstraint.obj
 0002:0000a7b8       ??_C@_1EM@HHMCABGA@?$AA?4?$AA?4?$AA?2?$AA?4?$AA?4?$AA?2?$AA?4?$AA?4?$AA?2?$AAs?$AAd?$AAk?$AA?2?$AAp?$AAh?$AAy?$AAs?$AAi?$AAc?$AAs?$AA?2?$AAd?$AAg?$AAC?$AAo?$AAn?$AAs?$AAt?$AAr?$AAa?$AAi?$AAn@ 101887b8     physics:dgConstraint.obj
 0002:0000a804       ??_C@_1CK@IPJFNHGC@?$AAi?$AAn?$AAf?$AAo?$AA?9?$AA?$DO?$AAm?$AA_?$AAa?$AAt?$AAt?$AAa?$AAc?$AAh?$AAB?$AAo?$AAd?$AAy?$AA_?$AA0?$AA?$AA@ 10188804     physics:dgConstraint.obj
 0002:0000a830       ??_7dgUserConstraint@@6B@  10188830     physics:dgUserConstraint.obj
 0002:0000a860       ??_C@_1FO@ODGECBKJ@?$AA?4?$AA?4?$AA?2?$AA?4?$AA?4?$AA?2?$AA?4?$AA?4?$AA?2?$AAs?$AAd?$AAk?$AA?2?$AAp?$AAh?$AAy?$AAs?$AAi?$AAc?$AAs?$AA?2?$AAd?$AAg?$AAB?$AAi?$AAl?$AAa?$AAt?$AAe?$AAr?$AAa?$AAl@ 10188860     physics:dgBilateralConstraint.obj
 0002:0000a8c0       ??_7dgBilateralConstraint@@6B@ 101888c0     physics:dgBilateralConstraint.obj
 0002:0000a8f0       ??_C@_1FO@PAPHGFOI@?$AAc?$AA?3?$AA?2?$AAn?$AAe?$AAw?$AAt?$AAo?$AAn?$AA_?$AA2?$AA0?$AA0?$AA?2?$AA3?$AAd?$AAl?$AAi?$AAb?$AA?2?$AAs?$AAd?$AAk?$AA?2?$AAp?$AAh?$AAy?$AAs?$AAi?$AAc?$AAs?$AA?2@ 101888f0     physics:dgBilateralConstraint.obj
 0002:0000a950       ??_C@_1EE@LCPNNFOD@?$AA?$CI?$AA?$CI?$AA?$CI?$AAd?$AAg?$AAU?$AAn?$AAs?$AAi?$AAg?$AAn?$AAe?$AAd?$AA6?$AA4?$AA?$CJ?$AA?5?$AAt?$AAh?$AAi?$AAs?$AA?$CJ?$AA?5?$AA?$CG?$AA?5?$AA1?$AA5?$AA?$CJ?$AA?5?$AA?$DN?$AA?$DN?$AA?5@ 10188950     physics:dgBilateralConstraint.obj
 0002:0000a994       ??_7dgConstraint@@6B@      10188994     physics:dgBilateralConstraint.obj
 0002:0000a9bc       __real@40a00000            101889bc     physics:dgBilateralConstraint.obj
 0002:0000a9c0       ??_C@_1DE@LPHIICAP@?$AAl?$AAe?$AAn?$AAg?$AAt?$AAh?$AA?5?$AA?$DO?$AA?5?$AAd?$AAg?$AAF?$AAl?$AAo?$AAa?$AAt?$AA3?$AA2?$AA?5?$AA?$CI?$AA0?$AA?4?$AA0?$AAf?$AA?$CJ?$AA?$AA@ 101889c0     physics:dgBilateralConstraint.obj
 0002:0000a9f8       ??_C@_1GG@ELBAMHNE@?$AA?$CI?$AAp?$AAi?$AAn?$AAD?$AAi?$AAr?$AAe?$AAc?$AAt?$AAi?$AAo?$AAn?$AA0?$AA?5?$AA?$CF?$AA?5?$AAp?$AAi?$AAn?$AAD?$AAi?$AAr?$AAe?$AAc?$AAt?$AAi?$AAo?$AAn?$AA0?$AA?$CJ?$AA?5@ 101889f8     physics:dgBilateralConstraint.obj
 0002:0000aa60       ??_C@_1JM@CMBABBJN@?$AAd?$AAg?$AAA?$AAb?$AAs?$AAf?$AA?5?$AA?$CI?$AAd?$AAg?$AAF?$AAl?$AAo?$AAa?$AAt?$AA3?$AA2?$AA?5?$AA?$CI?$AA1?$AA?4?$AA0?$AAf?$AA?$CJ?$AA?5?$AA?9?$AA?5?$AA?$CI?$AAr?$AAe?$AAl?$AAM@ 10188a60     physics:dgBilateralConstraint.obj
 0002:0000ab00       ??_C@_1JA@MJBKAAJA@?$AAd?$AAg?$AAA?$AAb?$AAs?$AAf?$AA?5?$AA?$CI?$AAd?$AAg?$AAF?$AAl?$AAo?$AAa?$AAt?$AA3?$AA2?$AA?5?$AA?$CI?$AA1?$AA?4?$AA0?$AAf?$AA?$CJ?$AA?5?$AA?9?$AA?5?$AA?$CI?$AAr?$AAe?$AAl?$AAM@ 10188b00     physics:dgBilateralConstraint.obj
 0002:0000ab90       ??_C@_1JM@IDMPMJDI@?$AAd?$AAg?$AAA?$AAb?$AAs?$AAf?$AA?5?$AA?$CI?$AAd?$AAg?$AAF?$AAl?$AAo?$AAa?$AAt?$AA3?$AA2?$AA?5?$AA?$CI?$AA1?$AA?4?$AA0?$AAf?$AA?$CJ?$AA?5?$AA?9?$AA?5?$AA?$CI?$AAr?$AAe?$AAl?$AAM@ 10188b90     physics:dgBilateralConstraint.obj
 0002:0000ac2c       __real@44bb8000            10188c2c     physics:dgBilateralConstraint.obj
 0002:0000ac30       ??_C@_1BG@LHBIKGKN@?$AAj?$AAo?$AAi?$AAn?$AAt?$AAF?$AAo?$AAr?$AAc?$AAe?$AA?$AA@ 10188c30     physics:dgBilateralConstraint.obj
 0002:0000ac48       __real@3b23d70a            10188c48     physics:dgBilateralConstraint.obj
 0002:0000ac4c       __real@c61c4000            10188c4c     physics:dgBilateralConstraint.obj
 0002:0000ac50       __real@461c4000            10188c50     physics:dgBilateralConstraint.obj
 0002:0000ac54       __real@43bb8000            10188c54     physics:dgBilateralConstraint.obj
 0002:0000ac58       __real@43c80000            10188c58     physics:dgBilateralConstraint.obj
 0002:0000ac5c       __real@3ecccccd            10188c5c     physics:dgContact.obj
 0002:0000ac60       ??_C@_1EG@BEONPPFI@?$AA?4?$AA?4?$AA?2?$AA?4?$AA?4?$AA?2?$AA?4?$AA?4?$AA?2?$AAs?$AAd?$AAk?$AA?2?$AAp?$AAh?$AAy?$AAs?$AAi?$AAc?$AAs?$AA?2?$AAd?$AAg?$AAC?$AAo?$AAn?$AAt?$AAa?$AAc?$AAt?$AA?4?$AAc@ 10188c60     physics:dgContact.obj
 0002:0000aca8       ??_7dgContact@@6B@         10188ca8     physics:dgContact.obj
 0002:0000acd0       ??_C@_07FLDMKAK@contact?$AA@ 10188cd0     physics:dgContact.obj
 0002:0000acd8       __real@3e99999a            10188cd8     physics:dgContact.obj
 0002:0000acdc       __real@c0800000            10188cdc     physics:dgContact.obj
 0002:0000ace0       ??_C@_1BBG@CAGNJLGF@?$AAd?$AAg?$AAA?$AAb?$AAs?$AAf?$AA?5?$AA?$CI?$AAp?$AAe?$AAn?$AAe?$AAt?$AAr?$AAa?$AAt?$AAi?$AAo?$AAn?$AAV?$AAe?$AAl?$AAo?$AAc?$AA?5?$AA?9?$AA?5?$AAd?$AAg?$AAF?$AAl?$AAo@ 10188ce0     physics:dgContact.obj
 0002:0000adf8       __real@42480000            10188df8     physics:dgContact.obj
 0002:0000ae00       ??_C@_1FE@MCGOKPPO@?$AAp?$AAe?$AAn?$AAe?$AAt?$AAr?$AAa?$AAt?$AAi?$AAo?$AAn?$AAC?$AAo?$AAr?$AAr?$AAe?$AAc?$AAt?$AAi?$AAo?$AAn?$AA?5?$AA?$DO?$AA?$DN?$AA?5?$AAd?$AAg?$AAF?$AAl?$AAo?$AAa?$AAt@ 10188e00     physics:dgContact.obj
 0002:0000ae58       ??_C@_1IA@CIHDNLHP@?$AA?$CB?$AAb?$AAo?$AAd?$AAy?$AA1?$AA?9?$AA?$DO?$AAm?$AA_?$AAc?$AAo?$AAl?$AAl?$AAi?$AAs?$AAi?$AAo?$AAn?$AA?9?$AA?$DO?$AAI?$AAs?$AAT?$AAy?$AAp?$AAe?$AA?5?$AA?$CI?$AAd?$AAg?$AAC@ 10188e58     physics:dgContact.obj
 0002:0000aed8       ??_C@_1IA@BKAFGHGO@?$AA?$CB?$AAb?$AAo?$AAd?$AAy?$AA0?$AA?9?$AA?$DO?$AAm?$AA_?$AAc?$AAo?$AAl?$AAl?$AAi?$AAs?$AAi?$AAo?$AAn?$AA?9?$AA?$DO?$AAI?$AAs?$AAT?$AAy?$AAp?$AAe?$AA?5?$AA?$CI?$AAd?$AAg?$AAC@ 10188ed8     physics:dgContact.obj
 0002:0000af58       ??_C@_1GM@CMNJGCDH@?$AA?$CB?$AAc?$AAo?$AAn?$AAt?$AAa?$AAc?$AAt?$AA?5?$AA?$HM?$AA?$HM?$AA?5?$AAc?$AAo?$AAn?$AAt?$AAa?$AAc?$AAt?$AA?9?$AA?$DO?$AAG?$AAe?$AAt?$AAI?$AAd?$AA?$CI?$AA?$CJ?$AA?5?$AA?$DN?$AA?$DN?$AA?5@ 10188f58     physics:dgContact.obj
 0002:0000afc8       ??_C@_1FC@DLBKJJKA@?$AAb?$AAo?$AAd?$AAy?$AA1?$AA?9?$AA?$DO?$AAm?$AA_?$AAi?$AAn?$AAv?$AAM?$AAa?$AAs?$AAs?$AA?4?$AAm?$AA_?$AAw?$AA?5?$AA?$CB?$AA?$DN?$AA?5?$AAd?$AAg?$AAF?$AAl?$AAo?$AAa?$AAt?$AA3@ 10188fc8     physics:dgContact.obj
 0002:0000b01c       ??_C@_1DG@NADAFJBM@?$AAb?$AAo?$AAd?$AAy?$AA1?$AA?9?$AA?$DO?$AAG?$AAe?$AAt?$AAW?$AAo?$AAr?$AAl?$AAd?$AA?$CI?$AA?$CJ?$AA?5?$AA?$DN?$AA?$DN?$AA?5?$AAw?$AAo?$AAr?$AAl?$AAd?$AA?$AA@ 1018901c     physics:dgContact.obj
 0002:0000b054       ??_C@_1DG@KPPJMCIP@?$AAb?$AAo?$AAd?$AAy?$AA0?$AA?9?$AA?$DO?$AAG?$AAe?$AAt?$AAW?$AAo?$AAr?$AAl?$AAd?$AA?$CI?$AA?$CJ?$AA?5?$AA?$DN?$AA?$DN?$AA?5?$AAw?$AAo?$AAr?$AAl?$AAd?$AA?$AA@ 10189054     physics:dgContact.obj
 0002:0000b08c       ??_C@_1CE@BPHIHBFH@?$AAb?$AAo?$AAd?$AAy?$AA1?$AA?9?$AA?$DO?$AAG?$AAe?$AAt?$AAW?$AAo?$AAr?$AAl?$AAd?$AA?$CI?$AA?$CJ?$AA?$AA@ 1018908c     physics:dgContact.obj
 0002:0000b0b0       ??_C@_1CE@BOMNIMEK@?$AAb?$AAo?$AAd?$AAy?$AA0?$AA?9?$AA?$DO?$AAG?$AAe?$AAt?$AAW?$AAo?$AAr?$AAl?$AAd?$AA?$CI?$AA?$CJ?$AA?$AA@ 101890b0     physics:dgContact.obj
 0002:0000b0d8       ??_C@_1FE@NMNAGBNO@?$AAc?$AAo?$AAn?$AAt?$AAa?$AAc?$AAt?$AA?9?$AA?$DO?$AAG?$AAe?$AAt?$AAI?$AAd?$AA?$CI?$AA?$CJ?$AA?5?$AA?$DN?$AA?$DN?$AA?5?$AAd?$AAg?$AAC?$AAo?$AAn?$AAt?$AAa?$AAc?$AAt?$AAC?$AAo?$AAn@ 101890d8     physics:dgContact.obj
 0002:0000b130       ??_C@_1FI@OIHBBLIP@?$AAb?$AAo?$AAd?$AAy?$AAP?$AAt?$AAr?$AA1?$AA?9?$AA?$DO?$AAm?$AA_?$AAi?$AAn?$AAv?$AAM?$AAa?$AAs?$AAs?$AA?4?$AAm?$AA_?$AAw?$AA?5?$AA?$CB?$AA?$DN?$AA?5?$AAd?$AAg?$AAF?$AAl?$AAo@ 10189130     physics:dgContact.obj
 0002:0000b188       ??_C@_1FE@PFLACOON@?$AA?4?$AA?4?$AA?2?$AA?4?$AA?4?$AA?2?$AA?4?$AA?4?$AA?2?$AAs?$AAd?$AAk?$AA?2?$AAp?$AAh?$AAy?$AAs?$AAi?$AAc?$AAs?$AA?2?$AAd?$AAg?$AAB?$AAo?$AAd?$AAy?$AAM?$AAa?$AAs?$AAt?$AAe@ 10189188     physics:dgBodyMasterList.obj
 0002:0000b1e0       ??_C@_1EA@HMGFGNBL@?$AAn?$AAo?$AAd?$AAe?$AA?9?$AA?$DO?$AAG?$AAe?$AAt?$AAI?$AAn?$AAf?$AAo?$AA?$CI?$AA?$CJ?$AA?4?$AAG?$AAe?$AAt?$AAC?$AAo?$AAu?$AAn?$AAt?$AA?$CI?$AA?$CJ?$AA?5?$AA?$DN?$AA?$DN?$AA?5?$AA0?$AA?$AA@ 101891e0     physics:dgBodyMasterList.obj
 0002:0000b220       ??_C@_1CI@CEELAJLJ@?$AAb?$AAo?$AAd?$AAy?$AA0?$AA?9?$AA?$DO?$AAm?$AA_?$AAm?$AAa?$AAs?$AAt?$AAe?$AAr?$AAN?$AAo?$AAd?$AAe?$AA?$AA@ 10189220     physics:dgBodyMasterList.obj
 0002:0000b248       ??_C@_1GG@GEAIOADK@?$AAb?$AAo?$AAd?$AAy?$AA1?$AA?5?$AA?$DN?$AA?$DN?$AA?5?$AAc?$AAo?$AAn?$AAs?$AAt?$AAr?$AAa?$AAi?$AAn?$AAt?$AA?9?$AA?$DO?$AAm?$AA_?$AAl?$AAi?$AAn?$AAk?$AA0?$AA?9?$AA?$DO?$AAG?$AAe@ 10189248     physics:dgBodyMasterList.obj
 0002:0000b2b0       ??_C@_1GG@DNIDGKDM@?$AAb?$AAo?$AAd?$AAy?$AA0?$AA?5?$AA?$DN?$AA?$DN?$AA?5?$AAc?$AAo?$AAn?$AAs?$AAt?$AAr?$AAa?$AAi?$AAn?$AAt?$AA?9?$AA?$DO?$AAm?$AA_?$AAl?$AAi?$AAn?$AAk?$AA1?$AA?9?$AA?$DO?$AAG?$AAe@ 101892b0     physics:dgBodyMasterList.obj
 0002:0000b318       ??_C@_1EE@MFPGPPIG@?$AA?$CI?$AA?$CI?$AAd?$AAg?$AAI?$AAn?$AAt?$AA3?$AA2?$AA?$CJ?$AAm?$AA_?$AAc?$AAo?$AAn?$AAs?$AAt?$AAr?$AAa?$AAi?$AAn?$AAt?$AAC?$AAo?$AAu?$AAn?$AAt?$AA?$CJ?$AA?5?$AA?$DO?$AA?$DN?$AA?5@ 10189318     physics:dgBodyMasterList.obj
 0002:0000b35c       ??_C@_1CI@GDMAMNHL@?$AAe?$AAn?$AAt?$AAr?$AAy?$AA?5?$AA?$DN?$AA?$DN?$AA?5?$AAG?$AAe?$AAt?$AAF?$AAi?$AAr?$AAs?$AAt?$AA?$CI?$AA?$CJ?$AA?$AA@ 1018935c     physics:dgBodyMasterList.obj
 0002:0000b384       ??_C@_1CG@BCGNHBJL@?$AAG?$AAe?$AAt?$AAF?$AAi?$AAr?$AAs?$AAt?$AA?$CI?$AA?$CJ?$AA?5?$AA?$CB?$AA?$DN?$AA?5?$AAn?$AAo?$AAd?$AAe?$AA?$AA@ 10189384     physics:dgBodyMasterList.obj
 0002:0000b3b0       ??_7dgCollisionSphere@@6B@ 101893b0     physics:dgCollisionSphere.obj
 0002:0000b430       ??_C@_1FG@NENDJOJ@?$AA?4?$AA?4?$AA?2?$AA?4?$AA?4?$AA?2?$AA?4?$AA?4?$AA?2?$AAs?$AAd?$AAk?$AA?2?$AAp?$AAh?$AAy?$AAs?$AAi?$AAc?$AAs?$AA?2?$AAd?$AAg?$AAC?$AAo?$AAl?$AAl?$AAi?$AAs?$AAi?$AAo?$AAn@ 10189430     physics:dgCollisionSphere.obj
 0002:0000b488       ??_C@_1CK@GMEEAHGL@?$AAm?$AA_?$AAs?$AAh?$AAa?$AAp?$AAe?$AAR?$AAe?$AAf?$AAC?$AAo?$AAu?$AAn?$AAt?$AA?5?$AA?$DO?$AA?$DN?$AA?5?$AA0?$AA?$AA@ 10189488     physics:dgCollisionSphere.obj
 0002:0000b4b8       ??_C@_1EM@EDGBOGPB@?$AAv?$AAe?$AAr?$AAt?$AAe?$AAx?$AAC?$AAo?$AAu?$AAn?$AAt?$AA?5?$AA?$DN?$AA?$DN?$AA?5?$AAD?$AAG?$AA_?$AAS?$AAP?$AAH?$AAE?$AAR?$AAE?$AA_?$AAV?$AAE?$AAR?$AAT?$AAE?$AAX?$AA_@ 101894b8     physics:dgCollisionSphere.obj
 0002:0000b508       ??_C@_1HG@MLOHCMNL@?$AAd?$AAg?$AAA?$AAb?$AAs?$AAf?$AA?$CI?$AAd?$AAi?$AAr?$AA?5?$AA?$CF?$AA?5?$AAd?$AAi?$AAr?$AA?5?$AA?9?$AA?5?$AAd?$AAg?$AAF?$AAl?$AAo?$AAa?$AAt?$AA3?$AA2?$AA?5?$AA?$CI?$AA1?$AA?4@ 10189508     physics:dgCollisionSphere.obj
 0002:0000b580       ??_C@_1HI@MICCLNLI@?$AAd?$AAg?$AAA?$AAb?$AAs?$AAf?$AA?5?$AA?$CI?$AAp?$AA2?$AA0?$AA?5?$AA?$CF?$AA?5?$AAp?$AA2?$AA0?$AA?5?$AA?9?$AA?5?$AAd?$AAg?$AAF?$AAl?$AAo?$AAa?$AAt?$AA3?$AA2?$AA?5?$AA?$CI?$AA1@ 10189580     physics:dgCollisionSphere.obj
 0002:0000b5f8       ??_C@_1HI@HCKHNDOG@?$AAd?$AAg?$AAA?$AAb?$AAs?$AAf?$AA?5?$AA?$CI?$AAp?$AA1?$AA2?$AA?5?$AA?$CF?$AA?5?$AAp?$AA1?$AA2?$AA?5?$AA?9?$AA?5?$AAd?$AAg?$AAF?$AAl?$AAo?$AAa?$AAt?$AA3?$AA2?$AA?5?$AA?$CI?$AA1@ 101895f8     physics:dgCollisionSphere.obj
 0002:0000b670       ??_C@_1HI@EBKHJBFI@?$AAd?$AAg?$AAA?$AAb?$AAs?$AAf?$AA?5?$AA?$CI?$AAp?$AA0?$AA1?$AA?5?$AA?$CF?$AA?5?$AAp?$AA0?$AA1?$AA?5?$AA?9?$AA?5?$AAd?$AAg?$AAF?$AAl?$AAo?$AAa?$AAt?$AA3?$AA2?$AA?5?$AA?$CI?$AA1@ 10189670     physics:dgCollisionSphere.obj
 0002:0000b6e8       ??_C@_1HE@NKKBDIOP@?$AAd?$AAg?$AAA?$AAb?$AAs?$AAf?$AA?5?$AA?$CI?$AAp?$AA2?$AA?5?$AA?$CF?$AA?5?$AAp?$AA2?$AA?5?$AA?9?$AA?5?$AAd?$AAg?$AAF?$AAl?$AAo?$AAa?$AAt?$AA3?$AA2?$AA?5?$AA?$CI?$AA1?$AA?4?$AA0@ 101896e8     physics:dgCollisionSphere.obj
 0002:0000b760       ??_C@_1HE@JNKAFPDN@?$AAd?$AAg?$AAA?$AAb?$AAs?$AAf?$AA?5?$AA?$CI?$AAp?$AA1?$AA?5?$AA?$CF?$AA?5?$AAp?$AA1?$AA?5?$AA?9?$AA?5?$AAd?$AAg?$AAF?$AAl?$AAo?$AAa?$AAt?$AA3?$AA2?$AA?5?$AA?$CI?$AA1?$AA?4?$AA0@ 10189760     physics:dgCollisionSphere.obj
 0002:0000b7d8       ??_C@_1HE@KAKAICHD@?$AAd?$AAg?$AAA?$AAb?$AAs?$AAf?$AA?5?$AA?$CI?$AAp?$AA0?$AA?5?$AA?$CF?$AA?5?$AAp?$AA0?$AA?5?$AA?9?$AA?5?$AAd?$AAg?$AAF?$AAl?$AAo?$AAa?$AAt?$AA3?$AA2?$AA?5?$AA?$CI?$AA1?$AA?4?$AA0@ 101897d8     physics:dgCollisionSphere.obj
 0002:0000b850       ??_C@_1EO@FNPBDJPF@?$AA?$CI?$AAn?$AAo?$AAr?$AAm?$AAa?$AAl?$AA?5?$AA?$CF?$AA?5?$AAn?$AAo?$AAr?$AAm?$AAa?$AAl?$AA?$CJ?$AA?5?$AA?$DO?$AA?5?$AAd?$AAg?$AAF?$AAl?$AAo?$AAa?$AAt?$AA3?$AA2?$AA?5?$AA?$CI?$AA0@ 10189850     physics:dgCollisionSphere.obj
 0002:0000b8a0       __real@40860a90            101898a0     physics:dgCollisionSphere.obj
 0002:0000b8a8       ??_7dgConvexCollision@@6B@ 101898a8     physics:dgConvexCollision.obj
 0002:0000b928       ??_C@_1KE@HFBEMMPF@?$AAm?$AA_?$AAs?$AAu?$AAp?$AAp?$AAo?$AAr?$AAt?$AAV?$AAe?$AAr?$AAt?$AAe?$AAx?$AAS?$AAt?$AAa?$AAr?$AAC?$AAu?$AAa?$AAd?$AAr?$AAa?$AAn?$AAt?$AA?$FL?$AA7?$AA?$FN?$AA?5?$AA?$DN@ 10189928     physics:dgConvexCollision.obj
 0002:0000b9d0       ??_C@_1KE@CGCONINI@?$AAm?$AA_?$AAs?$AAu?$AAp?$AAp?$AAo?$AAr?$AAt?$AAV?$AAe?$AAr?$AAt?$AAe?$AAx?$AAS?$AAt?$AAa?$AAr?$AAC?$AAu?$AAa?$AAd?$AAr?$AAa?$AAn?$AAt?$AA?$FL?$AA6?$AA?$FN?$AA?5?$AA?$DN@ 101899d0     physics:dgConvexCollision.obj
 0002:0000ba78       ??_C@_1KE@NDGAOEKP@?$AAm?$AA_?$AAs?$AAu?$AAp?$AAp?$AAo?$AAr?$AAt?$AAV?$AAe?$AAr?$AAt?$AAe?$AAx?$AAS?$AAt?$AAa?$AAr?$AAC?$AAu?$AAa?$AAd?$AAr?$AAa?$AAn?$AAt?$AA?$FL?$AA5?$AA?$FN?$AA?5?$AA?$DN@ 10189a78     physics:dgConvexCollision.obj
 0002:0000bb20       ??_C@_1KE@IAFKPAIC@?$AAm?$AA_?$AAs?$AAu?$AAp?$AAp?$AAo?$AAr?$AAt?$AAV?$AAe?$AAr?$AAt?$AAe?$AAx?$AAS?$AAt?$AAa?$AAr?$AAC?$AAu?$AAa?$AAd?$AAr?$AAa?$AAn?$AAt?$AA?$FL?$AA4?$AA?$FN?$AA?5?$AA?$DN@ 10189b20     physics:dgConvexCollision.obj
 0002:0000bbc8       ??_C@_1GK@PCKBLDEK@?$AAc?$AAo?$AAu?$AAn?$AAt?$AA?5?$AA?$DM?$AA?5?$AAs?$AAi?$AAz?$AAe?$AAo?$AAf?$AA?5?$AA?$CI?$AAf?$AAa?$AAc?$AAe?$AAV?$AAe?$AAr?$AAt?$AAe?$AAx?$AA?$CJ?$AA?5?$AA?1?$AA?5?$AAs?$AAi@ 10189bc8     physics:dgConvexCollision.obj
 0002:0000bc38       ??_C@_1FG@FBABFIDC@?$AA?4?$AA?4?$AA?2?$AA?4?$AA?4?$AA?2?$AA?4?$AA?4?$AA?2?$AAs?$AAd?$AAk?$AA?2?$AAp?$AAh?$AAy?$AAs?$AAi?$AAc?$AAs?$AA?2?$AAd?$AAg?$AAC?$AAo?$AAn?$AAv?$AAe?$AAx?$AAC?$AAo?$AAl@ 10189c38     physics:dgConvexCollision.obj
 0002:0000bc90       ??_C@_1DA@GNPHDBCE@?$AA?$CI?$AAe?$AAd?$AAg?$AAe?$AA?5?$AA?9?$AA?5?$AAm?$AA_?$AAs?$AAi?$AAm?$AAp?$AAl?$AAe?$AAx?$AA?$CJ?$AA?5?$AA?$DO?$AA?$DN?$AA?5?$AA0?$AA?$AA@ 10189c90     physics:dgConvexCollision.obj
 0002:0000bcc0       __real@40c90fd0            10189cc0     physics:dgConvexCollision.obj
 0002:0000bcc4       __real@43800000            10189cc4     physics:dgConvexCollision.obj
 0002:0000bcc8       __real@44800000            10189cc8     physics:dgConvexCollision.obj
 0002:0000bccc       ??_C@_1CK@HHHEAIIJ@?$AAi?$AAn?$AAe?$AAr?$AAt?$AAi?$AAa?$AAO?$AAu?$AAt?$AA?$FL?$AA2?$AA?$FN?$AA?5?$AA?$DO?$AA?5?$AA0?$AA?4?$AA0?$AAf?$AA?$AA@ 10189ccc     physics:dgConvexCollision.obj
 0002:0000bcf8       ??_C@_1CK@NINNEFED@?$AAi?$AAn?$AAe?$AAr?$AAt?$AAi?$AAa?$AAO?$AAu?$AAt?$AA?$FL?$AA1?$AA?$FN?$AA?5?$AA?$DO?$AA?5?$AA0?$AA?4?$AA0?$AAf?$AA?$AA@ 10189cf8     physics:dgConvexCollision.obj
 0002:0000bd24       ??_C@_1CK@LNLKHOAF@?$AAi?$AAn?$AAe?$AAr?$AAt?$AAi?$AAa?$AAO?$AAu?$AAt?$AA?$FL?$AA0?$AA?$FN?$AA?5?$AA?$DO?$AA?5?$AA0?$AA?4?$AA0?$AAf?$AA?$AA@ 10189d24     physics:dgConvexCollision.obj
 0002:0000bd50       __real@358637bc            10189d50     physics:dgConvexCollision.obj
 0002:0000bd58       ??_C@_1FE@OFPFLIFH@?$AAm?$AA_?$AAv?$AAo?$AAl?$AAu?$AAm?$AAe?$AA?4?$AAm?$AA_?$AAw?$AA?5?$AA?$DO?$AA?$DN?$AA?5?$AAd?$AAg?$AAF?$AAl?$AAo?$AAa?$AAt?$AA3?$AA2?$AA?5?$AA?$CI?$AA0?$AA?4?$AA7?$AAf?$AA?$CJ@ 10189d58     physics:dgConvexCollision.obj
 0002:0000bdac       ??_C@_1BC@JHJJHKIE@?$AAm?$AAa?$AAx?$AAC?$AAo?$AAu?$AAn?$AAt?$AA?$AA@ 10189dac     physics:dgConvexCollision.obj
 0002:0000bdc0       ??_C@_1HC@KLFCJPEJ@?$AAm?$AA_?$AAv?$AAe?$AAr?$AAt?$AAe?$AAx?$AA?$FL?$AAe?$AAd?$AAg?$AAe?$AA?9?$AA?$DO?$AAm?$AA_?$AAt?$AAw?$AAi?$AAn?$AA?9?$AA?$DO?$AAm?$AA_?$AAv?$AAe?$AAr?$AAt?$AAe?$AAx?$AA?$FN@ 10189dc0     physics:dgConvexCollision.obj
 0002:0000be38       ??_C@_1GC@LCNDJOPO@?$AAm?$AA_?$AAv?$AAe?$AAr?$AAt?$AAe?$AAx?$AA?$FL?$AAe?$AAd?$AAg?$AAe?$AA?9?$AA?$DO?$AAm?$AA_?$AAv?$AAe?$AAr?$AAt?$AAe?$AAx?$AA?$FN?$AA?4?$AAm?$AA_?$AAw?$AA?5?$AA?$DN?$AA?$DN?$AA?5@ 10189e38     physics:dgConvexCollision.obj
 0002:0000bea0       ??_C@_1IO@ICPHKENN@?$AAd?$AAg?$AAA?$AAb?$AAs?$AAf?$AA?$CI?$AAd?$AAi?$AAr?$AAe?$AAc?$AAt?$AAi?$AAo?$AAn?$AA?5?$AA?$CF?$AA?5?$AAd?$AAi?$AAr?$AAe?$AAc?$AAt?$AAi?$AAo?$AAn?$AA?5?$AA?9?$AA?5?$AAd@ 10189ea0     physics:dgConvexCollision.obj
 0002:0000bf30       ??_C@_1DM@PFPADLMP@?$AAe?$AAr?$AAr?$AAo?$AAr?$AA?5?$AA?$DO?$AA?$DN?$AA?5?$AAd?$AAg?$AAF?$AAl?$AAo?$AAa?$AAt?$AA3?$AA2?$AA?5?$AA?$CI?$AA?9?$AA1?$AA?4?$AA0?$AAe?$AA?9?$AA4?$AAf?$AA?$CJ?$AA?$AA@ 10189f30     physics:dgConvexCollision.obj
 0002:0000bf6c       __real@b8d1b717            10189f6c     physics:dgConvexCollision.obj
 0002:0000bf70       ??_C@_1DM@HKJCDCE@?$AAp?$AAr?$AAo?$AAj?$AAe?$AAc?$AAt?$AAi?$AAo?$AAn?$AA?5?$AA?$DO?$AA?5?$AAd?$AAg?$AAF?$AAl?$AAo?$AAa?$AAt?$AA3?$AA2?$AA?5?$AA?$CI?$AA0?$AA?4?$AA9?$AAf?$AA?$CJ?$AA?$AA@ 10189f70     physics:dgConvexCollision.obj
 0002:0000bfac       ??_C@_1DG@IBPDNOKN@?$AA?$CI?$AAn?$AA?5?$AA?$CF?$AA?5?$AAn?$AA?$CJ?$AA?5?$AA?$DO?$AA?5?$AAd?$AAg?$AAF?$AAl?$AAo?$AAa?$AAt?$AA3?$AA2?$AA?5?$AA?$CI?$AA0?$AA?4?$AA0?$AAf?$AA?$CJ?$AA?$AA@ 10189fac     physics:dgConvexCollision.obj
 0002:0000bfe8       ??_C@_1FC@KKFJNGMI@?$AAc?$AAo?$AAu?$AAn?$AAt?$AA?5?$AA?$DM?$AA?5?$AAs?$AAi?$AAz?$AAe?$AAo?$AAf?$AA?5?$AA?$CI?$AAm?$AAa?$AAr?$AAk?$AA?$CJ?$AA?5?$AA?1?$AA?5?$AAs?$AAi?$AAz?$AAe?$AAo?$AAf?$AA?5?$AA?$CI@ 10189fe8     physics:dgConvexCollision.obj
 0002:0000c040       ??_C@_1FA@PNGANJDP@?$AAS?$AAa?$AAn?$AAi?$AAt?$AAy?$AAC?$AAh?$AAe?$AAc?$AAk?$AA?$CI?$AAc?$AAo?$AAu?$AAn?$AAt?$AA?0?$AA?5?$AAn?$AAo?$AAr?$AAm?$AAa?$AAl?$AA?0?$AA?5?$AAc?$AAo?$AAn?$AAt?$AAa@ 1018a040     physics:dgConvexCollision.obj
 0002:0000c090       ??_C@_1CE@GNEGEGNH@?$AAt?$AAm?$AAp?$AAC?$AAo?$AAu?$AAn?$AAt?$AA?5?$AA?$DN?$AA?$DN?$AA?5?$AAc?$AAo?$AAu?$AAn?$AAt?$AA?$AA@ 1018a090     physics:dgConvexCollision.obj
 0002:0000c0b4       __real@3716feb5            1018a0b4     physics:dgConvexCollision.obj
 0002:0000c0b8       ??_C@_1BE@CGJCMMDD@?$AAc?$AAo?$AAu?$AAn?$AAt?$AA?5?$AA?$DO?$AA?5?$AA2?$AA?$AA@ 1018a0b8     physics:dgConvexCollision.obj
 0002:0000c0cc       ??_C@_1DK@IOKGAKDK@?$AAm?$AAa?$AAx?$AAC?$AAo?$AAu?$AAn?$AAt?$AA?5?$AA?$DM?$AA?5?$AAD?$AAG?$AA_?$AAC?$AAL?$AAI?$AAP?$AA_?$AAM?$AAA?$AAX?$AA_?$AAC?$AAO?$AAU?$AAN?$AAT?$AA?$AA@ 1018a0cc     physics:dgConvexCollision.obj
 0002:0000c108       ??_C@_1BI@KKDJDJKM@?$AAp?$AAt?$AAr?$AA1?$AA?5?$AA?$CB?$AA?$DN?$AA?5?$AAp?$AAt?$AAr?$AA?$AA@ 1018a108     physics:dgConvexCollision.obj
 0002:0000c120       ??_C@_1HA@OMMLMKGA@?$AAm?$AA_?$AAv?$AAe?$AAr?$AAt?$AAe?$AAx?$AA?$FL?$AAp?$AAt?$AAr?$AA1?$AA?9?$AA?$DO?$AAm?$AA_?$AAt?$AAw?$AAi?$AAn?$AA?9?$AA?$DO?$AAm?$AA_?$AAv?$AAe?$AAr?$AAt?$AAe?$AAx?$AA?$FN@ 1018a120     physics:dgConvexCollision.obj
 0002:0000c190       ??_C@_1FG@PBNPIBMD@?$AA?$CI?$AA?$CI?$AAd?$AAg?$AAF?$AAl?$AAo?$AAa?$AAt?$AA3?$AA2?$AA?$CK?$AA?$CJ?$AA?$CG?$AAd?$AAe?$AAn?$AA?$CJ?$AA?$FL?$AA0?$AA?$FN?$AA?5?$AA?$DO?$AA?$DN?$AA?5?$AAd?$AAg?$AAF?$AAl?$AAo?$AAa?$AAt@ 1018a190     physics:dgConvexCollision.obj
 0002:0000c1e8       ??_C@_1FE@ENGDPLAE@?$AA?$CI?$AA?$CI?$AAd?$AAg?$AAF?$AAl?$AAo?$AAa?$AAt?$AA3?$AA2?$AA?$CK?$AA?$CJ?$AA?$CG?$AAd?$AAe?$AAn?$AA?$CJ?$AA?$FL?$AA0?$AA?$FN?$AA?5?$AA?$DM?$AA?$DN?$AA?5?$AAd?$AAg?$AAF?$AAl?$AAo?$AAa?$AAt@ 1018a1e8     physics:dgConvexCollision.obj
 0002:0000c240       ??_C@_1FE@LPBABMCA@?$AA?$CI?$AA?$CI?$AAd?$AAg?$AAF?$AAl?$AAo?$AAa?$AAt?$AA3?$AA2?$AA?$CK?$AA?$CJ?$AA?$CG?$AAt?$AAm?$AAp?$AA?$CJ?$AA?$FL?$AA3?$AA?$FN?$AA?5?$AA?$DM?$AA?$DN?$AA?5?$AAd?$AAg?$AAF?$AAl?$AAo?$AAa?$AAt@ 1018a240     physics:dgConvexCollision.obj
 0002:0000c298       ??_C@_1FK@LELNOIHL@?$AA?$CI?$AA?$CI?$AAd?$AAg?$AAF?$AAl?$AAo?$AAa?$AAt?$AA3?$AA2?$AA?$CK?$AA?$CJ?$AA?$CG?$AAd?$AAe?$AAl?$AAt?$AAa?$AAP?$AA?$CJ?$AA?$FL?$AA3?$AA?$FN?$AA?5?$AA?$DN?$AA?$DN?$AA?5?$AAd?$AAg?$AAF?$AAl@ 1018a298     physics:dgConvexCollision.obj
 0002:0000c2f8       ??_C@_1HA@PLFLAFIB@?$AAm?$AA_?$AAv?$AAe?$AAr?$AAt?$AAe?$AAx?$AA?$FL?$AAp?$AAt?$AAr?$AA?9?$AA?$DO?$AAm?$AA_?$AAt?$AAw?$AAi?$AAn?$AA?9?$AA?$DO?$AAm?$AA_?$AAv?$AAe?$AAr?$AAt?$AAe?$AAx?$AA?$FN?$AA?4@ 1018a2f8     physics:dgConvexCollision.obj
 0002:0000c368       ??_C@_1HC@JEBGKMAO@?$AAm?$AA_?$AAv?$AAe?$AAr?$AAt?$AAe?$AAx?$AA?$FL?$AAp?$AAt?$AAr?$AA1?$AA?9?$AA?$DO?$AAm?$AA_?$AAt?$AAw?$AAi?$AAn?$AA?9?$AA?$DO?$AAm?$AA_?$AAv?$AAe?$AAr?$AAt?$AAe?$AAx?$AA?$FN@ 1018a368     physics:dgConvexCollision.obj
 0002:0000c3dc       ??_C@_1DA@MIOPFJCI@?$AAt?$AA?5?$AA?$DO?$AA?$DN?$AA?5?$AAd?$AAg?$AAF?$AAl?$AAo?$AAa?$AAt?$AA3?$AA2?$AA?5?$AA?$CI?$AA?9?$AA1?$AA?4?$AA0?$AA5?$AAf?$AA?$CJ?$AA?$AA@ 1018a3dc     physics:dgConvexCollision.obj
 0002:0000c40c       __real@bf866666            1018a40c     physics:dgConvexCollision.obj
 0002:0000c410       ??_C@_1CO@BOEKNLJJ@?$AAt?$AA?5?$AA?$DM?$AA?$DN?$AA?5?$AAd?$AAg?$AAF?$AAl?$AAo?$AAa?$AAt?$AA3?$AA2?$AA?5?$AA?$CI?$AA0?$AA?4?$AA0?$AA1?$AAf?$AA?$CJ?$AA?$AA@ 1018a410     physics:dgConvexCollision.obj
 0002:0000c440       __real@979abe15            1018a440     physics:dgConvexCollision.obj
 0002:0000c448       ??_C@_1IE@JFHPFHHH@?$AAp?$AAl?$AAa?$AAn?$AAe?$AA?4?$AAE?$AAv?$AAa?$AAl?$AAu?$AAe?$AA?5?$AA?$CI?$AAm?$AA_?$AAv?$AAe?$AAr?$AAt?$AAe?$AAx?$AA?$FL?$AAp?$AAt?$AAr?$AA?9?$AA?$DO?$AAm?$AA_?$AAt?$AAw@ 1018a448     physics:dgConvexCollision.obj
 0002:0000c4d0       ??_C@_1HE@NJNGPGMC@?$AAp?$AAl?$AAa?$AAn?$AAe?$AA?4?$AAE?$AAv?$AAa?$AAl?$AAu?$AAe?$AA?5?$AA?$CI?$AAm?$AA_?$AAv?$AAe?$AAr?$AAt?$AAe?$AAx?$AA?$FL?$AAp?$AAt?$AAr?$AA?9?$AA?$DO?$AAm?$AA_?$AAv?$AAe@ 1018a4d0     physics:dgConvexCollision.obj
 0002:0000c548       ??_C@_1KI@PMFDEHAA@?$AAd?$AAg?$AAA?$AAb?$AAs?$AAf?$AA?5?$AA?$CI?$AAs?$AAi?$AAd?$AAe?$AA0?$AA?5?$AA?9?$AA?5?$AAp?$AAl?$AAa?$AAn?$AAe?$AA?4?$AAE?$AAv?$AAa?$AAl?$AAu?$AAe?$AA?5?$AA?$CI?$AAm?$AA_@ 1018a548     physics:dgConvexCollision.obj
 0002:0000c5f0       ??_C@_1KE@FPNCCGFK@?$AA?$CI?$AAs?$AAi?$AAd?$AAe?$AA1?$AA?5?$AA?$DN?$AA?5?$AAp?$AAl?$AAa?$AAn?$AAe?$AA?4?$AAE?$AAv?$AAa?$AAl?$AAu?$AAe?$AA?5?$AA?$CI?$AAm?$AA_?$AAv?$AAe?$AAr?$AAt?$AAe?$AAx?$AA?$FL@ 1018a5f0     physics:dgConvexCollision.obj
 0002:0000c698       ??_C@_1JG@KHDKLLEE@?$AA?$CI?$AAs?$AAi?$AAd?$AAe?$AA1?$AA?5?$AA?$DN?$AA?5?$AAp?$AAl?$AAa?$AAn?$AAe?$AA?4?$AAE?$AAv?$AAa?$AAl?$AAu?$AAe?$AA?5?$AA?$CI?$AAm?$AA_?$AAv?$AAe?$AAr?$AAt?$AAe?$AAx?$AA?$FL@ 1018a698     physics:dgConvexCollision.obj
 0002:0000c730       ??_C@_1DE@GPCANGNL@?$AAs?$AAi?$AAd?$AAe?$AA0?$AA?5?$AA?$DO?$AA?$DN?$AA?5?$AAd?$AAg?$AAF?$AAl?$AAo?$AAa?$AAt?$AA3?$AA2?$AA?5?$AA?$CI?$AA0?$AA?4?$AA0?$AAf?$AA?$CJ?$AA?$AA@ 1018a730     physics:dgConvexCollision.obj
 0002:0000c764       ??_C@_1CM@LECHILEB@?$AAD?$AA?5?$AA?$DO?$AA?$DN?$AA?5?$AAd?$AAg?$AAF?$AAl?$AAo?$AAa?$AAt?$AA3?$AA2?$AA?5?$AA?$CI?$AA0?$AA?4?$AA0?$AAf?$AA?$CJ?$AA?$AA@ 1018a764     physics:dgConvexCollision.obj
 0002:0000c790       __real@2b8cbccc            1018a790     physics:dgConvexCollision.obj
 0002:0000c798       ??_C@_1FC@CKHAOKJP@?$AAc?$AA?3?$AA?2?$AAn?$AAe?$AAw?$AAt?$AAo?$AAn?$AA_?$AA2?$AA0?$AA0?$AA?2?$AA3?$AAd?$AAl?$AAi?$AAb?$AA?2?$AAs?$AAd?$AAk?$AA?2?$AAc?$AAo?$AAr?$AAe?$AAl?$AAi?$AAb?$AA?2@ 1018a798     physics:dgConvexCollision.obj
 0002:0000c7ec       ??_C@_1BO@IIFGDPEP@?$AAi?$AA?$DM?$AA?$DN?$AA?5?$AAm?$AA_?$AAc?$AAu?$AAr?$AAC?$AAo?$AAu?$AAn?$AAt?$AA?$AA@ 1018a7ec     physics:dgConvexCollision.obj
 0002:0000c80c       ??_C@_13JIJFJIGK@?$AAi?$AA?$AA@ 1018a80c     physics:dgConvexCollision.obj
 0002:0000c810       ??_C@_1DA@BDFFGIFB@?$AAm?$AA_?$AAc?$AAu?$AAr?$AAC?$AAo?$AAu?$AAn?$AAt?$AA?5?$AA?$DM?$AA?5?$AAm?$AA_?$AAm?$AAa?$AAx?$AAC?$AAo?$AAu?$AAn?$AAt?$AA?$AA@ 1018a810     physics:dgConvexCollision.obj
 0002:0000c840       __real@40c00000            1018a840     physics:dgConvexCollision.obj
 0002:0000c844       __real@40e00000            1018a844     physics:dgConvexCollision.obj
 0002:0000c848       ??_7dgCollisionNull@@6B@   1018a848     physics:dgCollisionNull.obj
 0002:0000c8c8       ??_C@_1FC@BOKAGCGP@?$AA?4?$AA?4?$AA?2?$AA?4?$AA?4?$AA?2?$AA?4?$AA?4?$AA?2?$AAs?$AAd?$AAk?$AA?2?$AAp?$AAh?$AAy?$AAs?$AAi?$AAc?$AAs?$AA?2?$AAd?$AAg?$AAC?$AAo?$AAl?$AAl?$AAi?$AAs?$AAi?$AAo?$AAn@ 1018a8c8     physics:dgCollisionNull.obj
 0002:0000c920       ??_7dgCollisionBox@@6B@    1018a920     physics:dgCollisionBox.obj
 0002:0000c9a0       ??_C@_1FA@NPIHAGHP@?$AA?4?$AA?4?$AA?2?$AA?4?$AA?4?$AA?2?$AA?4?$AA?4?$AA?2?$AAs?$AAd?$AAk?$AA?2?$AAp?$AAh?$AAy?$AAs?$AAi?$AAc?$AAs?$AA?2?$AAd?$AAg?$AAC?$AAo?$AAl?$AAl?$AAi?$AAs?$AAi?$AAo?$AAn@ 1018a9a0     physics:dgCollisionBox.obj
 0002:0000c9f0       ??_C@_1BI@PEMLDEIK@?$AAt?$AAm?$AAi?$AAn?$AA?5?$AA?$DM?$AA?5?$AA1?$AA?4?$AA0?$AAf?$AA?$AA@ 1018a9f0     physics:dgCollisionBox.obj
 0002:0000ca08       __real@3eaaaaab            1018aa08     physics:dgCollisionBox.obj
 0002:0000ca0c       __real@41000000            1018aa0c     physics:dgCollisionBox.obj
 0002:0000ca10       ??_C@_1BI@HJPGJPOL@?$AAp?$AAt?$AAr?$AA?5?$AA?$CB?$AA?$DN?$AA?5?$AAp?$AAt?$AAr?$AA1?$AA?$AA@ 1018aa10     physics:dgCollisionBox.obj
 0002:0000ca28       ??_C@_1FC@CKFDBCHI@?$AAt?$AAe?$AAs?$AAt?$AA?$FL?$AAp?$AAt?$AAr?$AA1?$AA?9?$AA?$DO?$AAm?$AA_?$AAv?$AAe?$AAr?$AAt?$AAe?$AAx?$AA?$FN?$AA?5?$AA?$DM?$AA?$DN?$AA?5?$AAd?$AAg?$AAF?$AAl?$AAo?$AAa?$AAt?$AA3@ 1018aa28     physics:dgCollisionBox.obj
 0002:0000ca80       ??_C@_1FA@ENHIKIKL@?$AAt?$AAe?$AAs?$AAt?$AA?$FL?$AAe?$AAd?$AAg?$AAe?$AA?9?$AA?$DO?$AAm?$AA_?$AAv?$AAe?$AAr?$AAt?$AAe?$AAx?$AA?$FN?$AA?5?$AA?$DO?$AA?5?$AAd?$AAg?$AAF?$AAl?$AAo?$AAa?$AAt?$AA3?$AA2@ 1018aa80     physics:dgCollisionBox.obj
 0002:0000cad0       ??_C@_1FC@FIJNBLBO@?$AAm?$AA_?$AAv?$AAe?$AAr?$AAt?$AAe?$AAx?$AA?$FL?$AAi?$AAn?$AAd?$AAe?$AAx?$AA1?$AA?$FN?$AA?4?$AAm?$AA_?$AAw?$AA?5?$AA?$DN?$AA?$DN?$AA?5?$AAd?$AAg?$AAF?$AAl?$AAo?$AAa?$AAt?$AA3@ 1018aad0     physics:dgCollisionBox.obj
 0002:0000cb28       ??_C@_1FC@FJDILCKI@?$AAm?$AA_?$AAv?$AAe?$AAr?$AAt?$AAe?$AAx?$AA?$FL?$AAi?$AAn?$AAd?$AAe?$AAx?$AA0?$AA?$FN?$AA?4?$AAm?$AA_?$AAw?$AA?5?$AA?$DN?$AA?$DN?$AA?5?$AAd?$AAg?$AAF?$AAl?$AAo?$AAa?$AAt?$AA3@ 1018ab28     physics:dgCollisionBox.obj
 0002:0000cb80       ??_7dgCollision@@6B@       1018ab80     physics:dgCollision.obj
 0002:0000cbf0       ??_C@_1FM@EBCOCBPG@?$AAc?$AA?3?$AA?2?$AAn?$AAe?$AAw?$AAt?$AAo?$AAn?$AA_?$AA2?$AA0?$AA0?$AA?2?$AA3?$AAd?$AAl?$AAi?$AAb?$AA?2?$AAs?$AAd?$AAk?$AA?2?$AAp?$AAh?$AAy?$AAs?$AAi?$AAc?$AAs?$AA?2@ 1018abf0     physics:dgCollision.obj
 0002:0000cc4c       ??_C@_1DC@HJFHDABK@?$AAd?$AAe?$AAt?$AA?5?$AA?$DM?$AA?5?$AAd?$AAg?$AAF?$AAl?$AAo?$AAa?$AAt?$AA3?$AA2?$AA?5?$AA?$CI?$AA1?$AA?4?$AA0?$AA0?$AA1?$AAf?$AA?$CJ?$AA?$AA@ 1018ac4c     physics:dgCollision.obj
 0002:0000cc80       __real@3f8020c5            1018ac80     physics:dgCollision.obj
 0002:0000cc88       ??_C@_1EK@KDFMCGFI@?$AA?4?$AA?4?$AA?2?$AA?4?$AA?4?$AA?2?$AA?4?$AA?4?$AA?2?$AAs?$AAd?$AAk?$AA?2?$AAp?$AAh?$AAy?$AAs?$AAi?$AAc?$AAs?$AA?2?$AAd?$AAg?$AAC?$AAo?$AAl?$AAl?$AAi?$AAs?$AAi?$AAo?$AAn@ 1018ac88     physics:dgCollision.obj
 0002:0000ccd4       ??_C@_1DC@PMGEKEPI@?$AAd?$AAe?$AAt?$AA?5?$AA?$DO?$AA?5?$AAd?$AAg?$AAF?$AAl?$AAo?$AAa?$AAt?$AA3?$AA2?$AA?5?$AA?$CI?$AA0?$AA?4?$AA9?$AA9?$AA9?$AAf?$AA?$CJ?$AA?$AA@ 1018acd4     physics:dgCollision.obj
 0002:0000cd08       ??_7dgCollisionEllipse@@6B@ 1018ad08     physics:dgCollisionEllipse.obj
 0002:0000cd88       ??_C@_1FI@KLIANGJM@?$AA?4?$AA?4?$AA?2?$AA?4?$AA?4?$AA?2?$AA?4?$AA?4?$AA?2?$AAs?$AAd?$AAk?$AA?2?$AAp?$AAh?$AAy?$AAs?$AAi?$AAc?$AAs?$AA?2?$AAd?$AAg?$AAC?$AAo?$AAl?$AAl?$AAi?$AAs?$AAi?$AAo?$AAn@ 1018ad88     physics:dgCollisionEllipse.obj
 0002:0000cde0       ??_C@_1EC@JGJJGPCF@?$AA?$CI?$AAd?$AAi?$AAr?$AA?5?$AA?$CF?$AA?5?$AAd?$AAi?$AAr?$AA?$CJ?$AA?5?$AA?$DO?$AA?5?$AAd?$AAg?$AAF?$AAl?$AAo?$AAa?$AAt?$AA3?$AA2?$AA?5?$AA?$CI?$AA0?$AA?4?$AA9?$AA9?$AA9?$AAf?$AA?$CJ@ 1018ade0     physics:dgCollisionEllipse.obj
 0002:0000ce28       ??_C@_1EK@FFEBHMHK@?$AA?$CI?$AAd?$AAg?$AAU?$AAn?$AAs?$AAi?$AAg?$AAn?$AAe?$AAd?$AA6?$AA4?$AA?$CI?$AA?$CG?$AAm?$AA_?$AAs?$AAc?$AAa?$AAl?$AAe?$AA?$CJ?$AA?5?$AA?$CG?$AA?5?$AA0?$AAx?$AA0?$AAf?$AA?$CJ?$AA?5@ 1018ae28     physics:dgCollisionEllipse.obj
 0002:0000ce78       ??_C@_1EC@NFOLCLCL@?$AA?$CI?$AAd?$AAg?$AAU?$AAn?$AAs?$AAi?$AAg?$AAn?$AAe?$AAd?$AA6?$AA4?$AA?$CI?$AA?$CG?$AAd?$AAi?$AAr?$AA?$CJ?$AA?5?$AA?$CG?$AA?5?$AA0?$AAx?$AA0?$AAf?$AA?$CJ?$AA?5?$AA?$DN?$AA?$DN?$AA?5?$AA0@ 1018ae78     physics:dgCollisionEllipse.obj
 0002:0000cec0       ??_7dgCollisionCapsule@@6B@ 1018aec0     physics:dgCollisionCapsule.obj
 0002:0000cf40       ??_C@_1FI@KMNOAPNJ@?$AA?4?$AA?4?$AA?2?$AA?4?$AA?4?$AA?2?$AA?4?$AA?4?$AA?2?$AAs?$AAd?$AAk?$AA?2?$AAp?$AAh?$AAy?$AAs?$AAi?$AAc?$AAs?$AA?2?$AAd?$AAg?$AAC?$AAo?$AAl?$AAl?$AAi?$AAs?$AAi?$AAo?$AAn@ 1018af40     physics:dgCollisionCapsule.obj
 0002:0000cf98       ??_C@_1DA@POPGLCJH@?$AAS?$AAa?$AAn?$AAi?$AAt?$AAy?$AAC?$AAh?$AAe?$AAc?$AAk?$AA?5?$AA?$CI?$AAp?$AAo?$AAl?$AAy?$AAh?$AAe?$AAd?$AAr?$AAa?$AA?$CJ?$AA?$AA@ 1018af98     physics:dgCollisionCapsule.obj
 0002:0000cfc8       __real@3f860a8b            1018afc8     physics:dgCollisionCapsule.obj
 0002:0000cfcc       __real@3ec90fd0            1018afcc     physics:dgCollisionCapsule.obj
 0002:0000cfd0       __real@4086e51b            1018afd0     physics:dgCollisionCapsule.obj
 0002:0000cfd4       __real@40ca57a8            1018afd4     physics:dgCollisionCapsule.obj
 0002:0000cfd8       ??_C@_1CO@JEOABEEA@?$AAx?$AA0?$AA?5?$AA?$DO?$AA?$DN?$AA?5?$AAd?$AAg?$AAF?$AAl?$AAo?$AAa?$AAt?$AA3?$AA2?$AA?5?$AA?$CI?$AA0?$AA?4?$AA0?$AAf?$AA?$CJ?$AA?$AA@ 1018afd8     physics:dgCollisionCapsule.obj
 0002:0000d008       ??_C@_1EM@KLHCOFBE@?$AAd?$AAg?$AAA?$AAb?$AAs?$AAf?$AA?5?$AA?$CI?$AAp?$AAl?$AAa?$AAn?$AAe?$AA?4?$AAm?$AA_?$AAy?$AA?$CJ?$AA?5?$AA?$DO?$AA?5?$AAd?$AAg?$AAF?$AAl?$AAo?$AAa?$AAt?$AA3?$AA2?$AA?5?$AA?$CI@ 1018b008     physics:dgCollisionCapsule.obj
 0002:0000d054       ??_C@_1CO@BBBIDGIP@?$AAx?$AA0?$AA?5?$AA?$DM?$AA?$DN?$AA?5?$AAd?$AAg?$AAF?$AAl?$AAo?$AAa?$AAt?$AA3?$AA2?$AA?5?$AA?$CI?$AA0?$AA?4?$AA0?$AAf?$AA?$CJ?$AA?$AA@ 1018b054     physics:dgCollisionCapsule.obj
 0002:0000d084       __real@bf000000            1018b084     physics:dgCollisionCapsule.obj
 0002:0000d088       ??_C@_1DM@MMCLGOGA@?$AAd?$AAg?$AAA?$AAb?$AAs?$AAf?$AA?5?$AA?$CI?$AAa?$AA?$CJ?$AA?5?$AA?$DO?$AA?5?$AAd?$AAg?$AAF?$AAl?$AAo?$AAa?$AAt?$AA3?$AA2?$AA?5?$AA?$CI?$AA0?$AA?4?$AA0?$AAf?$AA?$CJ?$AA?$AA@ 1018b088     physics:dgCollisionCapsule.obj
 0002:0000d0c8       ??_C@_1JC@BGCOGBOE@?$AAd?$AAg?$AAA?$AAb?$AAs?$AAf?$AA?5?$AA?$CI?$AAn?$AAo?$AAr?$AAm?$AAa?$AAl?$AA?4?$AAm?$AA_?$AAz?$AA?5?$AA?$CK?$AA?5?$AAc?$AAo?$AAs?$AAA?$AAn?$AAg?$AA?5?$AA?9?$AA?5?$AAn?$AAo@ 1018b0c8     physics:dgCollisionCapsule.obj
 0002:0000d160       ??_7dgCollisionCone@@6B@   1018b160     physics:dgCollisionCone.obj
 0002:0000d1e0       ??_C@_1FC@IDFINHAK@?$AA?4?$AA?4?$AA?2?$AA?4?$AA?4?$AA?2?$AA?4?$AA?4?$AA?2?$AAs?$AAd?$AAk?$AA?2?$AAp?$AAh?$AAy?$AAs?$AAi?$AAc?$AAs?$AA?2?$AAd?$AAg?$AAC?$AAo?$AAl?$AAl?$AAi?$AAs?$AAi?$AAo?$AAn@ 1018b1e0     physics:dgCollisionCone.obj
 0002:0000d234       __real@3f490fd0            1018b234     physics:dgCollisionCone.obj
 0002:0000d238       __real@3e860a8b            1018b238     physics:dgCollisionCone.obj
 0002:0000d23c       __real@3e19999a            1018b23c     physics:dgCollisionCone.obj
 0002:0000d240       __real@4006e51b            1018b240     physics:dgCollisionCone.obj
 0002:0000d248       ??_7dgCollisionCylinder@@6B@ 1018b248     physics:dgCollisionCylinder.obj
 0002:0000d2c8       ??_C@_1FK@PNLMMFDA@?$AA?4?$AA?4?$AA?2?$AA?4?$AA?4?$AA?2?$AA?4?$AA?4?$AA?2?$AAs?$AAd?$AAk?$AA?2?$AAp?$AAh?$AAy?$AAs?$AAi?$AAc?$AAs?$AA?2?$AAd?$AAg?$AAC?$AAo?$AAl?$AAl?$AAi?$AAs?$AAi?$AAo?$AAn@ 1018b2c8     physics:dgCollisionCylinder.obj
 0002:0000d328       ??_C@_1HM@CADMNBOJ@?$AAd?$AAg?$AAA?$AAb?$AAs?$AAf?$AA?5?$AA?$CI?$AA?$CI?$AAd?$AAi?$AAr?$AA?5?$AA?$CF?$AA?5?$AAd?$AAi?$AAr?$AA?5?$AA?9?$AA?5?$AAd?$AAg?$AAF?$AAl?$AAo?$AAa?$AAt?$AA3?$AA2?$AA?5?$AA?$CI@ 1018b328     physics:dgCollisionCylinder.obj
 0002:0000d3a8       ??_7dgCollisionChamferCylinder@@6B@ 1018b3a8     physics:dgCollisionChamferCylinder.obj
 0002:0000d428       ??_C@_1GI@DEPFBGFJ@?$AA?4?$AA?4?$AA?2?$AA?4?$AA?4?$AA?2?$AA?4?$AA?4?$AA?2?$AAs?$AAd?$AAk?$AA?2?$AAp?$AAh?$AAy?$AAs?$AAi?$AAc?$AAs?$AA?2?$AAd?$AAg?$AAC?$AAo?$AAl?$AAl?$AAi?$AAs?$AAi?$AAo?$AAn@ 1018b428     physics:dgCollisionChamferCylinder.obj
 0002:0000d490       __real@40490fd0            1018b490     physics:dgCollisionChamferCylinder.obj
 0002:0000d494       __real@219392ef            1018b494     physics:dgCollisionChamferCylinder.obj
 0002:0000d498       ??_C@_1CM@LDOMIOIG@?$AAy?$AA0?$AA?5?$AA?$DO?$AA?5?$AAd?$AAg?$AAF?$AAl?$AAo?$AAa?$AAt?$AA3?$AA2?$AA?5?$AA?$CI?$AA0?$AA?4?$AA0?$AAf?$AA?$CJ?$AA?$AA@ 1018b498     physics:dgCollisionChamferCylinder.obj
 0002:0000d4c8       ??_C@_1EM@IBFKNNHG@?$AAd?$AAg?$AAA?$AAb?$AAs?$AAf?$AA?5?$AA?$CI?$AAp?$AAl?$AAa?$AAn?$AAe?$AA?4?$AAm?$AA_?$AAx?$AA?$CJ?$AA?5?$AA?$DO?$AA?5?$AAd?$AAg?$AAF?$AAl?$AAo?$AAa?$AAt?$AA3?$AA2?$AA?5?$AA?$CI@ 1018b4c8     physics:dgCollisionChamferCylinder.obj
 0002:0000d514       ??_C@_1CM@HDIMHDAD@?$AAy?$AA0?$AA?5?$AA?$DM?$AA?5?$AAd?$AAg?$AAF?$AAl?$AAo?$AAa?$AAt?$AA3?$AA2?$AA?5?$AA?$CI?$AA0?$AA?4?$AA0?$AAf?$AA?$CJ?$AA?$AA@ 1018b514     physics:dgCollisionChamferCylinder.obj
 0002:0000d540       ??_C@_1EA@EINOADNC@?$AAd?$AAg?$AAA?$AAb?$AAs?$AAf?$AA?5?$AA?$CI?$AAd?$AAe?$AAn?$AA?$CJ?$AA?5?$AA?$DO?$AA?5?$AAd?$AAg?$AAF?$AAl?$AAo?$AAa?$AAt?$AA3?$AA2?$AA?5?$AA?$CI?$AA0?$AA?4?$AA0?$AAf?$AA?$CJ?$AA?$AA@ 1018b540     physics:dgCollisionChamferCylinder.obj
 0002:0000d580       ??_7dgCollisionConvexModifier@@6B@ 1018b580     physics:dgCollisionConvexModifier.obj
 0002:0000d600       ??_C@_1FC@IFJOFCOO@?$AAd?$AAg?$AAA?$AAb?$AAs?$AAf?$AA?5?$AA?$CI?$AAt?$AAm?$AAp?$AA?$FL?$AAj?$AA?$FN?$AA?$FL?$AAi?$AA?$FN?$AA?$CJ?$AA?5?$AA?$DM?$AA?5?$AAd?$AAg?$AAF?$AAl?$AAo?$AAa?$AAt?$AA3?$AA2?$AA?5?$AA?$CI@ 1018b600     physics:dgCollisionConvexModifier.obj
 0002:0000d658       ??_C@_1FC@OAICEGEM@?$AAd?$AAg?$AAA?$AAb?$AAs?$AAf?$AA?5?$AA?$CI?$AAt?$AAm?$AAp?$AA?$FL?$AAi?$AA?$FN?$AA?$FL?$AAj?$AA?$FN?$AA?$CJ?$AA?5?$AA?$DM?$AA?5?$AAd?$AAg?$AAF?$AAl?$AAo?$AAa?$AAt?$AA3?$AA2?$AA?5?$AA?$CI@ 1018b658     physics:dgCollisionConvexModifier.obj
 0002:0000d6b0       ??_C@_1GG@FNJJCOOG@?$AA?4?$AA?4?$AA?2?$AA?4?$AA?4?$AA?2?$AA?4?$AA?4?$AA?2?$AAs?$AAd?$AAk?$AA?2?$AAp?$AAh?$AAy?$AAs?$AAi?$AAc?$AAs?$AA?2?$AAd?$AAg?$AAC?$AAo?$AAl?$AAl?$AAi?$AAs?$AAi?$AAo?$AAn@ 1018b6b0     physics:dgCollisionConvexModifier.obj
 0002:0000d718       ??_C@_1HI@GNIPGJD@?$AAd?$AAg?$AAA?$AAb?$AAs?$AAf?$AA?5?$AA?$CI?$AAt?$AAm?$AAp?$AA?$FL?$AAi?$AA?$FN?$AA?$FL?$AAi?$AA?$FN?$AA?5?$AA?9?$AA?5?$AAd?$AAg?$AAF?$AAl?$AAo?$AAa?$AAt?$AA3?$AA2?$AA?5?$AA?$CI?$AA1@ 1018b718     physics:dgCollisionConvexModifier.obj
 0002:0000d790       ??_C@_1HK@KNPNAEBL@?$AAd?$AAg?$AAA?$AAb?$AAs?$AAf?$AA?$CI?$AAd?$AAi?$AAr?$AA1?$AA?5?$AA?$CF?$AA?5?$AAd?$AAi?$AAr?$AA1?$AA?5?$AA?9?$AA?5?$AAd?$AAg?$AAF?$AAl?$AAo?$AAa?$AAt?$AA3?$AA2?$AA?5?$AA?$CI@ 1018b790     physics:dgCollisionConvexModifier.obj
 0002:0000d810       ??_C@_1HG@HENCMEF@?$AAd?$AAg?$AAA?$AAb?$AAs?$AAf?$AA?$CI?$AAd?$AAi?$AAr?$AA?5?$AA?$CF?$AA?5?$AAd?$AAi?$AAr?$AA?5?$AA?9?$AA?5?$AAd?$AAg?$AAF?$AAl?$AAo?$AAa?$AAt?$AA3?$AA2?$AA?5?$AA?$CI?$AA1?$AA?4@ 1018b810     physics:dgCollisionConvexModifier.obj
 0002:0000d888       ??_C@_1IK@MLNNJFCF@?$AAd?$AAg?$AAA?$AAb?$AAs?$AAf?$AA?$CI?$AAl?$AAo?$AAc?$AAa?$AAl?$AAD?$AAi?$AAr?$AA?5?$AA?$CF?$AA?5?$AAl?$AAo?$AAc?$AAa?$AAl?$AAD?$AAi?$AAr?$AA?5?$AA?9?$AA?5?$AAd?$AAg?$AAF@ 1018b888     physics:dgCollisionConvexModifier.obj
 0002:0000d914       __real@ccbebc20            1018b914     physics:dgCollisionConvexModifier.obj
 0002:0000d918       ??_C@_1FK@DGLIKAFD@?$AA?4?$AA?4?$AA?2?$AA?4?$AA?4?$AA?2?$AA?4?$AA?4?$AA?2?$AAs?$AAd?$AAk?$AA?2?$AAp?$AAh?$AAy?$AAs?$AAi?$AAc?$AAs?$AA?2?$AAd?$AAg?$AAC?$AAo?$AAl?$AAl?$AAi?$AAs?$AAi?$AAo?$AAn@ 1018b918     physics:dgCollisionCompound.obj
 0002:0000d978       ??_C@_1FG@DDELIDE@?$AAm?$AA_?$AAe?$AAx?$AAt?$AAe?$AAn?$AAd?$AAs?$AA?$FL?$AAi?$AA?$FN?$AA?$FL?$AAj?$AA?$FN?$AA?4?$AAm?$AA_?$AAx?$AA?5?$AA?$DM?$AA?$DN?$AA?5?$AAm?$AA_?$AAe?$AAx?$AAt?$AAe?$AAn?$AAd?$AAs@ 1018b978     physics:dgCollisionCompound.obj
 0002:0000d9d0       ??_C@_1BC@OIADPNHG@?$AAz?$AA0?$AA?5?$AA?$DM?$AA?$DN?$AA?5?$AAz?$AA1?$AA?$AA@ 1018b9d0     physics:dgCollisionCompound.obj
 0002:0000d9e4       ??_C@_1BC@KABPDHPO@?$AAx?$AA0?$AA?5?$AA?$DM?$AA?$DN?$AA?5?$AAx?$AA1?$AA?$AA@ 1018b9e4     physics:dgCollisionCompound.obj
 0002:0000d9f8       ??_7dgCollisionCompound@@6B@ 1018b9f8     physics:dgCollisionCompound.obj
 0002:0000da64       ??_C@_1BO@LHIHDGGB@?$AA?$CB?$AAn?$AAo?$AAd?$AAe?$AA?9?$AA?$DO?$AAm?$AA_?$AAr?$AAi?$AAg?$AAh?$AAt?$AA?$AA@ 1018ba64     physics:dgCollisionCompound.obj
 0002:0000da84       ??_C@_1CE@DODAMCMB@?$AAi?$AAn?$AAe?$AAr?$AAt?$AAi?$AAa?$AA?$FL?$AA2?$AA?$FN?$AA?5?$AA?$DO?$AA?5?$AA0?$AA?4?$AA0?$AAf?$AA?$AA@ 1018ba84     physics:dgCollisionCompound.obj
 0002:0000daa8       ??_C@_1CE@JBJJIPAL@?$AAi?$AAn?$AAe?$AAr?$AAt?$AAi?$AAa?$AA?$FL?$AA1?$AA?$FN?$AA?5?$AA?$DO?$AA?5?$AA0?$AA?4?$AA0?$AAf?$AA?$AA@ 1018baa8     physics:dgCollisionCompound.obj
 0002:0000dacc       ??_C@_1CE@PEPOLEEN@?$AAi?$AAn?$AAe?$AAr?$AAt?$AAi?$AAa?$AA?$FL?$AA0?$AA?$FN?$AA?5?$AA?$DO?$AA?5?$AA0?$AA?4?$AA0?$AAf?$AA?$AA@ 1018bacc     physics:dgCollisionCompound.obj
 0002:0000daf0       ??_C@_1JG@CLBHEECG@?$AAp?$AAa?$AAi?$AAr?$AA?9?$AA?$DO?$AAm?$AA_?$AAb?$AAo?$AAd?$AAy?$AA1?$AA?9?$AA?$DO?$AAm?$AA_?$AAc?$AAo?$AAl?$AAl?$AAi?$AAs?$AAi?$AAo?$AAn?$AA?9?$AA?$DO?$AAI?$AAs?$AAT?$AAy@ 1018baf0     physics:dgCollisionCompound.obj
 0002:0000db88       ??_C@_1FO@IBNEBGAL@?$AAI?$AAs?$AAT?$AAy?$AAp?$AAe?$AA?5?$AA?$CI?$AAd?$AAg?$AAC?$AAo?$AAl?$AAl?$AAi?$AAs?$AAi?$AAo?$AAn?$AA?3?$AA?3?$AAd?$AAg?$AAC?$AAo?$AAl?$AAl?$AAi?$AAs?$AAi?$AAo?$AAn@ 1018bb88     physics:dgCollisionCompound.obj
 0002:0000dbe8       ??_C@_1EG@HAABOGI@?$AAp?$AAa?$AAi?$AAr?$AA?9?$AA?$DO?$AAm?$AA_?$AAb?$AAo?$AAd?$AAy?$AA0?$AA?9?$AA?$DO?$AAm?$AA_?$AAc?$AAo?$AAl?$AAl?$AAi?$AAs?$AAi?$AAo?$AAn?$AA?5?$AA?$DN?$AA?$DN?$AA?5?$AAt?$AAh@ 1018bbe8     physics:dgCollisionCompound.obj
 0002:0000dc30       ??_C@_1DA@LEOJGHOL@?$AAo?$AAt?$AAh?$AAe?$AAr?$AA?9?$AA?$DO?$AAm?$AA_?$AAt?$AAy?$AAp?$AAe?$AA?5?$AA?$DN?$AA?$DN?$AA?5?$AAm?$AA_?$AAn?$AAo?$AAd?$AAe?$AA?$AA@ 1018bc30     physics:dgCollisionCompound.obj
 0002:0000dc60       ??_C@_1BI@EICLBFIG@?$AAm?$AAe?$AA?5?$AA?$CG?$AA?$CG?$AA?5?$AAo?$AAt?$AAh?$AAe?$AAr?$AA?$AA@ 1018bc60     physics:dgCollisionCompound.obj
 0002:0000dc78       ??_C@_1EM@DACAFPHK@?$AAn?$AAo?$AAd?$AAe?$AAP?$AAr?$AAo?$AAx?$AAi?$AA?4?$AAm?$AA_?$AAv?$AAo?$AAl?$AAu?$AAm?$AAe?$AA?5?$AA?$DO?$AA?5?$AAd?$AAg?$AAF?$AAl?$AAo?$AAa?$AAt?$AA3?$AA2?$AA?5?$AA?$CI@ 1018bc78     physics:dgCollisionCompound.obj
 0002:0000dcc8       ??_C@_1IG@CIAHMMFP@?$AAb?$AAo?$AAd?$AAy?$AAB?$AA?9?$AA?$DO?$AAm?$AA_?$AAc?$AAo?$AAl?$AAl?$AAi?$AAs?$AAi?$AAo?$AAn?$AA?9?$AA?$DO?$AAI?$AAs?$AAT?$AAy?$AAp?$AAe?$AA?5?$AA?$CI?$AAd?$AAg?$AAC?$AAo@ 1018bcc8     physics:dgCollisionCompound.obj
 0002:0000dd50       ??_7dgCollisionUserMesh@@6B@ 1018bd50     physics:dgCollisionUserMesh.obj
 0002:0000ddc8       ??_C@_1FK@HOCOEHFB@?$AA?4?$AA?4?$AA?2?$AA?4?$AA?4?$AA?2?$AA?4?$AA?4?$AA?2?$AAs?$AAd?$AAk?$AA?2?$AAp?$AAh?$AAy?$AAs?$AAi?$AAc?$AAs?$AA?2?$AAd?$AAg?$AAC?$AAo?$AAl?$AAl?$AAi?$AAs?$AAi?$AAo?$AAn@ 1018bdc8     physics:dgCollisionUserMesh.obj
 0002:0000de28       ??_C@_1JI@KONBBKBK@?$AAd?$AAg?$AAC?$AAo?$AAn?$AAt?$AAa?$AAc?$AAt?$AAS?$AAo?$AAl?$AAv?$AAe?$AAr?$AA?3?$AA?3?$AAm?$AA_?$AAd?$AAi?$AAr?$AA?$FL?$AAi?$AA?$FN?$AA?5?$AA?$CF?$AA?5?$AAd?$AAg?$AAC?$AAo@ 1018be28     physics:dgMinkowskiConv.obj
 0002:0000dec0       ??_C@_1FC@PBMEMOMC@?$AA?4?$AA?4?$AA?2?$AA?4?$AA?4?$AA?2?$AA?4?$AA?4?$AA?2?$AAs?$AAd?$AAk?$AA?2?$AAp?$AAh?$AAy?$AAs?$AAi?$AAc?$AAs?$AA?2?$AAd?$AAg?$AAM?$AAi?$AAn?$AAk?$AAo?$AAw?$AAs?$AAk?$AAi@ 1018bec0     physics:dgMinkowskiConv.obj
 0002:0000df18       ??_C@_1JI@KNKDEGIM@?$AAd?$AAg?$AAC?$AAo?$AAn?$AAt?$AAa?$AAc?$AAt?$AAS?$AAo?$AAl?$AAv?$AAe?$AAr?$AA?3?$AA?3?$AAm?$AA_?$AAd?$AAi?$AAr?$AA?$FL?$AAi?$AA?$FN?$AA?5?$AA?$CF?$AA?5?$AAd?$AAg?$AAC?$AAo@ 1018bf18     physics:dgMinkowskiConv.obj
 0002:0000dfb0       __real@bf13cd36            1018bfb0     physics:dgMinkowskiConv.obj
 0002:0000dfb4       __real@3f13cd36            1018bfb4     physics:dgMinkowskiConv.obj
 0002:0000dfb8       ??_C@_1JA@BPBJEJE@?$AAp?$AAr?$AAo?$AAx?$AAi?$AA?4?$AAm?$AA_?$AAf?$AAl?$AAo?$AAa?$AAt?$AAi?$AAn?$AAg?$AAC?$AAo?$AAl?$AAl?$AAi?$AAs?$AAi?$AAo?$AAn?$AA?9?$AA?$DO?$AAI?$AAs?$AAT?$AAy?$AAp@ 1018bfb8     physics:dgMinkowskiConv.obj
 0002:0000e048       ??_C@_1JC@CJBBJLH@?$AAp?$AAr?$AAo?$AAx?$AAi?$AA?4?$AAm?$AA_?$AAr?$AAe?$AAf?$AAe?$AAr?$AAe?$AAn?$AAc?$AAe?$AAC?$AAo?$AAl?$AAl?$AAi?$AAs?$AAi?$AAo?$AAn?$AA?9?$AA?$DO?$AAI?$AAs?$AAT?$AAy@ 1018c048     physics:dgMinkowskiConv.obj
 0002:0000e0e0       ??_C@_1JE@JJMELCEN@?$AAp?$AAr?$AAo?$AAx?$AAi?$AA?4?$AAm?$AA_?$AAr?$AAe?$AAf?$AAe?$AAr?$AAe?$AAn?$AAc?$AAe?$AAC?$AAo?$AAl?$AAl?$AAi?$AAs?$AAi?$AAo?$AAn?$AA?9?$AA?$DO?$AAI?$AAs?$AAT?$AAy@ 1018c0e0     physics:dgMinkowskiConv.obj
 0002:0000e178       ??_C@_1MG@HNODHHNK@?$AAd?$AAg?$AAA?$AAb?$AAs?$AAf?$AA?$CI?$AA?$CI?$AAc?$AAo?$AAn?$AAt?$AAa?$AAc?$AAt?$AAO?$AAu?$AAt?$AA?$FL?$AAi?$AA?$FN?$AA?4?$AAm?$AA_?$AAn?$AAo?$AAr?$AAm?$AAa?$AAl?$AA?5?$AA?$CF@ 1018c178     physics:dgMinkowskiConv.obj
 0002:0000e240       ??_C@_1BG@CAJDKDHB@?$AAq?$AAl?$AA0?$AA?5?$AA?$DM?$AA?$DN?$AA?5?$AAq?$AAl?$AA1?$AA?$AA@ 1018c240     physics:dgMinkowskiConv.obj
 0002:0000e258       ??_C@_1BG@PLBBMHCP@?$AAp?$AAl?$AA0?$AA?5?$AA?$DM?$AA?$DN?$AA?5?$AAp?$AAl?$AA1?$AA?$AA@ 1018c258     physics:dgMinkowskiConv.obj
 0002:0000e270       __real@3f7f7cee            1018c270     physics:dgMinkowskiConv.obj
 0002:0000e278       ??_C@_1JC@LEGEDJNB@?$AAp?$AAr?$AAo?$AAx?$AAi?$AA?4?$AAm?$AA_?$AAf?$AAl?$AAo?$AAa?$AAt?$AAi?$AAn?$AAg?$AAC?$AAo?$AAl?$AAl?$AAi?$AAs?$AAi?$AAo?$AAn?$AA?9?$AA?$DO?$AAI?$AAs?$AAT?$AAy?$AAp@ 1018c278     physics:dgMinkowskiConv.obj
 0002:0000e310       ??_C@_1IM@EJGNPFLI@?$AAp?$AAr?$AAo?$AAx?$AAi?$AA?4?$AAm?$AA_?$AAr?$AAe?$AAf?$AAe?$AAr?$AAe?$AAn?$AAc?$AAe?$AAC?$AAo?$AAl?$AAl?$AAi?$AAs?$AAi?$AAo?$AAn?$AA?9?$AA?$DO?$AAI?$AAs?$AAT?$AAy@ 1018c310     physics:dgMinkowskiConv.obj
 0002:0000e3a0       ??_C@_1IO@FNOEFFDJ@?$AA?$CI?$AAc?$AAo?$AAn?$AAt?$AAa?$AAc?$AAt?$AA?$FL?$AAi?$AA?$FN?$AA?4?$AAm?$AA_?$AAi?$AAs?$AAE?$AAd?$AAg?$AAe?$AAC?$AAo?$AAn?$AAt?$AAa?$AAc?$AAt?$AA?5?$AA?$DN?$AA?$DN?$AA?5?$AA0@ 1018c3a0     physics:dgMinkowskiConv.obj
 0002:0000e430       ??_C@_1JC@IEMAJLOO@?$AAp?$AAr?$AAo?$AAx?$AAi?$AA?4?$AAm?$AA_?$AAr?$AAe?$AAf?$AAe?$AAr?$AAe?$AAn?$AAc?$AAe?$AAC?$AAo?$AAl?$AAl?$AAi?$AAs?$AAi?$AAo?$AAn?$AA?9?$AA?$DO?$AAI?$AAs?$AAT?$AAy@ 1018c430     physics:dgMinkowskiConv.obj
 0002:0000e4c8       ??_C@_1JA@IHKABGMN@?$AAp?$AAr?$AAo?$AAx?$AAi?$AA?4?$AAm?$AA_?$AAf?$AAl?$AAo?$AAa?$AAt?$AAi?$AAn?$AAg?$AAC?$AAo?$AAl?$AAl?$AAi?$AAs?$AAi?$AAo?$AAn?$AA?9?$AA?$DO?$AAI?$AAs?$AAT?$AAy?$AAp@ 1018c4c8     physics:dgMinkowskiConv.obj
 0002:0000e558       ??_C@_1CI@KLEMBAHL@?$AAc?$AAo?$AAd?$AAe?$AA?5?$AA?$CB?$AA?$DN?$AA?5?$AAd?$AAg?$AAM?$AAi?$AAn?$AAk?$AAE?$AAr?$AAr?$AAo?$AAr?$AA?$AA@ 1018c558     physics:dgMinkowskiConv.obj
 0002:0000e580       ??_C@_1EM@KCBGMPPI@?$AAa?$AAl?$AAp?$AAh?$AAa?$AA2?$AA?5?$AA?$DM?$AA?$DN?$AA?5?$AAd?$AAg?$AAF?$AAl?$AAo?$AAa?$AAt?$AA3?$AA2?$AA?5?$AA?$CI?$AA?5?$AA1?$AA?4?$AA0?$AAf?$AA?5?$AA?$CL?$AA?5?$AA2?$AA?4?$AA0@ 1018c580     physics:dgMinkowskiConv.obj
 0002:0000e5d0       ??_C@_1EM@HICMDINJ@?$AAa?$AAl?$AAp?$AAh?$AAa?$AA1?$AA?5?$AA?$DM?$AA?$DN?$AA?5?$AAd?$AAg?$AAF?$AAl?$AAo?$AAa?$AAt?$AA3?$AA2?$AA?5?$AA?$CI?$AA?5?$AA1?$AA?4?$AA0?$AAf?$AA?5?$AA?$CL?$AA?5?$AA2?$AA?4?$AA0@ 1018c5d0     physics:dgMinkowskiConv.obj
 0002:0000e620       ??_C@_1EM@DBMFJFMG@?$AAa?$AAl?$AAp?$AAh?$AAa?$AA0?$AA?5?$AA?$DM?$AA?$DN?$AA?5?$AAd?$AAg?$AAF?$AAl?$AAo?$AAa?$AAt?$AA3?$AA2?$AA?5?$AA?$CI?$AA?5?$AA1?$AA?4?$AA0?$AAf?$AA?5?$AA?$CL?$AA?5?$AA2?$AA?4?$AA0@ 1018c620     physics:dgMinkowskiConv.obj
 0002:0000e66c       __real@3f828f5c            1018c66c     physics:dgMinkowskiConv.obj
 0002:0000e670       ??_C@_1DO@JGBNEFPA@?$AAa?$AAl?$AAp?$AAh?$AAa?$AA2?$AA?5?$AA?$DO?$AA?$DN?$AA?5?$AAd?$AAg?$AAF?$AAl?$AAo?$AAa?$AAt?$AA3?$AA2?$AA?5?$AA?$CI?$AA?9?$AA2?$AA?4?$AA0?$AAe?$AA?9?$AA2?$AAf?$AA?$CJ?$AA?$AA@ 1018c670     physics:dgMinkowskiConv.obj
 0002:0000e6b0       ??_C@_1DO@CMEIEBOH@?$AAa?$AAl?$AAp?$AAh?$AAa?$AA1?$AA?5?$AA?$DO?$AA?$DN?$AA?5?$AAd?$AAg?$AAF?$AAl?$AAo?$AAa?$AAt?$AA3?$AA2?$AA?5?$AA?$CI?$AA?9?$AA2?$AA?4?$AA0?$AAe?$AA?9?$AA2?$AAf?$AA?$CJ?$AA?$AA@ 1018c6b0     physics:dgMinkowskiConv.obj
 0002:0000e6f0       ??_C@_1DO@EFIELNOK@?$AAa?$AAl?$AAp?$AAh?$AAa?$AA0?$AA?5?$AA?$DO?$AA?$DN?$AA?5?$AAd?$AAg?$AAF?$AAl?$AAo?$AAa?$AAt?$AA3?$AA2?$AA?5?$AA?$CI?$AA?9?$AA2?$AA?4?$AA0?$AAe?$AA?9?$AA2?$AAf?$AA?$CJ?$AA?$AA@ 1018c6f0     physics:dgMinkowskiConv.obj
 0002:0000e730       __real@bca3d70a            1018c730     physics:dgMinkowskiConv.obj
 0002:0000e734       __real@3ea8f5c3            1018c734     physics:dgMinkowskiConv.obj
 0002:0000e738       ??_C@_1CO@NEMACPL@?$AAd?$AAe?$AAn?$AA?5?$AA?$DO?$AA?5?$AAd?$AAg?$AAF?$AAl?$AAo?$AAa?$AAt?$AA3?$AA2?$AA?5?$AA?$CI?$AA0?$AA?4?$AA0?$AAf?$AA?$CJ?$AA?$AA@ 1018c738     physics:dgMinkowskiConv.obj
 0002:0000e768       __real@33d6bf95            1018c768     physics:dgMinkowskiConv.obj
 0002:0000e76c       ??_C@_1DG@FOJCBLMB@?$AAa?$AAl?$AAp?$AAh?$AAa?$AA1?$AA?5?$AA?$DM?$AA?$DN?$AA?5?$AAd?$AAg?$AAF?$AAl?$AAo?$AAa?$AAt?$AA3?$AA2?$AA?5?$AA?$CI?$AA1?$AA?4?$AA0?$AAf?$AA?$CJ?$AA?$AA@ 1018c76c     physics:dgMinkowskiConv.obj
 0002:0000e7a4       ??_C@_1DG@EAMPHFGB@?$AAa?$AAl?$AAp?$AAh?$AAa?$AA1?$AA?5?$AA?$DO?$AA?$DN?$AA?5?$AAd?$AAg?$AAF?$AAl?$AAo?$AAa?$AAt?$AA3?$AA2?$AA?5?$AA?$CI?$AA0?$AA?4?$AA0?$AAf?$AA?$CJ?$AA?$AA@ 1018c7a4     physics:dgMinkowskiConv.obj
 0002:0000e7dc       __real@3a03126f            1018c7dc     physics:dgMinkowskiConv.obj
 0002:0000e7e0       ??_C@_1EE@OJDPAGFG@?$AAd?$AAi?$AAs?$AAt?$AA?5?$AA?$DO?$AA?5?$AAD?$AAG?$AA_?$AAD?$AAI?$AAS?$AAT?$AAA?$AAN?$AAC?$AAE?$AA_?$AAT?$AAO?$AAL?$AAE?$AAR?$AAA?$AAN?$AAC?$AAE?$AA_?$AAZ?$AAE?$AAR@ 1018c7e0     physics:dgMinkowskiConv.obj
 0002:0000e824       ??_C@_19FOFFDJFO@?$AAf?$AAa?$AAc?$AAe?$AA?$AA@ 1018c824     physics:dgMinkowskiConv.obj
 0002:0000e830       ??_C@_1FG@KGFPBOBL@?$AA?$CI?$AA?$CI?$AA?$CI?$AAd?$AAg?$AAU?$AAn?$AAs?$AAi?$AAg?$AAn?$AAe?$AAd?$AA6?$AA4?$AA?$CJ?$AA?$CG?$AAm?$AA_?$AAs?$AAi?$AAm?$AAp?$AAl?$AAe?$AAx?$AA?$FL?$AA1?$AA?$FN?$AA?$CJ?$AA?5?$AA?$CG@ 1018c830     physics:dgMinkowskiConv.obj
 0002:0000e888       ??_C@_1FG@FHIFBLLB@?$AA?$CI?$AA?$CI?$AA?$CI?$AAd?$AAg?$AAU?$AAn?$AAs?$AAi?$AAg?$AAn?$AAe?$AAd?$AA6?$AA4?$AA?$CJ?$AA?$CG?$AAm?$AA_?$AAs?$AAi?$AAm?$AAp?$AAl?$AAe?$AAx?$AA?$FL?$AA0?$AA?$FN?$AA?$CJ?$AA?5?$AA?$CG@ 1018c888     physics:dgMinkowskiConv.obj
 0002:0000e8e0       ??_C@_1DE@NHLNOKHA@?$AAC?$AAh?$AAe?$AAc?$AAk?$AAT?$AAe?$AAt?$AAr?$AAa?$AAH?$AAe?$AAd?$AAr?$AAo?$AAn?$AAV?$AAo?$AAl?$AAu?$AAm?$AAe?$AA?5?$AA?$CI?$AA?$CJ?$AA?$AA@ 1018c8e0     physics:dgMinkowskiConv.obj
 0002:0000e914       __real@3b000000            1018c914     physics:dgMinkowskiConv.obj
 0002:0000e918       ??_C@_1DC@PIKPLJJJ@?$AAC?$AAh?$AAe?$AAc?$AAk?$AAT?$AAe?$AAt?$AAr?$AAa?$AAH?$AAe?$AAd?$AAr?$AAo?$AAn?$AAV?$AAo?$AAl?$AAu?$AAm?$AAe?$AA?$CI?$AA?$CJ?$AA?$AA@ 1018c918     physics:dgMinkowskiConv.obj
 0002:0000e94c       ??_C@_1DA@NPEODOCF@?$AAi?$AA2?$AA?5?$AA?$CB?$AA?$DN?$AA?5?$AAf?$AAa?$AAc?$AAe?$AA?9?$AA?$DO?$AAm?$AA_?$AAv?$AAe?$AAr?$AAt?$AAe?$AAx?$AA?$FL?$AA2?$AA?$FN?$AA?$AA@ 1018c94c     physics:dgMinkowskiConv.obj
 0002:0000e97c       ??_C@_1DA@FJNKEMIL@?$AAi?$AA2?$AA?5?$AA?$CB?$AA?$DN?$AA?5?$AAf?$AAa?$AAc?$AAe?$AA?9?$AA?$DO?$AAm?$AA_?$AAv?$AAe?$AAr?$AAt?$AAe?$AAx?$AA?$FL?$AA1?$AA?$FN?$AA?$AA@ 1018c97c     physics:dgMinkowskiConv.obj
 0002:0000e9ac       ??_C@_1DA@JCIGJPCO@?$AAi?$AA2?$AA?5?$AA?$CB?$AA?$DN?$AA?5?$AAf?$AAa?$AAc?$AAe?$AA?9?$AA?$DO?$AAm?$AA_?$AAv?$AAe?$AAr?$AAt?$AAe?$AAx?$AA?$FL?$AA0?$AA?$FN?$AA?$AA@ 1018c9ac     physics:dgMinkowskiConv.obj
 0002:0000e9e0       ??_C@_1KG@MPMIJMBM@?$AA?$CI?$AAc?$AAo?$AAd?$AAe?$AA?5?$AA?$DN?$AA?$DN?$AA?5?$AAd?$AAg?$AAM?$AAi?$AAn?$AAk?$AAD?$AAi?$AAs?$AAj?$AAo?$AAi?$AAn?$AAt?$AA?$CJ?$AA?5?$AA?$HM?$AA?$HM?$AA?5?$AA?$CI?$AA?$CI?$AAc?$AAo@ 1018c9e0     physics:dgMinkowskiConv.obj
 0002:0000ea88       __real@38d1b718            1018ca88     physics:dgMinkowskiConv.obj
 0002:0000ea8c       ??_C@_1DO@CGJHEIFG@?$AAi?$AA2?$AA?5?$AA?$DN?$AA?$DN?$AA?5?$AAm?$AA_?$AAs?$AAi?$AAm?$AAp?$AAl?$AAe?$AAx?$AA?$FL?$AAi?$AA?$FN?$AA?4?$AAm?$AA_?$AAv?$AAe?$AAr?$AAt?$AAe?$AAx?$AA?$FL?$AA2?$AA?$FN?$AA?$AA@ 1018ca8c     physics:dgMinkowskiConv.obj
 0002:0000eacc       ??_C@_1DO@CEAGKPCI@?$AAi?$AA1?$AA?5?$AA?$DN?$AA?$DN?$AA?5?$AAm?$AA_?$AAs?$AAi?$AAm?$AAp?$AAl?$AAe?$AAx?$AA?$FL?$AAi?$AA?$FN?$AA?4?$AAm?$AA_?$AAv?$AAe?$AAr?$AAt?$AAe?$AAx?$AA?$FL?$AA1?$AA?$FN?$AA?$AA@ 1018cacc     physics:dgMinkowskiConv.obj
 0002:0000eb0c       ??_C@_1DO@CFIJPCAC@?$AAi?$AA0?$AA?5?$AA?$DN?$AA?$DN?$AA?5?$AAm?$AA_?$AAs?$AAi?$AAm?$AAp?$AAl?$AAe?$AAx?$AA?$FL?$AAi?$AA?$FN?$AA?4?$AAm?$AA_?$AAv?$AAe?$AAr?$AAt?$AAe?$AAx?$AA?$FL?$AA0?$AA?$FN?$AA?$AA@ 1018cb0c     physics:dgMinkowskiConv.obj
 0002:0000eb4c       ??_C@_0BN@ILCKOGPE@too?5many?5iterations?5?5in?3?5?$CFs?6?$AA@ 1018cb4c     physics:dgMinkowskiConv.obj
 0002:0000eb70       ??_C@_0HE@JPIFEDFG@?$DPUpdateSeparatingPlaneFallbackSo@ 1018cb70     physics:dgMinkowskiConv.obj
 0002:0000ebe4       ??_C@_1M@EJPMJFKE@?$AAp?$AAl?$AAa?$AAn?$AAe?$AA?$AA@ 1018cbe4     physics:dgMinkowskiConv.obj
 0002:0000ebf0       ??_C@_1DI@FBBJOMGA@?$AAd?$AAi?$AAs?$AAt?$AA?5?$AA?$DO?$AA?5?$AAd?$AAg?$AAF?$AAl?$AAo?$AAa?$AAt?$AA3?$AA2?$AA?5?$AA?$CI?$AA1?$AA?4?$AA0?$AAe?$AA?9?$AA2?$AA0?$AAf?$AA?$CJ?$AA?$AA@ 1018cbf0     physics:dgMinkowskiConv.obj
 0002:0000ec28       ??_C@_1DC@PKGMAOIO@?$AAd?$AAi?$AAs?$AAt?$AA3?$AA?5?$AA?$DO?$AA?5?$AAd?$AAg?$AAF?$AAl?$AAo?$AAa?$AAt?$AA3?$AA2?$AA?5?$AA?$CI?$AA0?$AA?4?$AA0?$AAf?$AA?$CJ?$AA?$AA@ 1018cc28     physics:dgMinkowskiConv.obj
 0002:0000ec5c       ??_C@_1DM@MFKGDHON@?$AAt?$AAe?$AAs?$AAt?$AA1?$AA?5?$AA?$DO?$AA?$DN?$AA?5?$AAd?$AAg?$AAF?$AAl?$AAo?$AAa?$AAt?$AA3?$AA2?$AA?5?$AA?$CI?$AA?9?$AA2?$AA?4?$AA0?$AAe?$AA?9?$AA1?$AAf?$AA?$CJ?$AA?$AA@ 1018cc5c     physics:dgMinkowskiConv.obj
 0002:0000ec98       ??_C@_1DK@BBPPECCO@?$AAt?$AAe?$AAs?$AAt?$AA?5?$AA?$DO?$AA?$DN?$AA?5?$AAd?$AAg?$AAF?$AAl?$AAo?$AAa?$AAt?$AA3?$AA2?$AA?5?$AA?$CI?$AA?9?$AA2?$AA?4?$AA0?$AAe?$AA?9?$AA1?$AAf?$AA?$CJ?$AA?$AA@ 1018cc98     physics:dgMinkowskiConv.obj
 0002:0000ecd4       __real@be4ccccd            1018ccd4     physics:dgMinkowskiConv.obj
 0002:0000ecd8       ??_C@_1DI@GJINJKHF@?$AAm?$AAa?$AAg?$AA2?$AA?5?$AA?$DO?$AA?5?$AAd?$AAg?$AAF?$AAl?$AAo?$AAa?$AAt?$AA3?$AA2?$AA?5?$AA?$CI?$AA1?$AA?4?$AA0?$AAe?$AA?9?$AA2?$AA4?$AAf?$AA?$CJ?$AA?$AA@ 1018ccd8     physics:dgMinkowskiConv.obj
 0002:0000ed10       ??_C@_1CO@FCCAHLPM@?$AAv?$AAa?$AAl?$AA?5?$AA?$DO?$AA?5?$AAd?$AAg?$AAF?$AAl?$AAo?$AAa?$AAt?$AA3?$AA2?$AA?5?$AA?$CI?$AA0?$AA?4?$AA0?$AAf?$AA?$CJ?$AA?$AA@ 1018cd10     physics:dgMinkowskiConv.obj
 0002:0000ed40       ??_C@_1HM@PADBNLIC@?$AAd?$AAg?$AAA?$AAb?$AAs?$AAf?$AA?5?$AA?$CI?$AA?$CI?$AAt?$AAm?$AAp?$AA?5?$AA?$CF?$AA?5?$AAt?$AAm?$AAp?$AA?$CJ?$AA?5?$AA?9?$AA?5?$AAd?$AAg?$AAF?$AAl?$AAo?$AAa?$AAt?$AA3?$AA2?$AA?5@ 1018cd40     physics:dgMinkowskiConv.obj
 0002:0000edbc       __real@3f3504f3            1018cdbc     physics:dgMinkowskiConv.obj
 0002:0000edc0       __real@3f7fd814            1018cdc0     physics:dgMinkowskiConv.obj
 0002:0000edc4       __real@3d0ef2c6            1018cdc4     physics:dgMinkowskiConv.obj
 0002:0000edc8       ??_C@_1FE@LKCCNKBL@?$AAr?$AAo?$AAt?$AAM?$AAa?$AAt?$AAr?$AAi?$AAx?$AA?4?$AAm?$AA_?$AAr?$AAi?$AAg?$AAh?$AAt?$AA?4?$AAm?$AA_?$AAw?$AA?5?$AA?$DN?$AA?$DN?$AA?5?$AAd?$AAg?$AAF?$AAl?$AAo?$AAa?$AAt@ 1018cdc8     physics:dgMinkowskiConv.obj
 0002:0000ee20       ??_C@_1EO@OCFPDMM@?$AAr?$AAo?$AAt?$AAM?$AAa?$AAt?$AAr?$AAi?$AAx?$AA?4?$AAm?$AA_?$AAu?$AAp?$AA?4?$AAm?$AA_?$AAw?$AA?5?$AA?$DN?$AA?$DN?$AA?5?$AAd?$AAg?$AAF?$AAl?$AAo?$AAa?$AAt?$AA3?$AA2?$AA?5@ 1018ce20     physics:dgMinkowskiConv.obj
 0002:0000ee70       ??_C@_1FE@EGGMNNMK@?$AAr?$AAo?$AAt?$AAM?$AAa?$AAt?$AAr?$AAi?$AAx?$AA?4?$AAm?$AA_?$AAf?$AAr?$AAo?$AAn?$AAt?$AA?4?$AAm?$AA_?$AAw?$AA?5?$AA?$DN?$AA?$DN?$AA?5?$AAd?$AAg?$AAF?$AAl?$AAo?$AAa?$AAt@ 1018ce70     physics:dgMinkowskiConv.obj
 0002:0000eec4       ??_C@_1DI@NFFDOCJK@?$AAd?$AAi?$AAs?$AAt?$AA?5?$AA?$DO?$AA?5?$AAd?$AAg?$AAF?$AAl?$AAo?$AAa?$AAt?$AA3?$AA2?$AA?5?$AA?$CI?$AA1?$AA?4?$AA0?$AAe?$AA?9?$AA2?$AA4?$AAf?$AA?$CJ?$AA?$AA@ 1018cec4     physics:dgMinkowskiConv.obj
 0002:0000eefc       ??_C@_1DI@GPACPIM@?$AAm?$AAa?$AAg?$AA2?$AA?5?$AA?$DO?$AA?5?$AAd?$AAg?$AAF?$AAl?$AAo?$AAa?$AAt?$AA3?$AA2?$AA?5?$AA?$CI?$AA1?$AA?4?$AA0?$AAe?$AA?9?$AA1?$AA0?$AAf?$AA?$CJ?$AA?$AA@ 1018cefc     physics:dgMinkowskiConv.obj
 0002:0000ef34       __real@2edbe6ff            1018cf34     physics:dgMinkowskiConv.obj
 0002:0000ef38       ??_C@_1DE@DCLNAKII@?$AAm?$AAa?$AAx?$AAE?$AAr?$AAr?$AA?5?$AA?$DO?$AA?5?$AAd?$AAg?$AAF?$AAl?$AAo?$AAa?$AAt?$AA3?$AA2?$AA?5?$AA?$CI?$AA0?$AA?4?$AA0?$AAf?$AA?$CJ?$AA?$AA@ 1018cf38     physics:dgMinkowskiConv.obj
 0002:0000ef70       ??_C@_1JM@IDABHPAD@?$AA?$CI?$AA?$CI?$AAm?$AA_?$AAm?$AAa?$AAt?$AAr?$AAi?$AAx?$AA?4?$AAm?$AA_?$AAf?$AAr?$AAo?$AAn?$AAt?$AA?5?$AA?$CK?$AA?5?$AAm?$AA_?$AAm?$AAa?$AAt?$AAr?$AAi?$AAx?$AA?4?$AAm?$AA_@ 1018cf70     physics:dgMinkowskiConv.obj
 0002:0000f010       ??_C@_1HI@FMIFIGGO@?$AA?$CI?$AAm?$AA_?$AAm?$AAa?$AAt?$AAr?$AAi?$AAx?$AA?4?$AAm?$AA_?$AAr?$AAi?$AAg?$AAh?$AAt?$AA?5?$AA?$CF?$AA?5?$AAm?$AA_?$AAm?$AAa?$AAt?$AAr?$AAi?$AAx?$AA?4?$AAm?$AA_?$AAr@ 1018d010     physics:dgMinkowskiConv.obj
 0002:0000f088       ??_C@_1GM@NJBFFLEB@?$AA?$CI?$AAm?$AA_?$AAm?$AAa?$AAt?$AAr?$AAi?$AAx?$AA?4?$AAm?$AA_?$AAu?$AAp?$AA?5?$AA?$CF?$AA?5?$AAm?$AA_?$AAm?$AAa?$AAt?$AAr?$AAi?$AAx?$AA?4?$AAm?$AA_?$AAu?$AAp?$AA?$CJ?$AA?5@ 1018d088     physics:dgMinkowskiConv.obj
 0002:0000f0f8       ??_C@_1HI@IPLJBKEK@?$AA?$CI?$AAm?$AA_?$AAm?$AAa?$AAt?$AAr?$AAi?$AAx?$AA?4?$AAm?$AA_?$AAf?$AAr?$AAo?$AAn?$AAt?$AA?5?$AA?$CF?$AA?5?$AAm?$AA_?$AAm?$AAa?$AAt?$AAr?$AAi?$AAx?$AA?4?$AAm?$AA_?$AAf@ 1018d0f8     physics:dgMinkowskiConv.obj
 0002:0000f170       ??_C@_1DO@GLJEODCF@?$AAc?$AAo?$AAu?$AAn?$AAt?$AA?5?$AA?$DM?$AA?5?$AAm?$AA_?$AAp?$AAr?$AAo?$AAx?$AAi?$AA?9?$AA?$DO?$AAm?$AA_?$AAm?$AAa?$AAx?$AAC?$AAo?$AAn?$AAt?$AAa?$AAc?$AAt?$AAs?$AA?$AA@ 1018d170     physics:dgMinkowskiConv.obj
 0002:0000f1b0       ??_C@_1EK@PNPJMBLI@?$AA?$CI?$AA?$CK?$AAf?$AAa?$AAc?$AAe?$AA?$CJ?$AA?5?$AA?$CF?$AA?5?$AA?$CI?$AA?$CK?$AAf?$AAa?$AAc?$AAe?$AA?$CJ?$AA?5?$AA?$DO?$AA?5?$AAd?$AAg?$AAF?$AAl?$AAo?$AAa?$AAt?$AA3?$AA2?$AA?5?$AA?$CI?$AA0@ 1018d1b0     physics:dgMinkowskiConv.obj
 0002:0000f200       ??_C@_1EA@BDEFNMOB@?$AAc?$AAo?$AAu?$AAn?$AAt?$AA?5?$AA?$DM?$AA?$DN?$AA?5?$AAm?$AA_?$AAp?$AAr?$AAo?$AAx?$AAi?$AA?9?$AA?$DO?$AAm?$AA_?$AAm?$AAa?$AAx?$AAC?$AAo?$AAn?$AAt?$AAa?$AAc?$AAt?$AAs?$AA?$AA@ 1018d200     physics:dgMinkowskiConv.obj
 0002:0000f240       ??_C@_1O@JLKOFMBL@?$AAc?$AAo?$AAu?$AAn?$AAt?$AA2?$AA?$AA@ 1018d240     physics:dgMinkowskiConv.obj
 0002:0000f250       ??_C@_1O@IJBLPDPF@?$AAc?$AAo?$AAu?$AAn?$AAt?$AA1?$AA?$AA@ 1018d250     physics:dgMinkowskiConv.obj
 0002:0000f260       ??_C@_1EG@KAIOMONJ@?$AAp?$AAe?$AAn?$AAe?$AAt?$AAr?$AAa?$AAt?$AAi?$AAo?$AAn?$AA?5?$AA?$DM?$AA?$DN?$AA?5?$AAd?$AAg?$AAF?$AAl?$AAo?$AAa?$AAt?$AA3?$AA2?$AA?5?$AA?$CI?$AA2?$AA?4?$AA0?$AAe?$AA?9?$AA1@ 1018d260     physics:dgMinkowskiConv.obj
 0002:0000f2a8       __real@3e4ccccd            1018d2a8     physics:dgMinkowskiConv.obj
 0002:0000f2ac       __real@3b800000            1018d2ac     physics:dgMinkowskiConv.obj
 0002:0000f2b0       ??_C@_19IKPGIADB@?$AAp?$AAo?$AAl?$AAy?$AA?$AA@ 1018d2b0     physics:dgMinkowskiConv.obj
 0002:0000f2c0       ??_C@_1HG@DGDKMBBK@?$AAe?$AAd?$AAg?$AAe?$AAI?$AAn?$AAd?$AAe?$AAx?$AA?5?$AA?$DM?$AA?5?$AAs?$AAi?$AAz?$AAe?$AAo?$AAf?$AA?5?$AA?$CI?$AAs?$AAu?$AAb?$AAd?$AAi?$AAv?$AAi?$AAs?$AAi?$AAo?$AAn?$AA?$CJ@ 1018d2c0     physics:dgMinkowskiConv.obj
 0002:0000f338       ??_C@_1CA@EKIONLFO@?$AAp?$AA?4?$AAm?$AA_?$AAz?$AA?5?$AA?$DM?$AA?$DN?$AA?5?$AAp?$AA1?$AA?4?$AAm?$AA_?$AAz?$AA?$AA@ 1018d338     physics:dgMinkowskiConv.obj
 0002:0000f358       ??_C@_1CA@CFNNJI@?$AAp?$AA?4?$AAm?$AA_?$AAy?$AA?5?$AA?$DM?$AA?$DN?$AA?5?$AAp?$AA1?$AA?4?$AAm?$AA_?$AAy?$AA?$AA@ 1018d358     physics:dgMinkowskiConv.obj
 0002:0000f378       ??_C@_1CA@DJLMNPNK@?$AAp?$AA?4?$AAm?$AA_?$AAx?$AA?5?$AA?$DM?$AA?$DN?$AA?5?$AAp?$AA1?$AA?4?$AAm?$AA_?$AAx?$AA?$AA@ 1018d378     physics:dgMinkowskiConv.obj
 0002:0000f398       ??_C@_1CA@BLOFOBLN@?$AAp?$AA?4?$AAm?$AA_?$AAz?$AA?5?$AA?$DO?$AA?$DN?$AA?5?$AAp?$AA0?$AA?4?$AAm?$AA_?$AAz?$AA?$AA@ 1018d398     physics:dgMinkowskiConv.obj
 0002:0000f3b8       ??_C@_1CA@FBEOOHHL@?$AAp?$AA?4?$AAm?$AA_?$AAy?$AA?5?$AA?$DO?$AA?$DN?$AA?5?$AAp?$AA0?$AA?4?$AAm?$AA_?$AAy?$AA?$AA@ 1018d3b8     physics:dgMinkowskiConv.obj
 0002:0000f3d8       ??_C@_1CA@GINHOFDJ@?$AAp?$AA?4?$AAm?$AA_?$AAx?$AA?5?$AA?$DO?$AA?$DN?$AA?5?$AAp?$AA0?$AA?4?$AAm?$AA_?$AAx?$AA?$AA@ 1018d3d8     physics:dgMinkowskiConv.obj
 0002:0000f3f8       ??_C@_1LO@LEHOAIJJ@?$AA?$CI?$AAs?$AAh?$AAa?$AAp?$AAe?$AA1?$AAV?$AAe?$AAr?$AAt?$AAe?$AAx?$AAC?$AAo?$AAu?$AAn?$AAt?$AA?5?$AA?$CL?$AA?5?$AAs?$AAh?$AAa?$AAp?$AAe?$AA2?$AAV?$AAe?$AAr?$AAt?$AAe@ 1018d3f8     physics:dgMinkowskiConv.obj
 0002:0000f4b8       ??_C@_1CO@NECIDMGO@?$AAs?$AAh?$AAa?$AAp?$AAe?$AA2?$AAV?$AAe?$AAr?$AAt?$AAe?$AAx?$AAC?$AAo?$AAu?$AAn?$AAt?$AA?5?$AA?$DO?$AA?$DN?$AA?5?$AA3?$AA?$AA@ 1018d4b8     physics:dgMinkowskiConv.obj
 0002:0000f4e8       ??_C@_1CO@LAMIEHJA@?$AAs?$AAh?$AAa?$AAp?$AAe?$AA1?$AAV?$AAe?$AAr?$AAt?$AAe?$AAx?$AAC?$AAo?$AAu?$AAn?$AAt?$AA?5?$AA?$DO?$AA?$DN?$AA?5?$AA3?$AA?$AA@ 1018d4e8     physics:dgMinkowskiConv.obj
 0002:0000f518       ??_C@_1CO@GIGBILDG@?$AAs?$AAh?$AAa?$AAp?$AAe?$AA2?$AAV?$AAe?$AAr?$AAt?$AAe?$AAx?$AAC?$AAo?$AAu?$AAn?$AAt?$AA?5?$AA?$DM?$AA?$DN?$AA?5?$AA2?$AA?$AA@ 1018d518     physics:dgMinkowskiConv.obj
 0002:0000f548       __real@40200000            1018d548     physics:dgMinkowskiConv.obj
 0002:0000f550       ??_C@_1IM@HPLLABPL@?$AAs?$AAi?$AAl?$AAh?$AAo?$AAu?$AAe?$AAt?$AAt?$AAe?$AAC?$AAa?$AAp?$AAC?$AAo?$AAu?$AAn?$AAt?$AA?5?$AA?$DM?$AA?5?$AA?$CI?$AAs?$AAi?$AAz?$AAe?$AAo?$AAf?$AA?5?$AA?$CI?$AAs?$AAi@ 1018d550     physics:dgMinkowskiConv.obj
 0002:0000f5e0       ??_C@_1BJO@DCHHGCBH@?$AA?$CI?$AAs?$AAi?$AAl?$AAh?$AAo?$AAu?$AAe?$AAt?$AAt?$AAe?$AA?9?$AA?$DO?$AAm?$AA_?$AAa?$AAd?$AAj?$AAa?$AAn?$AAc?$AAe?$AAn?$AAt?$AAF?$AAa?$AAc?$AAe?$AA?$FL?$AA0?$AA?$FN?$AA?5@ 1018d5e0     physics:dgMinkowskiConv.obj
 0002:0000f780       ??_C@_1CO@DCJNGKHM@?$AAs?$AAi?$AAl?$AAh?$AAo?$AAu?$AAe?$AAt?$AAt?$AAe?$AA?9?$AA?$DO?$AAm?$AA_?$AAi?$AAs?$AAA?$AAc?$AAt?$AAi?$AAv?$AAe?$AA?$AA@ 1018d780     physics:dgMinkowskiConv.obj
 0002:0000f7b0       ??_C@_1BG@GGPHDOC@?$AAs?$AAi?$AAl?$AAh?$AAo?$AAu?$AAe?$AAt?$AAt?$AAe?$AA?$AA@ 1018d7b0     physics:dgMinkowskiConv.obj
 0002:0000f7c8       ??_C@_1GO@CEFNDJIH@?$AAd?$AAe?$AAa?$AAd?$AAC?$AAo?$AAu?$AAn?$AAt?$AA?5?$AA?$DM?$AA?5?$AAs?$AAi?$AAz?$AAe?$AAo?$AAf?$AA?5?$AA?$CI?$AAd?$AAe?$AAa?$AAd?$AAF?$AAa?$AAc?$AAe?$AAs?$AA?$CJ?$AA?5?$AA?1@ 1018d7c8     physics:dgMinkowskiConv.obj
 0002:0000f838       ??_C@_1CK@IDHOEDCE@?$AAa?$AAd?$AAj?$AAa?$AAc?$AAe?$AAn?$AAt?$AA?9?$AA?$DO?$AAm?$AA_?$AAi?$AAs?$AAA?$AAc?$AAt?$AAi?$AAv?$AAe?$AA?$AA@ 1018d838     physics:dgMinkowskiConv.obj
 0002:0000f864       ??_C@_1CI@MEFLAHAO@?$AAf?$AAa?$AAc?$AAe?$AA?9?$AA?$DO?$AAm?$AA_?$AAi?$AAn?$AAH?$AAe?$AAa?$AAp?$AA?5?$AA?$DN?$AA?$DN?$AA?5?$AA0?$AA?$AA@ 1018d864     physics:dgMinkowskiConv.obj
 0002:0000f890       ??_C@_1FE@KFBFLGA@?$AAh?$AAe?$AAa?$AAp?$AAS?$AAo?$AAr?$AAt?$AA?4?$AAG?$AAe?$AAt?$AAC?$AAo?$AAu?$AAn?$AAt?$AA?$CI?$AA?$CJ?$AA?5?$AA?$DM?$AA?$DN?$AA?5?$AAD?$AAG?$AA_?$AAH?$AAE?$AAA?$AAP?$AA_?$AAE@ 1018d890     physics:dgMinkowskiConv.obj
 0002:0000f8e8       ??_C@_1EO@NDKALLGG@?$AAm?$AA_?$AAp?$AAl?$AAa?$AAn?$AAe?$AAI?$AAn?$AAd?$AAe?$AAx?$AA?5?$AA?$DM?$AA?$DN?$AA?5?$AAD?$AAG?$AA_?$AAM?$AAI?$AAN?$AAK?$AA_?$AAM?$AAA?$AAX?$AA_?$AAF?$AAA?$AAC?$AAE@ 1018d8e8     physics:dgMinkowskiConv.obj
 0002:0000f938       __real@3a000000            1018d938     physics:dgMinkowskiConv.obj
 0002:0000f93c       ??_C@_1CG@JMDOMMAE@?$AAm?$AA_?$AAv?$AAe?$AAr?$AAt?$AAe?$AAx?$AAI?$AAn?$AAd?$AAe?$AAx?$AA?5?$AA?$DN?$AA?$DN?$AA?5?$AA4?$AA?$AA@ 1018d93c     physics:dgMinkowskiConv.obj
 0002:0000f968       ??_C@_1HE@HFLLHNEG@?$AAm?$AA_?$AAp?$AAl?$AAa?$AAn?$AAe?$AAI?$AAn?$AAd?$AAe?$AAx?$AA?5?$AA?$DM?$AA?5?$AAs?$AAi?$AAz?$AAe?$AAo?$AAf?$AA?5?$AA?$CI?$AAm?$AA_?$AAs?$AAi?$AAm?$AAp?$AAl?$AAe?$AAx@ 1018d968     physics:dgMinkowskiConv.obj
 0002:0000f9e0       ??_C@_1EE@EEGEKOHP@?$AAf?$AAa?$AAc?$AAe?$AA?9?$AA?$DO?$AAm?$AA_?$AAw?$AA?5?$AA?$DO?$AA?$DN?$AA?5?$AAd?$AAg?$AAF?$AAl?$AAo?$AAa?$AAt?$AA3?$AA2?$AA?5?$AA?$CI?$AA?9?$AA1?$AA?4?$AA0?$AAe?$AA?9?$AA1?$AAf@ 1018d9e0     physics:dgMinkowskiConv.obj
 0002:0000fa24       ??_C@_1DO@LOHFIGFE@?$AAC?$AAh?$AAe?$AAc?$AAk?$AAT?$AAe?$AAt?$AAr?$AAa?$AAH?$AAe?$AAd?$AAr?$AAo?$AAn?$AAV?$AAo?$AAl?$AAu?$AAm?$AAe?$AAL?$AAa?$AAr?$AAg?$AAe?$AA?5?$AA?$CI?$AA?$CJ?$AA?$AA@ 1018da24     physics:dgMinkowskiConv.obj
 0002:0000fa68       __real@3f60000000000000    1018da68     physics:dgMinkowskiConv.obj
 0002:0000fa70       __real@3f80000000000000    1018da70     physics:dgMinkowskiConv.obj
 0002:0000fa78       ??_C@_1DM@DHJBLFOO@?$AAC?$AAh?$AAe?$AAc?$AAk?$AAT?$AAe?$AAt?$AAr?$AAa?$AAH?$AAe?$AAd?$AAr?$AAo?$AAn?$AAV?$AAo?$AAl?$AAu?$AAm?$AAe?$AAL?$AAa?$AAr?$AAg?$AAe?$AA?$CI?$AA?$CJ?$AA?$AA@ 1018da78     physics:dgMinkowskiConv.obj
 0002:0000fab8       __real@3eb0c6f7bb730840    1018dab8     physics:dgMinkowskiConv.obj
 0002:0000fac0       __real@3f1a36e3068db8c0    1018dac0     physics:dgMinkowskiConv.obj
 0002:0000fac8       __real@4415af1d80000000    1018dac8     physics:dgMinkowskiConv.obj
 0002:0000fad0       ??_C@_0HM@MECOHADH@?$DPUpdateSeparatingPlaneFallbackSo@ 1018dad0     physics:dgMinkowskiConv.obj
 0002:0000fb4c       ??_C@_1DI@GJKFDILI@?$AAd?$AAi?$AAs?$AAt?$AA?5?$AA?$DO?$AA?5?$AAd?$AAg?$AAF?$AAl?$AAo?$AAa?$AAt?$AA6?$AA4?$AA?5?$AA?$CI?$AA1?$AA?4?$AA0?$AAe?$AA?9?$AA2?$AA0?$AAf?$AA?$CJ?$AA?$AA@ 1018db4c     physics:dgMinkowskiConv.obj
 0002:0000fb88       __real@3bc79ca100000000    1018db88     physics:dgMinkowskiConv.obj
 0002:0000fb90       ??_C@_1DC@NPJKGCBE@?$AAd?$AAi?$AAs?$AAt?$AA3?$AA?5?$AA?$DO?$AA?5?$AAd?$AAg?$AAF?$AAl?$AAo?$AAa?$AAt?$AA6?$AA4?$AA?5?$AA?$CI?$AA0?$AA?4?$AA0?$AAf?$AA?$CJ?$AA?$AA@ 1018db90     physics:dgMinkowskiConv.obj
 0002:0000fbc4       ??_C@_1DC@HOKDOGPK@?$AAd?$AAi?$AAs?$AAt?$AA2?$AA?5?$AA?$DO?$AA?5?$AAd?$AAg?$AAF?$AAl?$AAo?$AAa?$AAt?$AA6?$AA4?$AA?5?$AA?$CI?$AA0?$AA?4?$AA0?$AAf?$AA?$CJ?$AA?$AA@ 1018dbc4     physics:dgMinkowskiConv.obj
 0002:0000fbf8       ??_C@_1JM@GCNLNEEI@?$AA?$CI?$AA?$CI?$AAm?$AA_?$AAh?$AAu?$AAl?$AAl?$AAV?$AAe?$AAr?$AAt?$AAe?$AAx?$AAL?$AAa?$AAr?$AAg?$AAe?$AA?$FL?$AA0?$AA?$FN?$AA?5?$AA?9?$AA?5?$AAm?$AA_?$AAh?$AAu?$AAl?$AAl?$AAV@ 1018dbf8     physics:dgMinkowskiConv.obj
 0002:0000fc98       ??_C@_1JM@DLLNOMCD@?$AA?$CI?$AA?$CI?$AAm?$AA_?$AAh?$AAu?$AAl?$AAl?$AAV?$AAe?$AAr?$AAt?$AAe?$AAx?$AAL?$AAa?$AAr?$AAg?$AAe?$AA?$FL?$AA0?$AA?$FN?$AA?5?$AA?9?$AA?5?$AAm?$AA_?$AAh?$AAu?$AAl?$AAl?$AAV@ 1018dc98     physics:dgMinkowskiConv.obj
 0002:0000fd34       ??_C@_1DI@FBDBEOKN@?$AAm?$AAa?$AAg?$AA2?$AA?5?$AA?$DO?$AA?5?$AAd?$AAg?$AAF?$AAl?$AAo?$AAa?$AAt?$AA6?$AA4?$AA?5?$AA?$CI?$AA1?$AA?4?$AA0?$AAe?$AA?9?$AA2?$AA4?$AAf?$AA?$CJ?$AA?$AA@ 1018dd34     physics:dgMinkowskiConv.obj
 0002:0000fd6c       ??_C@_1CO@HHNGBHGG@?$AAv?$AAa?$AAl?$AA?5?$AA?$DO?$AA?5?$AAd?$AAg?$AAF?$AAl?$AAo?$AAa?$AAt?$AA6?$AA4?$AA?5?$AA?$CI?$AA0?$AA?4?$AA0?$AAf?$AA?$CJ?$AA?$AA@ 1018dd6c     physics:dgMinkowskiConv.obj
 0002:0000fda0       ??_C@_1FE@JPNELGIB@?$AAr?$AAo?$AAt?$AAM?$AAa?$AAt?$AAr?$AAi?$AAx?$AA?4?$AAm?$AA_?$AAr?$AAi?$AAg?$AAh?$AAt?$AA?4?$AAm?$AA_?$AAw?$AA?5?$AA?$DN?$AA?$DN?$AA?5?$AAd?$AAg?$AAF?$AAl?$AAo?$AAa?$AAt@ 1018dda0     physics:dgMinkowskiConv.obj
 0002:0000fdf8       ??_C@_1EO@CLNDJPFG@?$AAr?$AAo?$AAt?$AAM?$AAa?$AAt?$AAr?$AAi?$AAx?$AA?4?$AAm?$AA_?$AAu?$AAp?$AA?4?$AAm?$AA_?$AAw?$AA?5?$AA?$DN?$AA?$DN?$AA?5?$AAd?$AAg?$AAF?$AAl?$AAo?$AAa?$AAt?$AA6?$AA4?$AA?5@ 1018ddf8     physics:dgMinkowskiConv.obj
 0002:0000fe48       ??_C@_1FE@GDJKLBFA@?$AAr?$AAo?$AAt?$AAM?$AAa?$AAt?$AAr?$AAi?$AAx?$AA?4?$AAm?$AA_?$AAf?$AAr?$AAo?$AAn?$AAt?$AA?4?$AAm?$AA_?$AAw?$AA?5?$AA?$DN?$AA?$DN?$AA?5?$AAd?$AAg?$AAF?$AAl?$AAo?$AAa?$AAt@ 1018de48     physics:dgMinkowskiConv.obj
 0002:0000fea0       __real@4202a05f20000000    1018dea0     physics:dgMinkowskiConv.obj
 0002:0000fea8       __real@3f40624de0000000    1018dea8     physics:dgMinkowskiConv.obj
 0002:0000feb0       __real@3feffbe760000000    1018deb0     physics:dgMinkowskiConv.obj
 0002:0000feb8       __real@bff0000000000000    1018deb8     physics:dgMinkowskiConv.obj
 0002:0000fec0       ??_C@_1DI@ONOPDGEC@?$AAd?$AAi?$AAs?$AAt?$AA?5?$AA?$DO?$AA?5?$AAd?$AAg?$AAF?$AAl?$AAo?$AAa?$AAt?$AA6?$AA4?$AA?5?$AA?$CI?$AA1?$AA?4?$AA0?$AAe?$AA?9?$AA2?$AA4?$AAf?$AA?$CJ?$AA?$AA@ 1018dec0     physics:dgMinkowskiConv.obj
 0002:0000fef8       ??_C@_1DI@DOEMPLFE@?$AAm?$AAa?$AAg?$AA2?$AA?5?$AA?$DO?$AA?5?$AAd?$AAg?$AAF?$AAl?$AAo?$AAa?$AAt?$AA6?$AA4?$AA?5?$AA?$CI?$AA1?$AA?4?$AA0?$AAe?$AA?9?$AA1?$AA0?$AAf?$AA?$CJ?$AA?$AA@ 1018def8     physics:dgMinkowskiConv.obj
 0002:0000ff30       ??_C@_1DE@BHELGGBC@?$AAm?$AAa?$AAx?$AAE?$AAr?$AAr?$AA?5?$AA?$DO?$AA?5?$AAd?$AAg?$AAF?$AAl?$AAo?$AAa?$AAt?$AA6?$AA4?$AA?5?$AA?$CI?$AA0?$AA?4?$AA0?$AAf?$AA?$CJ?$AA?$AA@ 1018df30     physics:dgMinkowskiConv.obj
 0002:0000ff68       __real@3e112e0be0000000    1018df68     physics:dgMinkowskiConv.obj
 0002:0000ff70       ??_C@_1CM@NDBELDDB@?$AAs?$AA?5?$AA?$DM?$AA?$DN?$AA?5?$AAd?$AAg?$AAF?$AAl?$AAo?$AAa?$AAt?$AA6?$AA4?$AA?5?$AA?$CI?$AA1?$AA?4?$AA0?$AAf?$AA?$CJ?$AA?$AA@ 1018df70     physics:dgMinkowskiConv.obj
 0002:0000ff9c       ??_C@_1CM@MNEJNNJB@?$AAs?$AA?5?$AA?$DO?$AA?$DN?$AA?5?$AAd?$AAg?$AAF?$AAl?$AAo?$AAa?$AAt?$AA6?$AA4?$AA?5?$AA?$CI?$AA0?$AA?4?$AA0?$AAf?$AA?$CJ?$AA?$AA@ 1018df9c     physics:dgMinkowskiConv.obj
 0002:0000ffc8       ??_C@_1CM@FMMBKBP@?$AAt?$AA?5?$AA?$DM?$AA?$DN?$AA?5?$AAd?$AAg?$AAF?$AAl?$AAo?$AAa?$AAt?$AA6?$AA4?$AA?5?$AA?$CI?$AA1?$AA?4?$AA0?$AAf?$AA?$CJ?$AA?$AA@ 1018dfc8     physics:dgMinkowskiConv.obj
 0002:0000fff4       ??_C@_1CM@BLJBHELP@?$AAt?$AA?5?$AA?$DO?$AA?$DN?$AA?5?$AAd?$AAg?$AAF?$AAl?$AAo?$AAa?$AAt?$AA6?$AA4?$AA?5?$AA?$CI?$AA0?$AA?4?$AA0?$AAf?$AA?$CJ?$AA?$AA@ 1018dff4     physics:dgMinkowskiConv.obj
 0002:00010020       __real@3d71979980000000    1018e020     physics:dgMinkowskiConv.obj
 0002:00010028       __real@3f40000000000000    1018e028     physics:dgMinkowskiConv.obj
 0002:00010030       __real@4040000000000000    1018e030     physics:dgMinkowskiConv.obj
 0002:00010038       ??_C@_1EE@MKOLKJJM@?$AAf?$AAa?$AAc?$AAe?$AA?9?$AA?$DO?$AAm?$AA_?$AAw?$AA?5?$AA?$DO?$AA?$DN?$AA?5?$AAd?$AAg?$AAF?$AAl?$AAo?$AAa?$AAt?$AA3?$AA2?$AA?5?$AA?$CI?$AA?9?$AA1?$AA?4?$AA0?$AAe?$AA?9?$AA2?$AAf@ 1018e038     physics:dgMinkowskiConv.obj
 0002:0001007c       __real@bc23d70a            1018e07c     physics:dgMinkowskiConv.obj
 0002:00010080       ??_C@_1CO@DELGLEBP@?$AAi?$AAd?$AA2?$AA?5?$AA?$CB?$AA?$DN?$AA?5?$AAm?$AA_?$AAn?$AAu?$AAl?$AAl?$AAC?$AAo?$AAl?$AAl?$AAi?$AAs?$AAi?$AAo?$AAn?$AA?$AA@ 1018e080     physics:dgMinkowskiConv.obj
 0002:000100b0       ??_C@_1CO@MINDPGM@?$AAi?$AAd?$AA1?$AA?5?$AA?$CB?$AA?$DN?$AA?5?$AAm?$AA_?$AAn?$AAu?$AAl?$AAl?$AAC?$AAo?$AAl?$AAl?$AAi?$AAs?$AAi?$AAo?$AAn?$AA?$AA@ 1018e0b0     physics:dgMinkowskiConv.obj
 0002:000100e0       ??_C@_1HC@KAAIONPA@?$AAc?$AAo?$AAl?$AAl?$AAi?$AAs?$AAi?$AAo?$AAn?$AA2?$AA?9?$AA?$DO?$AAG?$AAe?$AAt?$AAC?$AAo?$AAl?$AAl?$AAi?$AAs?$AAi?$AAo?$AAn?$AAP?$AAr?$AAi?$AAm?$AAi?$AAt?$AAy?$AAT@ 1018e0e0     physics:dgMinkowskiConv.obj
 0002:00010158       ??_C@_1HC@BKHCHNPH@?$AAc?$AAo?$AAl?$AAl?$AAi?$AAs?$AAi?$AAo?$AAn?$AA1?$AA?9?$AA?$DO?$AAG?$AAe?$AAt?$AAC?$AAo?$AAl?$AAl?$AAi?$AAs?$AAi?$AAo?$AAn?$AAP?$AAr?$AAi?$AAm?$AAi?$AAt?$AAy?$AAT@ 1018e158     physics:dgMinkowskiConv.obj
 0002:000101cc       ??_C@_1CK@GNMKAOCB@?$AAt?$AAi?$AAm?$AAe?$AAO?$AAf?$AAI?$AAm?$AAp?$AAa?$AAc?$AAt?$AA?5?$AA?$DO?$AA?$DN?$AA?5?$AA0?$AA?4?$AA0?$AAf?$AA?$AA@ 1018e1cc     physics:dgMinkowskiConv.obj
 0002:000101f8       ??_C@_1BI@MMDFCEEA@?$AAt?$AAm?$AAp?$AAF?$AAa?$AAc?$AAe?$AAf?$AAa?$AAc?$AAe?$AA?$AA@ 1018e1f8     physics:dgMinkowskiConv.obj
 0002:00010210       ??_C@_1CO@DBAOGJOM@?$AAc?$AAo?$AAd?$AAe?$AA?5?$AA?$DN?$AA?$DN?$AA?5?$AAd?$AAg?$AAM?$AAi?$AAn?$AAk?$AAD?$AAi?$AAs?$AAj?$AAo?$AAi?$AAn?$AAt?$AA?$AA@ 1018e210     physics:dgMinkowskiConv.obj
 0002:00010240       ??_C@_1EC@PHIJNMDK@?$AAp?$AAl?$AAa?$AAn?$AAe?$AA?5?$AA?$CF?$AA?5?$AAp?$AAl?$AAa?$AAn?$AAe?$AA?5?$AA?$DO?$AA?5?$AAd?$AAg?$AAF?$AAl?$AAo?$AAa?$AAt?$AA3?$AA2?$AA?5?$AA?$CI?$AA0?$AA?4?$AA0?$AAf?$AA?$CJ@ 1018e240     physics:dgMinkowskiConv.obj
 0002:00010284       ??_C@_1CK@COLFJKOA@?$AAc?$AAo?$AAu?$AAn?$AAt?$AA?5?$AA?$DM?$AA?$DN?$AA?5?$AAm?$AAa?$AAx?$AAC?$AAo?$AAn?$AAt?$AAa?$AAc?$AAt?$AAs?$AA?$AA@ 1018e284     physics:dgMinkowskiConv.obj
 0002:000102b0       ??_C@_1EM@IIKJCKFF@?$AAp?$AAl?$AAa?$AAn?$AAe?$AA?5?$AA?$CF?$AA?5?$AAp?$AAl?$AAa?$AAn?$AAe?$AA?5?$AA?$DO?$AA?5?$AAd?$AAg?$AAF?$AAl?$AAo?$AAa?$AAt?$AA3?$AA2?$AA?5?$AA?$CI?$AA?9?$AA1?$AA?4?$AA0?$AAe@ 1018e2b0     physics:dgMinkowskiConv.obj
 0002:00010300       ??_C@_1GM@FIIJOMEP@?$AAd?$AAg?$AAA?$AAb?$AAs?$AAf?$AA?5?$AA?$CI?$AAn?$AAo?$AAr?$AAm?$AAa?$AAl?$AA?5?$AA?$CF?$AA?5?$AAn?$AAo?$AAr?$AAm?$AAa?$AAl?$AA?5?$AA?9?$AA?5?$AA1?$AA?4?$AA0?$AAf?$AA?$CJ?$AA?5@ 1018e300     physics:dgMinkowskiConv.obj
 0002:0001036c       ??_C@_1CC@DLFDADFK@?$AAd?$AAa?$AAt?$AAa?$AA?4?$AAm?$AA_?$AAf?$AAa?$AAc?$AAe?$AAC?$AAo?$AAu?$AAn?$AAt?$AA?$AA@ 1018e36c     physics:dgMinkowskiConv.obj
 0002:00010390       ??_C@_1BA@JPDMPP@?$AAi?$AAd?$AAA?$AAr?$AAr?$AAa?$AAy?$AA?$AA@ 1018e390     physics:dgMinkowskiConv.obj
 0002:000103a0       ??_C@_1IM@JKCLEMOD@?$AAp?$AAr?$AAo?$AAx?$AAi?$AA?4?$AAm?$AA_?$AAf?$AAl?$AAo?$AAa?$AAt?$AAi?$AAn?$AAg?$AAC?$AAo?$AAl?$AAl?$AAi?$AAs?$AAi?$AAo?$AAn?$AA?9?$AA?$DO?$AAI?$AAs?$AAT?$AAy?$AAp@ 1018e3a0     physics:dgMinkowskiConv.obj
 0002:00010430       ??_C@_1JE@NAKPBIE@?$AAp?$AAr?$AAo?$AAx?$AAi?$AA?4?$AAm?$AA_?$AAr?$AAe?$AAf?$AAe?$AAr?$AAe?$AAn?$AAc?$AAe?$AAC?$AAo?$AAl?$AAl?$AAi?$AAs?$AAi?$AAo?$AAn?$AA?9?$AA?$DO?$AAI?$AAs?$AAT?$AAy@ 1018e430     physics:dgMinkowskiConv.obj
 0002:000104c8       ??_C@_1JE@OHHBKFKB@?$AAd?$AAg?$AAA?$AAb?$AAs?$AAf?$AA?5?$AA?$CI?$AAc?$AAo?$AAn?$AAt?$AAa?$AAc?$AAt?$AA?4?$AAm?$AA_?$AAn?$AAo?$AAr?$AAm?$AAa?$AAl?$AA?5?$AA?$CF?$AA?5?$AAc?$AAo?$AAn?$AAt?$AAa@ 1018e4c8     physics:dgMinkowskiConv.obj
 0002:00010560       ??_C@_1GK@CNELOEOH@?$AAp?$AAo?$AAl?$AAy?$AAs?$AAo?$AAu?$AAp?$AA?9?$AA?$DO?$AAI?$AAs?$AAT?$AAy?$AAp?$AAe?$AA?5?$AA?$CI?$AAd?$AAg?$AAC?$AAo?$AAl?$AAl?$AAi?$AAs?$AAi?$AAo?$AAn?$AA?3?$AA?3?$AAd@ 1018e560     physics:dgMinkowskiConv.obj
 0002:000105d0       ??_C@_1HA@BAJLEBAP@?$AAc?$AAo?$AAl?$AAl?$AAi?$AAs?$AAi?$AAo?$AAn?$AA?9?$AA?$DO?$AAI?$AAs?$AAT?$AAy?$AAp?$AAe?$AA?5?$AA?$CI?$AAd?$AAg?$AAC?$AAo?$AAl?$AAl?$AAi?$AAs?$AAi?$AAo?$AAn?$AA?3?$AA?3@ 1018e5d0     physics:dgMinkowskiConv.obj
 0002:00010640       __real@42000000            1018e640     physics:dgMinkowskiConv.obj
 0002:00010644       ??_C@_1DK@NLGEBAII@?$AAt?$AAi?$AAm?$AAe?$AAs?$AAt?$AAe?$AAp?$AA?5?$AA?$DM?$AA?$DN?$AA?5?$AAd?$AAg?$AAF?$AAl?$AAo?$AAa?$AAt?$AA3?$AA2?$AA?5?$AA?$CI?$AA1?$AA?4?$AA0?$AAf?$AA?$CJ?$AA?$AA@ 1018e644     physics:dgMinkowskiConv.obj
 0002:00010680       ??_C@_1DK@MFDJHOCI@?$AAt?$AAi?$AAm?$AAe?$AAs?$AAt?$AAe?$AAp?$AA?5?$AA?$DO?$AA?$DN?$AA?5?$AAd?$AAg?$AAF?$AAl?$AAo?$AAa?$AAt?$AA3?$AA2?$AA?5?$AA?$CI?$AA0?$AA?4?$AA0?$AAf?$AA?$CJ?$AA?$AA@ 1018e680     physics:dgMinkowskiConv.obj
 0002:000106c0       ??_C@_1EK@LFGBICMI@?$AAp?$AAr?$AAo?$AAx?$AAi?$AA?4?$AAm?$AA_?$AAt?$AAi?$AAm?$AAe?$AAs?$AAt?$AAe?$AAp?$AA?5?$AA?$DO?$AA?$DN?$AA?5?$AAd?$AAg?$AAF?$AAl?$AAo?$AAa?$AAt?$AA3?$AA2?$AA?5?$AA?$CI?$AA0@ 1018e6c0     physics:dgMinkowskiConv.obj
 0002:00010710       ??_C@_1EK@KLDMOMGI@?$AAp?$AAr?$AAo?$AAx?$AAi?$AA?4?$AAm?$AA_?$AAt?$AAi?$AAm?$AAe?$AAs?$AAt?$AAe?$AAp?$AA?5?$AA?$DM?$AA?$DN?$AA?5?$AAd?$AAg?$AAF?$AAl?$AAo?$AAa?$AAt?$AA3?$AA2?$AA?5?$AA?$CI?$AA1@ 1018e710     physics:dgMinkowskiConv.obj
 0002:00010760       ??_C@_1HI@LCKJDCB@?$AA?$CI?$AAm?$AA_?$AAm?$AAa?$AAt?$AAr?$AAi?$AAx?$AA?4?$AAm?$AA_?$AAr?$AAi?$AAg?$AAh?$AAt?$AA?5?$AA?$CF?$AA?5?$AAm?$AA_?$AAm?$AAa?$AAt?$AAr?$AAi?$AAx?$AA?4?$AAm?$AA_?$AAr@ 1018e760     physics:dgMinkowskiConv.obj
 0002:000107d8       ??_C@_1GM@IOLKEOAO@?$AA?$CI?$AAm?$AA_?$AAm?$AAa?$AAt?$AAr?$AAi?$AAx?$AA?4?$AAm?$AA_?$AAu?$AAp?$AA?5?$AA?$CF?$AA?5?$AAm?$AA_?$AAm?$AAa?$AAt?$AAr?$AAi?$AAx?$AA?4?$AAm?$AA_?$AAu?$AAp?$AA?$CJ?$AA?5@ 1018e7d8     physics:dgMinkowskiConv.obj
 0002:00010848       ??_C@_1HI@NIBGAPAF@?$AA?$CI?$AAm?$AA_?$AAm?$AAa?$AAt?$AAr?$AAi?$AAx?$AA?4?$AAm?$AA_?$AAf?$AAr?$AAo?$AAn?$AAt?$AA?5?$AA?$CF?$AA?5?$AAm?$AA_?$AAm?$AAa?$AAt?$AAr?$AAi?$AAx?$AA?4?$AAm?$AA_?$AAf@ 1018e848     physics:dgMinkowskiConv.obj
 0002:000108c0       ??_C@_1MG@KCIDAHE@?$AA?$CI?$AAd?$AAg?$AAA?$AAb?$AAs?$AAf?$AA?$CI?$AAc?$AAo?$AAn?$AAt?$AAa?$AAc?$AAt?$AAO?$AAu?$AAt?$AA?$FL?$AAi?$AA?$FN?$AA?4?$AAm?$AA_?$AAn?$AAo?$AAr?$AAm?$AAa?$AAl?$AA?5?$AA?$CF@ 1018e8c0     physics:dgMinkowskiConv.obj
 0002:00010988       ??_C@_1IK@JFILDMOM@?$AA?$CI?$AAp?$AAr?$AAo?$AAx?$AAi?$AA?4?$AAm?$AA_?$AAu?$AAn?$AAc?$AAo?$AAn?$AAd?$AAi?$AAt?$AAi?$AAo?$AAn?$AAa?$AAl?$AAC?$AAa?$AAs?$AAt?$AA?5?$AA?$DN?$AA?$DN?$AA?5?$AA0?$AA?$CJ@ 1018e988     physics:dgMinkowskiConv.obj
 0002:00011010       ??_C@_1EE@PCPPOBEE@?$AA?4?$AA?4?$AA?2?$AA?4?$AA?4?$AA?2?$AA?4?$AA?4?$AA?2?$AAs?$AAd?$AAk?$AA?2?$AAc?$AAo?$AAr?$AAe?$AAL?$AAI?$AAB?$AA?2?$AAd?$AAg?$AAM?$AAe?$AAm?$AAo?$AAr?$AAy?$AA?4?$AAc?$AAp@ 1018f010     corelib:dgMemory.obj
 0002:00011690       __real@4000000000000000    1018f690     corelib:dgTypes.obj
 0002:00011698       __real@3f1a36e2eb1c432d    1018f698     corelib:dgTypes.obj
 0002:000116a0       __real@3f50624dd2f1a9fc    1018f6a0     corelib:dgTypes.obj
 0002:000116a8       __real@c202a05f20000000    1018f6a8     corelib:dgTypes.obj
 0002:00011fc0       __real@3f96c16c20000000    1018ffc0     corelib:dgMatrix.obj
 0002:00011fc8       __real@3ddb7cdfc0000000    1018ffc8     corelib:dgMatrix.obj
 0002:00011fd0       __real@3fa99999a0000000    1018ffd0     corelib:dgMatrix.obj
 0002:00011fd8       __real@bf7fffef            1018ffd8     corelib:dgMatrix.obj
 0002:00011fdc       __real@3f7fffef            1018ffdc     corelib:dgMatrix.obj
 0002:00011fe0       __real@3f7ffcb9            1018ffe0     corelib:dgMatrix.obj
 0002:00015ee4       ??_7dgPolyhedra@@6B@       10193ee4     corelib:dgPolyhedra.obj
 0002:00015ee8       __real@4066800000000000    10193ee8     corelib:dgPolyhedra.obj
 0002:00015ef0       __real@400921ff20000000    10193ef0     corelib:dgPolyhedra.obj
 0002:00015ef8       __real@4056800000000000    10193ef8     corelib:dgPolyhedra.obj
 0002:00015f00       __real@4024000000000000    10193f00     corelib:dgPolyhedra.obj
 0002:00015f08       __real@3fb99999a0000000    10193f08     corelib:dgPolyhedra.obj
 0002:00015f10       __real@4010000000000000    10193f10     corelib:dgPolyhedra.obj
 0002:00015f18       __real@4008000000000000    10193f18     corelib:dgPolyhedra.obj
 0002:00015f20       __real@4030000000000000    10193f20     corelib:dgPolyhedra.obj
 0002:00015f28       __real@3fe69fbe80000000    10193f28     corelib:dgPolyhedra.obj
 0002:00015f30       __real@3c9cd2b2a0000000    10193f30     corelib:dgPolyhedra.obj
 0002:00015f38       __real@bfecccccc0000000    10193f38     corelib:dgPolyhedra.obj
 0002:00015f40       __real@3fefff2e40000000    10193f40     corelib:dgPolyhedra.obj
 0002:00015f48       __real@3f747ae140000000    10193f48     corelib:dgPolyhedra.obj
 0002:00015f50       __real@3d06849b80000000    10193f50     corelib:dgPolyhedra.obj
 0002:00015f58       ??_C@_1EK@EIAKIGJG@?$AA?4?$AA?4?$AA?2?$AA?4?$AA?4?$AA?2?$AA?4?$AA?4?$AA?2?$AAs?$AAd?$AAk?$AA?2?$AAc?$AAo?$AAr?$AAe?$AAL?$AAI?$AAB?$AA?2?$AAd?$AAg?$AAP?$AAo?$AAl?$AAy?$AAh?$AAe?$AAd?$AAr?$AAa@ 10193f58     corelib:dgPolyhedra.obj
 0002:00015fa4       ??_C@_1BO@BNHJKDDF@?$AAh?$AAa?$AAn?$AAd?$AAl?$AAe?$AA?5?$AA?$CB?$AA?$DN?$AA?5?$AAt?$AAh?$AAi?$AAs?$AA?$AA@ 10193fa4     corelib:dgPolyhedra.obj
 0002:00017460       __real@bf91eb8520000000    10195460     corelib:dgIntersections.obj
 0002:00017468       __real@bf50624de0000000    10195468     corelib:dgIntersections.obj
 0002:00019838       __real@3e70000000000000    10197838     corelib:dgConvexHull3d.obj
 0002:00019840       ??_7dgConvexHull3d@@6B@    10197840     corelib:dgConvexHull3d.obj
 0002:00019850       __real@c30c6bf520000000    10197850     corelib:dgConvexHull3d.obj
 0002:00019858       __real@430c6bf520000000    10197858     corelib:dgConvexHull3d.obj
 0002:00019860       __real@c415af1d80000000    10197860     corelib:dgConvexHull3d.obj
 0002:00019ee4       ??_7dgDelaunayTetrahedralization@@6B@ 10197ee4     corelib:dgDelaunayTetrahedralization.obj
 0002:0001c2ac       ??_7dgConvexHull4d@@6B@    1019a2ac     corelib:dgConvexHull4d.obj
 0002:0001c2c0       __real@3fecccccc0000000    1019a2c0     corelib:dgConvexHull4d.obj
 0002:0001d01c       ??_7dgAABBPolygonSoup@@6B@ 1019b01c     corelib:dgAABBPolygonSoup.obj
 0002:0001d040       ??_7dgPolygonSoupDatabase@@6B@ 1019b040     corelib:dgAABBPolygonSoup.obj
 0002:0001d060       ??_C@_1HA@MINKEICO@?$AAc?$AA?3?$AA?2?$AAn?$AAe?$AAw?$AAt?$AAo?$AAn?$AA_?$AA2?$AA0?$AA0?$AA?2?$AA3?$AAd?$AAl?$AAi?$AAb?$AA?2?$AAs?$AAd?$AAk?$AA?2?$AAc?$AAo?$AAr?$AAe?$AAl?$AAi?$AAb?$AA?2@ 1019b060     corelib:dgAABBPolygonSoup.obj
 0002:0001d0d0       ??_C@_1FG@PKIBININ@?$AA?4?$AA?4?$AA?2?$AA?4?$AA?4?$AA?2?$AA?4?$AA?4?$AA?2?$AAs?$AAd?$AAk?$AA?2?$AAc?$AAo?$AAr?$AAe?$AAL?$AAI?$AAB?$AA?2?$AAd?$AAg?$AAA?$AAA?$AAB?$AAB?$AAP?$AAo?$AAl?$AAy?$AAg@ 1019b0d0     corelib:dgAABBPolygonSoup.obj
 0002:0001d128       ??_C@_1CO@HMALHHAP@?$AAs?$AAt?$AAa?$AAc?$AAk?$AA?5?$AA?$DM?$AA?5?$AAD?$AAG?$AA_?$AAS?$AAT?$AAA?$AAC?$AAK?$AA_?$AAD?$AAE?$AAP?$AAT?$AAH?$AA?$AA@ 1019b128     corelib:dgAABBPolygonSoup.obj
 0002:0001d158       ??_C@_1BC@OJBNIDIN@?$AAI?$AAs?$AAL?$AAe?$AAa?$AAf?$AA?$CI?$AA?$CJ?$AA?$AA@ 1019b158     corelib:dgAABBPolygonSoup.obj
 0002:0001d170       __real@bf1a36e2e0000000    1019b170     corelib:dgAABBPolygonSoup.obj
 0002:0001d178       ??_C@_1FE@KMMFBGNP@?$AAf?$AAa?$AAc?$AAe?$AAI?$AAn?$AAd?$AAe?$AAx?$AAC?$AAo?$AAu?$AAn?$AAt?$AA?5?$AA?$DM?$AA?5?$AA?$CI?$AA1?$AA?$DM?$AA?$DM?$AAD?$AAG?$AA_?$AAI?$AAN?$AAD?$AAE?$AAX?$AA_?$AAC?$AAO@ 1019b178     corelib:dgAABBPolygonSoup.obj
 0002:0001d1cc       ??_C@_1CC@NBGFIAAI@?$AAn?$AAe?$AAw?$AAC?$AAo?$AAu?$AAn?$AAt?$AA?5?$AA?$DM?$AA?5?$AAc?$AAo?$AAu?$AAn?$AAt?$AA?$AA@ 1019b1cc     corelib:dgAABBPolygonSoup.obj
 0002:0001d1f0       ??_C@_1CA@OCILKG@?$AAb?$AAe?$AAs?$AAt?$AAP?$AAr?$AAo?$AAx?$AAi?$AA?5?$AA?$CB?$AA?$DN?$AA?5?$AA?9?$AA1?$AA?$AA@ 1019b1f0     corelib:dgAABBPolygonSoup.obj
 0002:0001d210       ??_C@_1BE@POEILMAA@?$AA?$CB?$AAI?$AAs?$AAL?$AAe?$AAa?$AAf?$AA?$CI?$AA?$CJ?$AA?$AA@ 1019b210     corelib:dgAABBPolygonSoup.obj
 0002:0001d224       ??_C@_1BK@DIHPCENE@?$AAl?$AAa?$AAs?$AAt?$AAB?$AAo?$AAx?$AA?5?$AA?$DO?$AA?$DN?$AA?5?$AA0?$AA?$AA@ 1019b224     corelib:dgAABBPolygonSoup.obj
 0002:0001d240       ??_C@_1BM@KDGDOBPN@?$AAf?$AAi?$AAr?$AAs?$AAt?$AAB?$AAo?$AAx?$AA?5?$AA?$DO?$AA?$DN?$AA?5?$AA0?$AA?$AA@ 1019b240     corelib:dgAABBPolygonSoup.obj
 0002:0001df88       __real@3fb5555560000000    1019bf88     corelib:dgPolygonSoupBuilder.obj
 0002:0001df90       ??_7dgPolySoupFilterAllocator@@6B@ 1019bf90     corelib:dgPolygonSoupBuilder.obj
 0002:0001df94       ??_C@_1BE@DIDKOBGM@?$AAr?$AAe?$AAd?$AAu?$AAc?$AAt?$AAi?$AAo?$AAn?$AA?$AA@ 1019bf94     corelib:dgPolygonSoupBuilder.obj
 0002:0001dfa8       ??_C@_1FM@NCLMBAKM@?$AA?4?$AA?4?$AA?2?$AA?4?$AA?4?$AA?2?$AA?4?$AA?4?$AA?2?$AAs?$AAd?$AAk?$AA?2?$AAc?$AAo?$AAr?$AAe?$AAL?$AAI?$AAB?$AA?2?$AAd?$AAg?$AAP?$AAo?$AAl?$AAy?$AAg?$AAo?$AAn?$AAS?$AAo@ 1019bfa8     corelib:dgPolygonSoupBuilder.obj
 0002:0001e004       ??_C@_1M@MJBJBOIA@?$AAc?$AAo?$AAu?$AAn?$AAt?$AA?$AA@ 1019c004     corelib:dgPolygonSoupBuilder.obj
 0002:0001e518       __real@3f50624dc0000000    1019c518     corelib:dgQuaternion.obj
 0002:0001e818       __real@3feccccccccccccd    1019c818     corelib:dgSphere.obj
 0002:0001e820       __real@3d719799812dea11    1019c820     corelib:dgSphere.obj
 0002:0001e828       __real@4022000000000000    1019c828     corelib:dgSphere.obj
 0002:0001e830       __real@4028000000000000    1019c830     corelib:dgSphere.obj
 0002:0001ebf0       ??_C@_1EI@NCDFAKJO@?$AAm?$AA_?$AAs?$AAi?$AAg?$AAn?$AAi?$AAf?$AAi?$AAc?$AAa?$AAn?$AAt?$AAC?$AAo?$AAu?$AAn?$AAt?$AA?5?$AA?$DM?$AA?5?$AAD?$AAG?$AA_?$AAG?$AAO?$AAO?$AAG?$AAO?$AAL?$AA_?$AAS@ 1019cbf0     corelib:dgGoogol.obj
 0002:0001ec38       ??_C@_1EE@BMNIMON@?$AA?4?$AA?4?$AA?2?$AA?4?$AA?4?$AA?2?$AA?4?$AA?4?$AA?2?$AAs?$AAd?$AAk?$AA?2?$AAc?$AAo?$AAr?$AAe?$AAL?$AAI?$AAB?$AA?2?$AAd?$AAg?$AAG?$AAo?$AAo?$AAg?$AAo?$AAl?$AA?4?$AAc?$AAp@ 1019cc38     corelib:dgGoogol.obj
 0002:0001ec7c       ??_C@_1CK@FCHNCHMD@?$AAt?$AAo?$AAp?$AA?5?$AA?$DM?$AA?5?$AAD?$AAG?$AA_?$AAG?$AAO?$AAO?$AAG?$AAO?$AAL?$AA_?$AAS?$AAI?$AAZ?$AAE?$AA?$AA@ 1019cc7c     corelib:dgGoogol.obj
 0002:0001eca8       ??_C@_1FA@HNHOKLG@?$AAt?$AAm?$AAp?$AA?4?$AAm?$AA_?$AAs?$AAi?$AAg?$AAn?$AAi?$AAf?$AAi?$AAc?$AAa?$AAn?$AAt?$AAC?$AAo?$AAu?$AAn?$AAt?$AA?5?$AA?$DM?$AA?5?$AAD?$AAG?$AA_?$AAG?$AAO?$AAO?$AAG@ 1019cca8     corelib:dgGoogol.obj
 0002:0001ecf8       ??_C@_1DA@MBLLJOCO@?$AAh?$AAi?$AAn?$AAd?$AAe?$AAx?$AA?5?$AA?$DM?$AA?5?$AAD?$AAG?$AA_?$AAG?$AAO?$AAO?$AAG?$AAO?$AAL?$AA_?$AAS?$AAI?$AAZ?$AAE?$AA?$AA@ 1019ccf8     corelib:dgGoogol.obj
 0002:0001ed28       __FPinit                   1019cd28     LIBCMTD:_fpinit_.obj
 0002:0001ed2c       __FPmtinit                 1019cd2c     LIBCMTD:_fpinit_.obj
 0002:0001ed30       __FPmtterm                 1019cd30     LIBCMTD:_fpinit_.obj
 0002:0001ed88       ??_C@_17LGKOMLJ@?$AA?4?$AA?4?$AA?4?$AA?$AA@ 1019cd88     LIBCMTD:dbgrptw.obj
 0002:0001ed90       ??_C@_1CC@CGHMNGDG@?$AAA?$AAs?$AAs?$AAe?$AAr?$AAt?$AAi?$AAo?$AAn?$AA?5?$AAF?$AAa?$AAi?$AAl?$AAe?$AAd?$AA?$AA@ 1019cd90     LIBCMTD:dbgrptw.obj
 0002:0001edb4       ??_C@_1M@ILHOPKA@?$AAE?$AAr?$AAr?$AAo?$AAr?$AA?$AA@ 1019cdb4     LIBCMTD:dbgrptw.obj
 0002:0001edc0       ??_C@_1BA@GLMCNLEM@?$AAW?$AAa?$AAr?$AAn?$AAi?$AAn?$AAg?$AA?$AA@ 1019cdc0     LIBCMTD:dbgrptw.obj
 0002:0001edd0       ?ProcessDetach@NativeDll@<CrtImplementationDetails>@@0IB 1019cdd0     LIBCMTD:dbgrptw.obj
 0002:0001edd4       ?ProcessAttach@NativeDll@<CrtImplementationDetails>@@0IB 1019cdd4     LIBCMTD:dbgrptw.obj
 0002:0001edd8       ?ThreadAttach@NativeDll@<CrtImplementationDetails>@@0IB 1019cdd8     LIBCMTD:dbgrptw.obj
 0002:0001eddc       ?ThreadDetach@NativeDll@<CrtImplementationDetails>@@0IB 1019cddc     LIBCMTD:dbgrptw.obj
 0002:0001ede0       ?ProcessVerifier@NativeDll@<CrtImplementationDetails>@@0IB 1019cde0     LIBCMTD:dbgrptw.obj
 0002:0001edf0       ??_C@_0DA@PCCBBBID@f?3?2dd?2vctools?2crt_bld?2self_x86?2c@ 1019cdf0     LIBCMTD:dbgrptw.obj
 0002:0001ee20       ??_C@_1FI@PHIAFFHM@?$AA?$CI?$AA?$CC?$AAT?$AAh?$AAe?$AA?5?$AAh?$AAo?$AAo?$AAk?$AA?5?$AAf?$AAu?$AAn?$AAc?$AAt?$AAi?$AAo?$AAn?$AA?5?$AAi?$AAs?$AA?5?$AAn?$AAo?$AAt?$AA?5?$AAi?$AAn?$AA?5?$AAt?$AAh@ 1019ce20     LIBCMTD:dbgrptw.obj
 0002:0001ee78       ??_C@_1CG@JBJEFOCM@?$AAp?$AAf?$AAn?$AAN?$AAe?$AAw?$AAH?$AAo?$AAo?$AAk?$AA?5?$AA?$CB?$AA?$DN?$AA?5?$AAN?$AAU?$AAL?$AAL?$AA?$AA@ 1019ce78     LIBCMTD:dbgrptw.obj
 0002:0001eea0       ??_C@_1CI@IIHEAKEI@?$AA_?$AAC?$AAr?$AAt?$AAS?$AAe?$AAt?$AAR?$AAe?$AAp?$AAo?$AAr?$AAt?$AAH?$AAo?$AAo?$AAk?$AAW?$AA2?$AA?$AA@ 1019cea0     LIBCMTD:dbgrptw.obj
 0002:0001eec8       ??_C@_1GA@IBJGKIFE@?$AAf?$AA?3?$AA?2?$AAd?$AAd?$AA?2?$AAv?$AAc?$AAt?$AAo?$AAo?$AAl?$AAs?$AA?2?$AAc?$AAr?$AAt?$AA_?$AAb?$AAl?$AAd?$AA?2?$AAs?$AAe?$AAl?$AAf?$AA_?$AAx?$AA8?$AA6?$AA?2?$AAc@ 1019cec8     LIBCMTD:dbgrptw.obj
 0002:0001ef28       ??_C@_1HI@OFEHGPPC@?$AAm?$AAo?$AAd?$AAe?$AA?5?$AA?$DN?$AA?$DN?$AA?5?$AA_?$AAC?$AAR?$AAT?$AA_?$AAR?$AAP?$AAT?$AAH?$AAO?$AAO?$AAK?$AA_?$AAI?$AAN?$AAS?$AAT?$AAA?$AAL?$AAL?$AA?5?$AA?$HM?$AA?$HM?$AA?5@ 1019cf28     LIBCMTD:dbgrptw.obj
 0002:0001efa0       ??_C@_1EG@PEOEAKBB@?$AAM?$AAi?$AAc?$AAr?$AAo?$AAs?$AAo?$AAf?$AAt?$AA?5?$AAV?$AAi?$AAs?$AAu?$AAa?$AAl?$AA?5?$AAC?$AA?$CL?$AA?$CL?$AA?5?$AAD?$AAe?$AAb?$AAu?$AAg?$AA?5?$AAL?$AAi?$AAb?$AAr?$AAa@ 1019cfa0     LIBCMTD:dbgrptw.obj
 0002:0001efe8       ??_C@_1FG@BBOLDHGF@?$AA_?$AAC?$AAr?$AAt?$AAD?$AAb?$AAg?$AAR?$AAe?$AAp?$AAo?$AAr?$AAt?$AA?3?$AA?5?$AAS?$AAt?$AAr?$AAi?$AAn?$AAg?$AA?5?$AAt?$AAo?$AAo?$AA?5?$AAl?$AAo?$AAn?$AAg?$AA?5?$AAo@ 1019cfe8     LIBCMTD:dbgrptw.obj
 0002:0001f040       ??_C@_1JI@EACPGHID@?$AAw?$AAc?$AAs?$AAc?$AAp?$AAy?$AA_?$AAs?$AA?$CI?$AAs?$AAz?$AAO?$AAu?$AAt?$AAM?$AAe?$AAs?$AAs?$AAa?$AAg?$AAe?$AA?0?$AA?5?$AA4?$AA0?$AA9?$AA6?$AA?0?$AA?5?$AAL?$AA?$CC?$AA_@ 1019d040     LIBCMTD:dbgrptw.obj
 0002:0001f0d8       ??_C@_1BI@KALLJECN@?$AA?$CI?$AA?$CK?$AA_?$AAe?$AAr?$AAr?$AAn?$AAo?$AA?$CI?$AA?$CJ?$AA?$CJ?$AA?$AA@ 1019d0d8     LIBCMTD:dbgrptw.obj
 0002:0001f0f0       ??_C@_1KK@MEFMPOLM@?$AAD?$AAe?$AAb?$AAu?$AAg?$AA?5?$AA?$CF?$AAs?$AA?$CB?$AA?6?$AA?6?$AAP?$AAr?$AAo?$AAg?$AAr?$AAa?$AAm?$AA?3?$AA?5?$AA?$CF?$AAs?$AA?$CF?$AAs?$AA?$CF?$AAs?$AA?$CF?$AAs?$AA?$CF?$AAs?$AA?$CF?$AAs@ 1019d0f0     LIBCMTD:dbgrptw.obj
 0002:0001f19c       ??_C@_1BE@CGCJKGHI@?$AA?6?$AAM?$AAo?$AAd?$AAu?$AAl?$AAe?$AA?3?$AA?5?$AA?$AA@ 1019d19c     LIBCMTD:dbgrptw.obj
 0002:0001f1b0       ??_C@_1BA@LNHECFIM@?$AA?6?$AAF?$AAi?$AAl?$AAe?$AA?3?$AA?5?$AA?$AA@ 1019d1b0     LIBCMTD:dbgrptw.obj
 0002:0001f1c0       ??_C@_1BA@GLLGCPCK@?$AA?6?$AAL?$AAi?$AAn?$AAe?$AA?3?$AA?5?$AA?$AA@ 1019d1c0     LIBCMTD:dbgrptw.obj
 0002:0001f1d0       ??_C@_15IABLJNFO@?$AA?6?$AA?6?$AA?$AA@ 1019d1d0     LIBCMTD:dbgrptw.obj
 0002:0001f1d8       ??_C@_1BK@PEDCIPMA@?$AAE?$AAx?$AAp?$AAr?$AAe?$AAs?$AAs?$AAi?$AAo?$AAn?$AA?3?$AA?5?$AA?$AA@ 1019d1d8     LIBCMTD:dbgrptw.obj
 0002:0001f1f4       ??_C@_11LOCGONAA@?$AA?$AA@ 1019d1f4     LIBCMTD:dbgrptw.obj
 0002:0001f1f8       ??_C@_1OG@PMPPFHAF@?$AA?6?$AA?6?$AAF?$AAo?$AAr?$AA?5?$AAi?$AAn?$AAf?$AAo?$AAr?$AAm?$AAa?$AAt?$AAi?$AAo?$AAn?$AA?5?$AAo?$AAn?$AA?5?$AAh?$AAo?$AAw?$AA?5?$AAy?$AAo?$AAu?$AAr?$AA?5?$AAp?$AAr@ 1019d1f8     LIBCMTD:dbgrptw.obj
 0002:0001f2e0       ??_C@_1NO@LECLLHOL@?$AAm?$AAe?$AAm?$AAc?$AAp?$AAy?$AA_?$AAs?$AA?$CI?$AAs?$AAz?$AAS?$AAh?$AAo?$AAr?$AAt?$AAP?$AAr?$AAo?$AAg?$AAN?$AAa?$AAm?$AAe?$AA?0?$AA?5?$AAs?$AAi?$AAz?$AAe?$AAo?$AAf@ 1019d2e0     LIBCMTD:dbgrptw.obj
 0002:0001f3c0       ??_C@_1CO@EAEJAADC@?$AA?$DM?$AAp?$AAr?$AAo?$AAg?$AAr?$AAa?$AAm?$AA?5?$AAn?$AAa?$AAm?$AAe?$AA?5?$AAu?$AAn?$AAk?$AAn?$AAo?$AAw?$AAn?$AA?$DO?$AA?$AA@ 1019d3c0     LIBCMTD:dbgrptw.obj
 0002:0001f3f0       ??_C@_1GI@DEDNNLCI@?$AAw?$AAc?$AAs?$AAc?$AAp?$AAy?$AA_?$AAs?$AA?$CI?$AAs?$AAz?$AAE?$AAx?$AAe?$AAN?$AAa?$AAm?$AAe?$AA?0?$AA?5?$AA2?$AA6?$AA0?$AA?0?$AA?5?$AAL?$AA?$CC?$AA?$DM?$AAp?$AAr?$AAo?$AAg@ 1019d3f0     LIBCMTD:dbgrptw.obj
 0002:0001f458       ??_C@_1CI@PGJIFDEK@?$AA_?$AA_?$AAc?$AAr?$AAt?$AAM?$AAe?$AAs?$AAs?$AAa?$AAg?$AAe?$AAW?$AAi?$AAn?$AAd?$AAo?$AAw?$AAW?$AA?$AA@ 1019d458     LIBCMTD:dbgrptw.obj
 0002:0001f480       __pRawDllMain              1019d480     LIBCMTD:dllcrt0.obj
 0002:0001f480       __pDefaultRawDllMain       1019d480     LIBCMTD:dllcrt0.obj
 0002:0001f484       ??_C@_0DB@OLNOAEGF@f?3?2dd?2vctools?2crt_bld?2self_x86?2c@ 1019d484     LIBCMTD:dllcrt0.obj
 0002:0001f4b8       ??_C@_1CC@OLIJCKA@?$AA?$CI?$AAs?$AAt?$AAr?$AAi?$AAn?$AAg?$AA?5?$AA?$CB?$AA?$DN?$AA?5?$AAN?$AAU?$AAL?$AAL?$AA?$CJ?$AA?$AA@ 1019d4b8     LIBCMTD:sprintf.obj
 0002:0001f4dc       ??_C@_1BA@KBJJGFFE@?$AAs?$AAp?$AAr?$AAi?$AAn?$AAt?$AAf?$AA?$AA@ 1019d4dc     LIBCMTD:sprintf.obj
 0002:0001f4f0       ??_C@_1GC@BMNPEKNN@?$AAf?$AA?3?$AA?2?$AAd?$AAd?$AA?2?$AAv?$AAc?$AAt?$AAo?$AAo?$AAl?$AAs?$AA?2?$AAc?$AAr?$AAt?$AA_?$AAb?$AAl?$AAd?$AA?2?$AAs?$AAe?$AAl?$AAf?$AA_?$AAx?$AA8?$AA6?$AA?2?$AAc@ 1019d4f0     LIBCMTD:sprintf.obj
 0002:0001f554       ??_C@_1CC@MGIEJOME@?$AA?$CI?$AAf?$AAo?$AAr?$AAm?$AAa?$AAt?$AA?5?$AA?$CB?$AA?$DN?$AA?5?$AAN?$AAU?$AAL?$AAL?$AA?$CJ?$AA?$AA@ 1019d554     LIBCMTD:sprintf.obj
 0002:0001f578       ?commonFlags@?1??_control87@@9@9 1019d578     LIBCMTD:_ieee87_.obj
 0002:0001f580       ??_C@_1GO@OKJGOMCB@?$AA_?$AAc?$AAo?$AAn?$AAt?$AAr?$AAo?$AAl?$AAf?$AAp?$AA_?$AAs?$AA?$CI?$AA?$CI?$AA?$CI?$AAv?$AAo?$AAi?$AAd?$AA?5?$AA?$CK?$AA?$CJ?$AA0?$AA?$CJ?$AA?0?$AA?5?$AAn?$AAe?$AAw?$AAc?$AAt?$AAr@ 1019d580     LIBCMTD:_ieee87_.obj
 0002:0001f5f0       ??_C@_1BO@OFDNCLL@?$AA_?$AAs?$AAe?$AAt?$AA_?$AAc?$AAo?$AAn?$AAt?$AAr?$AAo?$AAl?$AAf?$AAp?$AA?$AA@ 1019d5f0     LIBCMTD:_ieee87_.obj
 0002:0001f610       ??_C@_1HO@BFDKGHOI@?$AAf?$AA?3?$AA?2?$AAd?$AAd?$AA?2?$AAv?$AAc?$AAt?$AAo?$AAo?$AAl?$AAs?$AA?2?$AAc?$AAr?$AAt?$AA_?$AAb?$AAl?$AAd?$AA?2?$AAs?$AAe?$AAl?$AAf?$AA_?$AAx?$AA8?$AA6?$AA?2?$AAc@ 1019d610     LIBCMTD:_ieee87_.obj
 0002:0001f690       ??_C@_1GE@BDAODJCD@?$AAf?$AA?3?$AA?2?$AAd?$AAd?$AA?2?$AAv?$AAc?$AAt?$AAo?$AAo?$AAl?$AAs?$AA?2?$AAc?$AAr?$AAt?$AA_?$AAb?$AAl?$AAd?$AA?2?$AAs?$AAe?$AAl?$AAf?$AA_?$AAx?$AA8?$AA6?$AA?2?$AAc@ 1019d690     LIBCMTD:dbgdel.obj
 0002:0001f6f8       ??_C@_1EO@LHDAJOCM@?$AA_?$AAB?$AAL?$AAO?$AAC?$AAK?$AA_?$AAT?$AAY?$AAP?$AAE?$AA_?$AAI?$AAS?$AA_?$AAV?$AAA?$AAL?$AAI?$AAD?$AA?$CI?$AAp?$AAH?$AAe?$AAa?$AAd?$AA?9?$AA?$DO?$AAn?$AAB?$AAl?$AAo@ 1019d6f8     LIBCMTD:dbgdel.obj
 0002:0001f748       ??_C@_1BI@IGILPKD@?$AA_?$AAv?$AAs?$AAp?$AAr?$AAi?$AAn?$AAt?$AAf?$AA_?$AAl?$AA?$AA@ 1019d748     LIBCMTD:vsprintf.obj
 0002:0001f760       ??_C@_1GE@DPADKNCG@?$AAf?$AA?3?$AA?2?$AAd?$AAd?$AA?2?$AAv?$AAc?$AAt?$AAo?$AAo?$AAl?$AAs?$AA?2?$AAc?$AAr?$AAt?$AA_?$AAb?$AAl?$AAd?$AA?2?$AAs?$AAe?$AAl?$AAf?$AA_?$AAx?$AA8?$AA6?$AA?2?$AAc@ 1019d760     LIBCMTD:vsprintf.obj
 0002:0001f7c4       ??_C@_1CE@HMKDJHB@?$AA_?$AAv?$AAs?$AAc?$AAp?$AAr?$AAi?$AAn?$AAt?$AAf?$AA_?$AAh?$AAe?$AAl?$AAp?$AAe?$AAr?$AA?$AA@ 1019d7c4     LIBCMTD:vsprintf.obj
 0002:0001f7e8       ??_C@_0DA@HMCPFNKN@f?3?2dd?2vctools?2crt_bld?2self_x86?2c@ 1019d7e8     LIBCMTD:onexit.obj
 0002:0001f818       ??_C@_0DC@EFKEANPM@f?3?2dd?2vctools?2crt_bld?2self_x86?2c@ 1019d818     LIBCMTD:threadex.obj
 0002:0001f84c       ??_C@_1BO@FIKPNENM@?$AA_?$AAb?$AAe?$AAg?$AAi?$AAn?$AAt?$AAh?$AAr?$AAe?$AAa?$AAd?$AAe?$AAx?$AA?$AA@ 1019d84c     LIBCMTD:threadex.obj
 0002:0001f870       ??_C@_1GE@KFNOMGAL@?$AAf?$AA?3?$AA?2?$AAd?$AAd?$AA?2?$AAv?$AAc?$AAt?$AAo?$AAo?$AAl?$AAs?$AA?2?$AAc?$AAr?$AAt?$AA_?$AAb?$AAl?$AAd?$AA?2?$AAs?$AAe?$AAl?$AAf?$AA_?$AAx?$AA8?$AA6?$AA?2?$AAc@ 1019d870     LIBCMTD:threadex.obj
 0002:0001f8d4       ??_C@_1CI@JCFHILLH@?$AAi?$AAn?$AAi?$AAt?$AAi?$AAa?$AAl?$AAc?$AAo?$AAd?$AAe?$AA?5?$AA?$CB?$AA?$DN?$AA?5?$AAN?$AAU?$AAL?$AAL?$AA?$AA@ 1019d8d4     LIBCMTD:threadex.obj
 0002:0001f900       ??_C@_1GE@KOCFNGPB@?$AA_?$AAc?$AAo?$AAn?$AAt?$AAr?$AAo?$AAl?$AAf?$AAp?$AA_?$AAs?$AA?$CI?$AA?$CI?$AA?$CI?$AAv?$AAo?$AAi?$AAd?$AA?5?$AA?$CK?$AA?$CJ?$AA0?$AA?$CJ?$AA?0?$AA?5?$AA0?$AAx?$AA0?$AA0?$AA0?$AA1@ 1019d900     LIBCMTD:fp8.obj
 0002:0001f964       ??_C@_1CK@JMKHCBEI@?$AA_?$AAs?$AAe?$AAt?$AAd?$AAe?$AAf?$AAa?$AAu?$AAl?$AAt?$AAp?$AAr?$AAe?$AAc?$AAi?$AAs?$AAi?$AAo?$AAn?$AA?$AA@ 1019d964     LIBCMTD:fp8.obj
 0002:0001f990       ??_C@_1GG@PHGJJHBC@?$AAf?$AA?3?$AA?2?$AAd?$AAd?$AA?2?$AAv?$AAc?$AAt?$AAo?$AAo?$AAl?$AAs?$AA?2?$AAc?$AAr?$AAt?$AA_?$AAb?$AAl?$AAd?$AA?2?$AAs?$AAe?$AAl?$AAf?$AA_?$AAx?$AA8?$AA6?$AA?2?$AAc@ 1019d990     LIBCMTD:fp8.obj
 0002:0001f9f8       __real@4150017ec0000000    1019d9f8     LIBCMTD:_testfdiv_.obj
 0002:0001fa00       __real@4147ffff80000000    1019da00     LIBCMTD:_testfdiv_.obj
 0002:0001fa08       ??_C@_0BK@NHEOCAHP@IsProcessorFeaturePresent?$AA@ 1019da08     LIBCMTD:_testfdiv_.obj
 0002:0001fa24       ??_C@_08CPNIBGIE@KERNEL32?$AA@ 1019da24     LIBCMTD:_testfdiv_.obj
 0002:0001fa30       ??_C@_1CA@CBMNPEO@?$AAs?$AAi?$AAz?$AAe?$AAI?$AAn?$AAB?$AAy?$AAt?$AAe?$AAs?$AA?5?$AA?$DO?$AA?5?$AA0?$AA?$AA@ 1019da30     LIBCMTD:cvt.obj
 0002:0001fa50       ??_C@_1BC@INKAPMHI@?$AA_?$AAc?$AAf?$AAt?$AAo?$AAe?$AA_?$AAl?$AA?$AA@ 1019da50     LIBCMTD:cvt.obj
 0002:0001fa68       ??_C@_1GO@NCCGBNKI@?$AAf?$AA?3?$AA?2?$AAd?$AAd?$AA?2?$AAv?$AAc?$AAt?$AAo?$AAo?$AAl?$AAs?$AA?2?$AAc?$AAr?$AAt?$AA_?$AAb?$AAl?$AAd?$AA?2?$AAs?$AAe?$AAl?$AAf?$AA_?$AAx?$AA8?$AA6?$AA?2?$AAc@ 1019da68     LIBCMTD:cvt.obj
 0002:0001fad8       ??_C@_1BI@ICGGMGLK@?$AAb?$AAu?$AAf?$AA?5?$AA?$CB?$AA?$DN?$AA?5?$AAN?$AAU?$AAL?$AAL?$AA?$AA@ 1019dad8     LIBCMTD:cvt.obj
 0002:0001faf0       ??_C@_05KLBDPFGC@e?$CL000?$AA@ 1019daf0     LIBCMTD:cvt.obj
 0002:0001faf8       ??_C@_1LE@EOIFGNCJ@?$AAs?$AAt?$AAr?$AAc?$AAp?$AAy?$AA_?$AAs?$AA?$CI?$AAp?$AA?0?$AA?5?$AA?$CI?$AAs?$AAi?$AAz?$AAe?$AAI?$AAn?$AAB?$AAy?$AAt?$AAe?$AAs?$AA?5?$AA?$DN?$AA?$DN?$AA?5?$AA?$CI?$AAs?$AAi?$AAz@ 1019daf8     LIBCMTD:cvt.obj
 0002:0001fbb0       ??_C@_1HE@NACBNDPP@?$AAs?$AAi?$AAz?$AAe?$AAI?$AAn?$AAB?$AAy?$AAt?$AAe?$AAs?$AA?5?$AA?$DO?$AA?5?$AA?$CI?$AAs?$AAi?$AAz?$AAe?$AA_?$AAt?$AA?$CJ?$AA?$CI?$AA3?$AA?5?$AA?$CL?$AA?5?$AA?$CI?$AAn?$AAd?$AAe?$AAc@ 1019dbb0     LIBCMTD:cvt.obj
 0002:0001fc24       ??_C@_1BE@OLBNEILL@?$AA_?$AAc?$AAf?$AAt?$AAo?$AAe?$AA2?$AA_?$AAl?$AA?$AA@ 1019dc24     LIBCMTD:cvt.obj
 0002:0001fc38       ??_C@_1FC@IKIMAMJB@?$AAs?$AAi?$AAz?$AAe?$AAI?$AAn?$AAB?$AAy?$AAt?$AAe?$AAs?$AA?5?$AA?$DO?$AA?5?$AA?$CI?$AAs?$AAi?$AAz?$AAe?$AA_?$AAt?$AA?$CJ?$AA?$CI?$AA1?$AA?5?$AA?$CL?$AA?5?$AA4?$AA?5?$AA?$CL?$AA?5?$AAn@ 1019dc38     LIBCMTD:cvt.obj
 0002:0001fc8c       ??_C@_1BC@JOKPCIC@?$AA_?$AAc?$AAf?$AAt?$AAo?$AAa?$AA_?$AAl?$AA?$AA@ 1019dc8c     LIBCMTD:cvt.obj
 0002:0001fca0       ??_C@_1BC@DCPPLJL@?$AA_?$AAc?$AAf?$AAt?$AAo?$AAf?$AA_?$AAl?$AA?$AA@ 1019dca0     LIBCMTD:cvt.obj
 0002:0001fcb4       ??_C@_1BE@CKPDLI@?$AA_?$AAc?$AAf?$AAt?$AAo?$AAf?$AA2?$AA_?$AAl?$AA?$AA@ 1019dcb4     LIBCMTD:cvt.obj
 0002:0001fcc8       ??_C@_1BC@MPIFPLAF@?$AA_?$AAc?$AAf?$AAt?$AAo?$AAg?$AA_?$AAl?$AA?$AA@ 1019dcc8     LIBCMTD:cvt.obj
 0002:0001fd48       ??_C@_03IIINPABG@tan?$AA@  1019dd48     LIBCMTD:_libm_error_.obj
 0002:0001fd4c       ??_C@_03LALBNOCG@cos?$AA@  1019dd4c     LIBCMTD:_libm_error_.obj
 0002:0001fd50       ??_C@_03BLEJJJBH@sin?$AA@  1019dd50     LIBCMTD:_libm_error_.obj
 0002:0001fd54       ??_C@_04EHEDPDJG@modf?$AA@ 1019dd54     LIBCMTD:_libm_error_.obj
 0002:0001fd5c       ??_C@_05PBJFFIGL@floor?$AA@ 1019dd5c     LIBCMTD:_libm_error_.obj
 0002:0001fd64       ??_C@_04GFPJNGEK@ceil?$AA@ 1019dd64     LIBCMTD:_libm_error_.obj
 0002:0001fd6c       ??_C@_04MLLJIGOK@atan?$AA@ 1019dd6c     LIBCMTD:_libm_error_.obj
 0002:0001fd74       ??_C@_05EOHGHCHD@exp10?$AA@ 1019dd74     LIBCMTD:_libm_error_.obj
 0002:0001fd7c       ??_C@_04PDIFKINK@acos?$AA@ 1019dd7c     LIBCMTD:_libm_error_.obj
 0002:0001fd84       ??_C@_04FIHNOPOL@asin?$AA@ 1019dd84     LIBCMTD:_libm_error_.obj
 0002:0001fd8c       ??_C@_03JGHBODFD@pow?$AA@  1019dd8c     LIBCMTD:_libm_error_.obj
 0002:0001fd90       ??_C@_03KHJOGHMM@exp?$AA@  1019dd90     LIBCMTD:_libm_error_.obj
 0002:0001fd94       ??_C@_05HGHHAHAP@log10?$AA@ 1019dd94     LIBCMTD:_libm_error_.obj
 0002:0001fd9c       ??_C@_03MGHMBJCF@log?$AA@  1019dd9c     LIBCMTD:_libm_error_.obj
 0002:0001fda0       ??_C@_0CP@MKONOLCI@f?3?2dd?2vctools?2crt_bld?2self_x86?2c@ 1019dda0     LIBCMTD:mlock.obj
 0002:0001fdd0       ??_C@_06PJIGMIJB@Client?$AA@ 1019ddd0     LIBCMTD:dbgheap.obj
 0002:0001fdd8       ??_C@_06KMEJCCGM@Ignore?$AA@ 1019ddd8     LIBCMTD:dbgheap.obj
 0002:0001fde0       ??_C@_03OGPFLFLO@CRT?$AA@  1019dde0     LIBCMTD:dbgheap.obj
 0002:0001fde4       ??_C@_06EFAGIKOH@Normal?$AA@ 1019dde4     LIBCMTD:dbgheap.obj
 0002:0001fdec       ??_C@_04HJMOFLDF@Free?$AA@ 1019ddec     LIBCMTD:dbgheap.obj
 0002:0001fe08       ??_C@_0DC@JEMAGEKG@Error?3?5memory?5allocation?3?5bad?5me@ 1019de08     LIBCMTD:dbgheap.obj
 0002:0001fe3c       ??_C@_0CF@BICKFLAF@Invalid?5allocation?5size?3?5?$CFIu?5byt@ 1019de3c     LIBCMTD:dbgheap.obj
 0002:0001fe64       ??_C@_02DKCKIIND@?$CFs?$AA@ 1019de64     LIBCMTD:dbgheap.obj
 0002:0001fe68       ??_C@_0CB@CCLOLAHO@Client?5hook?5allocation?5failure?4?6@ 1019de68     LIBCMTD:dbgheap.obj
 0002:0001fe8c       ??_C@_0DF@BBEGIFEK@Client?5hook?5allocation?5failure?5a@ 1019de8c     LIBCMTD:dbgheap.obj
 0002:0001fec8       ??_C@_1GC@DNJKKEAA@?$AAf?$AA?3?$AA?2?$AAd?$AAd?$AA?2?$AAv?$AAc?$AAt?$AAo?$AAo?$AAl?$AAs?$AA?2?$AAc?$AAr?$AAt?$AA_?$AAb?$AAl?$AAd?$AA?2?$AAs?$AAe?$AAl?$AAf?$AA_?$AAx?$AA8?$AA6?$AA?2?$AAc@ 1019dec8     LIBCMTD:dbgheap.obj
 0002:0001ff2c       ??_C@_1CE@LJFEPPMP@?$AA_?$AAC?$AAr?$AAt?$AAC?$AAh?$AAe?$AAc?$AAk?$AAM?$AAe?$AAm?$AAo?$AAr?$AAy?$AA?$CI?$AA?$CJ?$AA?$AA@ 1019df2c     LIBCMTD:dbgheap.obj
 0002:0001ff50       ??_C@_1CC@CKBDKDFF@?$AA_?$AAc?$AAa?$AAl?$AAl?$AAo?$AAc?$AA_?$AAd?$AAb?$AAg?$AA_?$AAi?$AAm?$AAp?$AAl?$AA?$AA@ 1019df50     LIBCMTD:dbgheap.obj
 0002:0001ff74       ??_C@_1DO@MEOGCGBN@?$AA?$CI?$AA_?$AAH?$AAE?$AAA?$AAP?$AA_?$AAM?$AAA?$AAX?$AAR?$AAE?$AAQ?$AA?5?$AA?1?$AA?5?$AAn?$AAN?$AAu?$AAm?$AA?$CJ?$AA?5?$AA?$DO?$AA?$DN?$AA?5?$AAn?$AAS?$AAi?$AAz?$AAe?$AA?$AA@ 1019df74     LIBCMTD:dbgheap.obj
 0002:0001ffb4       ??_C@_1DE@KOOKLFBB@?$AA_?$AAp?$AAF?$AAi?$AAr?$AAs?$AAt?$AAB?$AAl?$AAo?$AAc?$AAk?$AA?5?$AA?$DN?$AA?$DN?$AA?5?$AAp?$AAO?$AAl?$AAd?$AAB?$AAl?$AAo?$AAc?$AAk?$AA?$AA@ 1019dfb4     LIBCMTD:dbgheap.obj
 0002:0001ffe8       ??_C@_1DC@GEFKNOOL@?$AA_?$AAp?$AAL?$AAa?$AAs?$AAt?$AAB?$AAl?$AAo?$AAc?$AAk?$AA?5?$AA?$DN?$AA?$DN?$AA?5?$AAp?$AAO?$AAl?$AAd?$AAB?$AAl?$AAo?$AAc?$AAk?$AA?$AA@ 1019dfe8     LIBCMTD:dbgheap.obj
 0002:00020020       ??_C@_1GE@PCKLOLAO@?$AAf?$AAR?$AAe?$AAa?$AAl?$AAl?$AAo?$AAc?$AA?5?$AA?$HM?$AA?$HM?$AA?5?$AA?$CI?$AA?$CB?$AAf?$AAR?$AAe?$AAa?$AAl?$AAl?$AAo?$AAc?$AA?5?$AA?$CG?$AA?$CG?$AA?5?$AAp?$AAN?$AAe?$AAw?$AAB?$AAl@ 1019e020     LIBCMTD:dbgheap.obj
 0002:00020084       ??_C@_0DA@HFBKENN@Error?3?5possible?5heap?5corruption?5@ 1019e084     LIBCMTD:dbgheap.obj
 0002:000200b8       ??_C@_1IK@DCPKDGNH@?$AAp?$AAO?$AAl?$AAd?$AAB?$AAl?$AAo?$AAc?$AAk?$AA?9?$AA?$DO?$AAn?$AAL?$AAi?$AAn?$AAe?$AA?5?$AA?$DN?$AA?$DN?$AA?5?$AAI?$AAG?$AAN?$AAO?$AAR?$AAE?$AA_?$AAL?$AAI?$AAN?$AAE?$AA?5@ 1019e0b8     LIBCMTD:dbgheap.obj
 0002:00020148       ??_C@_1EE@GFOPCECE@?$AA_?$AAC?$AAr?$AAt?$AAI?$AAs?$AAV?$AAa?$AAl?$AAi?$AAd?$AAH?$AAe?$AAa?$AAp?$AAP?$AAo?$AAi?$AAn?$AAt?$AAe?$AAr?$AA?$CI?$AAp?$AAU?$AAs?$AAe?$AAr?$AAD?$AAa?$AAt?$AAa@ 1019e148     LIBCMTD:dbgheap.obj
 0002:00020190       ??_C@_0EM@LGFLMAGJ@The?5Block?5at?50x?$CFp?5was?5allocated?5@ 1019e190     LIBCMTD:dbgheap.obj
 0002:000201e0       ??_C@_0FA@EFEIGJKG@Error?3?5memory?5allocation?3?5bad?5me@ 1019e1e0     LIBCMTD:dbgheap.obj
 0002:00020230       ??_C@_0ED@GPCPBAGP@Invalid?5allocation?5size?3?5?$CFIu?5byt@ 1019e230     LIBCMTD:dbgheap.obj
 0002:00020274       ??_C@_0CE@DOFMDOL@Client?5hook?5re?9allocation?5failur@ 1019e274     LIBCMTD:dbgheap.obj
 0002:00020298       ??_C@_0DI@KKJPDPGM@Client?5hook?5re?9allocation?5failur@ 1019e298     LIBCMTD:dbgheap.obj
 0002:000202d0       ??_C@_1BM@OKFKJCEN@?$AA_?$AAr?$AAe?$AAc?$AAa?$AAl?$AAl?$AAo?$AAc?$AA_?$AAd?$AAb?$AAg?$AA?$AA@ 1019e2d0     LIBCMTD:dbgheap.obj
 0002:000202ec       ??_C@_1DO@GOKJCEHJ@?$AA?$CI?$AA_?$AAH?$AAE?$AAA?$AAP?$AA_?$AAM?$AAA?$AAX?$AAR?$AAE?$AAQ?$AA?5?$AA?1?$AA?5?$AAc?$AAo?$AAu?$AAn?$AAt?$AA?$CJ?$AA?5?$AA?$DO?$AA?$DN?$AA?5?$AAs?$AAi?$AAz?$AAe?$AA?$AA@ 1019e2ec     LIBCMTD:dbgheap.obj
 0002:0002032c       ??_C@_1BI@HAPNGHDP@?$AA_?$AAe?$AAx?$AAp?$AAa?$AAn?$AAd?$AA_?$AAd?$AAb?$AAg?$AA?$AA@ 1019e32c     LIBCMTD:dbgheap.obj
 0002:00020344       ??_C@_1CE@CJACEFBA@?$AAp?$AAU?$AAs?$AAe?$AAr?$AAD?$AAa?$AAt?$AAa?$AA?5?$AA?$CB?$AA?$DN?$AA?5?$AAN?$AAU?$AAL?$AAL?$AA?$AA@ 1019e344     LIBCMTD:dbgheap.obj
 0002:00020368       ??_C@_1CM@MMAADDMD@?$AA_?$AAp?$AAF?$AAi?$AAr?$AAs?$AAt?$AAB?$AAl?$AAo?$AAc?$AAk?$AA?5?$AA?$DN?$AA?$DN?$AA?5?$AAp?$AAH?$AAe?$AAa?$AAd?$AA?$AA@ 1019e368     LIBCMTD:dbgheap.obj
 0002:00020394       ??_C@_1CK@DMAGEMBG@?$AA_?$AAp?$AAL?$AAa?$AAs?$AAt?$AAB?$AAl?$AAo?$AAc?$AAk?$AA?5?$AA?$DN?$AA?$DN?$AA?5?$AAp?$AAH?$AAe?$AAa?$AAd?$AA?$AA@ 1019e394     LIBCMTD:dbgheap.obj
 0002:000203c0       ??_C@_1DM@ODCJIDCP@?$AAp?$AAH?$AAe?$AAa?$AAd?$AA?9?$AA?$DO?$AAn?$AAB?$AAl?$AAo?$AAc?$AAk?$AAU?$AAs?$AAe?$AA?5?$AA?$DN?$AA?$DN?$AA?5?$AAn?$AAB?$AAl?$AAo?$AAc?$AAk?$AAU?$AAs?$AAe?$AA?$AA@ 1019e3c0     LIBCMTD:dbgheap.obj
 0002:00020400       ??_C@_1HK@HPCBMDFG@?$AAp?$AAH?$AAe?$AAa?$AAd?$AA?9?$AA?$DO?$AAn?$AAL?$AAi?$AAn?$AAe?$AA?5?$AA?$DN?$AA?$DN?$AA?5?$AAI?$AAG?$AAN?$AAO?$AAR?$AAE?$AA_?$AAL?$AAI?$AAN?$AAE?$AA?5?$AA?$CG?$AA?$CG?$AA?5?$AAp@ 1019e400     LIBCMTD:dbgheap.obj
 0002:00020480       ??_C@_0IG@LEMBDCJK@HEAP?5CORRUPTION?5DETECTED?3?5after?5@ 1019e480     LIBCMTD:dbgheap.obj
 0002:00020508       ??_C@_0KE@MBMNHHHN@HEAP?5CORRUPTION?5DETECTED?3?5after?5@ 1019e508     LIBCMTD:dbgheap.obj
 0002:000205b0       ??_C@_0IK@PJCGLBOB@HEAP?5CORRUPTION?5DETECTED?3?5before@ 1019e5b0     LIBCMTD:dbgheap.obj
 0002:00020640       ??_C@_0KI@JGFOHMEB@HEAP?5CORRUPTION?5DETECTED?3?5before@ 1019e640     LIBCMTD:dbgheap.obj
 0002:000206e8       ??_C@_0BL@KEIPLFAC@Client?5hook?5free?5failure?4?6?$AA@ 1019e6e8     LIBCMTD:dbgheap.obj
 0002:00020708       ??_C@_0EJ@HEIBCIMJ@The?5Block?5at?50x?$CFp?5was?5allocated?5@ 1019e708     LIBCMTD:dbgheap.obj
 0002:00020754       ??_C@_1BG@MBKOGDLD@?$AA_?$AAm?$AAs?$AAi?$AAz?$AAe?$AA_?$AAd?$AAb?$AAg?$AA?$AA@ 1019e754     LIBCMTD:dbgheap.obj
 0002:0002076c       ??_C@_0CI@JMLBEDHJ@?$CFhs?5located?5at?50x?$CFp?5is?5?$CFIu?5bytes@ 1019e76c     LIBCMTD:dbgheap.obj
 0002:00020798       ??_C@_0EG@DGJMPDBH@?$CFhs?5located?5at?50x?$CFp?5is?5?$CFIu?5bytes@ 1019e798     LIBCMTD:dbgheap.obj
 0002:000207e0       ??_C@_0IC@BBJIOOJH@HEAP?5CORRUPTION?5DETECTED?3?5on?5top@ 1019e7e0     LIBCMTD:dbgheap.obj
 0002:00020868       ??_C@_0KA@IHNJJKPL@HEAP?5CORRUPTION?5DETECTED?3?5on?5top@ 1019e868     LIBCMTD:dbgheap.obj
 0002:00020908       ??_C@_07OHKEFPKJ@DAMAGED?$AA@ 1019e908     LIBCMTD:dbgheap.obj
 0002:00020910       ??_C@_0CL@HNNNMKMJ@_heapchk?5fails?5with?5unknown?5retu@ 1019e910     LIBCMTD:dbgheap.obj
 0002:0002093c       ??_C@_0CC@MFFCHFHO@_heapchk?5fails?5with?5_HEAPBADPTR?4@ 1019e93c     LIBCMTD:dbgheap.obj
 0002:00020960       ??_C@_0CC@MJGLGBDG@_heapchk?5fails?5with?5_HEAPBADEND?4@ 1019e960     LIBCMTD:dbgheap.obj
 0002:00020984       ??_C@_0CD@CPKEAPBD@_heapchk?5fails?5with?5_HEAPBADNODE@ 1019e984     LIBCMTD:dbgheap.obj
 0002:000209a8       ??_C@_0CE@MKKHMBMK@_heapchk?5fails?5with?5_HEAPBADBEGI@ 1019e9a8     LIBCMTD:dbgheap.obj
 0002:000209cc       ??_C@_1BO@GJFDNMNF@?$AA_?$AAC?$AAr?$AAt?$AAS?$AAe?$AAt?$AAD?$AAb?$AAg?$AAF?$AAl?$AAa?$AAg?$AA?$AA@ 1019e9cc     LIBCMTD:dbgheap.obj
 0002:000209f0       ??_C@_1BHO@NNANJNF@?$AA?$CI?$AAf?$AAN?$AAe?$AAw?$AAB?$AAi?$AAt?$AAs?$AA?$DN?$AA?$DN?$AA_?$AAC?$AAR?$AAT?$AAD?$AAB?$AAG?$AA_?$AAR?$AAE?$AAP?$AAO?$AAR?$AAT?$AA_?$AAF?$AAL?$AAA?$AAG?$AA?$CJ?$AA?5@ 1019e9f0     LIBCMTD:dbgheap.obj
 0002:00020b70       ??_C@_1DE@GJCKCKEC@?$AA_?$AAC?$AAr?$AAt?$AAD?$AAo?$AAF?$AAo?$AAr?$AAA?$AAl?$AAl?$AAC?$AAl?$AAi?$AAe?$AAn?$AAt?$AAO?$AAb?$AAj?$AAe?$AAc?$AAt?$AAs?$AA?$AA@ 1019eb70     LIBCMTD:dbgheap.obj
 0002:00020ba4       ??_C@_1BI@CJGCEEDL@?$AAp?$AAf?$AAn?$AA?5?$AA?$CB?$AA?$DN?$AA?5?$AAN?$AAU?$AAL?$AAL?$AA?$AA@ 1019eba4     LIBCMTD:dbgheap.obj
 0002:00020bbc       ??_C@_0CB@EAAIGELO@Bad?5memory?5block?5found?5at?50x?$CFp?4?6@ 1019ebbc     LIBCMTD:dbgheap.obj
 0002:00020be0       ??_C@_0DP@LEFMFBOD@Bad?5memory?5block?5found?5at?50x?$CFp?4?6@ 1019ebe0     LIBCMTD:dbgheap.obj
 0002:00020c20       ??_C@_1CE@NJJKELF@?$AA_?$AAC?$AAr?$AAt?$AAM?$AAe?$AAm?$AAC?$AAh?$AAe?$AAc?$AAk?$AAp?$AAo?$AAi?$AAn?$AAt?$AA?$AA@ 1019ec20     LIBCMTD:dbgheap.obj
 0002:00020c44       ??_C@_1BM@MIMANDHC@?$AAs?$AAt?$AAa?$AAt?$AAe?$AA?5?$AA?$CB?$AA?$DN?$AA?5?$AAN?$AAU?$AAL?$AAL?$AA?$AA@ 1019ec44     LIBCMTD:dbgheap.obj
 0002:00020c60       ??_C@_1CC@DFPEDFBP@?$AAn?$AAe?$AAw?$AAS?$AAt?$AAa?$AAt?$AAe?$AA?5?$AA?$CB?$AA?$DN?$AA?5?$AAN?$AAU?$AAL?$AAL?$AA?$AA@ 1019ec60     LIBCMTD:dbgheap.obj
 0002:00020c84       ??_C@_1CC@DHPFEMMN@?$AAo?$AAl?$AAd?$AAS?$AAt?$AAa?$AAt?$AAe?$AA?5?$AA?$CB?$AA?$DN?$AA?5?$AAN?$AAU?$AAL?$AAL?$AA?$AA@ 1019ec84     LIBCMTD:dbgheap.obj
 0002:00020ca8       ??_C@_1CE@PDIENACM@?$AA_?$AAC?$AAr?$AAt?$AAM?$AAe?$AAm?$AAD?$AAi?$AAf?$AAf?$AAe?$AAr?$AAe?$AAn?$AAc?$AAe?$AA?$AA@ 1019eca8     LIBCMTD:dbgheap.obj
 0002:00020ccc       ??_C@_0BH@GFGKJDCO@Object?5dump?5complete?4?6?$AA@ 1019eccc     LIBCMTD:dbgheap.obj
 0002:00020ce4       ??_C@_0DA@MDLBNIBM@crt?5block?5at?50x?$CFp?0?5subtype?5?$CFx?0?5?$CF@ 1019ece4     LIBCMTD:dbgheap.obj
 0002:00020d14       ??_C@_0CH@FAGDDGPN@normal?5block?5at?50x?$CFp?0?5?$CFIu?5bytes?5@ 1019ed14     LIBCMTD:dbgheap.obj
 0002:00020d3c       ??_C@_0DD@GHNAAKBB@client?5block?5at?50x?$CFp?0?5subtype?5?$CFx@ 1019ed3c     LIBCMTD:dbgheap.obj
 0002:00020d70       ??_C@_06PKLGBFGM@?$HL?$CFld?$HN?5?$AA@ 1019ed70     LIBCMTD:dbgheap.obj
 0002:00020d78       ??_C@_0L@JMEFFCCJ@?$CFhs?$CI?$CFd?$CJ?5?3?5?$AA@ 1019ed78     LIBCMTD:dbgheap.obj
 0002:00020d84       ??_C@_0BE@OIEFNFL@?$CDFile?5Error?$CD?$CI?$CFd?$CJ?5?3?5?$AA@ 1019ed84     LIBCMTD:dbgheap.obj
 0002:00020d98       ??_C@_0BE@KCIPKCIA@Dumping?5objects?5?9?$DO?6?$AA@ 1019ed98     LIBCMTD:dbgheap.obj
 0002:00020dac       ??_C@_0BA@HJBKCELP@?5Data?3?5?$DM?$CFs?$DO?5?$CFs?6?$AA@ 1019edac     LIBCMTD:dbgheap.obj
 0002:00020dbc       ??_C@_1CG@LPFIACGM@?$AA_?$AAp?$AAr?$AAi?$AAn?$AAt?$AAM?$AAe?$AAm?$AAB?$AAl?$AAo?$AAc?$AAk?$AAD?$AAa?$AAt?$AAa?$AA?$AA@ 1019edbc     LIBCMTD:dbgheap.obj
 0002:00020de4       ??_C@_05MKKEDADM@?$CF?42X?5?$AA@ 1019ede4     LIBCMTD:dbgheap.obj
 0002:00020dec       ??_C@_0BI@JBFPOEJA@Detected?5memory?5leaks?$CB?6?$AA@ 1019edec     LIBCMTD:dbgheap.obj
 0002:00020e04       ??_C@_0BP@DEDHGGGI@Total?5allocations?3?5?$CFId?5bytes?4?6?$AA@ 1019ee04     LIBCMTD:dbgheap.obj
 0002:00020e24       ??_C@_0CB@BLHDAFNE@Largest?5number?5used?3?5?$CFId?5bytes?4?6@ 1019ee24     LIBCMTD:dbgheap.obj
 0002:00020e48       ??_C@_0BO@DACNIABB@?$CFId?5bytes?5in?5?$CFId?5?$CFhs?5Blocks?4?6?$AA@ 1019ee48     LIBCMTD:dbgheap.obj
 0002:00020e68       ??_C@_1CM@MPNIBKGK@?$AA_?$AAC?$AAr?$AAt?$AAM?$AAe?$AAm?$AAD?$AAu?$AAm?$AAp?$AAS?$AAt?$AAa?$AAt?$AAi?$AAs?$AAt?$AAi?$AAc?$AAs?$AA?$AA@ 1019ee68     LIBCMTD:dbgheap.obj
 0002:00020e94       ??_C@_1DK@LFLKFPDA@?$AAo?$AAf?$AAf?$AAs?$AAe?$AAt?$AA?5?$AA?$DN?$AA?$DN?$AA?5?$AA0?$AA?5?$AA?$HM?$AA?$HM?$AA?5?$AAo?$AAf?$AAf?$AAs?$AAe?$AAt?$AA?5?$AA?$DM?$AA?5?$AAs?$AAi?$AAz?$AAe?$AA?$AA@ 1019ee94     LIBCMTD:dbgheap.obj
 0002:00020ed0       ??_C@_1DG@DONCJBBJ@?$AA_?$AAa?$AAl?$AAi?$AAg?$AAn?$AAe?$AAd?$AA_?$AAo?$AAf?$AAf?$AAs?$AAe?$AAt?$AA_?$AAm?$AAa?$AAl?$AAl?$AAo?$AAc?$AA_?$AAd?$AAb?$AAg?$AA?$AA@ 1019eed0     LIBCMTD:dbgheap.obj
 0002:00020f08       ??_C@_1CE@NPMGPNNP@?$AAI?$AAS?$AA_?$AA2?$AA_?$AAP?$AAO?$AAW?$AA_?$AAN?$AA?$CI?$AAa?$AAl?$AAi?$AAg?$AAn?$AA?$CJ?$AA?$AA@ 1019ef08     LIBCMTD:dbgheap.obj
 0002:00020f2c       ??_C@_1DI@NINIKFFK@?$AA_?$AAa?$AAl?$AAi?$AAg?$AAn?$AAe?$AAd?$AA_?$AAo?$AAf?$AAf?$AAs?$AAe?$AAt?$AA_?$AAr?$AAe?$AAa?$AAl?$AAl?$AAo?$AAc?$AA_?$AAd?$AAb?$AAg?$AA?$AA@ 1019ef2c     LIBCMTD:dbgheap.obj
 0002:00020f64       ??_C@_0DL@PGHMMKNE@Damage?5before?50x?$CFp?5which?5was?5all@ 1019ef64     LIBCMTD:dbgheap.obj
 0002:00020fa0       ??_C@_0EI@NDNJMAJK@The?5block?5at?50x?$CFp?5was?5not?5alloca@ 1019efa0     LIBCMTD:dbgheap.obj
 0002:00020fe8       ??_C@_1DK@MMLHIFFH@?$AA_?$AAa?$AAl?$AAi?$AAg?$AAn?$AAe?$AAd?$AA_?$AAo?$AAf?$AAf?$AAs?$AAe?$AAt?$AA_?$AAr?$AAe?$AAc?$AAa?$AAl?$AAl?$AAo?$AAc?$AA_?$AAd?$AAb?$AAg?$AA?$AA@ 1019efe8     LIBCMTD:dbgheap.obj
 0002:00021028       ??_C@_0EF@PGELACII@The?5block?5at?50x?$CFp?5was?5not?5alloca@ 1019f028     LIBCMTD:dbgheap.obj
 0002:00021070       ??_C@_1CG@CEGMHIMN@?$AA_?$AAa?$AAl?$AAi?$AAg?$AAn?$AAe?$AAd?$AA_?$AAm?$AAs?$AAi?$AAz?$AAe?$AA_?$AAd?$AAb?$AAg?$AA?$AA@ 1019f070     LIBCMTD:dbgheap.obj
 0002:00021098       ??_C@_1CC@MOBIKHH@?$AAm?$AAe?$AAm?$AAb?$AAl?$AAo?$AAc?$AAk?$AA?5?$AA?$CB?$AA?$DN?$AA?5?$AAN?$AAU?$AAL?$AAL?$AA?$AA@ 1019f098     LIBCMTD:dbgheap.obj
 0002:000210c0       ??_C@_1NK@LOFHIHFC@?$AAf?$AAM?$AAo?$AAd?$AAe?$AA?5?$AA?$DN?$AA?$DN?$AA?5?$AA_?$AAC?$AAR?$AAT?$AAD?$AAB?$AAG?$AA_?$AAR?$AAE?$AAP?$AAO?$AAR?$AAT?$AA_?$AAM?$AAO?$AAD?$AAE?$AA?5?$AA?$HM?$AA?$HM?$AA?5@ 1019f0c0     LIBCMTD:dbgrptt.obj
 0002:0002119c       ??_C@_1CE@FIHIECNJ@?$AA_?$AAC?$AAr?$AAt?$AAS?$AAe?$AAt?$AAR?$AAe?$AAp?$AAo?$AAr?$AAt?$AAM?$AAo?$AAd?$AAe?$AA?$AA@ 1019f19c     LIBCMTD:dbgrptt.obj
 0002:000211c0       ??_C@_1GC@FIGJJMEN@?$AAf?$AA?3?$AA?2?$AAd?$AAd?$AA?2?$AAv?$AAc?$AAt?$AAo?$AAo?$AAl?$AAs?$AA?2?$AAc?$AAr?$AAt?$AA_?$AAb?$AAl?$AAd?$AA?2?$AAs?$AAe?$AAl?$AAf?$AA_?$AAx?$AA8?$AA6?$AA?2?$AAc@ 1019f1c0     LIBCMTD:dbgrptt.obj
 0002:00021228       ??_C@_1FA@IFFFOLDJ@?$AAn?$AAR?$AAp?$AAt?$AAT?$AAy?$AAp?$AAe?$AA?5?$AA?$DO?$AA?$DN?$AA?5?$AA0?$AA?5?$AA?$CG?$AA?$CG?$AA?5?$AAn?$AAR?$AAp?$AAt?$AAT?$AAy?$AAp?$AAe?$AA?5?$AA?$DM?$AA?5?$AA_?$AAC?$AAR?$AAT@ 1019f228     LIBCMTD:dbgrptt.obj
 0002:00021278       ??_C@_1CE@IKKEDCME@?$AA_?$AAC?$AAr?$AAt?$AAS?$AAe?$AAt?$AAR?$AAe?$AAp?$AAo?$AAr?$AAt?$AAF?$AAi?$AAl?$AAe?$AA?$AA@ 1019f278     LIBCMTD:dbgrptt.obj
 0002:000212a0       ??_C@_1HO@PJOFIKFE@?$AA_?$AAC?$AAr?$AAt?$AAD?$AAb?$AAg?$AAR?$AAe?$AAp?$AAo?$AAr?$AAt?$AA?3?$AA?5?$AAS?$AAt?$AAr?$AAi?$AAn?$AAg?$AA?5?$AAt?$AAo?$AAo?$AA?5?$AAl?$AAo?$AAn?$AAg?$AA?5?$AAo@ 1019f2a0     LIBCMTD:dbgrptt.obj
 0002:00021320       ??_C@_1MC@IGEECMDB@?$AAw?$AAc?$AAs?$AAc?$AAp?$AAy?$AA_?$AAs?$AA?$CI?$AAs?$AAz?$AAO?$AAu?$AAt?$AAM?$AAe?$AAs?$AAs?$AAa?$AAg?$AAe?$AA2?$AA?0?$AA?5?$AA4?$AA0?$AA9?$AA6?$AA?0?$AA?5?$AAL?$AA?$CC@ 1019f320     LIBCMTD:dbgrptt.obj
 0002:000213e8       ??_C@_1IM@OOKIFKOH@?$AAe?$AA?5?$AA?$DN?$AA?5?$AAm?$AAb?$AAs?$AAt?$AAo?$AAw?$AAc?$AAs?$AA_?$AAs?$AA?$CI?$AA?$CG?$AAr?$AAe?$AAt?$AA?0?$AA?5?$AAs?$AAz?$AAO?$AAu?$AAt?$AAM?$AAe?$AAs?$AAs?$AAa?$AAg@ 1019f3e8     LIBCMTD:dbgrptt.obj
 0002:00021478       ??_C@_1FI@IBIOIHEG@?$AAs?$AAt?$AAr?$AAc?$AAp?$AAy?$AA_?$AAs?$AA?$CI?$AAs?$AAz?$AAO?$AAu?$AAt?$AAM?$AAe?$AAs?$AAs?$AAa?$AAg?$AAe?$AA?0?$AA?5?$AA4?$AA0?$AA9?$AA6?$AA?0?$AA?5?$AAs?$AAz?$AAL@ 1019f478     LIBCMTD:dbgrptt.obj
 0002:000214d0       ??_C@_1JG@CPKCIOEE@?$AAs?$AAt?$AAr?$AAc?$AAp?$AAy?$AA_?$AAs?$AA?$CI?$AAs?$AAz?$AAO?$AAu?$AAt?$AAM?$AAe?$AAs?$AAs?$AAa?$AAg?$AAe?$AA?0?$AA?5?$AA4?$AA0?$AA9?$AA6?$AA?0?$AA?5?$AA?$CC?$AA_?$AAC@ 1019f4d0     LIBCMTD:dbgrptt.obj
 0002:00021568       ??_C@_0M@IPILFDFN@?$CFs?$CI?$CFd?$CJ?5?3?5?$CFs?$AA@ 1019f568     LIBCMTD:dbgrptt.obj
 0002:00021578       ??_C@_1EI@LDHJEDO@?$AAs?$AAt?$AAr?$AAc?$AAa?$AAt?$AA_?$AAs?$AA?$CI?$AAs?$AAz?$AAL?$AAi?$AAn?$AAe?$AAM?$AAe?$AAs?$AAs?$AAa?$AAg?$AAe?$AA?0?$AA?5?$AA4?$AA0?$AA9?$AA6?$AA?0?$AA?5?$AA?$CC?$AA?2@ 1019f578     LIBCMTD:dbgrptt.obj
 0002:000215c0       ??_C@_01LIIJDEN@?$AN?$AA@  1019f5c0     LIBCMTD:dbgrptt.obj
 0002:000215c8       ??_C@_1EI@CACDLAFK@?$AAs?$AAt?$AAr?$AAc?$AAa?$AAt?$AA_?$AAs?$AA?$CI?$AAs?$AAz?$AAL?$AAi?$AAn?$AAe?$AAM?$AAe?$AAs?$AAs?$AAa?$AAg?$AAe?$AA?0?$AA?5?$AA4?$AA0?$AA9?$AA6?$AA?0?$AA?5?$AA?$CC?$AA?2@ 1019f5c8     LIBCMTD:dbgrptt.obj
 0002:00021610       ??_C@_1FK@NPGBPOFO@?$AAs?$AAt?$AAr?$AAc?$AAa?$AAt?$AA_?$AAs?$AA?$CI?$AAs?$AAz?$AAL?$AAi?$AAn?$AAe?$AAM?$AAe?$AAs?$AAs?$AAa?$AAg?$AAe?$AA?0?$AA?5?$AA4?$AA0?$AA9?$AA6?$AA?0?$AA?5?$AAs?$AAz@ 1019f610     LIBCMTD:dbgrptt.obj
 0002:00021670       ??_C@_1KK@GIGAEDMO@?$AAs?$AAt?$AAr?$AAc?$AAp?$AAy?$AA_?$AAs?$AA?$CI?$AAs?$AAz?$AAL?$AAi?$AAn?$AAe?$AAM?$AAe?$AAs?$AAs?$AAa?$AAg?$AAe?$AA?0?$AA?5?$AA4?$AA0?$AA9?$AA6?$AA?0?$AA?5?$AAs?$AAz@ 1019f670     LIBCMTD:dbgrptt.obj
 0002:0002171c       ??_C@_0BC@LAIDCHCH@Assertion?5failed?$CB?$AA@ 1019f71c     LIBCMTD:dbgrptt.obj
 0002:00021730       ??_C@_0BD@CAENFOHP@Assertion?5failed?3?5?$AA@ 1019f730     LIBCMTD:dbgrptt.obj
 0002:00021744       ??_C@_0CL@EACFGMNB@_CrtDbgReport?3?5String?5too?5long?5o@ 1019f744     LIBCMTD:dbgrptt.obj
 0002:00021770       ??_C@_1JI@GAALPGBM@?$AAs?$AAt?$AAr?$AAc?$AAp?$AAy?$AA_?$AAs?$AA?$CI?$AAs?$AAz?$AAU?$AAs?$AAe?$AAr?$AAM?$AAe?$AAs?$AAs?$AAa?$AAg?$AAe?$AA?0?$AA?5?$AA4?$AA0?$AA9?$AA6?$AA?0?$AA?5?$AA?$CC?$AA_@ 1019f770     LIBCMTD:dbgrptt.obj
 0002:00021808       ??_C@_01EEMJAFIK@?6?$AA@   1019f808     LIBCMTD:dbgrptt.obj
 0002:0002180c       ??_C@_07BHGABMGB@?0?5Line?5?$AA@ 1019f80c     LIBCMTD:dbgrptt.obj
 0002:00021814       ??_C@_0P@DFJNDPOP@?$DMfile?5unknown?$DO?$AA@ 1019f814     LIBCMTD:dbgrptt.obj
 0002:00021824       ??_C@_0CG@BNGLOCEO@Second?5Chance?5Assertion?5Failed?3?5@ 1019f824     LIBCMTD:dbgrptt.obj
 0002:00021850       ??_C@_1FA@JPHJBHEM@?$AA_?$AAi?$AAt?$AAo?$AAa?$AA_?$AAs?$AA?$CI?$AAn?$AAL?$AAi?$AAn?$AAe?$AA?0?$AA?5?$AAs?$AAz?$AAL?$AAi?$AAn?$AAe?$AAM?$AAe?$AAs?$AAs?$AAa?$AAg?$AAe?$AA?0?$AA?5?$AA4?$AA0@ 1019f850     LIBCMTD:dbgrptt.obj
 0002:000218a0       ??_C@_1CA@KHJHLKA@?$AA_?$AAV?$AAC?$AAr?$AAt?$AAD?$AAb?$AAg?$AAR?$AAe?$AAp?$AAo?$AAr?$AAt?$AAA?$AA?$AA@ 1019f8a0     LIBCMTD:dbgrptt.obj
 0002:000218c0       ??_C@_1IE@CPGKIAGP@?$AAw?$AAc?$AAs?$AAt?$AAo?$AAm?$AAb?$AAs?$AA_?$AAs?$AA?$CI?$AA?$CG?$AAr?$AAe?$AAt?$AA?0?$AA?5?$AAs?$AAz?$AAa?$AAO?$AAu?$AAt?$AAM?$AAe?$AAs?$AAs?$AAa?$AAg?$AAe?$AA?0?$AA?5@ 1019f8c0     LIBCMTD:dbgrptt.obj
 0002:00021944       ??_C@_0DP@GNPEPHJD@_CrtDbgReport?3?5String?5too?5long?5o@ 1019f944     LIBCMTD:dbgrptt.obj
 0002:00021988       ??_C@_1MA@LBAMNNOB@?$AAs?$AAt?$AAr?$AAc?$AAp?$AAy?$AA_?$AAs?$AA?$CI?$AAs?$AAz?$AAO?$AAu?$AAt?$AAM?$AAe?$AAs?$AAs?$AAa?$AAg?$AAe?$AA2?$AA?0?$AA?5?$AA4?$AA0?$AA9?$AA6?$AA?0?$AA?5?$AA?$CC?$AA_@ 1019f988     LIBCMTD:dbgrptt.obj
 0002:00021a48       ??_C@_1JC@EOAPFDLN@?$AAw?$AAc?$AAs?$AAt?$AAo?$AAm?$AAb?$AAs?$AA_?$AAs?$AA?$CI?$AA?$CI?$AA?$CI?$AAv?$AAo?$AAi?$AAd?$AA?5?$AA?$CK?$AA?$CJ?$AA0?$AA?$CJ?$AA?0?$AA?5?$AAs?$AAz?$AAO?$AAu?$AAt?$AAM?$AAe?$AAs@ 1019fa48     LIBCMTD:dbgrptt.obj
 0002:00021ae0       ??_C@_1FI@DBAIJPJE@?$AAw?$AAc?$AAs?$AAc?$AAp?$AAy?$AA_?$AAs?$AA?$CI?$AAs?$AAz?$AAO?$AAu?$AAt?$AAM?$AAe?$AAs?$AAs?$AAa?$AAg?$AAe?$AA?0?$AA?5?$AA4?$AA0?$AA9?$AA6?$AA?0?$AA?5?$AAs?$AAz?$AAL@ 1019fae0     LIBCMTD:dbgrptt.obj
 0002:00021b38       ??_C@_1BI@JIDBEPIG@?$AA?$CF?$AAs?$AA?$CI?$AA?$CF?$AAd?$AA?$CJ?$AA?5?$AA?3?$AA?5?$AA?$CF?$AAs?$AA?$AA@ 1019fb38     LIBCMTD:dbgrptt.obj
 0002:00021b50       ??_C@_1EK@PHCBEDKB@?$AAw?$AAc?$AAs?$AAc?$AAa?$AAt?$AA_?$AAs?$AA?$CI?$AAs?$AAz?$AAL?$AAi?$AAn?$AAe?$AAM?$AAe?$AAs?$AAs?$AAa?$AAg?$AAe?$AA?0?$AA?5?$AA4?$AA0?$AA9?$AA6?$AA?0?$AA?5?$AAL?$AA?$CC@ 1019fb50     LIBCMTD:dbgrptt.obj
 0002:00021b9c       ??_C@_13CMNBPIDO@?$AA?$AN?$AA?$AA@ 1019fb9c     LIBCMTD:dbgrptt.obj
 0002:00021ba0       ??_C@_1EK@NMDFGHMF@?$AAw?$AAc?$AAs?$AAc?$AAa?$AAt?$AA_?$AAs?$AA?$CI?$AAs?$AAz?$AAL?$AAi?$AAn?$AAe?$AAM?$AAe?$AAs?$AAs?$AAa?$AAg?$AAe?$AA?0?$AA?5?$AA4?$AA0?$AA9?$AA6?$AA?0?$AA?5?$AAL?$AA?$CC@ 1019fba0     LIBCMTD:dbgrptt.obj
 0002:00021bf0       ??_C@_1FK@HPADHBBD@?$AAw?$AAc?$AAs?$AAc?$AAa?$AAt?$AA_?$AAs?$AA?$CI?$AAs?$AAz?$AAL?$AAi?$AAn?$AAe?$AAM?$AAe?$AAs?$AAs?$AAa?$AAg?$AAe?$AA?0?$AA?5?$AA4?$AA0?$AA9?$AA6?$AA?0?$AA?5?$AAs?$AAz@ 1019fbf0     LIBCMTD:dbgrptt.obj
 0002:00021c50       ??_C@_1KO@DGAHENCH@?$AAw?$AAc?$AAs?$AAc?$AAp?$AAy?$AA_?$AAs?$AA?$CI?$AAs?$AAz?$AAL?$AAi?$AAn?$AAe?$AAM?$AAe?$AAs?$AAs?$AAa?$AAg?$AAe?$AA?0?$AA?5?$AA4?$AA0?$AA9?$AA6?$AA?0?$AA?5?$AAs?$AAz@ 1019fc50     LIBCMTD:dbgrptt.obj
 0002:00021d00       ??_C@_1CE@OJBNHDMO@?$AAA?$AAs?$AAs?$AAe?$AAr?$AAt?$AAi?$AAo?$AAn?$AA?5?$AAf?$AAa?$AAi?$AAl?$AAe?$AAd?$AA?$CB?$AA?$AA@ 1019fd00     LIBCMTD:dbgrptt.obj
 0002:00021d24       ??_C@_1CG@FFFGGODN@?$AAA?$AAs?$AAs?$AAe?$AAr?$AAt?$AAi?$AAo?$AAn?$AA?5?$AAf?$AAa?$AAi?$AAl?$AAe?$AAd?$AA?3?$AA?5?$AA?$AA@ 1019fd24     LIBCMTD:dbgrptt.obj
 0002:00021d50       ??_C@_1JK@KHFABAEO@?$AAw?$AAc?$AAs?$AAc?$AAp?$AAy?$AA_?$AAs?$AA?$CI?$AAs?$AAz?$AAU?$AAs?$AAe?$AAr?$AAM?$AAe?$AAs?$AAs?$AAa?$AAg?$AAe?$AA?0?$AA?5?$AA4?$AA0?$AA9?$AA6?$AA?0?$AA?5?$AAL?$AA?$CC@ 1019fd50     LIBCMTD:dbgrptt.obj
 0002:00021dec       ??_C@_13LBAGMAIH@?$AA?6?$AA?$AA@ 1019fdec     LIBCMTD:dbgrptt.obj
 0002:00021df0       ??_C@_1BA@ELMMDCFC@?$AA?0?$AA?5?$AAL?$AAi?$AAn?$AAe?$AA?5?$AA?$AA@ 1019fdf0     LIBCMTD:dbgrptt.obj
 0002:00021e00       ??_C@_1BO@OCHMLCAG@?$AA?$DM?$AAf?$AAi?$AAl?$AAe?$AA?5?$AAu?$AAn?$AAk?$AAn?$AAo?$AAw?$AAn?$AA?$DO?$AA?$AA@ 1019fe00     LIBCMTD:dbgrptt.obj
 0002:00021e20       ??_C@_1EM@MJFLEDMB@?$AAS?$AAe?$AAc?$AAo?$AAn?$AAd?$AA?5?$AAC?$AAh?$AAa?$AAn?$AAc?$AAe?$AA?5?$AAA?$AAs?$AAs?$AAe?$AAr?$AAt?$AAi?$AAo?$AAn?$AA?5?$AAF?$AAa?$AAi?$AAl?$AAe?$AAd?$AA?3?$AA?5@ 1019fe20     LIBCMTD:dbgrptt.obj
 0002:00021e70       ??_C@_1FA@CNLLOMHI@?$AA_?$AAi?$AAt?$AAo?$AAw?$AA_?$AAs?$AA?$CI?$AAn?$AAL?$AAi?$AAn?$AAe?$AA?0?$AA?5?$AAs?$AAz?$AAL?$AAi?$AAn?$AAe?$AAM?$AAe?$AAs?$AAs?$AAa?$AAg?$AAe?$AA?0?$AA?5?$AA4?$AA0@ 1019fe70     LIBCMTD:dbgrptt.obj
 0002:00021ec0       ??_C@_1CA@HPALHDOD@?$AA_?$AAV?$AAC?$AAr?$AAt?$AAD?$AAb?$AAg?$AAR?$AAe?$AAp?$AAo?$AAr?$AAt?$AAW?$AA?$AA@ 1019fec0     LIBCMTD:dbgrptt.obj
 0002:00021ee0       ??_C@_1BG@KCMPBBDK@?$AA_?$AAg?$AAe?$AAt?$AA_?$AAe?$AAr?$AAr?$AAn?$AAo?$AA?$AA@ 1019fee0     LIBCMTD:dosmap.obj
 0002:00021ef8       ??_C@_1GA@MFGIMPNL@?$AAf?$AA?3?$AA?2?$AAd?$AAd?$AA?2?$AAv?$AAc?$AAt?$AAo?$AAo?$AAl?$AAs?$AA?2?$AAc?$AAr?$AAt?$AA_?$AAb?$AAl?$AAd?$AA?2?$AAs?$AAe?$AAl?$AAf?$AA_?$AAx?$AA8?$AA6?$AA?2?$AAc@ 1019fef8     LIBCMTD:dosmap.obj
 0002:00021f58       ??_C@_1BO@LKEBEKJP@?$AAp?$AAV?$AAa?$AAl?$AAu?$AAe?$AA?5?$AA?$CB?$AA?$DN?$AA?5?$AAN?$AAU?$AAL?$AAL?$AA?$AA@ 1019ff58     LIBCMTD:dosmap.obj
 0002:00021f78       ??_C@_1BM@INIPHHDD@?$AA_?$AAg?$AAe?$AAt?$AA_?$AAd?$AAo?$AAs?$AAe?$AAr?$AAr?$AAn?$AAo?$AA?$AA@ 1019ff78     LIBCMTD:dosmap.obj
 0002:00021f94       ??_C@_0P@MIGLKIOC@CorExitProcess?$AA@ 1019ff94     LIBCMTD:crt0dat.obj
 0002:00021fa4       ??_C@_1BI@BGOHAHKC@?$AAm?$AAs?$AAc?$AAo?$AAr?$AAe?$AAe?$AA?4?$AAd?$AAl?$AAl?$AA?$AA@ 1019ffa4     LIBCMTD:crt0dat.obj
 0002:00021fbc       ??_C@_1CC@CDIPMFPD@?$AA_?$AAw?$AAp?$AAg?$AAm?$AAp?$AAt?$AAr?$AA?5?$AA?$CB?$AA?$DN?$AA?5?$AAN?$AAU?$AAL?$AAL?$AA?$AA@ 1019ffbc     LIBCMTD:crt0dat.obj
 0002:00021fe0       ??_C@_1BK@PNLDCCDP@?$AA_?$AAg?$AAe?$AAt?$AA_?$AAw?$AAp?$AAg?$AAm?$AAp?$AAt?$AAr?$AA?$AA@ 1019ffe0     LIBCMTD:crt0dat.obj
 0002:00022000       ??_C@_1GC@DGCPEDNJ@?$AAf?$AA?3?$AA?2?$AAd?$AAd?$AA?2?$AAv?$AAc?$AAt?$AAo?$AAo?$AAl?$AAs?$AA?2?$AAc?$AAr?$AAt?$AA_?$AAb?$AAl?$AAd?$AA?2?$AAs?$AAe?$AAl?$AAf?$AA_?$AAx?$AA8?$AA6?$AA?2?$AAc@ 101a0000     LIBCMTD:crt0dat.obj
 0002:00022064       ??_C@_1CA@BBNAFCKO@?$AA_?$AAp?$AAg?$AAm?$AAp?$AAt?$AAr?$AA?5?$AA?$CB?$AA?$DN?$AA?5?$AAN?$AAU?$AAL?$AAL?$AA?$AA@ 101a0064     LIBCMTD:crt0dat.obj
 0002:00022084       ??_C@_1BI@COAAPHJK@?$AA_?$AAg?$AAe?$AAt?$AA_?$AAp?$AAg?$AAm?$AAp?$AAt?$AAr?$AA?$AA@ 101a0084     LIBCMTD:crt0dat.obj
 0002:0002209c       ??_C@_1O@EJLDHPPL@?$AAs?$AAi?$AAg?$AAn?$AAa?$AAl?$AA?$AA@ 101a009c     LIBCMTD:winsig.obj
 0002:000220b0       ??_C@_1GA@DBECNFG@?$AAf?$AA?3?$AA?2?$AAd?$AAd?$AA?2?$AAv?$AAc?$AAt?$AAo?$AAo?$AAl?$AAs?$AA?2?$AAc?$AAr?$AAt?$AA_?$AAb?$AAl?$AAd?$AA?2?$AAs?$AAe?$AAl?$AAf?$AA_?$AAx?$AA8?$AA6?$AA?2?$AAc@ 101a00b0     LIBCMTD:winsig.obj
 0002:00022110       ??_C@_1DO@MLNEDKGB@?$AA?$CI?$AA?$CC?$AAI?$AAn?$AAv?$AAa?$AAl?$AAi?$AAd?$AA?5?$AAs?$AAi?$AAg?$AAn?$AAa?$AAl?$AA?5?$AAo?$AAr?$AA?5?$AAe?$AAr?$AAr?$AAo?$AAr?$AA?$CC?$AA?0?$AA?5?$AA0?$AA?$CJ?$AA?$AA@ 101a0110     LIBCMTD:winsig.obj
 0002:00022150       ??_C@_0DA@ELJOOIJF@f?3?2dd?2vctools?2crt_bld?2self_x86?2c@ 101a0150     LIBCMTD:winsig.obj
 0002:00022180       ??_C@_1M@DMJEIKHL@?$AAr?$AAa?$AAi?$AAs?$AAe?$AA?$AA@ 101a0180     LIBCMTD:winsig.obj
 0002:0002218c       ??_C@_0BI@DFKBFLJE@GetProcessWindowStation?$AA@ 101a018c     LIBCMTD:crtmboxw.obj
 0002:000221a4       ??_C@_0BK@DEKFELLI@GetUserObjectInformationW?$AA@ 101a01a4     LIBCMTD:crtmboxw.obj
 0002:000221c0       ??_C@_0BD@HHGDFDBJ@GetLastActivePopup?$AA@ 101a01c0     LIBCMTD:crtmboxw.obj
 0002:000221d4       ??_C@_0BA@HNOPNCHB@GetActiveWindow?$AA@ 101a01d4     LIBCMTD:crtmboxw.obj
 0002:000221e4       ??_C@_0M@DLDCCGNP@MessageBoxW?$AA@ 101a01e4     LIBCMTD:crtmboxw.obj
 0002:000221f0       ??_C@_1BG@GOEBHBDC@?$AAU?$AAS?$AAE?$AAR?$AA3?$AA2?$AA?4?$AAD?$AAL?$AAL?$AA?$AA@ 101a01f0     LIBCMTD:crtmboxw.obj
 0002:00022208       ??_C@_1BE@BMIJMLDD@?$AA_?$AAs?$AAw?$AAp?$AAr?$AAi?$AAn?$AAt?$AAf?$AA?$AA@ 101a0208     LIBCMTD:swprintf.obj
 0002:00022220       ??_C@_1GE@DKGHLBLP@?$AAf?$AA?3?$AA?2?$AAd?$AAd?$AA?2?$AAv?$AAc?$AAt?$AAo?$AAo?$AAl?$AAs?$AA?2?$AAc?$AAr?$AAt?$AA_?$AAb?$AAl?$AAd?$AA?2?$AAs?$AAe?$AAl?$AAf?$AA_?$AAx?$AA8?$AA6?$AA?2?$AAc@ 101a0220     LIBCMTD:swprintf.obj
 0002:00022284       ??_C@_1CK@DDKKOLAN@?$AAs?$AAi?$AAz?$AAe?$AAI?$AAn?$AAB?$AAy?$AAt?$AAe?$AAs?$AA?5?$AA?$DO?$AA?$DN?$AA?5?$AAc?$AAo?$AAu?$AAn?$AAt?$AA?$AA@ 101a0284     LIBCMTD:memcpy_s.obj
 0002:000222b0       ??_C@_1BI@DCHLDCPP@?$AAs?$AAr?$AAc?$AA?5?$AA?$CB?$AA?$DN?$AA?5?$AAN?$AAU?$AAL?$AAL?$AA?$AA@ 101a02b0     LIBCMTD:memcpy_s.obj
 0002:000222c8       ??_C@_1BC@GKHDJMGB@?$AAm?$AAe?$AAm?$AAc?$AAp?$AAy?$AA_?$AAs?$AA?$AA@ 101a02c8     LIBCMTD:memcpy_s.obj
 0002:000222e0       ??_C@_1GE@NEOPGGBM@?$AAf?$AA?3?$AA?2?$AAd?$AAd?$AA?2?$AAv?$AAc?$AAt?$AAo?$AAo?$AAl?$AAs?$AA?2?$AAc?$AAr?$AAt?$AA_?$AAb?$AAl?$AAd?$AA?2?$AAs?$AAe?$AAl?$AAf?$AA_?$AAx?$AA8?$AA6?$AA?2?$AAc@ 101a02e0     LIBCMTD:memcpy_s.obj
 0002:00022344       ??_C@_1BI@GKKCBDMD@?$AAd?$AAs?$AAt?$AA?5?$AA?$CB?$AA?$DN?$AA?5?$AAN?$AAU?$AAL?$AAL?$AA?$AA@ 101a0344     LIBCMTD:memcpy_s.obj
 0002:0002235c       ??_C@_1DM@MADKGDLO@?$AA?$CI?$AAL?$AA?$CC?$AAB?$AAu?$AAf?$AAf?$AAe?$AAr?$AA?5?$AAi?$AAs?$AA?5?$AAt?$AAo?$AAo?$AA?5?$AAs?$AAm?$AAa?$AAl?$AAl?$AA?$CC?$AA?5?$AA?$CG?$AA?$CG?$AA?5?$AA0?$AA?$CJ?$AA?$AA@ 101a035c     LIBCMTD:wcscpy_s.obj
 0002:00022398       ??_C@_1CI@HCPHDDLE@?$AAB?$AAu?$AAf?$AAf?$AAe?$AAr?$AA?5?$AAi?$AAs?$AA?5?$AAt?$AAo?$AAo?$AA?5?$AAs?$AAm?$AAa?$AAl?$AAl?$AA?$AA@ 101a0398     LIBCMTD:wcscpy_s.obj
 0002:000223c0       ??_C@_1CG@OFBJMIGJ@?$AA?$CI?$AA?$CI?$AA?$CI?$AA_?$AAS?$AAr?$AAc?$AA?$CJ?$AA?$CJ?$AA?$CJ?$AA?5?$AA?$CB?$AA?$DN?$AA?5?$AAN?$AAU?$AAL?$AAL?$AA?$AA@ 101a03c0     LIBCMTD:wcscpy_s.obj
 0002:000223e8       ??_C@_1BC@KIONAFPO@?$AAw?$AAc?$AAs?$AAc?$AAp?$AAy?$AA_?$AAs?$AA?$AA@ 101a03e8     LIBCMTD:wcscpy_s.obj
 0002:00022400       ??_C@_1GI@BGBNCIMA@?$AAf?$AA?3?$AA?2?$AAd?$AAd?$AA?2?$AAv?$AAc?$AAt?$AAo?$AAo?$AAl?$AAs?$AA?2?$AAc?$AAr?$AAt?$AA_?$AAb?$AAl?$AAd?$AA?2?$AAs?$AAe?$AAl?$AAf?$AA_?$AAx?$AA8?$AA6?$AA?2?$AAc@ 101a0400     LIBCMTD:wcscpy_s.obj
 0002:00022468       ??_C@_1FC@PFMLEHKI@?$AA?$CI?$AA?$CI?$AA_?$AAD?$AAs?$AAt?$AA?$CJ?$AA?$CJ?$AA?5?$AA?$CB?$AA?$DN?$AA?5?$AAN?$AAU?$AAL?$AAL?$AA?5?$AA?$CG?$AA?$CG?$AA?5?$AA?$CI?$AA?$CI?$AA_?$AAS?$AAi?$AAz?$AAe?$AAI?$AAn?$AAW?$AAo?$AAr@ 101a0468     LIBCMTD:wcscpy_s.obj
 0002:000224bc       ??_C@_0L@KDOEJCKC@_nextafter?$AA@ 101a04bc     LIBCMTD:_fpexcept_.obj
 0002:000224c8       ??_C@_05JGDBENOH@_logb?$AA@ 101a04c8     LIBCMTD:_fpexcept_.obj
 0002:000224d0       ??_C@_03ONILCKOB@_yn?$AA@  101a04d0     LIBCMTD:_fpexcept_.obj
 0002:000224d4       ??_C@_03NAKIGLHK@_y1?$AA@  101a04d4     LIBCMTD:_fpexcept_.obj
 0002:000224d8       ??_C@_03MJLDFKDL@_y0?$AA@  101a04d8     LIBCMTD:_fpexcept_.obj
 0002:000224dc       ??_C@_05GKKHEGJL@frexp?$AA@ 101a04dc     LIBCMTD:_fpexcept_.obj
 0002:000224e4       ??_C@_04KEPJIHGP@fmod?$AA@ 101a04e4     LIBCMTD:_fpexcept_.obj
 0002:000224ec       ??_C@_06MEIMCGCF@_hypot?$AA@ 101a04ec     LIBCMTD:_fpexcept_.obj
 0002:000224f4       ??_C@_05KBKMEMPO@_cabs?$AA@ 101a04f4     LIBCMTD:_fpexcept_.obj
 0002:000224fc       ??_C@_05CEJMAHNP@ldexp?$AA@ 101a04fc     LIBCMTD:_fpexcept_.obj
 0002:00022504       ??_C@_04ODHECPBC@fabs?$AA@ 101a0504     LIBCMTD:_fpexcept_.obj
 0002:0002250c       ??_C@_04EIAKFFMI@sqrt?$AA@ 101a050c     LIBCMTD:_fpexcept_.obj
 0002:00022514       ??_C@_05KNGEOGJB@atan2?$AA@ 101a0514     LIBCMTD:_fpexcept_.obj
 0002:0002251c       ??_C@_04FJHINJAO@tanh?$AA@ 101a051c     LIBCMTD:_fpexcept_.obj
 0002:00022524       ??_C@_04HPJJNFIM@cosh?$AA@ 101a0524     LIBCMTD:_fpexcept_.obj
 0002:0002252c       ??_C@_04COOMCNPB@sinh?$AA@ 101a052c     LIBCMTD:_fpexcept_.obj
 0002:00022534       ??_C@_0O@NLDKAIKN@EncodePointer?$AA@ 101a0534     LIBCMTD:tidtable.obj
 0002:00022544       ??_C@_1BK@DBDEIDLH@?$AAK?$AAE?$AAR?$AAN?$AAE?$AAL?$AA3?$AA2?$AA?4?$AAD?$AAL?$AAL?$AA?$AA@ 101a0544     LIBCMTD:tidtable.obj
 0002:00022560       ??_C@_0O@KBPMFGHI@DecodePointer?$AA@ 101a0560     LIBCMTD:tidtable.obj
 0002:00022570       ??_C@_0DC@LMJHGCKC@f?3?2dd?2vctools?2crt_bld?2self_x86?2c@ 101a0570     LIBCMTD:tidtable.obj
 0002:000225a4       ??_C@_07PEJMOBNF@FlsFree?$AA@ 101a05a4     LIBCMTD:tidtable.obj
 0002:000225ac       ??_C@_0M@JCPCPOEF@FlsSetValue?$AA@ 101a05ac     LIBCMTD:tidtable.obj
 0002:000225b8       ??_C@_0M@GDNOONDI@FlsGetValue?$AA@ 101a05b8     LIBCMTD:tidtable.obj
 0002:000225c4       ??_C@_08KNHFBNJ@FlsAlloc?$AA@ 101a05c4     LIBCMTD:tidtable.obj
 0002:000225d0       ??_C@_0DA@NBLAKPEL@f?3?2dd?2vctools?2crt_bld?2self_x86?2c@ 101a05d0     LIBCMTD:ioinit.obj
 0002:00022600       ??_C@_1DE@MMOGFGHF@?$AAs?$AAt?$AAr?$AAc?$AAp?$AAy?$AA_?$AAs?$AA?$CI?$AA?$CK?$AAe?$AAn?$AAv?$AA?0?$AA?5?$AAc?$AAc?$AAh?$AAa?$AAr?$AAs?$AA?0?$AA?5?$AAp?$AA?$CJ?$AA?$AA@ 101a0600     LIBCMTD:stdenvp.obj
 0002:00022634       ??_C@_1BC@GHMCNHHL@?$AA_?$AAs?$AAe?$AAt?$AAe?$AAn?$AAv?$AAp?$AA?$AA@ 101a0634     LIBCMTD:stdenvp.obj
 0002:00022648       ??_C@_1GC@DGBFLDBN@?$AAf?$AA?3?$AA?2?$AAd?$AAd?$AA?2?$AAv?$AAc?$AAt?$AAo?$AAo?$AAl?$AAs?$AA?2?$AAc?$AAr?$AAt?$AA_?$AAb?$AAl?$AAd?$AA?2?$AAs?$AAe?$AAl?$AAf?$AA_?$AAx?$AA8?$AA6?$AA?2?$AAc@ 101a0648     LIBCMTD:stdenvp.obj
 0002:000226ac       ??_C@_0DB@BMEBJJKP@f?3?2dd?2vctools?2crt_bld?2self_x86?2c@ 101a06ac     LIBCMTD:stdenvp.obj
 0002:000226e0       ??_C@_0DB@OEPBJOLC@f?3?2dd?2vctools?2crt_bld?2self_x86?2c@ 101a06e0     LIBCMTD:stdargv.obj
 0002:00022714       ??_C@_0CP@PPLBCJDN@f?3?2dd?2vctools?2crt_bld?2self_x86?2c@ 101a0714     LIBCMTD:a_env.obj
 0002:00022748       ??_C@_1GE@JDDMFOID@?$AAf?$AA?3?$AA?2?$AAd?$AAd?$AA?2?$AAv?$AAc?$AAt?$AAo?$AAo?$AAl?$AAs?$AA?2?$AAc?$AAr?$AAt?$AA_?$AAb?$AAl?$AAd?$AA?2?$AAs?$AAe?$AAl?$AAf?$AA_?$AAx?$AA8?$AA6?$AA?2?$AAc@ 101a0748     LIBCMTD:heapinit.obj
 0002:000227ac       ??_C@_1BC@DENNNKIM@?$AA_?$AAc?$AAr?$AAt?$AAh?$AAe?$AAa?$AAp?$AA?$AA@ 101a07ac     LIBCMTD:heapinit.obj
 0002:000227c0       __XcptActTab               101a07c0     LIBCMTD:winxfltr.obj
 0002:00022838       ??_C@_1HO@MLMGPAFH@?$AA?$CI?$AA?$CC?$AAi?$AAn?$AAc?$AAo?$AAn?$AAs?$AAi?$AAs?$AAt?$AAe?$AAn?$AAt?$AA?5?$AAI?$AAO?$AAB?$AA?5?$AAf?$AAi?$AAe?$AAl?$AAd?$AAs?$AA?$CC?$AA?0?$AA?5?$AAs?$AAt?$AAr?$AAe@ 101a0838     LIBCMTD:_flsbuf.obj
 0002:000228b8       ??_C@_1GC@GNCCMPNN@?$AAf?$AA?3?$AA?2?$AAd?$AAd?$AA?2?$AAv?$AAc?$AAt?$AAo?$AAo?$AAl?$AAs?$AA?2?$AAc?$AAr?$AAt?$AA_?$AAb?$AAl?$AAd?$AA?2?$AAs?$AAe?$AAl?$AAf?$AA_?$AAx?$AA8?$AA6?$AA?2?$AAc@ 101a08b8     LIBCMTD:_flsbuf.obj
 0002:0002291c       ??_C@_1BI@MFCLPIBM@?$AAs?$AAt?$AAr?$AA?5?$AA?$CB?$AA?$DN?$AA?5?$AAN?$AAU?$AAL?$AAL?$AA?$AA@ 101a091c     LIBCMTD:_flsbuf.obj
 0002:00022934       ??_C@_1O@CEDCILHN@?$AA?$CI?$AAn?$AAu?$AAl?$AAl?$AA?$CJ?$AA?$AA@ 101a0934     LIBCMTD:output.obj
 0002:00022944       ??_C@_06OJHGLDPL@?$CInull?$CJ?$AA@ 101a0944     LIBCMTD:output.obj
 0002:00022950       ___lookuptable             101a0950     LIBCMTD:output.obj
 0002:000229ac       ??_C@_0DA@NFBEBPEE@f?3?2dd?2vctools?2crt_bld?2self_x86?2c@ 101a09ac     LIBCMTD:output.obj
 0002:000229e0       ??_C@_1EK@PNGFDECN@?$AA?$CI?$AA?$CC?$AA?8?$AAn?$AA?8?$AA?5?$AAf?$AAo?$AAr?$AAm?$AAa?$AAt?$AA?5?$AAs?$AAp?$AAe?$AAc?$AAi?$AAf?$AAi?$AAe?$AAr?$AA?5?$AAd?$AAi?$AAs?$AAa?$AAb?$AAl?$AAe?$AAd?$AA?$CC@ 101a09e0     LIBCMTD:output.obj
 0002:00022a2c       ??_C@_1CC@IFFHEMNF@?$AA?$CI?$AAc?$AAh?$AA?5?$AA?$CB?$AA?$DN?$AA?5?$AA_?$AAT?$AA?$CI?$AA?8?$AA?2?$AA0?$AA?8?$AA?$CJ?$AA?$CJ?$AA?$AA@ 101a0a2c     LIBCMTD:output.obj
 0002:00022a50       ??_C@_1BAA@ODEGEDCK@?$AA?$CI?$AA?5?$AA?$CI?$AA_?$AAS?$AAt?$AAr?$AAe?$AAa?$AAm?$AA?9?$AA?$DO?$AA_?$AAf?$AAl?$AAa?$AAg?$AA?5?$AA?$CG?$AA?5?$AA_?$AAI?$AAO?$AAS?$AAT?$AAR?$AAG?$AA?$CJ?$AA?5?$AA?$HM?$AA?$HM?$AA?5@ 101a0a50     LIBCMTD:output.obj
 0002:00022b50       ??_C@_1BE@IONLIDNC@?$AA_?$AAo?$AAu?$AAt?$AAp?$AAu?$AAt?$AA_?$AAl?$AA?$AA@ 101a0b50     LIBCMTD:output.obj
 0002:00022b68       ??_C@_1GA@HHFOFBLN@?$AAf?$AA?3?$AA?2?$AAd?$AAd?$AA?2?$AAv?$AAc?$AAt?$AAo?$AAo?$AAl?$AAs?$AA?2?$AAc?$AAr?$AAt?$AA_?$AAb?$AAl?$AAd?$AA?2?$AAs?$AAe?$AAl?$AAf?$AA_?$AAx?$AA8?$AA6?$AA?2?$AAc@ 101a0b68     LIBCMTD:output.obj
 0002:00022bc8       ??_C@_1CC@FADMNIL@?$AA?$CI?$AAs?$AAt?$AAr?$AAe?$AAa?$AAm?$AA?5?$AA?$CB?$AA?$DN?$AA?5?$AAN?$AAU?$AAL?$AAL?$AA?$CJ?$AA?$AA@ 101a0bc8     LIBCMTD:output.obj
 0002:00022bf0       ??_C@_1EC@FABAOFFO@?$AA?$CI?$AAc?$AAo?$AAu?$AAn?$AAt?$AA?5?$AA?$DN?$AA?$DN?$AA?5?$AA0?$AA?$CJ?$AA?5?$AA?$HM?$AA?$HM?$AA?5?$AA?$CI?$AAs?$AAt?$AAr?$AAi?$AAn?$AAg?$AA?5?$AA?$CB?$AA?$DN?$AA?5?$AAN?$AAU?$AAL?$AAL?$AA?$CJ@ 101a0bf0     LIBCMTD:vsnprnc.obj
 0002:00022c34       ??_C@_1CE@PCFPEIFI@?$AA_?$AAv?$AAs?$AAn?$AAp?$AAr?$AAi?$AAn?$AAt?$AAf?$AA_?$AAh?$AAe?$AAl?$AAp?$AAe?$AAr?$AA?$AA@ 101a0c34     LIBCMTD:vsnprnc.obj
 0002:00022c58       ??_C@_1DA@HPBFKMEB@?$AA?$CI?$AA?$CC?$AAB?$AAu?$AAf?$AAf?$AAe?$AAr?$AA?5?$AAt?$AAo?$AAo?$AA?5?$AAs?$AAm?$AAa?$AAl?$AAl?$AA?$CC?$AA?0?$AA?5?$AA0?$AA?$CJ?$AA?$AA@ 101a0c58     LIBCMTD:vsnprnc.obj
 0002:00022c88       ??_C@_1EE@OKCKIGFK@?$AAs?$AAt?$AAr?$AAi?$AAn?$AAg?$AA?5?$AA?$CB?$AA?$DN?$AA?5?$AAN?$AAU?$AAL?$AAL?$AA?5?$AA?$CG?$AA?$CG?$AA?5?$AAs?$AAi?$AAz?$AAe?$AAI?$AAn?$AAB?$AAy?$AAt?$AAe?$AAs?$AA?5?$AA?$DO?$AA?5@ 101a0c88     LIBCMTD:vsnprnc.obj
 0002:00022ccc       ??_C@_1BM@BLJALHEF@?$AA_?$AAv?$AAs?$AAp?$AAr?$AAi?$AAn?$AAt?$AAf?$AA_?$AAs?$AA_?$AAl?$AA?$AA@ 101a0ccc     LIBCMTD:vsnprnc.obj
 0002:00022ce8       ??_C@_1BO@MLMCMBKN@?$AAf?$AAo?$AAr?$AAm?$AAa?$AAt?$AA?5?$AA?$CB?$AA?$DN?$AA?5?$AAN?$AAU?$AAL?$AAL?$AA?$AA@ 101a0ce8     LIBCMTD:vsnprnc.obj
 0002:00022d08       ??_C@_1BO@MMPELNIM@?$AA_?$AAv?$AAs?$AAn?$AAp?$AAr?$AAi?$AAn?$AAt?$AAf?$AA_?$AAs?$AA_?$AAl?$AA?$AA@ 101a0d08     LIBCMTD:vsnprnc.obj
 0002:00022d28       ??_C@_1BK@CDOALEA@?$AA_?$AAc?$AAo?$AAn?$AAt?$AAr?$AAo?$AAl?$AAf?$AAp?$AA_?$AAs?$AA?$AA@ 101a0d28     LIBCMTD:_contrlfp_.obj
 0002:00022d48       ??_C@_1HI@JIOCECAH@?$AAf?$AA?3?$AA?2?$AAd?$AAd?$AA?2?$AAv?$AAc?$AAt?$AAo?$AAo?$AAl?$AAs?$AA?2?$AAc?$AAr?$AAt?$AA_?$AAb?$AAl?$AAd?$AA?2?$AAs?$AAe?$AAl?$AAf?$AA_?$AAx?$AA8?$AA6?$AA?2?$AAc@ 101a0d48     LIBCMTD:_contrlfp_.obj
 0002:00022dc0       ??_C@_1DG@JNDMIEJL@?$AA?$CI?$AA?$CC?$AAI?$AAn?$AAv?$AAa?$AAl?$AAi?$AAd?$AA?5?$AAi?$AAn?$AAp?$AAu?$AAt?$AA?5?$AAv?$AAa?$AAl?$AAu?$AAe?$AA?$CC?$AA?0?$AA?5?$AA0?$AA?$CJ?$AA?$AA@ 101a0dc0     LIBCMTD:_contrlfp_.obj
 0002:00022df8       ??_C@_0P@GGKDKEEG@runtime?5error?5?$AA@ 101a0df8     LIBCMTD:crt0msg.obj
 0002:00022e08       ??_C@_02PCIJFNDE@?$AN?6?$AA@ 101a0e08     LIBCMTD:crt0msg.obj
 0002:00022e0c       ??_C@_0O@MJNIPGOH@TLOSS?5error?$AN?6?$AA@ 101a0e0c     LIBCMTD:crt0msg.obj
 0002:00022e1c       ??_C@_0N@BONNPDHF@SING?5error?$AN?6?$AA@ 101a0e1c     LIBCMTD:crt0msg.obj
 0002:00022e2c       ??_C@_0P@MBDAJNE@DOMAIN?5error?$AN?6?$AA@ 101a0e2c     LIBCMTD:crt0msg.obj
 0002:00022e40       ??_C@_0BFB@HKKMCDOL@R6034?$AN?6An?5application?5has?5made?5a@ 101a0e40     LIBCMTD:crt0msg.obj
 0002:00022f98       ??_C@_0PH@EPAFIJ@R6033?$AN?6?9?5Attempt?5to?5use?5MSIL?5cod@ 101a0f98     LIBCMTD:crt0msg.obj
 0002:00023090       ??_C@_0DD@BKEEABMM@R6032?$AN?6?9?5not?5enough?5space?5for?5lo@ 101a1090     LIBCMTD:crt0msg.obj
 0002:000230c8       ??_C@_0GD@OFKILIED@R6031?$AN?6?9?5Attempt?5to?5initialize?5t@ 101a10c8     LIBCMTD:crt0msg.obj
 0002:0002312c       ??_C@_0BP@LPMHJOKI@R6030?$AN?6?9?5CRT?5not?5initialized?$AN?6?$AA@ 101a112c     LIBCMTD:crt0msg.obj
 0002:0002314c       ??_C@_0CF@KJDAIALP@R6028?$AN?6?9?5unable?5to?5initialize?5he@ 101a114c     LIBCMTD:crt0msg.obj
 0002:00023174       ??_C@_0DF@GAKBPDFP@R6027?$AN?6?9?5not?5enough?5space?5for?5lo@ 101a1174     LIBCMTD:crt0msg.obj
 0002:000231ac       ??_C@_0DF@IBLNNAIG@R6026?$AN?6?9?5not?5enough?5space?5for?5st@ 101a11ac     LIBCMTD:crt0msg.obj
 0002:000231e4       ??_C@_0CG@IOHKGFNJ@R6025?$AN?6?9?5pure?5virtual?5function?5c@ 101a11e4     LIBCMTD:crt0msg.obj
 0002:0002320c       ??_C@_0DF@JIJJFJDC@R6024?$AN?6?9?5not?5enough?5space?5for?5_o@ 101a120c     LIBCMTD:crt0msg.obj
 0002:00023244       ??_C@_0CJ@EGEJHFME@R6019?$AN?6?9?5unable?5to?5open?5console?5@ 101a1244     LIBCMTD:crt0msg.obj
 0002:00023270       ??_C@_0CB@GNHNIELH@R6018?$AN?6?9?5unexpected?5heap?5error?$AN?6@ 101a1270     LIBCMTD:crt0msg.obj
 0002:00023294       ??_C@_0CN@FOLDKNG@R6017?$AN?6?9?5unexpected?5multithread?5@ 101a1294     LIBCMTD:crt0msg.obj
 0002:000232c4       ??_C@_0CM@FAHFJNHO@R6016?$AN?6?9?5not?5enough?5space?5for?5th@ 101a12c4     LIBCMTD:crt0msg.obj
 0002:000232f0       ??_C@_0JG@LBKMGKLD@?$AN?6This?5application?5has?5requested@ 101a12f0     LIBCMTD:crt0msg.obj
 0002:00023388       ??_C@_0CM@FLCNIPKK@R6009?$AN?6?9?5not?5enough?5space?5for?5en@ 101a1388     LIBCMTD:crt0msg.obj
 0002:000233b4       ??_C@_0CK@KMMJOAPP@R6008?$AN?6?9?5not?5enough?5space?5for?5ar@ 101a13b4     LIBCMTD:crt0msg.obj
 0002:000233e0       ??_C@_0CN@LEKKICBM@R6002?$AN?6?9?5floating?5point?5support?5@ 101a13e0     LIBCMTD:crt0msg.obj
 0002:00023410       ??_C@_0CF@GOGNBNAK@Microsoft?5Visual?5C?$CL?$CL?5Runtime?5Lib@ 101a1410     LIBCMTD:crt0msg.obj
 0002:00023438       ??_C@_1KC@JBIKIPNF@?$AAs?$AAt?$AAr?$AAc?$AAa?$AAt?$AA_?$AAs?$AA?$CI?$AAo?$AAu?$AAt?$AAm?$AAs?$AAg?$AA?0?$AA?5?$AA?$CI?$AAs?$AAi?$AAz?$AAe?$AAo?$AAf?$AA?$CI?$AAo?$AAu?$AAt?$AAm?$AAs?$AAg?$AA?$CJ@ 101a1438     LIBCMTD:crt0msg.obj
 0002:000234dc       ??_C@_02PHMGELLB@?6?6?$AA@ 101a14dc     LIBCMTD:crt0msg.obj
 0002:000234e0       ??_C@_1HO@POLIDBMF@?$AAs?$AAt?$AAr?$AAc?$AAa?$AAt?$AA_?$AAs?$AA?$CI?$AAo?$AAu?$AAt?$AAm?$AAs?$AAg?$AA?0?$AA?5?$AA?$CI?$AAs?$AAi?$AAz?$AAe?$AAo?$AAf?$AA?$CI?$AAo?$AAu?$AAt?$AAm?$AAs?$AAg?$AA?$CJ@ 101a14e0     LIBCMTD:crt0msg.obj
 0002:00023560       ??_C@_03KHICJKCI@?4?4?4?$AA@ 101a1560     LIBCMTD:crt0msg.obj
 0002:00023568       ??_C@_1HG@CJJGKFHK@?$AAs?$AAt?$AAr?$AAn?$AAc?$AAp?$AAy?$AA_?$AAs?$AA?$CI?$AAp?$AAc?$AAh?$AA?0?$AA?5?$AAp?$AAr?$AAo?$AAg?$AAn?$AAa?$AAm?$AAe?$AA_?$AAs?$AAi?$AAz?$AAe?$AA?5?$AA?9?$AA?5?$AA?$CI@ 101a1568     LIBCMTD:crt0msg.obj
 0002:000235e0       ??_C@_0BH@DNAGHKFM@?$DMprogram?5name?5unknown?$DO?$AA@ 101a15e0     LIBCMTD:crt0msg.obj
 0002:000235f8       ??_C@_1HI@FOOPEDMH@?$AAs?$AAt?$AAr?$AAc?$AAp?$AAy?$AA_?$AAs?$AA?$CI?$AAp?$AAr?$AAo?$AAg?$AAn?$AAa?$AAm?$AAe?$AA?0?$AA?5?$AAp?$AAr?$AAo?$AAg?$AAn?$AAa?$AAm?$AAe?$AA_?$AAs?$AAi?$AAz?$AAe@ 101a15f8     LIBCMTD:crt0msg.obj
 0002:00023670       ??_C@_0BK@OFGJDLJJ@Runtime?5Error?$CB?6?6Program?3?5?$AA@ 101a1670     LIBCMTD:crt0msg.obj
 0002:00023690       ??_C@_1KM@NKKPELHG@?$AAs?$AAt?$AAr?$AAc?$AAp?$AAy?$AA_?$AAs?$AA?$CI?$AAo?$AAu?$AAt?$AAm?$AAs?$AAg?$AA?0?$AA?5?$AA?$CI?$AAs?$AAi?$AAz?$AAe?$AAo?$AAf?$AA?$CI?$AAo?$AAu?$AAt?$AAm?$AAs?$AAg?$AA?$CJ@ 101a1690     LIBCMTD:crt0msg.obj
 0002:0002373c       ??_C@_1BI@EAHMBMEC@?$AA_?$AAN?$AAM?$AAS?$AAG?$AA_?$AAW?$AAR?$AAI?$AAT?$AAE?$AA?$AA@ 101a173c     LIBCMTD:crt0msg.obj
 0002:00023758       ??_C@_1GC@HKOJBOFF@?$AAf?$AA?3?$AA?2?$AAd?$AAd?$AA?2?$AAv?$AAc?$AAt?$AAo?$AAo?$AAl?$AAs?$AA?2?$AAc?$AAr?$AAt?$AA_?$AAb?$AAl?$AAd?$AA?2?$AAs?$AAe?$AAl?$AAf?$AA_?$AAx?$AA8?$AA6?$AA?2?$AAc@ 101a1758     LIBCMTD:crt0msg.obj
 0002:000237c0       ??_C@_1GO@NGIGJNHH@?$AAs?$AAt?$AAr?$AAn?$AAc?$AAp?$AAy?$AA_?$AAs?$AA?$CI?$AA?$CK?$AAs?$AAt?$AAr?$AAa?$AAd?$AAd?$AAr?$AAe?$AAs?$AAs?$AA?0?$AA?5?$AAo?$AAu?$AAt?$AAs?$AAi?$AAz?$AAe?$AA?0?$AA?5@ 101a17c0     LIBCMTD:inithelp.obj
 0002:00023830       ??_C@_1CA@KHHCPEI@?$AA_?$AA_?$AAg?$AAe?$AAt?$AAl?$AAo?$AAc?$AAa?$AAl?$AAe?$AAi?$AAn?$AAf?$AAo?$AA?$AA@ 101a1830     LIBCMTD:inithelp.obj
 0002:00023850       ??_C@_1GE@PLPIMDHG@?$AAf?$AA?3?$AA?2?$AAd?$AAd?$AA?2?$AAv?$AAc?$AAt?$AAo?$AAo?$AAl?$AAs?$AA?2?$AAc?$AAr?$AAt?$AA_?$AAb?$AAl?$AAd?$AA?2?$AAs?$AAe?$AAl?$AAf?$AA_?$AAx?$AA8?$AA6?$AA?2?$AAc@ 101a1850     LIBCMTD:inithelp.obj
 0002:000238b4       ??_C@_0DC@CFDMMFIG@f?3?2dd?2vctools?2crt_bld?2self_x86?2c@ 101a18b4     LIBCMTD:inithelp.obj
 0002:000241f8       __DEFAULT_CW_in_mem        101a21f8     LIBCMTD:_common_.obj
 0002:000241fa       __pi_by_2_to_61            101a21fa     LIBCMTD:_common_.obj
 0002:00027b80       ??_C@_1FK@BCPANIEK@?$AA?$CI?$AA?$CC?$AAM?$AAi?$AAs?$AAs?$AAi?$AAn?$AAg?$AA?5?$AAp?$AAo?$AAs?$AAi?$AAt?$AAi?$AAo?$AAn?$AA?5?$AAi?$AAn?$AA?5?$AAt?$AAh?$AAe?$AA?5?$AAf?$AAo?$AAr?$AAm?$AAa?$AAt@ 101a5b80     LIBCMTD:outputp.obj
 0002:00027be0       ??_C@_1FK@LNCFKALM@?$AA?$CI?$AA?$CI?$AAs?$AAt?$AAa?$AAt?$AAe?$AA?5?$AA?$DN?$AA?$DN?$AA?5?$AAS?$AAT?$AA_?$AAN?$AAO?$AAR?$AAM?$AAA?$AAL?$AA?$CJ?$AA?5?$AA?$HM?$AA?$HM?$AA?5?$AA?$CI?$AAs?$AAt?$AAa?$AAt?$AAe?$AA?5@ 101a5be0     LIBCMTD:outputp.obj
 0002:00027c40       ??_C@_1JC@OACKELNN@?$AA_?$AAt?$AAv?$AAa?$AAl?$AAi?$AAd?$AAa?$AAt?$AAe?$AA_?$AAp?$AAa?$AAr?$AAa?$AAm?$AA_?$AAr?$AAe?$AAu?$AAs?$AAe?$AA?$CI?$AA?$CG?$AAp?$AAo?$AAs?$AA_?$AAv?$AAa?$AAl?$AAu@ 101a5c40     LIBCMTD:outputp.obj
 0002:00027cd8       ??_C@_1IK@NBGDDCBN@?$AA_?$AAt?$AAv?$AAa?$AAl?$AAi?$AAd?$AAa?$AAt?$AAe?$AA_?$AAp?$AAa?$AAr?$AAa?$AAm?$AA_?$AAr?$AAe?$AAu?$AAs?$AAe?$AA?$CI?$AA?$CG?$AAp?$AAo?$AAs?$AA_?$AAv?$AAa?$AAl?$AAu@ 101a5cd8     LIBCMTD:outputp.obj
 0002:00027d64       ??_C@_1DG@GOHGNKHE@?$AAp?$AAa?$AAs?$AAs?$AA?5?$AA?$DN?$AA?$DN?$AA?5?$AAF?$AAO?$AAR?$AAM?$AAA?$AAT?$AA_?$AAO?$AAU?$AAT?$AAP?$AAU?$AAT?$AA_?$AAP?$AAA?$AAS?$AAS?$AA?$AA@ 101a5d64     LIBCMTD:outputp.obj
 0002:00027da0       ??_C@_1IM@DNGHAPLB@?$AA_?$AAt?$AAv?$AAa?$AAl?$AAi?$AAd?$AAa?$AAt?$AAe?$AA_?$AAp?$AAa?$AAr?$AAa?$AAm?$AA_?$AAr?$AAe?$AAu?$AAs?$AAe?$AA?$CI?$AA?$CG?$AAp?$AAo?$AAs?$AA_?$AAv?$AAa?$AAl?$AAu@ 101a5da0     LIBCMTD:outputp.obj
 0002:00027e30       ??_C@_1IG@HJIMKDHC@?$AA_?$AAt?$AAv?$AAa?$AAl?$AAi?$AAd?$AAa?$AAt?$AAe?$AA_?$AAp?$AAa?$AAr?$AAa?$AAm?$AA_?$AAr?$AAe?$AAu?$AAs?$AAe?$AA?$CI?$AA?$CG?$AAp?$AAo?$AAs?$AA_?$AAv?$AAa?$AAl?$AAu@ 101a5e30     LIBCMTD:outputp.obj
 0002:00027eb8       ??_C@_1IG@FDCPLALG@?$AA_?$AAt?$AAv?$AAa?$AAl?$AAi?$AAd?$AAa?$AAt?$AAe?$AA_?$AAp?$AAa?$AAr?$AAa?$AAm?$AA_?$AAr?$AAe?$AAu?$AAs?$AAe?$AA?$CI?$AA?$CG?$AAp?$AAo?$AAs?$AA_?$AAv?$AAa?$AAl?$AAu@ 101a5eb8     LIBCMTD:outputp.obj
 0002:00027f40       ??_C@_1IK@MHEDJAMK@?$AA_?$AAt?$AAv?$AAa?$AAl?$AAi?$AAd?$AAa?$AAt?$AAe?$AA_?$AAp?$AAa?$AAr?$AAa?$AAm?$AA_?$AAr?$AAe?$AAu?$AAs?$AAe?$AA?$CI?$AA?$CG?$AAp?$AAo?$AAs?$AA_?$AAv?$AAa?$AAl?$AAu@ 101a5f40     LIBCMTD:outputp.obj
 0002:00027fd0       ??_C@_1EM@BNPHBBIA@?$AA?$CI?$AA?$CI?$AAt?$AAy?$AAp?$AAe?$AA_?$AAp?$AAo?$AAs?$AA?$DO?$AA?$DN?$AA0?$AA?$CJ?$AA?5?$AA?$CG?$AA?$CG?$AA?5?$AA?$CI?$AAt?$AAy?$AAp?$AAe?$AA_?$AAp?$AAo?$AAs?$AA?$DM?$AA_?$AAA?$AAR?$AAG@ 101a5fd0     LIBCMTD:outputp.obj
 0002:00028020       ??_C@_1IK@EIEPDKHJ@?$AA_?$AAt?$AAv?$AAa?$AAl?$AAi?$AAd?$AAa?$AAt?$AAe?$AA_?$AAp?$AAa?$AAr?$AAa?$AAm?$AA_?$AAr?$AAe?$AAu?$AAs?$AAe?$AA?$CI?$AA?$CG?$AAp?$AAo?$AAs?$AA_?$AAv?$AAa?$AAl?$AAu@ 101a6020     LIBCMTD:outputp.obj
 0002:000280b0       ??_C@_1JG@JBJBOCFB@?$AA?$CI?$AA?$CI?$AAp?$AAr?$AAe?$AAc?$AAi?$AAs?$AA_?$AAp?$AAo?$AAs?$AA?5?$AA?$DO?$AA?$DN?$AA?5?$AA0?$AA?$CJ?$AA?5?$AA?$CG?$AA?$CG?$AA?5?$AA?$CI?$AA?$CK?$AAe?$AAn?$AAd?$AA_?$AAp?$AAo?$AAs?$AA?5@ 101a60b0     LIBCMTD:outputp.obj
 0002:00028148       ??_C@_1II@PIPIMLPF@?$AA_?$AAt?$AAv?$AAa?$AAl?$AAi?$AAd?$AAa?$AAt?$AAe?$AA_?$AAp?$AAa?$AAr?$AAa?$AAm?$AA_?$AAr?$AAe?$AAu?$AAs?$AAe?$AA?$CI?$AA?$CG?$AAp?$AAo?$AAs?$AA_?$AAv?$AAa?$AAl?$AAu@ 101a6148     LIBCMTD:outputp.obj
 0002:000281d0       ??_C@_1JE@NMBHOLFI@?$AA?$CI?$AA?$CI?$AAw?$AAi?$AAd?$AAt?$AAh?$AA_?$AAp?$AAo?$AAs?$AA?5?$AA?$DO?$AA?$DN?$AA?5?$AA0?$AA?$CJ?$AA?5?$AA?$CG?$AA?$CG?$AA?5?$AA?$CI?$AA?$CK?$AAe?$AAn?$AAd?$AA_?$AAp?$AAo?$AAs?$AA?5?$AA?$DN@ 101a61d0     LIBCMTD:outputp.obj
 0002:00028268       ??_C@_1EE@DMAIGNBG@?$AA?$CI?$AA?$CC?$AAI?$AAn?$AAc?$AAo?$AAr?$AAr?$AAe?$AAc?$AAt?$AA?5?$AAf?$AAo?$AAr?$AAm?$AAa?$AAt?$AA?5?$AAs?$AAp?$AAe?$AAc?$AAi?$AAf?$AAi?$AAe?$AAr?$AA?$CC?$AA?0?$AA?5?$AA0@ 101a6268     LIBCMTD:outputp.obj
 0002:000282b0       ??_C@_1JC@PFJNKEIO@?$AA?$CI?$AA?$CI?$AAt?$AAy?$AAp?$AAe?$AA_?$AAp?$AAo?$AAs?$AA?5?$AA?$DO?$AA?$DN?$AA?5?$AA0?$AA?$CJ?$AA?5?$AA?$CG?$AA?$CG?$AA?5?$AA?$CI?$AA?$CK?$AAe?$AAn?$AAd?$AA_?$AAp?$AAo?$AAs?$AA?5?$AA?$DN?$AA?$DN@ 101a62b0     LIBCMTD:outputp.obj
 0002:00028344       ??_C@_1BI@KANOLAMF@?$AA_?$AAo?$AAu?$AAt?$AAp?$AAu?$AAt?$AA_?$AAp?$AA_?$AAl?$AA?$AA@ 101a6344     LIBCMTD:outputp.obj
 0002:0002835c       ??_C@_0DB@MHMEONEC@f?3?2dd?2vctools?2crt_bld?2self_x86?2c@ 101a635c     LIBCMTD:mbctype.obj
 0002:00028390       ??_C@_07LCBHPJJN@LC_TIME?$AA@ 101a6390     LIBCMTD:setlocal.obj
 0002:00028398       ??_C@_0L@DLHIECNL@LC_NUMERIC?$AA@ 101a6398     LIBCMTD:setlocal.obj
 0002:000283a4       ??_C@_0M@MIENIKLA@LC_MONETARY?$AA@ 101a63a4     LIBCMTD:setlocal.obj
 0002:000283b0       ??_C@_08EADHIDAD@LC_CTYPE?$AA@ 101a63b0     LIBCMTD:setlocal.obj
 0002:000283bc       ??_C@_0L@KFJHEKIK@LC_COLLATE?$AA@ 101a63bc     LIBCMTD:setlocal.obj
 0002:000283c8       ??_C@_06NEFDFEKB@LC_ALL?$AA@ 101a63c8     LIBCMTD:setlocal.obj
 0002:000283d0       ___lc_category             101a63d0     LIBCMTD:setlocal.obj
 0002:00028498       ??_C@_1GE@OLEIGPBJ@?$AAf?$AA?3?$AA?2?$AAd?$AAd?$AA?2?$AAv?$AAc?$AAt?$AAo?$AAo?$AAl?$AAs?$AA?2?$AAc?$AAr?$AAt?$AA_?$AAb?$AAl?$AAd?$AA?2?$AAs?$AAe?$AAl?$AAf?$AA_?$AAx?$AA8?$AA6?$AA?2?$AAc@ 101a6498     LIBCMTD:setlocal.obj
 0002:00028500       ??_C@_1BKC@GGIENNAK@?$AA?$CI?$AA?$CI?$AAp?$AAt?$AAl?$AAo?$AAc?$AAi?$AA?9?$AA?$DO?$AAl?$AAc?$AA_?$AAc?$AAa?$AAt?$AAe?$AAg?$AAo?$AAr?$AAy?$AA?$FL?$AAc?$AAa?$AAt?$AAe?$AAg?$AAo?$AAr?$AAy?$AA?$FN?$AA?4@ 101a6500     LIBCMTD:setlocal.obj
 0002:000286a4       ??_C@_1CI@FGIONOJM@?$AA_?$AAc?$AAo?$AAn?$AAf?$AAi?$AAg?$AAt?$AAh?$AAr?$AAe?$AAa?$AAd?$AAl?$AAo?$AAc?$AAa?$AAl?$AAe?$AA?$AA@ 101a66a4     LIBCMTD:setlocal.obj
 0002:000286d0       ??_C@_1GA@LDEGDKD@?$AA?$CI?$AA?$CC?$AAI?$AAn?$AAv?$AAa?$AAl?$AAi?$AAd?$AA?5?$AAp?$AAa?$AAr?$AAa?$AAm?$AAe?$AAt?$AAe?$AAr?$AA?5?$AAf?$AAo?$AAr?$AA?5?$AA_?$AAc?$AAo?$AAn?$AAf?$AAi?$AAg?$AAt@ 101a66d0     LIBCMTD:setlocal.obj
 0002:00028730       ??_C@_0DC@JCPFNMID@f?3?2dd?2vctools?2crt_bld?2self_x86?2c@ 101a6730     LIBCMTD:setlocal.obj
 0002:00028764       ??_C@_1BE@DBJGBOJC@?$AAs?$AAe?$AAt?$AAl?$AAo?$AAc?$AAa?$AAl?$AAe?$AA?$AA@ 101a6764     LIBCMTD:setlocal.obj
 0002:00028778       ??_C@_1FG@OHLFEKMC@?$AAL?$AAC?$AA_?$AAM?$AAI?$AAN?$AA?5?$AA?$DM?$AA?$DN?$AA?5?$AA_?$AAc?$AAa?$AAt?$AAe?$AAg?$AAo?$AAr?$AAy?$AA?5?$AA?$CG?$AA?$CG?$AA?5?$AA_?$AAc?$AAa?$AAt?$AAe?$AAg?$AAo?$AAr?$AAy@ 101a6778     LIBCMTD:setlocal.obj
 0002:000287d0       ??_C@_1IA@PFIKKKFB@?$AAs?$AAt?$AAr?$AAn?$AAc?$AAp?$AAy?$AA_?$AAs?$AA?$CI?$AAl?$AAc?$AAt?$AAe?$AAm?$AAp?$AA?0?$AA?5?$AA?$CI?$AAs?$AAi?$AAz?$AAe?$AAo?$AAf?$AA?$CI?$AAl?$AAc?$AAt?$AAe?$AAm?$AAp@ 101a67d0     LIBCMTD:setlocal.obj
 0002:00028850       ??_C@_1CE@OFNHIOO@?$AA_?$AAs?$AAe?$AAt?$AAl?$AAo?$AAc?$AAa?$AAl?$AAe?$AA_?$AAn?$AAo?$AAl?$AAo?$AAc?$AAk?$AA?$AA@ 101a6850     LIBCMTD:setlocal.obj
 0002:00028874       ??_C@_01ICJEACDI@?$DL?$AA@ 101a6874     LIBCMTD:setlocal.obj
 0002:00028878       ??_C@_02BALPLPBG@?$DN?$DL?$AA@ 101a6878     LIBCMTD:setlocal.obj
 0002:00028880       ??_C@_1GO@JALHLJEH@?$AAs?$AAt?$AAr?$AAc?$AAp?$AAy?$AA_?$AAs?$AA?$CI?$AAp?$AAc?$AAh?$AA?5?$AA?$CL?$AA?5?$AAs?$AAi?$AAz?$AAe?$AAo?$AAf?$AA?$CI?$AAi?$AAn?$AAt?$AA?$CJ?$AA?0?$AA?5?$AAc?$AAc?$AAh?$AA?5@ 101a6880     LIBCMTD:setlocal.obj
 0002:000288f0       ??_C@_1CG@IEFIICPK@?$AA_?$AAs?$AAe?$AAt?$AAl?$AAo?$AAc?$AAa?$AAl?$AAe?$AA_?$AAs?$AAe?$AAt?$AA_?$AAc?$AAa?$AAt?$AA?$AA@ 101a68f0     LIBCMTD:setlocal.obj
 0002:00028918       ??_C@_1DA@GDKKLCLM@?$AAs?$AAt?$AAr?$AAc?$AAa?$AAt?$AA_?$AAs?$AA?$CI?$AAp?$AAc?$AAh?$AA?0?$AA?5?$AAc?$AAc?$AAh?$AA?0?$AA?5?$AA?$CC?$AA?$DL?$AA?$CC?$AA?$CJ?$AA?$AA@ 101a6918     LIBCMTD:setlocal.obj
 0002:00028948       ??_C@_1CG@NNFIJLDA@?$AA_?$AAs?$AAe?$AAt?$AAl?$AAo?$AAc?$AAa?$AAl?$AAe?$AA_?$AAg?$AAe?$AAt?$AA_?$AAa?$AAl?$AAl?$AA?$AA@ 101a6948     LIBCMTD:setlocal.obj
 0002:00028970       ??_C@_01NEMOKFLO@?$DN?$AA@ 101a6970     LIBCMTD:setlocal.obj
 0002:00028978       ??_C@_1FA@MHAOOIBO@?$AAs?$AAt?$AAr?$AAc?$AAp?$AAy?$AA_?$AAs?$AA?$CI?$AAo?$AAu?$AAt?$AAp?$AAu?$AAt?$AA?0?$AA?5?$AAs?$AAi?$AAz?$AAe?$AAI?$AAn?$AAC?$AAh?$AAa?$AAr?$AAs?$AA?0?$AA?5?$AAc?$AAa@ 101a6978     LIBCMTD:setlocal.obj
 0002:000289c8       ??_C@_1IA@ONNFOEDA@?$AAs?$AAt?$AAr?$AAn?$AAc?$AAp?$AAy?$AA_?$AAs?$AA?$CI?$AAc?$AAa?$AAc?$AAh?$AAe?$AAi?$AAn?$AA?0?$AA?5?$AAc?$AAa?$AAc?$AAh?$AAe?$AAi?$AAn?$AAS?$AAi?$AAz?$AAe?$AA?0?$AA?5@ 101a69c8     LIBCMTD:setlocal.obj
 0002:00028a48       ??_C@_00CNPNBAHC@?$AA@     101a6a48     LIBCMTD:setlocal.obj
 0002:00028a4c       ??_C@_01GFHCPBMG@C?$AA@    101a6a4c     LIBCMTD:setlocal.obj
 0002:00028a50       ??_C@_1EG@MOMHKOD@?$AAs?$AAt?$AAr?$AAc?$AAp?$AAy?$AA_?$AAs?$AA?$CI?$AAo?$AAu?$AAt?$AAp?$AAu?$AAt?$AA?0?$AA?5?$AAs?$AAi?$AAz?$AAe?$AAI?$AAn?$AAC?$AAh?$AAa?$AAr?$AAs?$AA?0?$AA?5?$AA?$CC?$AAC@ 101a6a50     LIBCMTD:setlocal.obj
 0002:00028a98       ??_C@_1BM@OIIBLEFG@?$AA_?$AAe?$AAx?$AAp?$AAa?$AAn?$AAd?$AAl?$AAo?$AAc?$AAa?$AAl?$AAe?$AA?$AA@ 101a6a98     LIBCMTD:setlocal.obj
 0002:00028ab8       ??_C@_1BGM@IJDLABMC@?$AAs?$AAt?$AAr?$AAc?$AAa?$AAt?$AA_?$AAs?$AA?$CI?$AAo?$AAu?$AAt?$AAs?$AAt?$AAr?$AA?0?$AA?5?$AAs?$AAi?$AAz?$AAe?$AAI?$AAn?$AAB?$AAy?$AAt?$AAe?$AAs?$AA?0?$AA?5?$AA?$CI?$AA?5@ 101a6ab8     LIBCMTD:setlocal.obj
 0002:00028c24       ??_C@_1BC@PIABMDIP@?$AA_?$AAs?$AAt?$AAr?$AAc?$AAa?$AAt?$AAs?$AA?$AA@ 101a6c24     LIBCMTD:setlocal.obj
 0002:00028c38       ??_C@_1MM@NOPMGFHF@?$AAs?$AAt?$AAr?$AAn?$AAc?$AAp?$AAy?$AA_?$AAs?$AA?$CI?$AAn?$AAa?$AAm?$AAe?$AAs?$AA?9?$AA?$DO?$AAs?$AAz?$AAC?$AAo?$AAd?$AAe?$AAP?$AAa?$AAg?$AAe?$AA?0?$AA?5?$AA?$CI?$AAs?$AAi@ 101a6c38     LIBCMTD:setlocal.obj
 0002:00028d08       ??_C@_1MG@PHNILIAG@?$AAs?$AAt?$AAr?$AAn?$AAc?$AAp?$AAy?$AA_?$AAs?$AA?$CI?$AAn?$AAa?$AAm?$AAe?$AAs?$AA?9?$AA?$DO?$AAs?$AAz?$AAC?$AAo?$AAu?$AAn?$AAt?$AAr?$AAy?$AA?0?$AA?5?$AA?$CI?$AAs?$AAi?$AAz@ 101a6d08     LIBCMTD:setlocal.obj
 0002:00028dd0       ??_C@_1MM@BFEECMAF@?$AAs?$AAt?$AAr?$AAn?$AAc?$AAp?$AAy?$AA_?$AAs?$AA?$CI?$AAn?$AAa?$AAm?$AAe?$AAs?$AA?9?$AA?$DO?$AAs?$AAz?$AAL?$AAa?$AAn?$AAg?$AAu?$AAa?$AAg?$AAe?$AA?0?$AA?5?$AA?$CI?$AAs?$AAi@ 101a6dd0     LIBCMTD:setlocal.obj
 0002:00028e9c       ??_C@_03EGDHDPFD@_?4?0?$AA@ 101a6e9c     LIBCMTD:setlocal.obj
 0002:00028ea0       ??_C@_1NG@FMOPGKGG@?$AAs?$AAt?$AAr?$AAn?$AAc?$AAp?$AAy?$AA_?$AAs?$AA?$CI?$AAn?$AAa?$AAm?$AAe?$AAs?$AA?9?$AA?$DO?$AAs?$AAz?$AAC?$AAo?$AAd?$AAe?$AAP?$AAa?$AAg?$AAe?$AA?0?$AA?5?$AA?$CI?$AAs?$AAi@ 101a6ea0     LIBCMTD:setlocal.obj
 0002:00028f78       ??_C@_1BK@CBMMLAGJ@?$AA_?$AA_?$AAl?$AAc?$AA_?$AAs?$AAt?$AAr?$AAt?$AAo?$AAl?$AAc?$AA?$AA@ 101a6f78     LIBCMTD:setlocal.obj
 0002:00028f94       ??_C@_01LFCBOECM@?4?$AA@   101a6f94     LIBCMTD:setlocal.obj
 0002:00028f98       ??_C@_01IDAFKMJL@_?$AA@    101a6f98     LIBCMTD:setlocal.obj
 0002:00028fa0       ??_C@_1HC@IBDBLKCB@?$AAs?$AAt?$AAr?$AAc?$AAp?$AAy?$AA_?$AAs?$AA?$CI?$AAl?$AAo?$AAc?$AAa?$AAl?$AAe?$AA?0?$AA?5?$AAs?$AAi?$AAz?$AAe?$AAI?$AAn?$AAB?$AAy?$AAt?$AAe?$AAs?$AA?0?$AA?5?$AA?$CI?$AAc@ 101a6fa0     LIBCMTD:setlocal.obj
 0002:00029014       ??_C@_1BK@FGDJDEPG@?$AA_?$AA_?$AAl?$AAc?$AA_?$AAl?$AAc?$AAt?$AAo?$AAs?$AAt?$AAr?$AA?$AA@ 101a7014     LIBCMTD:setlocal.obj
 0002:00029030       ??_C@_1BK@CLIEHFDF@?$AAp?$AAf?$AAl?$AAt?$AA?5?$AA?$CB?$AA?$DN?$AA?5?$AAN?$AAU?$AAL?$AAL?$AA?$AA@ 101a7030     LIBCMTD:_fptostr.obj
 0002:00029050       ??_C@_1GM@CEDLGDDI@?$AAs?$AAi?$AAz?$AAe?$AAI?$AAn?$AAB?$AAy?$AAt?$AAe?$AAs?$AA?5?$AA?$DO?$AA?5?$AA?$CI?$AAs?$AAi?$AAz?$AAe?$AA_?$AAt?$AA?$CJ?$AA?$CI?$AA?$CI?$AAd?$AAi?$AAg?$AAi?$AAt?$AAs?$AA?5?$AA?$DO@ 101a7050     LIBCMTD:_fptostr.obj
 0002:000290bc       ??_C@_1BC@OPALLEB@?$AA_?$AAf?$AAp?$AAt?$AAo?$AAs?$AAt?$AAr?$AA?$AA@ 101a70bc     LIBCMTD:_fptostr.obj
 0002:000290d0       ??_C@_1GE@BDKOPHIO@?$AAf?$AA?3?$AA?2?$AAd?$AAd?$AA?2?$AAv?$AAc?$AAt?$AAo?$AAo?$AAl?$AAs?$AA?2?$AAc?$AAr?$AAt?$AA_?$AAb?$AAl?$AAd?$AA?2?$AAs?$AAe?$AAl?$AAf?$AA_?$AAx?$AA8?$AA6?$AA?2?$AAc@ 101a70d0     LIBCMTD:_fptostr.obj
 0002:00029138       ??_C@_1FK@KODCOBKF@?$AAs?$AAt?$AAr?$AAc?$AAp?$AAy?$AA_?$AAs?$AA?$CI?$AAr?$AAe?$AAs?$AAu?$AAl?$AAt?$AAs?$AAt?$AAr?$AA?0?$AA?5?$AAr?$AAe?$AAs?$AAu?$AAl?$AAt?$AAs?$AAi?$AAz?$AAe?$AA?0?$AA?5@ 101a7138     LIBCMTD:_cfout_.obj
 0002:00029194       ??_C@_1BC@BPMMEHLK@?$AA_?$AAf?$AAl?$AAt?$AAo?$AAu?$AAt?$AA2?$AA?$AA@ 101a7194     LIBCMTD:_cfout_.obj
 0002:000291a8       ??_C@_1HC@PKFDNKN@?$AAf?$AA?3?$AA?2?$AAd?$AAd?$AA?2?$AAv?$AAc?$AAt?$AAo?$AAo?$AAl?$AAs?$AA?2?$AAc?$AAr?$AAt?$AA_?$AAb?$AAl?$AAd?$AA?2?$AAs?$AAe?$AAl?$AAf?$AA_?$AAx?$AA8?$AA6?$AA?2?$AAc@ 101a71a8     LIBCMTD:_cfout_.obj
 0002:0002921c       ??_C@_1CG@EBJECAJM@?$AA_?$AAs?$AAe?$AAt?$AA_?$AAo?$AAu?$AAt?$AAp?$AAu?$AAt?$AA_?$AAf?$AAo?$AAr?$AAm?$AAa?$AAt?$AA?$AA@ 101a721c     LIBCMTD:outputformat.obj
 0002:00029248       ??_C@_1GM@NFGGJJCM@?$AAf?$AA?3?$AA?2?$AAd?$AAd?$AA?2?$AAv?$AAc?$AAt?$AAo?$AAo?$AAl?$AAs?$AA?2?$AAc?$AAr?$AAt?$AA_?$AAb?$AAl?$AAd?$AA?2?$AAs?$AAe?$AAl?$AAf?$AA_?$AAx?$AA8?$AA6?$AA?2?$AAc@ 101a7248     LIBCMTD:outputformat.obj
 0002:000292b8       ??_C@_1EM@EGEEBJLG@?$AA?$CI?$AAo?$AAp?$AAt?$AAi?$AAo?$AAn?$AAs?$AA?5?$AA?$CG?$AA?5?$AA?$HO?$AA_?$AAT?$AAW?$AAO?$AA_?$AAD?$AAI?$AAG?$AAI?$AAT?$AA_?$AAE?$AAX?$AAP?$AAO?$AAN?$AAE?$AAN?$AAT?$AA?$CJ@ 101a72b8     LIBCMTD:outputformat.obj
 0002:00029304       ??_C@_1BC@CFJEPFGF@?$AAs?$AAt?$AAr?$AAc?$AAp?$AAy?$AA_?$AAs?$AA?$AA@ 101a7304     LIBCMTD:strcpy_s.obj
 0002:00029318       ??_C@_1FC@NCPEPIBI@?$AA?$CI?$AA?$CI?$AA_?$AAD?$AAs?$AAt?$AA?$CJ?$AA?$CJ?$AA?5?$AA?$CB?$AA?$DN?$AA?5?$AAN?$AAU?$AAL?$AAL?$AA?5?$AA?$CG?$AA?$CG?$AA?5?$AA?$CI?$AA?$CI?$AA_?$AAS?$AAi?$AAz?$AAe?$AAI?$AAn?$AAB?$AAy?$AAt@ 101a7318     LIBCMTD:strcpy_s.obj
 0002:00029370       ??_C@_1GG@CDHAPCGF@?$AAf?$AA?3?$AA?2?$AAd?$AAd?$AA?2?$AAv?$AAc?$AAt?$AAo?$AAo?$AAl?$AAs?$AA?2?$AAc?$AAr?$AAt?$AA_?$AAb?$AAl?$AAd?$AA?2?$AAs?$AAe?$AAl?$AAf?$AA_?$AAx?$AA8?$AA6?$AA?2?$AAc@ 101a7370     LIBCMTD:handler.obj
 0002:000293d8       ??_C@_1BC@JLLICHIC@?$AAp?$AAn?$AAh?$AA?5?$AA?$DN?$AA?$DN?$AA?5?$AA0?$AA?$AA@ 101a73d8     LIBCMTD:handler.obj
 0002:000293ec       ??_C@_0BB@NAGLCMLI@Assertion?5Failed?$AA@ 101a73ec     LIBCMTD:dbgrpt.obj
 0002:00029400       ??_C@_05NAOIJFC@Error?$AA@ 101a7400     LIBCMTD:dbgrpt.obj
 0002:00029408       ??_C@_07KGMMFLDN@Warning?$AA@ 101a7408     LIBCMTD:dbgrpt.obj
 0002:0002941c       ??_C@_1CG@GNMJDMIO@?$AA_?$AAC?$AAr?$AAt?$AAS?$AAe?$AAt?$AAR?$AAe?$AAp?$AAo?$AAr?$AAt?$AAH?$AAo?$AAo?$AAk?$AA2?$AA?$AA@ 101a741c     LIBCMTD:dbgrpt.obj
 0002:00029444       ??_C@_0CD@EBCGLDDL@Microsoft?5Visual?5C?$CL?$CL?5Debug?5Libra@ 101a7444     LIBCMTD:dbgrpt.obj
 0002:00029468       ??_C@_0FF@CCONDJCB@Debug?5?$CFs?$CB?6?6Program?3?5?$CFs?$CFs?$CFs?$CFs?$CFs?$CFs@ 101a7468     LIBCMTD:dbgrpt.obj
 0002:000294c0       ??_C@_09OFBFHMBK@?6Module?3?5?$AA@ 101a74c0     LIBCMTD:dbgrpt.obj
 0002:000294cc       ??_C@_07OPHPPLBG@?6File?3?5?$AA@ 101a74cc     LIBCMTD:dbgrpt.obj
 0002:000294d4       ??_C@_07DBMPPHDI@?6Line?3?5?$AA@ 101a74d4     LIBCMTD:dbgrpt.obj
 0002:000294dc       ??_C@_0N@MEECIJGN@Expression?3?5?$AA@ 101a74dc     LIBCMTD:dbgrpt.obj
 0002:000294f0       ??_C@_0HD@GNBNFCCL@?6?6For?5information?5on?5how?5your?5pr@ 101a74f0     LIBCMTD:dbgrpt.obj
 0002:00029568       ??_C@_1GG@DLDHOIGE@?$AAs?$AAt?$AAr?$AAc?$AAp?$AAy?$AA_?$AAs?$AA?$CI?$AAs?$AAz?$AAE?$AAx?$AAe?$AAN?$AAa?$AAm?$AAe?$AA?0?$AA?5?$AA2?$AA6?$AA0?$AA?0?$AA?5?$AA?$CC?$AA?$DM?$AAp?$AAr?$AAo?$AAg?$AAr@ 101a7568     LIBCMTD:dbgrpt.obj
 0002:000295d0       ??_C@_1CI@IDOKFLAJ@?$AA_?$AA_?$AAc?$AAr?$AAt?$AAM?$AAe?$AAs?$AAs?$AAa?$AAg?$AAe?$AAW?$AAi?$AAn?$AAd?$AAo?$AAw?$AAA?$AA?$AA@ 101a75d0     LIBCMTD:dbgrpt.obj
 0002:000295f8       ??_C@_1BK@JMCGJOCC@?$AA_?$AAe?$AAx?$AAp?$AAa?$AAn?$AAd?$AA_?$AAb?$AAa?$AAs?$AAe?$AA?$AA@ 101a75f8     LIBCMTD:expand.obj
 0002:00029618       ??_C@_1GA@EBHFLDNH@?$AAf?$AA?3?$AA?2?$AAd?$AAd?$AA?2?$AAv?$AAc?$AAt?$AAo?$AAo?$AAl?$AAs?$AA?2?$AAc?$AAr?$AAt?$AA_?$AAb?$AAl?$AAd?$AA?2?$AAs?$AAe?$AAl?$AAf?$AA_?$AAx?$AA8?$AA6?$AA?2?$AAc@ 101a7618     LIBCMTD:expand.obj
 0002:00029678       ??_C@_1BO@KFIJIAEA@?$AAp?$AAB?$AAl?$AAo?$AAc?$AAk?$AA?5?$AA?$CB?$AA?$DN?$AA?5?$AAN?$AAU?$AAL?$AAL?$AA?$AA@ 101a7678     LIBCMTD:expand.obj
 0002:00029698       ??_C@_0BF@PEEJCKGM@HeapQueryInformation?$AA@ 101a7698     LIBCMTD:expand.obj
 0002:000296b0       ??_C@_1BK@MGMFAEKH@?$AAk?$AAe?$AAr?$AAn?$AAe?$AAl?$AA3?$AA2?$AA?4?$AAd?$AAl?$AAl?$AA?$AA@ 101a76b0     LIBCMTD:expand.obj
 0002:000296d0       ??_C@_1GA@CMCJKKIB@?$AAf?$AA?3?$AA?2?$AAd?$AAd?$AA?2?$AAv?$AAc?$AAt?$AAo?$AAo?$AAl?$AAs?$AA?2?$AAc?$AAr?$AAt?$AA_?$AAb?$AAl?$AAd?$AA?2?$AAs?$AAe?$AAl?$AAf?$AA_?$AAx?$AA8?$AA6?$AA?2?$AAc@ 101a76d0     LIBCMTD:sbheap.obj
 0002:00029730       ??_C@_1IC@MOGBEBCE@?$AA?$CI?$AAt?$AAh?$AAr?$AAe?$AAs?$AAh?$AAo?$AAl?$AAd?$AA?5?$AA?$DM?$AA?$DN?$AA?5?$AAM?$AAA?$AAX?$AA_?$AAA?$AAL?$AAL?$AAO?$AAC?$AA_?$AAD?$AAA?$AAT?$AAA?$AA_?$AAS?$AAI?$AAZ@ 101a7730     LIBCMTD:sbheap.obj
 0002:000297b4       ??_C@_1CG@BBFCGKBK@?$AA_?$AAs?$AAe?$AAt?$AA_?$AAs?$AAb?$AAh?$AA_?$AAt?$AAh?$AAr?$AAe?$AAs?$AAh?$AAo?$AAl?$AAd?$AA?$AA@ 101a77b4     LIBCMTD:sbheap.obj
 0002:000297e0       ??_C@_1EC@DACAONFE@?$AAt?$AAh?$AAr?$AAe?$AAs?$AAh?$AAo?$AAl?$AAd?$AA?5?$AA?$DM?$AA?$DN?$AA?5?$AAM?$AAA?$AAX?$AA_?$AAA?$AAL?$AAL?$AAO?$AAC?$AA_?$AAD?$AAA?$AAT?$AAA?$AA_?$AAS?$AAI?$AAZ?$AAE@ 101a77e0     LIBCMTD:sbheap.obj
 0002:00029824       ??_C@_1BM@GFNECEDD@?$AA_?$AAs?$AAe?$AAt?$AA_?$AAa?$AAm?$AAb?$AAl?$AAk?$AAs?$AAi?$AAz?$AA?$AA@ 101a7824     LIBCMTD:sbheap.obj
 0002:00029840       ??_C@_1DK@BKLENMLC@?$AA0?$AA?5?$AA?$DM?$AA?5?$AAs?$AAi?$AAz?$AAe?$AA?5?$AA?$CG?$AA?$CG?$AA?5?$AAs?$AAi?$AAz?$AAe?$AA?5?$AA?$DM?$AA?$DN?$AA?5?$AAU?$AAI?$AAN?$AAT?$AA_?$AAM?$AAA?$AAX?$AA?$AA@ 101a7840     LIBCMTD:sbheap.obj
 0002:0002987c       ??_C@_1BM@OFBCOJJF@?$AA_?$AAg?$AAe?$AAt?$AA_?$AAa?$AAm?$AAb?$AAl?$AAk?$AAs?$AAi?$AAz?$AA?$AA@ 101a787c     LIBCMTD:sbheap.obj
 0002:00029898       ??_C@_1BM@IELHFPPM@?$AAp?$AAS?$AAi?$AAz?$AAe?$AA?5?$AA?$CB?$AA?$DN?$AA?5?$AAN?$AAU?$AAL?$AAL?$AA?$AA@ 101a7898     LIBCMTD:sbheap.obj
 0002:000298b8       ??_C@_1GC@CHGJNMHG@?$AAf?$AA?3?$AA?2?$AAd?$AAd?$AA?2?$AAv?$AAc?$AAt?$AAo?$AAo?$AAl?$AAs?$AA?2?$AAc?$AAr?$AAt?$AA_?$AAb?$AAl?$AAd?$AA?2?$AAs?$AAe?$AAl?$AAf?$AA_?$AAx?$AA8?$AA6?$AA?2?$AAc@ 101a78b8     LIBCMTD:isctype.obj
 0002:0002991c       ??_C@_1DC@BPLPALML@?$AA?$CI?$AAu?$AAn?$AAs?$AAi?$AAg?$AAn?$AAe?$AAd?$AA?$CJ?$AA?$CI?$AAc?$AA?5?$AA?$CL?$AA?5?$AA1?$AA?$CJ?$AA?5?$AA?$DM?$AA?$DN?$AA?5?$AA2?$AA5?$AA6?$AA?$AA@ 101a791c     LIBCMTD:isctype.obj
 0002:00029950       ??_C@_1CG@JEHFHLNG@?$AA_?$AAm?$AAb?$AAs?$AAt?$AAo?$AAw?$AAc?$AAs?$AA_?$AAl?$AA_?$AAh?$AAe?$AAl?$AAp?$AAe?$AAr?$AA?$AA@ 101a7950     LIBCMTD:mbstowcs.obj
 0002:00029978       ??_C@_1GE@LCCDHBMH@?$AAf?$AA?3?$AA?2?$AAd?$AAd?$AA?2?$AAv?$AAc?$AAt?$AAo?$AAo?$AAl?$AAs?$AA?2?$AAc?$AAr?$AAt?$AA_?$AAb?$AAl?$AAd?$AA?2?$AAs?$AAe?$AAl?$AAf?$AA_?$AAx?$AA8?$AA6?$AA?2?$AAc@ 101a7978     LIBCMTD:mbstowcs.obj
 0002:000299dc       ??_C@_1BE@EEKACIGI@?$AAs?$AA?5?$AA?$CB?$AA?$DN?$AA?5?$AAN?$AAU?$AAL?$AAL?$AA?$AA@ 101a79dc     LIBCMTD:mbstowcs.obj
 0002:000299f0       ??_C@_1CO@JNPEPJAL@?$AAr?$AAe?$AAt?$AAs?$AAi?$AAz?$AAe?$AA?5?$AA?$DM?$AA?$DN?$AA?5?$AAs?$AAi?$AAz?$AAe?$AAI?$AAn?$AAW?$AAo?$AAr?$AAd?$AAs?$AA?$AA@ 101a79f0     LIBCMTD:mbstowcs.obj
 0002:00029a20       ??_C@_1CM@LLECFMFH@?$AAb?$AAu?$AAf?$AAf?$AAe?$AAr?$AAS?$AAi?$AAz?$AAe?$AA?5?$AA?$DM?$AA?$DN?$AA?5?$AAI?$AAN?$AAT?$AA_?$AAM?$AAA?$AAX?$AA?$AA@ 101a7a20     LIBCMTD:mbstowcs.obj
 0002:00029a4c       ??_C@_1BM@PHENIGHD@?$AA_?$AAm?$AAb?$AAs?$AAt?$AAo?$AAw?$AAc?$AAs?$AA_?$AAs?$AA_?$AAl?$AA?$AA@ 101a7a4c     LIBCMTD:mbstowcs.obj
 0002:00029a68       ??_C@_1JA@JKDFMOPO@?$AA?$CI?$AAp?$AAw?$AAc?$AAs?$AA?5?$AA?$DN?$AA?$DN?$AA?5?$AAN?$AAU?$AAL?$AAL?$AA?5?$AA?$CG?$AA?$CG?$AA?5?$AAs?$AAi?$AAz?$AAe?$AAI?$AAn?$AAW?$AAo?$AAr?$AAd?$AAs?$AA?5?$AA?$DN?$AA?$DN?$AA?5@ 101a7a68     LIBCMTD:mbstowcs.obj
 0002:00029af8       ??_C@_1FA@MJKDNFFB@?$AA?$CI?$AAL?$AA?$CC?$AAS?$AAt?$AAr?$AAi?$AAn?$AAg?$AA?5?$AAi?$AAs?$AA?5?$AAn?$AAo?$AAt?$AA?5?$AAn?$AAu?$AAl?$AAl?$AA?5?$AAt?$AAe?$AAr?$AAm?$AAi?$AAn?$AAa?$AAt?$AAe?$AAd@ 101a7af8     LIBCMTD:strcat_s.obj
 0002:00029b48       ??_C@_1DM@FHLMIEG@?$AAS?$AAt?$AAr?$AAi?$AAn?$AAg?$AA?5?$AAi?$AAs?$AA?5?$AAn?$AAo?$AAt?$AA?5?$AAn?$AAu?$AAl?$AAl?$AA?5?$AAt?$AAe?$AAr?$AAm?$AAi?$AAn?$AAa?$AAt?$AAe?$AAd?$AA?$AA@ 101a7b48     LIBCMTD:strcat_s.obj
 0002:00029b84       ??_C@_1BC@HGPNAKGC@?$AAs?$AAt?$AAr?$AAc?$AAa?$AAt?$AA_?$AAs?$AA?$AA@ 101a7b84     LIBCMTD:strcat_s.obj
 0002:00029b98       ??_C@_1GI@NOKGIAGA@?$AAf?$AA?3?$AA?2?$AAd?$AAd?$AA?2?$AAv?$AAc?$AAt?$AAo?$AAo?$AAl?$AAs?$AA?2?$AAc?$AAr?$AAt?$AA_?$AAb?$AAl?$AAd?$AA?2?$AAs?$AAe?$AAl?$AAf?$AA_?$AAx?$AA8?$AA6?$AA?2?$AAc@ 101a7b98     LIBCMTD:strcat_s.obj
 0002:00029c00       ??_C@_1CM@HABGDNLJ@?$AAl?$AAe?$AAn?$AAg?$AAt?$AAh?$AA?5?$AA?$DM?$AA?5?$AAs?$AAi?$AAz?$AAe?$AAI?$AAn?$AAT?$AAC?$AAh?$AAa?$AAr?$AAs?$AA?$AA@ 101a7c00     LIBCMTD:xtoas.obj
 0002:00029c2c       ??_C@_1DE@PCJGDBBD@?$AA2?$AA?5?$AA?$DM?$AA?$DN?$AA?5?$AAr?$AAa?$AAd?$AAi?$AAx?$AA?5?$AA?$CG?$AA?$CG?$AA?5?$AAr?$AAa?$AAd?$AAi?$AAx?$AA?5?$AA?$DM?$AA?$DN?$AA?5?$AA3?$AA6?$AA?$AA@ 101a7c2c     LIBCMTD:xtoas.obj
 0002:00029c60       ??_C@_1FA@MKGGAGEI@?$AAs?$AAi?$AAz?$AAe?$AAI?$AAn?$AAT?$AAC?$AAh?$AAa?$AAr?$AAs?$AA?5?$AA?$DO?$AA?5?$AA?$CI?$AAs?$AAi?$AAz?$AAe?$AA_?$AAt?$AA?$CJ?$AA?$CI?$AAi?$AAs?$AA_?$AAn?$AAe?$AAg?$AA?5?$AA?$DP@ 101a7c60     LIBCMTD:xtoas.obj
 0002:00029cb0       ??_C@_1CC@JNJFIMGE@?$AAs?$AAi?$AAz?$AAe?$AAI?$AAn?$AAT?$AAC?$AAh?$AAa?$AAr?$AAs?$AA?5?$AA?$DO?$AA?5?$AA0?$AA?$AA@ 101a7cb0     LIBCMTD:xtoas.obj
 0002:00029cd4       ??_C@_1O@GIMBNLEI@?$AAx?$AAt?$AAo?$AAa?$AA_?$AAs?$AA?$AA@ 101a7cd4     LIBCMTD:xtoas.obj
 0002:00029ce8       ??_C@_1FM@MFCBFCGB@?$AAf?$AA?3?$AA?2?$AAd?$AAd?$AA?2?$AAv?$AAc?$AAt?$AAo?$AAo?$AAl?$AAs?$AA?2?$AAc?$AAr?$AAt?$AA_?$AAb?$AAl?$AAd?$AA?2?$AAs?$AAe?$AAl?$AAf?$AA_?$AAx?$AA8?$AA6?$AA?2?$AAc@ 101a7ce8     LIBCMTD:xtoas.obj
 0002:00029d44       ??_C@_1BC@MJJNBNFN@?$AAx?$AA6?$AA4?$AAt?$AAo?$AAa?$AA_?$AAs?$AA?$AA@ 101a7d44     LIBCMTD:xtoas.obj
 0002:00029d58       ??_C@_1CG@LLJCAOHF@?$AA_?$AAw?$AAc?$AAs?$AAt?$AAo?$AAm?$AAb?$AAs?$AA_?$AAl?$AA_?$AAh?$AAe?$AAl?$AAp?$AAe?$AAr?$AA?$AA@ 101a7d58     LIBCMTD:wcstombs.obj
 0002:00029d80       ??_C@_1GE@OAENIBOD@?$AAf?$AA?3?$AA?2?$AAd?$AAd?$AA?2?$AAv?$AAc?$AAt?$AAo?$AAo?$AAl?$AAs?$AA?2?$AAc?$AAr?$AAt?$AA_?$AAb?$AAl?$AAd?$AA?2?$AAs?$AAe?$AAl?$AAf?$AA_?$AAx?$AA8?$AA6?$AA?2?$AAc@ 101a7d80     LIBCMTD:wcstombs.obj
 0002:00029de4       ??_C@_1BK@OIBENBPM@?$AAp?$AAw?$AAc?$AAs?$AA?5?$AA?$CB?$AA?$DN?$AA?5?$AAN?$AAU?$AAL?$AAL?$AA?$AA@ 101a7de4     LIBCMTD:wcstombs.obj
 0002:00029e00       ??_C@_1CM@KEOGBFLI@?$AAs?$AAi?$AAz?$AAe?$AAI?$AAn?$AAB?$AAy?$AAt?$AAe?$AAs?$AA?5?$AA?$DO?$AA?5?$AAr?$AAe?$AAt?$AAs?$AAi?$AAz?$AAe?$AA?$AA@ 101a7e00     LIBCMTD:wcstombs.obj
 0002:00029e2c       ??_C@_1BM@BDMCLLDL@?$AA_?$AAw?$AAc?$AAs?$AAt?$AAo?$AAm?$AAb?$AAs?$AA_?$AAs?$AA_?$AAl?$AA?$AA@ 101a7e2c     LIBCMTD:wcstombs.obj
 0002:00029e48       ??_C@_1IM@MFGKHGBP@?$AA?$CI?$AAd?$AAs?$AAt?$AA?5?$AA?$CB?$AA?$DN?$AA?5?$AAN?$AAU?$AAL?$AAL?$AA?5?$AA?$CG?$AA?$CG?$AA?5?$AAs?$AAi?$AAz?$AAe?$AAI?$AAn?$AAB?$AAy?$AAt?$AAe?$AAs?$AA?5?$AA?$DO?$AA?5?$AA0?$AA?$CJ@ 101a7e48     LIBCMTD:wcstombs.obj
 0002:00029ed4       ??_C@_1BC@PLIEPKPJ@?$AAw?$AAc?$AAs?$AAc?$AAa?$AAt?$AA_?$AAs?$AA?$AA@ 101a7ed4     LIBCMTD:wcscat_s.obj
 0002:00029ee8       ??_C@_1CE@IGKFIJFD@?$AA_?$AAv?$AAs?$AAw?$AAp?$AAr?$AAi?$AAn?$AAt?$AAf?$AA_?$AAh?$AAe?$AAl?$AAp?$AAe?$AAr?$AA?$AA@ 101a7ee8     LIBCMTD:vswprnc.obj
 0002:00029f10       ??_C@_1GE@KINELFI@?$AAf?$AA?3?$AA?2?$AAd?$AAd?$AA?2?$AAv?$AAc?$AAt?$AAo?$AAo?$AAl?$AAs?$AA?2?$AAc?$AAr?$AAt?$AA_?$AAb?$AAl?$AAd?$AA?2?$AAs?$AAe?$AAl?$AAf?$AA_?$AAx?$AA8?$AA6?$AA?2?$AAc@ 101a7f10     LIBCMTD:vswprnc.obj
 0002:00029f78       ??_C@_1EE@MPCHJFGP@?$AAs?$AAt?$AAr?$AAi?$AAn?$AAg?$AA?5?$AA?$CB?$AA?$DN?$AA?5?$AAN?$AAU?$AAL?$AAL?$AA?5?$AA?$CG?$AA?$CG?$AA?5?$AAs?$AAi?$AAz?$AAe?$AAI?$AAn?$AAW?$AAo?$AAr?$AAd?$AAs?$AA?5?$AA?$DO?$AA?5@ 101a7f78     LIBCMTD:vswprnc.obj
 0002:00029fbc       ??_C@_1BO@OALHJLCI@?$AA_?$AAv?$AAs?$AAw?$AAp?$AAr?$AAi?$AAn?$AAt?$AAf?$AA_?$AAs?$AA_?$AAl?$AA?$AA@ 101a7fbc     LIBCMTD:vswprnc.obj
 0002:00029fdc       ??_C@_1CA@BKFKMJFF@?$AA_?$AAv?$AAs?$AAn?$AAw?$AAp?$AAr?$AAi?$AAn?$AAt?$AAf?$AA_?$AAs?$AA_?$AAl?$AA?$AA@ 101a7fdc     LIBCMTD:vswprnc.obj
 0002:00029ffc       ??_C@_1O@NCBFODOE@?$AAx?$AAt?$AAo?$AAw?$AA_?$AAs?$AA?$AA@ 101a7ffc     LIBCMTD:xtows.obj
 0002:0002a00c       ??_C@_1BC@HDEJCFPB@?$AAx?$AA6?$AA4?$AAt?$AAo?$AAw?$AA_?$AAs?$AA?$AA@ 101a800c     LIBCMTD:xtows.obj
 0002:0002a020       ??_C@_0BC@JEAENNKH@SystemFunction036?$AA@ 101a8020     LIBCMTD:rand_s.obj
 0002:0002a038       ??_C@_1GA@EBEDGGGB@?$AA?$CI?$AA?$CC?$AAr?$AAa?$AAn?$AAd?$AA_?$AAs?$AA?5?$AAi?$AAs?$AA?5?$AAn?$AAo?$AAt?$AA?5?$AAa?$AAv?$AAa?$AAi?$AAl?$AAa?$AAb?$AAl?$AAe?$AA?5?$AAo?$AAn?$AA?5?$AAt?$AAh?$AAi@ 101a8038     LIBCMTD:rand_s.obj
 0002:0002a098       ??_C@_0N@JJPEKNFO@ADVAPI32?4DLL?$AA@ 101a8098     LIBCMTD:rand_s.obj
 0002:0002a0a8       ??_C@_1O@IJGPPOGF@?$AAr?$AAa?$AAn?$AAd?$AA_?$AAs?$AA?$AA@ 101a80a8     LIBCMTD:rand_s.obj
 0002:0002a0b8       ??_C@_1GA@HBGBBKCD@?$AAf?$AA?3?$AA?2?$AAd?$AAd?$AA?2?$AAv?$AAc?$AAt?$AAo?$AAo?$AAl?$AAs?$AA?2?$AAc?$AAr?$AAt?$AA_?$AAb?$AAl?$AAd?$AA?2?$AAs?$AAe?$AAl?$AAf?$AA_?$AAx?$AA8?$AA6?$AA?2?$AAc@ 101a80b8     LIBCMTD:rand_s.obj
 0002:0002a118       ??_C@_1CK@GFDNDKK@?$AA_?$AAR?$AAa?$AAn?$AAd?$AAo?$AAm?$AAV?$AAa?$AAl?$AAu?$AAe?$AA?5?$AA?$CB?$AA?$DN?$AA?5?$AAN?$AAU?$AAL?$AAL?$AA?$AA@ 101a8118     LIBCMTD:rand_s.obj
 0002:0002a144       ??_C@_1BG@BBCDFOMA@?$AA_?$AAw?$AAo?$AAu?$AAt?$AAp?$AAu?$AAt?$AA_?$AAl?$AA?$AA@ 101a8144     LIBCMTD:woutput.obj
 0002:0002a15c       ??_C@_1BK@EPLNBKAK@?$AA_?$AAv?$AAs?$AAw?$AAp?$AAr?$AAi?$AAn?$AAt?$AAf?$AA_?$AAl?$AA?$AA@ 101a815c     LIBCMTD:vswprint.obj
 0002:0002a178       ??_C@_1CG@IMMIEPNA@?$AA_?$AAv?$AAs?$AAc?$AAw?$AAp?$AAr?$AAi?$AAn?$AAt?$AAf?$AA_?$AAh?$AAe?$AAl?$AAp?$AAe?$AAr?$AA?$AA@ 101a8178     LIBCMTD:vswprint.obj
 0002:0002a1a8       ??_C@_1JE@ECKHFIFP@?$AA?$CI?$AA?$CC?$AAI?$AAn?$AAv?$AAa?$AAl?$AAi?$AAd?$AA?5?$AAf?$AAi?$AAl?$AAe?$AA?5?$AAd?$AAe?$AAs?$AAc?$AAr?$AAi?$AAp?$AAt?$AAo?$AAr?$AA?4?$AA?5?$AAF?$AAi?$AAl?$AAe?$AA?5@ 101a81a8     LIBCMTD:lseeki64.obj
 0002:0002a23c       ??_C@_1CM@OKGMMMDH@?$AA?$CI?$AA_?$AAo?$AAs?$AAf?$AAi?$AAl?$AAe?$AA?$CI?$AAf?$AAh?$AA?$CJ?$AA?5?$AA?$CG?$AA?5?$AAF?$AAO?$AAP?$AAE?$AAN?$AA?$CJ?$AA?$AA@ 101a823c     LIBCMTD:lseeki64.obj
 0002:0002a268       ??_C@_1BE@KHFBJMNM@?$AA_?$AAl?$AAs?$AAe?$AAe?$AAk?$AAi?$AA6?$AA4?$AA?$AA@ 101a8268     LIBCMTD:lseeki64.obj
 0002:0002a280       ??_C@_1GE@MINKPNPH@?$AAf?$AA?3?$AA?2?$AAd?$AAd?$AA?2?$AAv?$AAc?$AAt?$AAo?$AAo?$AAl?$AAs?$AA?2?$AAc?$AAr?$AAt?$AA_?$AAb?$AAl?$AAd?$AA?2?$AAs?$AAe?$AAl?$AAf?$AA_?$AAx?$AA8?$AA6?$AA?2?$AAc@ 101a8280     LIBCMTD:lseeki64.obj
 0002:0002a2e8       ??_C@_1FO@LPCLHKGE@?$AA?$CI?$AAf?$AAh?$AA?5?$AA?$DO?$AA?$DN?$AA?5?$AA0?$AA?5?$AA?$CG?$AA?$CG?$AA?5?$AA?$CI?$AAu?$AAn?$AAs?$AAi?$AAg?$AAn?$AAe?$AAd?$AA?$CJ?$AAf?$AAh?$AA?5?$AA?$DM?$AA?5?$AA?$CI?$AAu?$AAn?$AAs?$AAi@ 101a82e8     LIBCMTD:lseeki64.obj
 0002:0002a348       ??_C@_1O@KOFKDHPL@?$AA_?$AAw?$AAr?$AAi?$AAt?$AAe?$AA?$AA@ 101a8348     LIBCMTD:write.obj
 0002:0002a358       ??_C@_1FO@EPLDPDDL@?$AAf?$AA?3?$AA?2?$AAd?$AAd?$AA?2?$AAv?$AAc?$AAt?$AAo?$AAo?$AAl?$AAs?$AA?2?$AAc?$AAr?$AAt?$AA_?$AAb?$AAl?$AAd?$AA?2?$AAs?$AAe?$AAl?$AAf?$AA_?$AAx?$AA8?$AA6?$AA?2?$AAc@ 101a8358     LIBCMTD:write.obj
 0002:0002a3b8       ??_C@_1DI@CNMHHHLG@?$AAi?$AAs?$AAl?$AAe?$AAa?$AAd?$AAb?$AAy?$AAt?$AAe?$AA?$CI?$AA_?$AAd?$AAb?$AAc?$AAs?$AAB?$AAu?$AAf?$AAf?$AAe?$AAr?$AA?$CI?$AAf?$AAh?$AA?$CJ?$AA?$CJ?$AA?$AA@ 101a83b8     LIBCMTD:write.obj
 0002:0002a3f0       ??_C@_1CC@EEOLPHGO@?$AA?$CI?$AA?$CI?$AAc?$AAn?$AAt?$AA?5?$AA?$CG?$AA?5?$AA1?$AA?$CJ?$AA?5?$AA?$DN?$AA?$DN?$AA?5?$AA0?$AA?$CJ?$AA?$AA@ 101a83f0     LIBCMTD:write.obj
 0002:0002a414       ??_C@_1BM@NCANHCIP@?$AA_?$AAw?$AAr?$AAi?$AAt?$AAe?$AA_?$AAn?$AAo?$AAl?$AAo?$AAc?$AAk?$AA?$AA@ 101a8414     LIBCMTD:write.obj
 0002:0002a430       ??_C@_1BM@KFJLMBPG@?$AA?$CI?$AAb?$AAu?$AAf?$AA?5?$AA?$CB?$AA?$DN?$AA?5?$AAN?$AAU?$AAL?$AAL?$AA?$CJ?$AA?$AA@ 101a8430     LIBCMTD:write.obj
 0002:0002a44c       ??_C@_0DB@JEHOCBEJ@f?3?2dd?2vctools?2crt_bld?2self_x86?2c@ 101a844c     LIBCMTD:_getbuf.obj
 0002:0002a480       ??_C@_1GC@DKMGNNCC@?$AAf?$AA?3?$AA?2?$AAd?$AAd?$AA?2?$AAv?$AAc?$AAt?$AAo?$AAo?$AAl?$AAs?$AA?2?$AAc?$AAr?$AAt?$AA_?$AAb?$AAl?$AAd?$AA?2?$AAs?$AAe?$AAl?$AAf?$AA_?$AAx?$AA8?$AA6?$AA?2?$AAc@ 101a8480     LIBCMTD:_getbuf.obj
 0002:0002a4e4       ??_C@_1BA@LEBDGIHM@?$AA_?$AAi?$AAs?$AAa?$AAt?$AAt?$AAy?$AA?$AA@ 101a84e4     LIBCMTD:isatty.obj
 0002:0002a4f8       ??_C@_1GA@LPGDJDEN@?$AAf?$AA?3?$AA?2?$AAd?$AAd?$AA?2?$AAv?$AAc?$AAt?$AAo?$AAo?$AAl?$AAs?$AA?2?$AAc?$AAr?$AAt?$AA_?$AAb?$AAl?$AAd?$AA?2?$AAs?$AAe?$AAl?$AAf?$AA_?$AAx?$AA8?$AA6?$AA?2?$AAc@ 101a84f8     LIBCMTD:isatty.obj
 0002:0002a558       ??_C@_0CP@BNKDODJJ@f?3?2dd?2vctools?2crt_bld?2self_x86?2c@ 101a8558     LIBCMTD:_file.obj
 0002:0002a588       ??_C@_1BA@JGHIEKKM@?$AA_?$AAf?$AAi?$AAl?$AAe?$AAn?$AAo?$AA?$AA@ 101a8588     LIBCMTD:fileno.obj
 0002:0002a598       ??_C@_1GA@PBJHELNC@?$AAf?$AA?3?$AA?2?$AAd?$AAd?$AA?2?$AAv?$AAc?$AAt?$AAo?$AAo?$AAl?$AAs?$AA?2?$AAc?$AAr?$AAt?$AA_?$AAb?$AAl?$AAd?$AA?2?$AAs?$AAe?$AAl?$AAf?$AA_?$AAx?$AA8?$AA6?$AA?2?$AAc@ 101a8598     LIBCMTD:fileno.obj
 0002:0002a5f8       ??_C@_1O@GKDHFACN@?$AAp?$AAr?$AAi?$AAn?$AAt?$AAf?$AA?$AA@ 101a85f8     LIBCMTD:printf.obj
 0002:0002a608       ??_C@_1GA@LHEGHOAF@?$AAf?$AA?3?$AA?2?$AAd?$AAd?$AA?2?$AAv?$AAc?$AAt?$AAo?$AAo?$AAl?$AAs?$AA?2?$AAc?$AAr?$AAt?$AA_?$AAb?$AAl?$AAd?$AA?2?$AAs?$AAe?$AAl?$AAf?$AA_?$AAx?$AA8?$AA6?$AA?2?$AAc@ 101a8608     LIBCMTD:printf.obj
 0002:0002a668       ??_C@_1BI@IEADNOHF@?$AA_?$AAw?$AAc?$AAt?$AAo?$AAm?$AAb?$AA_?$AAs?$AA_?$AAl?$AA?$AA@ 101a8668     LIBCMTD:wctomb.obj
 0002:0002a680       ??_C@_1GA@LDLHPOO@?$AAf?$AA?3?$AA?2?$AAd?$AAd?$AA?2?$AAv?$AAc?$AAt?$AAo?$AAo?$AAl?$AAs?$AA?2?$AAc?$AAr?$AAt?$AA_?$AAb?$AAl?$AAd?$AA?2?$AAs?$AAe?$AAl?$AAf?$AA_?$AAx?$AA8?$AA6?$AA?2?$AAc@ 101a8680     LIBCMTD:wctomb.obj
 0002:0002a6e0       ??_C@_1CO@HFMIILNF@?$AAs?$AAi?$AAz?$AAe?$AAI?$AAn?$AAB?$AAy?$AAt?$AAe?$AAs?$AA?5?$AA?$DM?$AA?$DN?$AA?5?$AAI?$AAN?$AAT?$AA_?$AAM?$AAA?$AAX?$AA?$AA@ 101a86e0     LIBCMTD:wctomb.obj
 0002:0002a710       ___lookuptable_s           101a8710     LIBCMTD:outputs.obj
 0002:0002a76c       ??_C@_1BI@COFBLHCG@?$AA_?$AAo?$AAu?$AAt?$AAp?$AAu?$AAt?$AA_?$AAs?$AA_?$AAl?$AA?$AA@ 101a876c     LIBCMTD:outputs.obj
 0002:0002a784       ??_C@_1CA@LFDHAMEM@?$AA_?$AAs?$AAe?$AAt?$AA_?$AAe?$AAr?$AAr?$AAo?$AAr?$AA_?$AAm?$AAo?$AAd?$AAe?$AA?$AA@ 101a8784     LIBCMTD:errmode.obj
 0002:0002a7a8       ??_C@_1GC@FGMGFCNB@?$AAf?$AA?3?$AA?2?$AAd?$AAd?$AA?2?$AAv?$AAc?$AAt?$AAo?$AAo?$AAl?$AAs?$AA?2?$AAc?$AAr?$AAt?$AA_?$AAb?$AAl?$AAd?$AA?2?$AAs?$AAe?$AAl?$AAf?$AA_?$AAx?$AA8?$AA6?$AA?2?$AAc@ 101a87a8     LIBCMTD:errmode.obj
 0002:0002a80c       ??_C@_1DE@BCNCAIK@?$AA?$CI?$AA?$CC?$AAI?$AAn?$AAv?$AAa?$AAl?$AAi?$AAd?$AA?5?$AAe?$AAr?$AAr?$AAo?$AAr?$AA_?$AAm?$AAo?$AAd?$AAe?$AA?$CC?$AA?0?$AA?5?$AA0?$AA?$CJ?$AA?$AA@ 101a880c     LIBCMTD:errmode.obj
 0002:0002a840       ??_C@_0BK@CIDNPOGP@GetUserObjectInformationA?$AA@ 101a8840     LIBCMTD:crtmbox.obj
 0002:0002a85c       ??_C@_0M@CHKKJDAI@MessageBoxA?$AA@ 101a885c     LIBCMTD:crtmbox.obj
 0002:0002a868       ??_C@_0L@NDEGIDAG@USER32?4DLL?$AA@ 101a8868     LIBCMTD:crtmbox.obj
 0002:0002a874       ??_C@_1BE@NDMJHJJG@?$AAs?$AAt?$AAr?$AAn?$AAc?$AAp?$AAy?$AA_?$AAs?$AA?$AA@ 101a8874     LIBCMTD:strncpy_s.obj
 0002:0002a888       ??_C@_1GK@PAJJBKJF@?$AAf?$AA?3?$AA?2?$AAd?$AAd?$AA?2?$AAv?$AAc?$AAt?$AAo?$AAo?$AAl?$AAs?$AA?2?$AAc?$AAr?$AAt?$AA_?$AAb?$AAl?$AAd?$AA?2?$AAs?$AAe?$AAl?$AAf?$AA_?$AAx?$AA8?$AA6?$AA?2?$AAc@ 101a8888     LIBCMTD:strncpy_s.obj
 0002:0002a8f8       ??_C@_1GA@INJGGEBC@?$AAf?$AA?3?$AA?2?$AAd?$AAd?$AA?2?$AAv?$AAc?$AAt?$AAo?$AAo?$AAl?$AAs?$AA?2?$AAc?$AAr?$AAt?$AA_?$AAb?$AAl?$AAd?$AA?2?$AAs?$AAe?$AAl?$AAf?$AA_?$AAx?$AA8?$AA6?$AA?2?$AAc@ 101a88f8     LIBCMTD:a_loc.obj
 0002:0002a958       ??_C@_1FE@KNPCCODH@?$AA?$CI?$AA?$CC?$AAC?$AAo?$AAr?$AAr?$AAu?$AAp?$AAt?$AAe?$AAd?$AA?5?$AAp?$AAo?$AAi?$AAn?$AAt?$AAe?$AAr?$AA?5?$AAp?$AAa?$AAs?$AAs?$AAe?$AAd?$AA?5?$AAt?$AAo?$AA?5?$AA_?$AAf@ 101a8958     LIBCMTD:a_loc.obj
 0002:0002a9b0       ??_C@_1FE@CEHLKAHD@?$AAi?$AAb?$AAa?$AAs?$AAe?$AA?5?$AA?$DN?$AA?$DN?$AA?5?$AA0?$AA?5?$AA?$HM?$AA?$HM?$AA?5?$AA?$CI?$AA2?$AA?5?$AA?$DM?$AA?$DN?$AA?5?$AAi?$AAb?$AAa?$AAs?$AAe?$AA?5?$AA?$CG?$AA?$CG?$AA?5?$AAi?$AAb?$AAa@ 101a89b0     LIBCMTD:strtol.obj
 0002:0002aa04       ??_C@_1BA@LOLAMAJG@?$AAs?$AAt?$AAr?$AAt?$AAo?$AAx?$AAl?$AA?$AA@ 101a8a04     LIBCMTD:strtol.obj
 0002:0002aa18       ??_C@_1GA@IPHKKOEI@?$AAf?$AA?3?$AA?2?$AAd?$AAd?$AA?2?$AAv?$AAc?$AAt?$AAo?$AAo?$AAl?$AAs?$AA?2?$AAc?$AAr?$AAt?$AA_?$AAb?$AAl?$AAd?$AA?2?$AAs?$AAe?$AAl?$AAf?$AA_?$AAx?$AA8?$AA6?$AA?2?$AAc@ 101a8a18     LIBCMTD:strtol.obj
 0002:0002aa78       ??_C@_1BK@LAOAACLJ@?$AAn?$AAp?$AAt?$AAr?$AA?5?$AA?$CB?$AA?$DN?$AA?5?$AAN?$AAU?$AAL?$AAL?$AA?$AA@ 101a8a78     LIBCMTD:strtol.obj
 0002:0002aa94       ??_C@_13NOLLCAOD@?$AA?$AA?$AA?$AA@ 101a8a94     LIBCMTD:a_map.obj
 0002:0002aa98       ___newctype                101a8a98     LIBCMTD:ctype.obj
 0002:0002ad98       __wctype                   101a8d98     LIBCMTD:ctype.obj
 0002:0002afa0       ___newclmap                101a8fa0     LIBCMTD:ctype.obj
 0002:0002b120       ___newcumap                101a9120     LIBCMTD:ctype.obj
 0002:0002b2a0       ??_C@_1GE@GJCMHHMH@?$AAf?$AA?3?$AA?2?$AAd?$AAd?$AA?2?$AAv?$AAc?$AAt?$AAo?$AAo?$AAl?$AAs?$AA?2?$AAc?$AAr?$AAt?$AA_?$AAb?$AAl?$AAd?$AA?2?$AAs?$AAe?$AAl?$AAf?$AA_?$AAx?$AA8?$AA6?$AA?2?$AAc@ 101a92a0     LIBCMTD:inittime.obj
 0002:0002b308       ??_C@_1EE@FDHCFDHN@?$AAp?$AAl?$AAo?$AAc?$AAi?$AA?9?$AA?$DO?$AAl?$AAc?$AA_?$AAt?$AAi?$AAm?$AAe?$AA_?$AAc?$AAu?$AAr?$AAr?$AA?9?$AA?$DO?$AAr?$AAe?$AAf?$AAc?$AAo?$AAu?$AAn?$AAt?$AA?5?$AA?$DO?$AA?5@ 101a9308     LIBCMTD:inittime.obj
 0002:0002b34c       ??_C@_0DC@KICHHNFK@f?3?2dd?2vctools?2crt_bld?2self_x86?2c@ 101a934c     LIBCMTD:inittime.obj
 0002:0002b380       ??_C@_1GC@EDJOCBCL@?$AAf?$AA?3?$AA?2?$AAd?$AAd?$AA?2?$AAv?$AAc?$AAt?$AAo?$AAo?$AAl?$AAs?$AA?2?$AAc?$AAr?$AAt?$AA_?$AAb?$AAl?$AAd?$AA?2?$AAs?$AAe?$AAl?$AAf?$AA_?$AAx?$AA8?$AA6?$AA?2?$AAc@ 101a9380     LIBCMTD:initnum.obj
 0002:0002b3e4       ??_C@_1DM@IFKAINNE@?$AAp?$AAl?$AAo?$AAc?$AAi?$AA?9?$AA?$DO?$AAl?$AAc?$AAo?$AAn?$AAv?$AA_?$AAn?$AAu?$AAm?$AA_?$AAr?$AAe?$AAf?$AAc?$AAo?$AAu?$AAn?$AAt?$AA?5?$AA?$DO?$AA?5?$AA0?$AA?$AA@ 101a93e4     LIBCMTD:initnum.obj
 0002:0002b420       ??_C@_0DB@KKFMDHFI@f?3?2dd?2vctools?2crt_bld?2self_x86?2c@ 101a9420     LIBCMTD:initnum.obj
 0002:0002b458       ??_C@_1GC@IKADOFBJ@?$AAf?$AA?3?$AA?2?$AAd?$AAd?$AA?2?$AAv?$AAc?$AAt?$AAo?$AAo?$AAl?$AAs?$AA?2?$AAc?$AAr?$AAt?$AA_?$AAb?$AAl?$AAd?$AA?2?$AAs?$AAe?$AAl?$AAf?$AA_?$AAx?$AA8?$AA6?$AA?2?$AAc@ 101a9458     LIBCMTD:initmon.obj
 0002:0002b4bc       ??_C@_1DM@GKAPAMDO@?$AAp?$AAl?$AAo?$AAc?$AAi?$AA?9?$AA?$DO?$AAl?$AAc?$AAo?$AAn?$AAv?$AA_?$AAm?$AAo?$AAn?$AA_?$AAr?$AAe?$AAf?$AAc?$AAo?$AAu?$AAn?$AAt?$AA?5?$AA?$DO?$AA?5?$AA0?$AA?$AA@ 101a94bc     LIBCMTD:initmon.obj
 0002:0002b4f8       ??_C@_0DB@BECNGFDL@f?3?2dd?2vctools?2crt_bld?2self_x86?2c@ 101a94f8     LIBCMTD:initmon.obj
 0002:0002b52c       ??_C@_1DG@NMBGBDM@?$AAp?$AAl?$AAo?$AAc?$AAi?$AA?9?$AA?$DO?$AAc?$AAt?$AAy?$AAp?$AAe?$AA1?$AA_?$AAr?$AAe?$AAf?$AAc?$AAo?$AAu?$AAn?$AAt?$AA?5?$AA?$DO?$AA?5?$AA0?$AA?$AA@ 101a952c     LIBCMTD:initctyp.obj
 0002:0002b568       ??_C@_1GE@OCPKBDKE@?$AAf?$AA?3?$AA?2?$AAd?$AAd?$AA?2?$AAv?$AAc?$AAt?$AAo?$AAo?$AAl?$AAs?$AA?2?$AAc?$AAr?$AAt?$AA_?$AAb?$AAl?$AAd?$AA?2?$AAs?$AAe?$AAl?$AAf?$AA_?$AAx?$AA8?$AA6?$AA?2?$AAc@ 101a9568     LIBCMTD:initctyp.obj
 0002:0002b5cc       ??_C@_0DC@EHLBFILA@f?3?2dd?2vctools?2crt_bld?2self_x86?2c@ 101a95cc     LIBCMTD:initctyp.obj
 0002:0002b600       ??_C@_08JCCMCCIL@HH?3mm?3ss?$AA@ 101a9600     LIBCMTD:strftime.obj
 0002:0002b60c       ??_C@_0BE@CKGJFCPC@dddd?0?5MMMM?5dd?0?5yyyy?$AA@ 101a960c     LIBCMTD:strftime.obj
 0002:0002b620       ??_C@_08BPBNCDIB@MM?1dd?1yy?$AA@ 101a9620     LIBCMTD:strftime.obj
 0002:0002b62c       ??_C@_02CJNFDJBF@PM?$AA@   101a962c     LIBCMTD:strftime.obj
 0002:0002b630       ??_C@_02DEDBPAFC@AM?$AA@   101a9630     LIBCMTD:strftime.obj
 0002:0002b634       ??_C@_08EDHMEBNP@December?$AA@ 101a9634     LIBCMTD:strftime.obj
 0002:0002b640       ??_C@_08HCHEGEOA@November?$AA@ 101a9640     LIBCMTD:strftime.obj
 0002:0002b64c       ??_C@_07JJNFCEND@October?$AA@ 101a964c     LIBCMTD:strftime.obj
 0002:0002b654       ??_C@_09BHHEALKD@September?$AA@ 101a9654     LIBCMTD:strftime.obj
 0002:0002b660       ??_C@_06LBBHFDDG@August?$AA@ 101a9660     LIBCMTD:strftime.obj
 0002:0002b668       ??_C@_04MIEPOIFP@July?$AA@ 101a9668     LIBCMTD:strftime.obj
 0002:0002b670       ??_C@_04CNLMGBGM@June?$AA@ 101a9670     LIBCMTD:strftime.obj
 0002:0002b678       ??_C@_05DMJDNLEJ@April?$AA@ 101a9678     LIBCMTD:strftime.obj
 0002:0002b680       ??_C@_05HPCKOFNC@March?$AA@ 101a9680     LIBCMTD:strftime.obj
 0002:0002b688       ??_C@_08GNJGEPFN@February?$AA@ 101a9688     LIBCMTD:strftime.obj
 0002:0002b694       ??_C@_07CGJPFGJA@January?$AA@ 101a9694     LIBCMTD:strftime.obj
 0002:0002b69c       ??_C@_03MKABNOCG@Dec?$AA@  101a969c     LIBCMTD:strftime.obj
 0002:0002b6a0       ??_C@_03JPJOFNIA@Nov?$AA@  101a96a0     LIBCMTD:strftime.obj
 0002:0002b6a4       ??_C@_03BMAOKBAD@Oct?$AA@  101a96a4     LIBCMTD:strftime.obj
 0002:0002b6a8       ??_C@_03GGCAPAJC@Sep?$AA@  101a96a8     LIBCMTD:strftime.obj
 0002:0002b6ac       ??_C@_03IFJFEIGA@Aug?$AA@  101a96ac     LIBCMTD:strftime.obj
 0002:0002b6b0       ??_C@_03LBGABGKK@Jul?$AA@  101a96b0     LIBCMTD:strftime.obj
 0002:0002b6b4       ??_C@_03IDFGHECI@Jun?$AA@  101a96b4     LIBCMTD:strftime.obj
 0002:0002b6b8       ??_C@_03CNMDKL@May?$AA@    101a96b8     LIBCMTD:strftime.obj
 0002:0002b6bc       ??_C@_03LEOLGMJP@Apr?$AA@  101a96bc     LIBCMTD:strftime.obj
 0002:0002b6c0       ??_C@_03ODNJBKGA@Mar?$AA@  101a96c0     LIBCMTD:strftime.obj
 0002:0002b6c4       ??_C@_03HJBDCHOM@Feb?$AA@  101a96c4     LIBCMTD:strftime.obj
 0002:0002b6c8       ??_C@_03JIHJHPIE@Jan?$AA@  101a96c8     LIBCMTD:strftime.obj
 0002:0002b6cc       ??_C@_08INBOOONO@Saturday?$AA@ 101a96cc     LIBCMTD:strftime.obj
 0002:0002b6d8       ??_C@_06JECMNKMI@Friday?$AA@ 101a96d8     LIBCMTD:strftime.obj
 0002:0002b6e0       ??_C@_08HACCIKIA@Thursday?$AA@ 101a96e0     LIBCMTD:strftime.obj
 0002:0002b6ec       ??_C@_09DLIGFAKA@Wednesday?$AA@ 101a96ec     LIBCMTD:strftime.obj
 0002:0002b6f8       ??_C@_07BAAGCFCM@Tuesday?$AA@ 101a96f8     LIBCMTD:strftime.obj
 0002:0002b700       ??_C@_06JLEDEDGH@Monday?$AA@ 101a9700     LIBCMTD:strftime.obj
 0002:0002b708       ??_C@_06OOPIFAJ@Sunday?$AA@ 101a9708     LIBCMTD:strftime.obj
 0002:0002b710       ??_C@_03FEFJNEK@Sat?$AA@   101a9710     LIBCMTD:strftime.obj
 0002:0002b714       ??_C@_03IDIOELNC@Fri?$AA@  101a9714     LIBCMTD:strftime.obj
 0002:0002b718       ??_C@_03IOFIKPDN@Thu?$AA@  101a9718     LIBCMTD:strftime.obj
 0002:0002b71c       ??_C@_03MHOMLAJA@Wed?$AA@  101a971c     LIBCMTD:strftime.obj
 0002:0002b720       ??_C@_03NAGEINEP@Tue?$AA@  101a9720     LIBCMTD:strftime.obj
 0002:0002b724       ??_C@_03PDAGKDH@Mon?$AA@   101a9724     LIBCMTD:strftime.obj
 0002:0002b728       ??_C@_03KOEHGMDN@Sun?$AA@  101a9728     LIBCMTD:strftime.obj
 0002:0002b730       ??_C@_1FM@LPEPDBJF@?$AAs?$AAt?$AAr?$AAc?$AAp?$AAy?$AA_?$AAs?$AA?$CI?$AAs?$AA?0?$AA?5?$AA?$CI?$AAl?$AAe?$AAn?$AA?5?$AA?$CL?$AA?5?$AA1?$AA?$CJ?$AA?5?$AA?9?$AA?5?$AA?$CI?$AAs?$AA?5?$AA?9?$AA?5?$AAp?$AA?$CJ?$AA?0@ 101a9730     LIBCMTD:strftime.obj
 0002:0002b790       ??_C@_1GG@NAGHPCAA@?$AAs?$AAt?$AAr?$AAc?$AAp?$AAy?$AA_?$AAs?$AA?$CI?$AAs?$AA?0?$AA?5?$AA?$CI?$AAl?$AAe?$AAn?$AA?5?$AA?$CL?$AA?5?$AA1?$AA?$CJ?$AA?5?$AA?9?$AA?5?$AA?$CI?$AAs?$AA?5?$AA?9?$AA?5?$AAp?$AA?$CJ?$AA?0@ 101a9790     LIBCMTD:strftime.obj
 0002:0002b7f8       ??_C@_1BG@LGACIFJI@?$AA_?$AAG?$AAe?$AAt?$AAd?$AAa?$AAy?$AAs?$AA_?$AAl?$AA?$AA@ 101a97f8     LIBCMTD:strftime.obj
 0002:0002b810       ??_C@_1GE@FCOIONJG@?$AAf?$AA?3?$AA?2?$AAd?$AAd?$AA?2?$AAv?$AAc?$AAt?$AAo?$AAo?$AAl?$AAs?$AA?2?$AAc?$AAr?$AAt?$AA_?$AAb?$AAl?$AAd?$AA?2?$AAs?$AAe?$AAl?$AAf?$AA_?$AAx?$AA8?$AA6?$AA?2?$AAc@ 101a9810     LIBCMTD:strftime.obj
 0002:0002b874       ??_C@_0DC@MEPJBKMO@f?3?2dd?2vctools?2crt_bld?2self_x86?2c@ 101a9874     LIBCMTD:strftime.obj
 0002:0002b8a8       ??_C@_1FO@IFFKPIEL@?$AAs?$AAt?$AAr?$AAc?$AAp?$AAy?$AA_?$AAs?$AA?$CI?$AAs?$AA?0?$AA?5?$AA?$CI?$AAl?$AAe?$AAn?$AA?5?$AA?$CL?$AA?5?$AA1?$AA?$CJ?$AA?5?$AA?9?$AA?5?$AA?$CI?$AAs?$AA?5?$AA?9?$AA?5?$AAp?$AA?$CJ?$AA?0@ 101a98a8     LIBCMTD:strftime.obj
 0002:0002b908       ??_C@_1GI@LNJDDNLK@?$AAs?$AAt?$AAr?$AAc?$AAp?$AAy?$AA_?$AAs?$AA?$CI?$AAs?$AA?0?$AA?5?$AA?$CI?$AAl?$AAe?$AAn?$AA?5?$AA?$CL?$AA?5?$AA1?$AA?$CJ?$AA?5?$AA?9?$AA?5?$AA?$CI?$AAs?$AA?5?$AA?9?$AA?5?$AAp?$AA?$CJ?$AA?0@ 101a9908     LIBCMTD:strftime.obj
 0002:0002b970       ??_C@_1BK@IDMELNCB@?$AA_?$AAG?$AAe?$AAt?$AAm?$AAo?$AAn?$AAt?$AAh?$AAs?$AA_?$AAl?$AA?$AA@ 101a9970     LIBCMTD:strftime.obj
 0002:0002b990       ??_C@_1FG@CJBIADLJ@?$AAs?$AAt?$AAr?$AAc?$AAp?$AAy?$AA_?$AAs?$AA?$CI?$AAs?$AA?0?$AA?5?$AAl?$AAe?$AAn?$AA?5?$AA?9?$AA?5?$AA?$CI?$AAs?$AA?5?$AA?9?$AA?5?$AAp?$AA?$CJ?$AA?0?$AA?5?$AAp?$AAt?$AA?9?$AA?$DO?$AAw@ 101a9990     LIBCMTD:strftime.obj
 0002:0002b9e8       ??_C@_1FI@PPIHCJGH@?$AAs?$AAt?$AAr?$AAc?$AAp?$AAy?$AA_?$AAs?$AA?$CI?$AAs?$AA?0?$AA?5?$AAl?$AAe?$AAn?$AA?5?$AA?9?$AA?5?$AA?$CI?$AAs?$AA?5?$AA?9?$AA?5?$AAp?$AA?$CJ?$AA?0?$AA?5?$AAp?$AAt?$AA?9?$AA?$DO?$AAw@ 101a99e8     LIBCMTD:strftime.obj
 0002:0002ba40       ??_C@_1FI@GDNOPCGD@?$AAs?$AAt?$AAr?$AAc?$AAp?$AAy?$AA_?$AAs?$AA?$CI?$AAs?$AA?0?$AA?5?$AAl?$AAe?$AAn?$AA?5?$AA?9?$AA?5?$AA?$CI?$AAs?$AA?5?$AA?9?$AA?5?$AAp?$AA?$CJ?$AA?0?$AA?5?$AAp?$AAt?$AA?9?$AA?$DO?$AAw@ 101a9a40     LIBCMTD:strftime.obj
 0002:0002ba98       ??_C@_1FA@MEHIJEIL@?$AAs?$AAt?$AAr?$AAc?$AAp?$AAy?$AA_?$AAs?$AA?$CI?$AAs?$AA?0?$AA?5?$AAl?$AAe?$AAn?$AA?5?$AA?9?$AA?5?$AA?$CI?$AAs?$AA?5?$AA?9?$AA?5?$AAp?$AA?$CJ?$AA?0?$AA?5?$AAp?$AAt?$AA?9?$AA?$DO?$AAa@ 101a9a98     LIBCMTD:strftime.obj
 0002:0002bae8       ??_C@_1FA@INCJEBF@?$AAs?$AAt?$AAr?$AAc?$AAp?$AAy?$AA_?$AAs?$AA?$CI?$AAs?$AA?0?$AA?5?$AAl?$AAe?$AAn?$AA?5?$AA?9?$AA?5?$AA?$CI?$AAs?$AA?5?$AA?9?$AA?5?$AAp?$AA?$CJ?$AA?0?$AA?5?$AAp?$AAt?$AA?9?$AA?$DO?$AAa@ 101a9ae8     LIBCMTD:strftime.obj
 0002:0002bb38       ??_C@_1FC@BEAPAEGE@?$AAs?$AAt?$AAr?$AAc?$AAp?$AAy?$AA_?$AAs?$AA?$CI?$AAs?$AA?0?$AA?5?$AAl?$AAe?$AAn?$AA?5?$AA?9?$AA?5?$AA?$CI?$AAs?$AA?5?$AA?9?$AA?5?$AAp?$AA?$CJ?$AA?0?$AA?5?$AAp?$AAt?$AA?9?$AA?$DO?$AAm@ 101a9b38     LIBCMTD:strftime.obj
 0002:0002bb90       ??_C@_1FM@CHHONFED@?$AAs?$AAt?$AAr?$AAc?$AAp?$AAy?$AA_?$AAs?$AA?$CI?$AAs?$AA?0?$AA?5?$AAl?$AAe?$AAn?$AA?5?$AA?9?$AA?5?$AA?$CI?$AAs?$AA?5?$AA?9?$AA?5?$AAp?$AA?$CJ?$AA?0?$AA?5?$AAp?$AAt?$AA?9?$AA?$DO?$AAm@ 101a9b90     LIBCMTD:strftime.obj
 0002:0002bbf0       ??_C@_1FA@EBHJJADL@?$AAs?$AAt?$AAr?$AAc?$AAp?$AAy?$AA_?$AAs?$AA?$CI?$AAs?$AA?0?$AA?5?$AAl?$AAe?$AAn?$AA?5?$AA?9?$AA?5?$AA?$CI?$AAs?$AA?5?$AA?9?$AA?5?$AAp?$AA?$CJ?$AA?0?$AA?5?$AAp?$AAt?$AA?9?$AA?$DO?$AAw@ 101a9bf0     LIBCMTD:strftime.obj
 0002:0002bc40       ??_C@_1FK@ODMKEFLD@?$AAs?$AAt?$AAr?$AAc?$AAp?$AAy?$AA_?$AAs?$AA?$CI?$AAs?$AA?0?$AA?5?$AAl?$AAe?$AAn?$AA?5?$AA?9?$AA?5?$AA?$CI?$AAs?$AA?5?$AA?9?$AA?5?$AAp?$AA?$CJ?$AA?0?$AA?5?$AAp?$AAt?$AA?9?$AA?$DO?$AAw@ 101a9c40     LIBCMTD:strftime.obj
 0002:0002bc9c       ??_C@_1BK@MJNHIAGO@?$AA_?$AAG?$AAe?$AAt?$AAt?$AAn?$AAa?$AAm?$AAe?$AAs?$AA_?$AAl?$AA?$AA@ 101a9c9c     LIBCMTD:strftime.obj
 0002:0002bcb8       ??_C@_1M@HCOOECOK@?$AAF?$AAA?$AAL?$AAS?$AAE?$AA?$AA@ 101a9cb8     LIBCMTD:strftime.obj
 0002:0002bcc8       ??_C@_1HC@JGDOBCNK@?$AA?$CI?$AA?$CC?$AAI?$AAn?$AAv?$AAa?$AAl?$AAi?$AAd?$AA?5?$AAM?$AAB?$AAC?$AAS?$AA?5?$AAc?$AAh?$AAa?$AAr?$AAa?$AAc?$AAt?$AAe?$AAr?$AA?5?$AAs?$AAe?$AAq?$AAu?$AAe?$AAn?$AAc@ 101a9cc8     LIBCMTD:strftime.obj
 0002:0002bd3c       ??_C@_1CA@COHOENPC@?$AAt?$AAi?$AAm?$AAe?$AAp?$AAt?$AAr?$AA?5?$AA?$CB?$AA?$DN?$AA?5?$AAN?$AAU?$AAL?$AAL?$AA?$AA@ 101a9d3c     LIBCMTD:strftime.obj
 0002:0002bd5c       ??_C@_1CG@MHIOFJLE@?$AA?$CI?$AA?5?$AAf?$AAo?$AAr?$AAm?$AAa?$AAt?$AA?5?$AA?$CB?$AA?$DN?$AA?5?$AAN?$AAU?$AAL?$AAL?$AA?5?$AA?$CJ?$AA?$AA@ 101a9d5c     LIBCMTD:strftime.obj
 0002:0002bd84       ??_C@_1CC@IHEJKGMG@?$AA?$CI?$AA?5?$AAm?$AAa?$AAx?$AAs?$AAi?$AAz?$AAe?$AA?5?$AA?$CB?$AA?$DN?$AA?5?$AA0?$AA?5?$AA?$CJ?$AA?$AA@ 101a9d84     LIBCMTD:strftime.obj
 0002:0002bda8       ??_C@_1BI@ONBMGNNA@?$AA_?$AAS?$AAt?$AAr?$AAf?$AAt?$AAi?$AAm?$AAe?$AA_?$AAl?$AA?$AA@ 101a9da8     LIBCMTD:strftime.obj
 0002:0002bdc0       ??_C@_1CG@MPKJHDAA@?$AA?$CI?$AA?5?$AAs?$AAt?$AAr?$AAi?$AAn?$AAg?$AA?5?$AA?$CB?$AA?$DN?$AA?5?$AAN?$AAU?$AAL?$AAL?$AA?5?$AA?$CJ?$AA?$AA@ 101a9dc0     LIBCMTD:strftime.obj
 0002:0002bde8       ??_C@_1EG@JNJKHKFI@?$AA?$CI?$AA?5?$AA?$CC?$AAI?$AAn?$AAv?$AAa?$AAl?$AAi?$AAd?$AA?5?$AAf?$AAo?$AAr?$AAm?$AAa?$AAt?$AA?5?$AAd?$AAi?$AAr?$AAe?$AAc?$AAt?$AAi?$AAv?$AAe?$AA?$CC?$AA?5?$AA?0?$AA?5?$AA0@ 101a9de8     LIBCMTD:strftime.obj
 0002:0002be30       ??_C@_1HM@LBNGKIAD@?$AA?$CI?$AA?5?$AAt?$AAi?$AAm?$AAe?$AAp?$AAt?$AAr?$AA?9?$AA?$DO?$AAt?$AAm?$AA_?$AAy?$AAe?$AAa?$AAr?$AA?5?$AA?$DO?$AA?$DN?$AA?5?$AA?9?$AA1?$AA9?$AA0?$AA0?$AA?5?$AA?$CJ?$AA?5?$AA?$CG?$AA?$CG@ 101a9e30     LIBCMTD:strftime.obj
 0002:0002beac       ??_C@_1DC@NMCFBMJP@?$AA?$CI?$AA?5?$AAt?$AAi?$AAm?$AAe?$AAp?$AAt?$AAr?$AA?9?$AA?$DO?$AAt?$AAm?$AA_?$AAy?$AAe?$AAa?$AAr?$AA?5?$AA?$DO?$AA?$DN?$AA0?$AA?5?$AA?$CJ?$AA?$AA@ 101a9eac     LIBCMTD:strftime.obj
 0002:0002bee0       ??_C@_1HC@HLKHIKOB@?$AA?$CI?$AA?5?$AA?$CI?$AA?5?$AAt?$AAi?$AAm?$AAe?$AAp?$AAt?$AAr?$AA?9?$AA?$DO?$AAt?$AAm?$AA_?$AAs?$AAe?$AAc?$AA?5?$AA?$DO?$AA?$DN?$AA0?$AA?5?$AA?$CJ?$AA?5?$AA?$CG?$AA?$CG?$AA?5?$AA?$CI?$AA?5?$AAt@ 101a9ee0     LIBCMTD:strftime.obj
 0002:0002bf58       ??_C@_1HC@IGKDPPHL@?$AA?$CI?$AA?5?$AA?$CI?$AA?5?$AAt?$AAi?$AAm?$AAe?$AAp?$AAt?$AAr?$AA?9?$AA?$DO?$AAt?$AAm?$AA_?$AAm?$AAi?$AAn?$AA?5?$AA?$DO?$AA?$DN?$AA0?$AA?5?$AA?$CJ?$AA?5?$AA?$CG?$AA?$CG?$AA?5?$AA?$CI?$AA?5?$AAt@ 101a9f58     LIBCMTD:strftime.obj
 0002:0002bfd0       ??_C@_1HI@HHCJCPE@?$AA?$CI?$AA?5?$AA?$CI?$AA?5?$AAt?$AAi?$AAm?$AAe?$AAp?$AAt?$AAr?$AA?9?$AA?$DO?$AAt?$AAm?$AA_?$AAy?$AAd?$AAa?$AAy?$AA?5?$AA?$DO?$AA?$DN?$AA0?$AA?5?$AA?$CJ?$AA?5?$AA?$CG?$AA?$CG?$AA?5?$AA?$CI?$AA?5@ 101a9fd0     LIBCMTD:strftime.obj
 0002:0002c048       ??_C@_1HG@KCGGFLNI@?$AA?$CI?$AA?5?$AA?$CI?$AA?5?$AAt?$AAi?$AAm?$AAe?$AAp?$AAt?$AAr?$AA?9?$AA?$DO?$AAt?$AAm?$AA_?$AAh?$AAo?$AAu?$AAr?$AA?5?$AA?$DO?$AA?$DN?$AA0?$AA?5?$AA?$CJ?$AA?5?$AA?$CG?$AA?$CG?$AA?5?$AA?$CI?$AA?5@ 101aa048     LIBCMTD:strftime.obj
 0002:0002c0c0       ??_C@_1HG@NFHHOAD@?$AA?$CI?$AA?5?$AA?$CI?$AA?5?$AAt?$AAi?$AAm?$AAe?$AAp?$AAt?$AAr?$AA?9?$AA?$DO?$AAt?$AAm?$AA_?$AAm?$AAd?$AAa?$AAy?$AA?5?$AA?$DO?$AA?$DN?$AA1?$AA?5?$AA?$CJ?$AA?5?$AA?$CG?$AA?$CG?$AA?5?$AA?$CI?$AA?5@ 101aa0c0     LIBCMTD:strftime.obj
 0002:0002c138       ??_C@_1HC@OOAMILFB@?$AA?$CI?$AA?5?$AA?$CI?$AA?5?$AAt?$AAi?$AAm?$AAe?$AAp?$AAt?$AAr?$AA?9?$AA?$DO?$AAt?$AAm?$AA_?$AAm?$AAo?$AAn?$AA?5?$AA?$DO?$AA?$DN?$AA0?$AA?5?$AA?$CJ?$AA?5?$AA?$CG?$AA?$CG?$AA?5?$AA?$CI?$AA?5?$AAt@ 101aa138     LIBCMTD:strftime.obj
 0002:0002c1ac       ??_C@_1BI@HBKPAJH@?$AA_?$AAe?$AAx?$AAp?$AAa?$AAn?$AAd?$AAt?$AAi?$AAm?$AAe?$AA?$AA@ 101aa1ac     LIBCMTD:strftime.obj
 0002:0002c1c8       ??_C@_1HE@BFLEOKFO@?$AA?$CI?$AA?5?$AA?$CI?$AA?5?$AAt?$AAi?$AAm?$AAe?$AAp?$AAt?$AAr?$AA?9?$AA?$DO?$AAt?$AAm?$AA_?$AAw?$AAd?$AAa?$AAy?$AA?5?$AA?$DO?$AA?$DN?$AA0?$AA?5?$AA?$CJ?$AA?5?$AA?$CG?$AA?$CG?$AA?5?$AA?$CI?$AA?5@ 101aa1c8     LIBCMTD:strftime.obj
 0002:0002c240       ??_C@_1HG@PAEENAPO@?$AA?$CI?$AA?$CC?$AAI?$AAn?$AAv?$AAa?$AAl?$AAi?$AAd?$AA?5?$AAM?$AAB?$AAC?$AAS?$AA?5?$AAc?$AAh?$AAa?$AAr?$AAa?$AAc?$AAt?$AAe?$AAr?$AA?5?$AAs?$AAe?$AAq?$AAu?$AAe?$AAn?$AAc@ 101aa240     LIBCMTD:strftime.obj
 0002:0002c2b8       ??_C@_1IE@EIDABBDG@?$AA?$CI?$AA?$CC?$AAI?$AAn?$AAv?$AAa?$AAl?$AAi?$AAd?$AA?5?$AAM?$AAB?$AAC?$AAS?$AA?5?$AAc?$AAh?$AAa?$AAr?$AAa?$AAc?$AAt?$AAe?$AAr?$AA?5?$AAs?$AAe?$AAq?$AAu?$AAe?$AAn?$AAc@ 101aa2b8     LIBCMTD:strftime.obj
 0002:0002c33c       ??_C@_03EBAPMIKO@a?1p?$AA@ 101aa33c     LIBCMTD:strftime.obj
 0002:0002c340       ??_C@_05JAMEPDIN@am?1pm?$AA@ 101aa340     LIBCMTD:strftime.obj
 0002:0002c348       ??_C@_0O@FMJNFNKE@united?9states?$AA@ 101aa348     LIBCMTD:getqloc.obj
 0002:0002c358       ??_C@_0P@NDHFFKCA@united?9kingdom?$AA@ 101aa358     LIBCMTD:getqloc.obj
 0002:0002c368       ??_C@_0BC@HHDADLGF@trinidad?5?$CG?5tobago?$AA@ 101aa368     LIBCMTD:getqloc.obj
 0002:0002c37c       ??_C@_0M@IOAEBDAC@south?9korea?$AA@ 101aa37c     LIBCMTD:getqloc.obj
 0002:0002c388       ??_C@_0N@FIELFKIJ@south?9africa?$AA@ 101aa388     LIBCMTD:getqloc.obj
 0002:0002c398       ??_C@_0M@OPNDHCMC@south?5korea?$AA@ 101aa398     LIBCMTD:getqloc.obj
 0002:0002c3a4       ??_C@_0N@MDEOEPFI@south?5africa?$AA@ 101aa3a4     LIBCMTD:getqloc.obj
 0002:0002c3b4       ??_C@_06FKAPCJLB@slovak?$AA@ 101aa3b4     LIBCMTD:getqloc.obj
 0002:0002c3bc       ??_C@_0M@EFJANOAL@puerto?9rico?$AA@ 101aa3bc     LIBCMTD:getqloc.obj
 0002:0002c3c8       ??_C@_08PGOJKDAI@pr?9china?$AA@ 101aa3c8     LIBCMTD:getqloc.obj
 0002:0002c3d4       ??_C@_08JHDOMCMI@pr?5china?$AA@ 101aa3d4     LIBCMTD:getqloc.obj
 0002:0002c3e0       ??_C@_02JHCHFBLL@nz?$AA@   101aa3e0     LIBCMTD:getqloc.obj
 0002:0002c3e4       ??_C@_0M@LINHDHKP@new?9zealand?$AA@ 101aa3e4     LIBCMTD:getqloc.obj
 0002:0002c3f0       ??_C@_09IIIPPBDB@hong?9kong?$AA@ 101aa3f0     LIBCMTD:getqloc.obj
 0002:0002c3fc       ??_C@_07HJLCKBG@holland?$AA@ 101aa3fc     LIBCMTD:getqloc.obj
 0002:0002c404       ??_C@_0O@LEHGMHAG@great?5britain?$AA@ 101aa404     LIBCMTD:getqloc.obj
 0002:0002c414       ??_C@_07FACOMELA@england?$AA@ 101aa414     LIBCMTD:getqloc.obj
 0002:0002c41c       ??_C@_05JIHCEICB@czech?$AA@ 101aa41c     LIBCMTD:getqloc.obj
 0002:0002c424       ??_C@_05BBJOBLGB@china?$AA@ 101aa424     LIBCMTD:getqloc.obj
 0002:0002c42c       ??_C@_07GPKPHICP@britain?$AA@ 101aa42c     LIBCMTD:getqloc.obj
 0002:0002c434       ??_C@_07MHIPBHMG@america?$AA@ 101aa434     LIBCMTD:getqloc.obj
 0002:0002c43c       ??_C@_03KIALPMKC@usa?$AA@  101aa43c     LIBCMTD:getqloc.obj
 0002:0002c440       ??_C@_02FGJGKGGD@us?$AA@   101aa440     LIBCMTD:getqloc.obj
 0002:0002c444       ??_C@_02NEINDODK@uk?$AA@   101aa444     LIBCMTD:getqloc.obj
 0002:0002c448       ??_C@_05JMPCFJFJ@swiss?$AA@ 101aa448     LIBCMTD:getqloc.obj
 0002:0002c450       ??_C@_0BA@HLOCPIOD@swedish?9finland?$AA@ 101aa450     LIBCMTD:getqloc.obj
 0002:0002c460       ??_C@_0BC@PKCNIABK@spanish?9venezuela?$AA@ 101aa460     LIBCMTD:getqloc.obj
 0002:0002c474       ??_C@_0BA@GBHHMIJI@spanish?9uruguay?$AA@ 101aa474     LIBCMTD:getqloc.obj
 0002:0002c484       ??_C@_0BE@BHDOHPMC@spanish?9puerto?5rico?$AA@ 101aa484     LIBCMTD:getqloc.obj
 0002:0002c498       ??_C@_0N@KMOIDGGN@spanish?9peru?$AA@ 101aa498     LIBCMTD:getqloc.obj
 0002:0002c4a8       ??_C@_0BB@HMHLPGPH@spanish?9paraguay?$AA@ 101aa4a8     LIBCMTD:getqloc.obj
 0002:0002c4bc       ??_C@_0P@MCPKNGFD@spanish?9panama?$AA@ 101aa4bc     LIBCMTD:getqloc.obj
 0002:0002c4cc       ??_C@_0BC@IHOHGAIL@spanish?9nicaragua?$AA@ 101aa4cc     LIBCMTD:getqloc.obj
 0002:0002c4e0       ??_C@_0P@KLMJDNFJ@spanish?9modern?$AA@ 101aa4e0     LIBCMTD:getqloc.obj
 0002:0002c4f0       ??_C@_0BA@BPAPGBCM@spanish?9mexican?$AA@ 101aa4f0     LIBCMTD:getqloc.obj
 0002:0002c500       ??_C@_0BB@PDECHHHE@spanish?9honduras?$AA@ 101aa500     LIBCMTD:getqloc.obj
 0002:0002c514       ??_C@_0BC@KLHKFGDB@spanish?9guatemala?$AA@ 101aa514     LIBCMTD:getqloc.obj
 0002:0002c528       ??_C@_0BE@MFOOKJAI@spanish?9el?5salvador?$AA@ 101aa528     LIBCMTD:getqloc.obj
 0002:0002c53c       ??_C@_0BA@FCOKFPFC@spanish?9ecuador?$AA@ 101aa53c     LIBCMTD:getqloc.obj
 0002:0002c54c       ??_C@_0BL@PLMGIMOO@spanish?9dominican?5republic?$AA@ 101aa54c     LIBCMTD:getqloc.obj
 0002:0002c568       ??_C@_0BD@HLGDNMHB@spanish?9costa?5rica?$AA@ 101aa568     LIBCMTD:getqloc.obj
 0002:0002c57c       ??_C@_0BB@PKCBKCPE@spanish?9colombia?$AA@ 101aa57c     LIBCMTD:getqloc.obj
 0002:0002c590       ??_C@_0O@MCBIJGNE@spanish?9chile?$AA@ 101aa590     LIBCMTD:getqloc.obj
 0002:0002c5a0       ??_C@_0BA@BEFEIGJJ@spanish?9bolivia?$AA@ 101aa5a0     LIBCMTD:getqloc.obj
 0002:0002c5b0       ??_C@_0BC@EMECMPD@spanish?9argentina?$AA@ 101aa5b0     LIBCMTD:getqloc.obj
 0002:0002c5c4       ??_C@_0BF@EALFLENP@portuguese?9brazilian?$AA@ 101aa5c4     LIBCMTD:getqloc.obj
 0002:0002c5dc       ??_C@_0BC@HBLEBLNN@norwegian?9nynorsk?$AA@ 101aa5dc     LIBCMTD:getqloc.obj
 0002:0002c5f0       ??_C@_0BB@HMACDDCK@norwegian?9bokmal?$AA@ 101aa5f0     LIBCMTD:getqloc.obj
 0002:0002c604       ??_C@_09BAFFPPHE@norwegian?$AA@ 101aa604     LIBCMTD:getqloc.obj
 0002:0002c610       ??_C@_0O@EAJFJDFG@italian?9swiss?$AA@ 101aa610     LIBCMTD:getqloc.obj
 0002:0002c620       ??_C@_0O@CNOMPGD@irish?9english?$AA@ 101aa620     LIBCMTD:getqloc.obj
 0002:0002c630       ??_C@_0N@EDHBGCKG@german?9swiss?$AA@ 101aa630     LIBCMTD:getqloc.obj
 0002:0002c640       ??_C@_0BC@JACMHNBP@german?9luxembourg?$AA@ 101aa640     LIBCMTD:getqloc.obj
 0002:0002c654       ??_C@_0BE@HBGMGFEG@german?9lichtenstein?$AA@ 101aa654     LIBCMTD:getqloc.obj
 0002:0002c668       ??_C@_0BA@HKKBIBKL@german?9austrian?$AA@ 101aa668     LIBCMTD:getqloc.obj
 0002:0002c678       ??_C@_0N@GCAEPEBK@french?9swiss?$AA@ 101aa678     LIBCMTD:getqloc.obj
 0002:0002c688       ??_C@_0BC@DJFJJCK@french?9luxembourg?$AA@ 101aa688     LIBCMTD:getqloc.obj
 0002:0002c69c       ??_C@_0BA@NNCEDFIC@french?9canadian?$AA@ 101aa69c     LIBCMTD:getqloc.obj
 0002:0002c6ac       ??_C@_0P@CMPOCLM@french?9belgian?$AA@ 101aa6ac     LIBCMTD:getqloc.obj
 0002:0002c6bc       ??_C@_0M@GHHDJOK@english?9usa?$AA@ 101aa6bc     LIBCMTD:getqloc.obj
 0002:0002c6c8       ??_C@_0L@PLDJKEIL@english?9us?$AA@ 101aa6c8     LIBCMTD:getqloc.obj
 0002:0002c6d4       ??_C@_0L@HJCCDMNC@english?9uk?$AA@ 101aa6d4     LIBCMTD:getqloc.obj
 0002:0002c6e0       ??_C@_0BK@CKLIAGJB@english?9trinidad?5y?5tobago?$AA@ 101aa6e0     LIBCMTD:getqloc.obj
 0002:0002c6fc       ??_C@_0BF@JMJMGNNF@english?9south?5africa?$AA@ 101aa6fc     LIBCMTD:getqloc.obj
 0002:0002c714       ??_C@_0L@DKIIFDFD@english?9nz?$AA@ 101aa714     LIBCMTD:getqloc.obj
 0002:0002c720       ??_C@_0BA@ONHGJCLH@english?9jamaica?$AA@ 101aa720     LIBCMTD:getqloc.obj
 0002:0002c730       ??_C@_0M@HJBGHOPO@english?9ire?$AA@ 101aa730     LIBCMTD:getqloc.obj
 0002:0002c73c       ??_C@_0BC@LFEKMIFB@english?9caribbean?$AA@ 101aa73c     LIBCMTD:getqloc.obj
 0002:0002c750       ??_C@_0M@OLDPFKHI@english?9can?$AA@ 101aa750     LIBCMTD:getqloc.obj
 0002:0002c75c       ??_C@_0P@OMDEHBMP@english?9belize?$AA@ 101aa75c     LIBCMTD:getqloc.obj
 0002:0002c76c       ??_C@_0M@KFHFPFED@english?9aus?$AA@ 101aa76c     LIBCMTD:getqloc.obj
 0002:0002c778       ??_C@_0BB@MNMBKDFE@english?9american?$AA@ 101aa778     LIBCMTD:getqloc.obj
 0002:0002c78c       ??_C@_0O@KIDLNNBA@dutch?9belgian?$AA@ 101aa78c     LIBCMTD:getqloc.obj
 0002:0002c79c       ??_C@_0BE@JBKABBMH@chinese?9traditional?$AA@ 101aa79c     LIBCMTD:getqloc.obj
 0002:0002c7b0       ??_C@_0BC@MJJMPKCG@chinese?9singapore?$AA@ 101aa7b0     LIBCMTD:getqloc.obj
 0002:0002c7c4       ??_C@_0BD@FDKADDCP@chinese?9simplified?$AA@ 101aa7c4     LIBCMTD:getqloc.obj
 0002:0002c7d8       ??_C@_0BB@DBEFDDME@chinese?9hongkong?$AA@ 101aa7d8     LIBCMTD:getqloc.obj
 0002:0002c7ec       ??_C@_07DHNMFMCI@chinese?$AA@ 101aa7ec     LIBCMTD:getqloc.obj
 0002:0002c7f4       ??_C@_03FNDDCHI@chi?$AA@   101aa7f4     LIBCMTD:getqloc.obj
 0002:0002c7f8       ??_C@_03BMMIADDJ@chh?$AA@  101aa7f8     LIBCMTD:getqloc.obj
 0002:0002c7fc       ??_C@_08OAIPJDGI@canadian?$AA@ 101aa7fc     LIBCMTD:getqloc.obj
 0002:0002c808       ??_C@_07HBPMNPNJ@belgian?$AA@ 101aa808     LIBCMTD:getqloc.obj
 0002:0002c810       ??_C@_0L@OEKOPBEL@australian?$AA@ 101aa810     LIBCMTD:getqloc.obj
 0002:0002c81c       ??_C@_0BB@MEIMBEDG@american?9english?$AA@ 101aa81c     LIBCMTD:getqloc.obj
 0002:0002c830       ??_C@_0BB@DFMDPDGB@american?5english?$AA@ 101aa830     LIBCMTD:getqloc.obj
 0002:0002c844       ??_C@_08IJLOKOLL@american?$AA@ 101aa844     LIBCMTD:getqloc.obj
 0002:0002c850       ___rg_language             101aa850     LIBCMTD:getqloc.obj
 0002:0002ca58       ___rg_country              101aaa58     LIBCMTD:getqloc.obj
 0002:0002cb10       ___rglangidNotDefault      101aab10     LIBCMTD:getqloc.obj
 0002:0002cb24       ??_C@_0BC@NFIEMBLL@Norwegian?9Nynorsk?$AA@ 101aab24     LIBCMTD:getqloc.obj
 0002:0002cb38       ??_C@_1OM@OECHDGCF@?$AAs?$AAt?$AAr?$AAc?$AAp?$AAy?$AA_?$AAs?$AA?$CI?$AAl?$AAp?$AAO?$AAu?$AAt?$AAS?$AAt?$AAr?$AA?9?$AA?$DO?$AAs?$AAz?$AAL?$AAa?$AAn?$AAg?$AAu?$AAa?$AAg?$AAe?$AA?0?$AA?5?$AA?$CI@ 101aab38     LIBCMTD:getqloc.obj
 0002:0002cc24       ??_C@_1CO@NJACLALJ@?$AA_?$AA_?$AAg?$AAe?$AAt?$AA_?$AAq?$AAu?$AAa?$AAl?$AAi?$AAf?$AAi?$AAe?$AAd?$AA_?$AAl?$AAo?$AAc?$AAa?$AAl?$AAe?$AA?$AA@ 101aac24     LIBCMTD:getqloc.obj
 0002:0002cc58       ??_C@_1GC@FECJGAE@?$AAf?$AA?3?$AA?2?$AAd?$AAd?$AA?2?$AAv?$AAc?$AAt?$AAo?$AAo?$AAl?$AAs?$AA?2?$AAc?$AAr?$AAt?$AA_?$AAb?$AAl?$AAd?$AA?2?$AAs?$AAe?$AAl?$AAf?$AA_?$AAx?$AA8?$AA6?$AA?2?$AAc@ 101aac58     LIBCMTD:getqloc.obj
 0002:0002ccbc       ??_C@_03NFKLAGEF@OCP?$AA@  101aacbc     LIBCMTD:getqloc.obj
 0002:0002ccc0       ??_C@_01GBGANLPD@0?$AA@    101aacc0     LIBCMTD:getqloc.obj
 0002:0002ccc4       ??_C@_03DFHEHBHG@ACP?$AA@  101aacc4     LIBCMTD:getqloc.obj
 0002:0002ccc8       ??_C@_1BO@IHLJHOPI@?$AA_?$AA_?$AAs?$AAt?$AAr?$AAg?$AAt?$AAo?$AAl?$AAd?$AA1?$AA2?$AA_?$AAl?$AA?$AA@ 101aacc8     LIBCMTD:_strgtold_.obj
 0002:0002cce8       ??_C@_1IG@IGKPPFIM@?$AAf?$AA?3?$AA?2?$AAd?$AAd?$AA?2?$AAv?$AAc?$AAt?$AAo?$AAo?$AAl?$AAs?$AA?2?$AAc?$AAr?$AAt?$AA_?$AAb?$AAl?$AAd?$AA?2?$AAs?$AAe?$AAl?$AAf?$AA_?$AAx?$AA8?$AA6?$AA?2?$AAc@ 101aace8     LIBCMTD:_strgtold_.obj
 0002:0002cd70       ??_C@_1CA@MBDBOHIB@?$AA_?$AAL?$AAo?$AAc?$AAa?$AAl?$AAe?$AA?5?$AA?$CB?$AA?$DN?$AA?5?$AAN?$AAU?$AAL?$AAL?$AA?$AA@ 101aad70     LIBCMTD:_strgtold_.obj
 0002:0002cd90       ??_C@_06IMKFLFPG@1?$CDQNAN?$AA@ 101aad90     LIBCMTD:_x10fout_.obj
 0002:0002cd98       ??_C@_1EG@MCFPJJEM@?$AAs?$AAt?$AAr?$AAc?$AAp?$AAy?$AA_?$AAs?$AA?$CI?$AAf?$AAo?$AAs?$AA?9?$AA?$DO?$AAm?$AAa?$AAn?$AA?0?$AA?5?$AA2?$AA1?$AA?$CL?$AA1?$AA?0?$AA?5?$AA?$CC?$AA1?$AA?$CD?$AAQ?$AAN?$AAA?$AAN@ 101aad98     LIBCMTD:_x10fout_.obj
 0002:0002cde0       ??_C@_05DNEBIAHO@1?$CDINF?$AA@ 101aade0     LIBCMTD:_x10fout_.obj
 0002:0002cde8       ??_C@_1EE@ICBBBPAI@?$AAs?$AAt?$AAr?$AAc?$AAp?$AAy?$AA_?$AAs?$AA?$CI?$AAf?$AAo?$AAs?$AA?9?$AA?$DO?$AAm?$AAa?$AAn?$AA?0?$AA?5?$AA2?$AA1?$AA?$CL?$AA1?$AA?0?$AA?5?$AA?$CC?$AA1?$AA?$CD?$AAI?$AAN?$AAF?$AA?$CC@ 101aade8     LIBCMTD:_x10fout_.obj
 0002:0002ce2c       ??_C@_05PHHOCPM@1?$CDIND?$AA@ 101aae2c     LIBCMTD:_x10fout_.obj
 0002:0002ce38       ??_C@_1EE@MADEBIHF@?$AAs?$AAt?$AAr?$AAc?$AAp?$AAy?$AA_?$AAs?$AA?$CI?$AAf?$AAo?$AAs?$AA?9?$AA?$DO?$AAm?$AAa?$AAn?$AA?0?$AA?5?$AA2?$AA1?$AA?$CL?$AA1?$AA?0?$AA?5?$AA?$CC?$AA1?$AA?$CD?$AAI?$AAN?$AAD?$AA?$CC@ 101aae38     LIBCMTD:_x10fout_.obj
 0002:0002ce7c       ??_C@_06PGGFOGJG@1?$CDSNAN?$AA@ 101aae7c     LIBCMTD:_x10fout_.obj
 0002:0002ce88       ??_C@_1EG@CDDBFNOB@?$AAs?$AAt?$AAr?$AAc?$AAp?$AAy?$AA_?$AAs?$AA?$CI?$AAf?$AAo?$AAs?$AA?9?$AA?$DO?$AAm?$AAa?$AAn?$AA?0?$AA?5?$AA2?$AA1?$AA?$CL?$AA1?$AA?0?$AA?5?$AA?$CC?$AA1?$AA?$CD?$AAS?$AAN?$AAA?$AAN@ 101aae88     LIBCMTD:_x10fout_.obj
 0002:0002ced0       ??_C@_1BI@ELMAAFLN@?$AA$?$AAI?$AA1?$AA0?$AA_?$AAO?$AAU?$AAT?$AAP?$AAU?$AAT?$AA?$AA@ 101aaed0     LIBCMTD:_x10fout_.obj
 0002:0002cee8       ??_C@_1HG@HFJMHCFK@?$AAf?$AA?3?$AA?2?$AAd?$AAd?$AA?2?$AAv?$AAc?$AAt?$AAo?$AAo?$AAl?$AAs?$AA?2?$AAc?$AAr?$AAt?$AA_?$AAb?$AAl?$AAd?$AA?2?$AAs?$AAe?$AAl?$AAf?$AA_?$AAx?$AA8?$AA6?$AA?2?$AAc@ 101aaee8     LIBCMTD:_x10fout_.obj
 0002:0002cf60       ??_C@_1BK@ONMFGLDB@?$AA_?$AAw?$AAo?$AAu?$AAt?$AAp?$AAu?$AAt?$AA_?$AAs?$AA_?$AAl?$AA?$AA@ 101aaf60     LIBCMTD:woutputs.obj
 0002:0002cf7c       ??_C@_1BK@GDEKGMNC@?$AA_?$AAw?$AAo?$AAu?$AAt?$AAp?$AAu?$AAt?$AA_?$AAp?$AA_?$AAl?$AA?$AA@ 101aaf7c     LIBCMTD:woutputp.obj
 0002:0002cf98       ??_C@_1GA@GFFDGGFH@?$AAf?$AA?3?$AA?2?$AAd?$AAd?$AA?2?$AAv?$AAc?$AAt?$AAo?$AAo?$AAl?$AAs?$AA?2?$AAc?$AAr?$AAt?$AA_?$AAb?$AAl?$AAd?$AA?2?$AAs?$AAe?$AAl?$AAf?$AA_?$AAx?$AA8?$AA6?$AA?2?$AAc@ 101aaf98     LIBCMTD:mbtowc.obj
 0002:0002cff8       ??_C@_1NC@EINCOKCO@?$AA_?$AAl?$AAo?$AAc?$AA_?$AAu?$AAp?$AAd?$AAa?$AAt?$AAe?$AA?4?$AAG?$AAe?$AAt?$AAL?$AAo?$AAc?$AAa?$AAl?$AAe?$AAT?$AA?$CI?$AA?$CJ?$AA?9?$AA?$DO?$AAl?$AAo?$AAc?$AAi?$AAn?$AAf@ 101aaff8     LIBCMTD:mbtowc.obj
 0002:0002d0cc       ??_C@_1O@HJNPHHHB@?$AAf?$AAp?$AAu?$AAt?$AAw?$AAc?$AA?$AA@ 101ab0cc     LIBCMTD:fputwc.obj
 0002:0002d0e0       ??_C@_1GA@BJIGKGEA@?$AAf?$AA?3?$AA?2?$AAd?$AAd?$AA?2?$AAv?$AAc?$AAt?$AAo?$AAo?$AAl?$AAs?$AA?2?$AAc?$AAr?$AAt?$AA_?$AAb?$AAl?$AAd?$AA?2?$AAs?$AAe?$AAl?$AAf?$AA_?$AAx?$AA8?$AA6?$AA?2?$AAc@ 101ab0e0     LIBCMTD:fputwc.obj
 0002:0002d140       ??_C@_1BM@JMKHIAHP@?$AA?$CI?$AAs?$AAt?$AAr?$AA?5?$AA?$CB?$AA?$DN?$AA?5?$AAN?$AAU?$AAL?$AAL?$AA?$CJ?$AA?$AA@ 101ab140     LIBCMTD:fputwc.obj
 0002:0002d15c       ??_C@_0DB@KIKNCIEC@f?3?2dd?2vctools?2crt_bld?2self_x86?2c@ 101ab15c     LIBCMTD:osfinfo.obj
 0002:0002d190       ??_C@_1BO@EMBOBGKE@?$AA_?$AAg?$AAe?$AAt?$AA_?$AAo?$AAs?$AAf?$AAh?$AAa?$AAn?$AAd?$AAl?$AAe?$AA?$AA@ 101ab190     LIBCMTD:osfinfo.obj
 0002:0002d1b0       ??_C@_1GC@MLKLDJJG@?$AAf?$AA?3?$AA?2?$AAd?$AAd?$AA?2?$AAv?$AAc?$AAt?$AAo?$AAo?$AAl?$AAs?$AA?2?$AAc?$AAr?$AAt?$AA_?$AAb?$AAl?$AAd?$AA?2?$AAs?$AAe?$AAl?$AAf?$AA_?$AAx?$AA8?$AA6?$AA?2?$AAc@ 101ab1b0     LIBCMTD:osfinfo.obj
 0002:0002d214       ??_C@_1BA@NGNGNDEP@?$AA_?$AAc?$AAp?$AAu?$AAt?$AAw?$AAs?$AA?$AA@ 101ab214     LIBCMTD:putwch.obj
 0002:0002d228       ??_C@_1GA@NKLOJFIJ@?$AAf?$AA?3?$AA?2?$AAd?$AAd?$AA?2?$AAv?$AAc?$AAt?$AAo?$AAo?$AAl?$AAs?$AA?2?$AAc?$AAr?$AAt?$AA_?$AAb?$AAl?$AAd?$AA?2?$AAs?$AAe?$AAl?$AAf?$AA_?$AAx?$AA8?$AA6?$AA?2?$AAc@ 101ab228     LIBCMTD:putwch.obj
 0002:0002d288       ??_C@_0BO@GNIAFIKK@Unknown?5Runtime?5Check?5Error?6?$AN?$AA@ 101ab288     LIBCMTD:_error_.obj
 0002:0002d2a8       ??_C@_0CM@NGINOKPC@Stack?5memory?5around?5_alloca?5was?5@ 101ab2a8     LIBCMTD:_error_.obj
 0002:0002d2d4       ??_C@_0DG@HKJMLLLP@A?5local?5variable?5was?5used?5before@ 101ab2d4     LIBCMTD:_error_.obj
 0002:0002d30c       ??_C@_0BN@FFOINMNJ@Stack?5memory?5was?5corrupted?6?$AN?$AA@ 101ab30c     LIBCMTD:_error_.obj
 0002:0002d330       ??_C@_0BBN@GPMLNJCF@A?5cast?5to?5a?5smaller?5data?5type?5ha@ 101ab330     LIBCMTD:_error_.obj
 0002:0002d450       ??_C@_0NN@NGPKDKPD@The?5value?5of?5ESP?5was?5not?5properl@ 101ab450     LIBCMTD:_error_.obj
 0002:0002d5cc       ??_C@_0CA@IODNCDPG@Run?9Time?5Check?5Failure?5?$CD?$CFd?5?9?5?$CFs?$AA@ 101ab5cc     LIBCMTD:_error_.obj
 0002:0002d5ec       ??_C@_0BE@GNBOBNCK@Unknown?5Module?5Name?$AA@ 101ab5ec     LIBCMTD:_error_.obj
 0002:0002d600       ??_C@_0BB@PFFGGCJP@Unknown?5Filename?$AA@ 101ab600     LIBCMTD:_error_.obj
 0002:0002d618       ??_C@_1EA@NFKNIFJP@?$AAR?$AAu?$AAn?$AA?9?$AAT?$AAi?$AAm?$AAe?$AA?5?$AAC?$AAh?$AAe?$AAc?$AAk?$AA?5?$AAF?$AAa?$AAi?$AAl?$AAu?$AAr?$AAe?$AA?5?$AA?$CD?$AA?$CF?$AAd?$AA?5?$AA?9?$AA?5?$AA?$CF?$AAs?$AA?$AA@ 101ab618     LIBCMTD:_error_.obj
 0002:0002d658       ??_C@_1GM@OLMCBDMB@?$AAR?$AAu?$AAn?$AAt?$AAi?$AAm?$AAe?$AA?5?$AAC?$AAh?$AAe?$AAc?$AAk?$AA?5?$AAE?$AAr?$AAr?$AAo?$AAr?$AA?4?$AA?6?$AA?$AN?$AA?5?$AAU?$AAn?$AAa?$AAb?$AAl?$AAe?$AA?5?$AAt?$AAo@ 101ab658     LIBCMTD:_error_.obj
 0002:0002d6c4       ??_C@_0CG@IAFNJNEE@Stack?5corrupted?5near?5unknown?5var@ 101ab6c4     LIBCMTD:_error_.obj
 0002:0002d6f0       ??_C@_0EJ@LJKNEOLN@Stack?5area?5around?5_alloca?5memory@ 101ab6f0     LIBCMTD:_error_.obj
 0002:0002d73c       ??_C@_08KJEDNCKC@?$CFs?$CFs?$CFs?$CFs?$AA@ 101ab73c     LIBCMTD:_error_.obj
 0002:0002d748       ??_C@_02LLMPMKNF@?$DO?5?$AA@ 101ab748     LIBCMTD:_error_.obj
 0002:0002d74c       ??_C@_0BC@KIBAILCI@?$CFs?$CFs?$CFp?$CFs?$CFld?$CFs?$CFd?$CFs?$AA@ 101ab74c     LIBCMTD:_error_.obj
 0002:0002d760       ??_C@_0EI@CLEPFNGI@Stack?5area?5around?5_alloca?5memory@ 101ab760     LIBCMTD:_error_.obj
 0002:0002d7a8       ??_C@_0N@MHFFIMFG@?6Address?3?50x?$AA@ 101ab7a8     LIBCMTD:_error_.obj
 0002:0002d7b8       ??_C@_07DFDJCKFN@?6Size?3?5?$AA@ 101ab7b8     LIBCMTD:_error_.obj
 0002:0002d7c0       ??_C@_0CK@DKGBICFE@?6Allocation?5number?5within?5this?5f@ 101ab7c0     LIBCMTD:_error_.obj
 0002:0002d7ec       ??_C@_08OMAHNMHJ@?6Data?3?5?$DM?$AA@ 101ab7ec     LIBCMTD:_error_.obj
 0002:0002d7f8       ??_C@_09FOPFMPEJ@wsprintfA?$AA@ 101ab7f8     LIBCMTD:_error_.obj
 0002:0002d804       ??_C@_0L@GMPLCCII@user32?4dll?$AA@ 101ab804     LIBCMTD:_error_.obj
 0002:0002d810       ??_C@_0DE@OHJBPMBP@A?5variable?5is?5being?5used?5without@ 101ab810     LIBCMTD:_error_.obj
 0002:0002d844       ??_C@_0DB@OLNNDFNH@f?3?2dd?2vctools?2crt_bld?2self_x86?2c@ 101ab844     LIBCMTD:_sftbuf.obj
 0002:0002d878       ??_C@_1GC@DGAFOCMO@?$AAf?$AA?3?$AA?2?$AAd?$AAd?$AA?2?$AAv?$AAc?$AAt?$AAo?$AAo?$AAl?$AAs?$AA?2?$AAc?$AAr?$AAt?$AA_?$AAb?$AAl?$AAd?$AA?2?$AAs?$AAe?$AAl?$AAf?$AA_?$AAx?$AA8?$AA6?$AA?2?$AAc@ 101ab878     LIBCMTD:_sftbuf.obj
 0002:0002d8dc       ??_C@_1CO@KCKAACMI@?$AAf?$AAl?$AAa?$AAg?$AA?5?$AA?$DN?$AA?$DN?$AA?5?$AA0?$AA?5?$AA?$HM?$AA?$HM?$AA?5?$AAf?$AAl?$AAa?$AAg?$AA?5?$AA?$DN?$AA?$DN?$AA?5?$AA1?$AA?$AA@ 101ab8dc     LIBCMTD:_sftbuf.obj
 0002:0002d90c       ??_C@_1BO@JGFPDJCP@?$AAv?$AAp?$AAr?$AAi?$AAn?$AAt?$AAf?$AA_?$AAh?$AAe?$AAl?$AAp?$AAe?$AAr?$AA?$AA@ 101ab90c     LIBCMTD:vprintf.obj
 0002:0002d930       ??_C@_1GC@DHFFJKMC@?$AAf?$AA?3?$AA?2?$AAd?$AAd?$AA?2?$AAv?$AAc?$AAt?$AAo?$AAo?$AAl?$AAs?$AA?2?$AAc?$AAr?$AAt?$AA_?$AAb?$AAl?$AAd?$AA?2?$AAs?$AAe?$AAl?$AAf?$AA_?$AAx?$AA8?$AA6?$AA?2?$AAc@ 101ab930     LIBCMTD:vprintf.obj
 0002:0002d994       ??_C@_0DC@IHGBBJOH@f?3?2dd?2vctools?2crt_bld?2self_x86?2c@ 101ab994     LIBCMTD:convrtcp.obj
 0002:0002d9c8       __pDestructExceptionObject 101ab9c8     LIBCMTD:frame.obj
 0002:0002d9cc       ??_C@_0O@DPKOEFFH@bad?5exception?$AA@ 101ab9cc     LIBCMTD:frame.obj
 0002:0002d9e0       ??_7bad_exception@std@@6B@ 101ab9e0     LIBCMTD:frame.obj
 0002:0002d9e8       ___dnames                  101ab9e8     LIBCMTD:timeset.obj
 0002:0002da00       ___mnames                  101aba00     LIBCMTD:timeset.obj
 0002:0002da28       ??_C@_1BM@FIMHBHEB@?$AA_?$AAg?$AAe?$AAt?$AA_?$AAd?$AAa?$AAy?$AAl?$AAi?$AAg?$AAh?$AAt?$AA?$AA@ 101aba28     LIBCMTD:timeset.obj
 0002:0002da48       ??_C@_1GC@NEGFAKA@?$AAf?$AA?3?$AA?2?$AAd?$AAd?$AA?2?$AAv?$AAc?$AAt?$AAo?$AAo?$AAl?$AAs?$AA?2?$AAc?$AAr?$AAt?$AA_?$AAb?$AAl?$AAd?$AA?2?$AAs?$AAe?$AAl?$AAf?$AA_?$AAx?$AA8?$AA6?$AA?2?$AAc@ 101aba48     LIBCMTD:timeset.obj
 0002:0002daac       ??_C@_1CI@MKJEHFPG@?$AA?$CI?$AA_?$AAD?$AAa?$AAy?$AAl?$AAi?$AAg?$AAh?$AAt?$AA?5?$AA?$CB?$AA?$DN?$AA?5?$AAN?$AAU?$AAL?$AAL?$AA?$CJ?$AA?$AA@ 101abaac     LIBCMTD:timeset.obj
 0002:0002dad4       ??_C@_1BK@EMODDHEE@?$AA_?$AAg?$AAe?$AAt?$AA_?$AAd?$AAs?$AAt?$AAb?$AAi?$AAa?$AAs?$AA?$AA@ 101abad4     LIBCMTD:timeset.obj
 0002:0002daf0       ??_C@_1EC@PKDJPAAB@?$AA?$CI?$AA_?$AAD?$AAa?$AAy?$AAl?$AAi?$AAg?$AAh?$AAt?$AA_?$AAs?$AAa?$AAv?$AAi?$AAn?$AAg?$AAs?$AA_?$AAb?$AAi?$AAa?$AAs?$AA?5?$AA?$CB?$AA?$DN?$AA?5?$AAN?$AAU?$AAL?$AAL?$AA?$CJ@ 101abaf0     LIBCMTD:timeset.obj
 0002:0002db34       ??_C@_1BM@MGEAKPEJ@?$AA_?$AAg?$AAe?$AAt?$AA_?$AAt?$AAi?$AAm?$AAe?$AAz?$AAo?$AAn?$AAe?$AA?$AA@ 101abb34     LIBCMTD:timeset.obj
 0002:0002db50       ??_C@_1CI@PODJJGAL@?$AA?$CI?$AA_?$AAT?$AAi?$AAm?$AAe?$AAz?$AAo?$AAn?$AAe?$AA?5?$AA?$CB?$AA?$DN?$AA?5?$AAN?$AAU?$AAL?$AAL?$AA?$CJ?$AA?$AA@ 101abb50     LIBCMTD:timeset.obj
 0002:0002db78       ??_C@_1DG@HLGKANIP@?$AA_?$AAI?$AAn?$AAd?$AAe?$AAx?$AA?5?$AA?$DN?$AA?$DN?$AA?5?$AA0?$AA?5?$AA?$HM?$AA?$HM?$AA?5?$AA_?$AAI?$AAn?$AAd?$AAe?$AAx?$AA?5?$AA?$DN?$AA?$DN?$AA?5?$AA1?$AA?$AA@ 101abb78     LIBCMTD:timeset.obj
 0002:0002dbb0       ??_C@_1CK@GBKHKEI@?$AA_?$AAR?$AAe?$AAt?$AAu?$AAr?$AAn?$AAV?$AAa?$AAl?$AAu?$AAe?$AA?5?$AA?$CB?$AA?$DN?$AA?5?$AAN?$AAU?$AAL?$AAL?$AA?$AA@ 101abbb0     LIBCMTD:timeset.obj
 0002:0002dbdc       ??_C@_1BI@BHCKCCFA@?$AA_?$AAg?$AAe?$AAt?$AA_?$AAt?$AAz?$AAn?$AAa?$AAm?$AAe?$AA?$AA@ 101abbdc     LIBCMTD:timeset.obj
 0002:0002dbf8       ??_C@_1KA@POFLNEC@?$AA?$CI?$AA_?$AAB?$AAu?$AAf?$AAf?$AAe?$AAr?$AA?5?$AA?$CB?$AA?$DN?$AA?5?$AAN?$AAU?$AAL?$AAL?$AA?5?$AA?$CG?$AA?$CG?$AA?5?$AA_?$AAS?$AAi?$AAz?$AAe?$AAI?$AAn?$AAB?$AAy?$AAt?$AAe?$AAs@ 101abbf8     LIBCMTD:timeset.obj
 0002:0002dc98       ??_C@_1EA@GEPBEDLJ@?$AAs?$AAt?$AAr?$AAn?$AAc?$AAp?$AAy?$AA_?$AAs?$AA?$CI?$AAt?$AAz?$AAn?$AAa?$AAm?$AAe?$AA?$FL?$AA1?$AA?$FN?$AA?0?$AA?5?$AA6?$AA4?$AA?0?$AA?5?$AAT?$AAZ?$AA?0?$AA?5?$AA3?$AA?$CJ?$AA?$AA@ 101abc98     LIBCMTD:tzset.obj
 0002:0002dcd8       ??_C@_1EA@FIJBKALB@?$AAs?$AAt?$AAr?$AAn?$AAc?$AAp?$AAy?$AA_?$AAs?$AA?$CI?$AAt?$AAz?$AAn?$AAa?$AAm?$AAe?$AA?$FL?$AA0?$AA?$FN?$AA?0?$AA?5?$AA6?$AA4?$AA?0?$AA?5?$AAT?$AAZ?$AA?0?$AA?5?$AA3?$AA?$CJ?$AA?$AA@ 101abcd8     LIBCMTD:tzset.obj
 0002:0002dd18       ??_C@_1EK@MCAIMDPB@?$AAs?$AAt?$AAr?$AAc?$AAp?$AAy?$AA_?$AAs?$AA?$CI?$AAl?$AAa?$AAs?$AAt?$AAT?$AAZ?$AA?0?$AA?5?$AAs?$AAt?$AAr?$AAl?$AAe?$AAn?$AA?$CI?$AAT?$AAZ?$AA?$CJ?$AA?5?$AA?$CL?$AA?5?$AA1?$AA?0@ 101abd18     LIBCMTD:tzset.obj
 0002:0002dd64       ??_C@_0CP@FODJBIFF@f?3?2dd?2vctools?2crt_bld?2self_x86?2c@ 101abd64     LIBCMTD:tzset.obj
 0002:0002dd94       ??_C@_02CLFPBFFP@TZ?$AA@   101abd94     LIBCMTD:tzset.obj
 0002:0002dd98       ??_C@_1CO@IMMOMMCB@?$AA_?$AAg?$AAe?$AAt?$AA_?$AAd?$AAs?$AAt?$AAb?$AAi?$AAa?$AAs?$AA?$CI?$AA?$CG?$AAd?$AAs?$AAt?$AAb?$AAi?$AAa?$AAs?$AA?$CJ?$AA?$AA@ 101abd98     LIBCMTD:tzset.obj
 0002:0002ddc8       ??_C@_1DC@MEHEMOPB@?$AA_?$AAg?$AAe?$AAt?$AA_?$AAd?$AAa?$AAy?$AAl?$AAi?$AAg?$AAh?$AAt?$AA?$CI?$AA?$CG?$AAd?$AAa?$AAy?$AAl?$AAi?$AAg?$AAh?$AAt?$AA?$CJ?$AA?$AA@ 101abdc8     LIBCMTD:tzset.obj
 0002:0002ddfc       ??_C@_1DC@CMKCHHFC@?$AA_?$AAg?$AAe?$AAt?$AA_?$AAt?$AAi?$AAm?$AAe?$AAz?$AAo?$AAn?$AAe?$AA?$CI?$AA?$CG?$AAt?$AAi?$AAm?$AAe?$AAz?$AAo?$AAn?$AAe?$AA?$CJ?$AA?$AA@ 101abdfc     LIBCMTD:tzset.obj
 0002:0002de30       ??_C@_1BM@IIODHMJC@?$AA_?$AAt?$AAz?$AAs?$AAe?$AAt?$AA_?$AAn?$AAo?$AAl?$AAo?$AAc?$AAk?$AA?$AA@ 101abe30     LIBCMTD:tzset.obj
 0002:0002de50       ??_C@_1FO@MLHAIHAB@?$AAf?$AA?3?$AA?2?$AAd?$AAd?$AA?2?$AAv?$AAc?$AAt?$AAo?$AAo?$AAl?$AAs?$AA?2?$AAc?$AAr?$AAt?$AA_?$AAb?$AAl?$AAd?$AA?2?$AAs?$AAe?$AAl?$AAf?$AA_?$AAx?$AA8?$AA6?$AA?2?$AAc@ 101abe50     LIBCMTD:tzset.obj
 0002:0002deb0       ??_C@_1CA@GOLIIEDM@?$AA_?$AAi?$AAs?$AAi?$AAn?$AAd?$AAs?$AAt?$AA_?$AAn?$AAo?$AAl?$AAo?$AAc?$AAk?$AA?$AA@ 101abeb0     LIBCMTD:tzset.obj
 0002:0002ded0       ??_C@_1BA@GOCKIDGO@?$AAc?$AAv?$AAt?$AAd?$AAa?$AAt?$AAe?$AA?$AA@ 101abed0     LIBCMTD:tzset.obj
 0002:0002dee0       ??_C@_1BG@GLLONOEH@?$AA_?$AAs?$AAt?$AAr?$AAi?$AAc?$AAm?$AAp?$AA_?$AAl?$AA?$AA@ 101abee0     LIBCMTD:stricmp.obj
 0002:0002def8       ??_C@_1GC@OILHAOLL@?$AAf?$AA?3?$AA?2?$AAd?$AAd?$AA?2?$AAv?$AAc?$AAt?$AAo?$AAo?$AAl?$AAs?$AA?2?$AAc?$AAr?$AAt?$AA_?$AAb?$AAl?$AAd?$AA?2?$AAs?$AAe?$AAl?$AAf?$AA_?$AAx?$AA8?$AA6?$AA?2?$AAc@ 101abef8     LIBCMTD:stricmp.obj
 0002:0002df5c       ??_C@_1BC@JLGKKIIG@?$AA_?$AAs?$AAt?$AAr?$AAi?$AAc?$AAm?$AAp?$AA?$AA@ 101abf5c     LIBCMTD:stricmp.obj
 0002:0002df70       ??_C@_1CC@JLPHKJPH@?$AAc?$AAo?$AAu?$AAn?$AAt?$AA?5?$AA?$DM?$AA?$DN?$AA?5?$AAI?$AAN?$AAT?$AA_?$AAM?$AAA?$AAX?$AA?$AA@ 101abf70     LIBCMTD:strnicmp.obj
 0002:0002df94       ??_C@_1BI@BJLEPLEF@?$AA_?$AAs?$AAt?$AAr?$AAn?$AAi?$AAc?$AAm?$AAp?$AA_?$AAl?$AA?$AA@ 101abf94     LIBCMTD:strnicmp.obj
 0002:0002dfb0       ??_C@_1GE@CONPOJMA@?$AAf?$AA?3?$AA?2?$AAd?$AAd?$AA?2?$AAv?$AAc?$AAt?$AAo?$AAo?$AAl?$AAs?$AA?2?$AAc?$AAr?$AAt?$AA_?$AAb?$AAl?$AAd?$AA?2?$AAs?$AAe?$AAl?$AAf?$AA_?$AAx?$AA8?$AA6?$AA?2?$AAc@ 101abfb0     LIBCMTD:strnicmp.obj
 0002:0002e014       ??_C@_1BE@BHJDFFNA@?$AA_?$AAs?$AAt?$AAr?$AAn?$AAi?$AAc?$AAm?$AAp?$AA?$AA@ 101ac014     LIBCMTD:strnicmp.obj
 0002:0002e028       ??_C@_1BA@PCFLFGNC@?$AAw?$AAc?$AAs?$AAt?$AAo?$AAx?$AAl?$AA?$AA@ 101ac028     LIBCMTD:wcstol.obj
 0002:0002e038       ??_C@_1GA@CADFOND@?$AAf?$AA?3?$AA?2?$AAd?$AAd?$AA?2?$AAv?$AAc?$AAt?$AAo?$AAo?$AAl?$AAs?$AA?2?$AAc?$AAr?$AAt?$AA_?$AAb?$AAl?$AAd?$AA?2?$AAs?$AAe?$AAl?$AAf?$AA_?$AAx?$AA8?$AA6?$AA?2?$AAc@ 101ac038     LIBCMTD:wcstol.obj
 0002:0002e098       ??_C@_06GDENEHCP@CONIN$?$AA@ 101ac098     LIBCMTD:initcon.obj
 0002:0002e0a0       ??_C@_07GPDNMNG@CONOUT$?$AA@ 101ac0a0     LIBCMTD:initcon.obj
 0002:0002e0a8       ??_C@_0M@EKFFODEC@MSPDB80?4DLL?$AA@ 101ac0a8     LIBCMTD:_pdblkup_.obj
 0002:0002e0b4       ??_C@_01KDCPPGHE@r?$AA@    101ac0b4     LIBCMTD:_pdblkup_.obj
 0002:0002e0b8       ??_C@_0BB@KCIACLNC@PDBOpenValidate5?$AA@ 101ac0b8     LIBCMTD:_pdblkup_.obj
 0002:0002e0cc       ??_C@_0BF@BMIHBHCA@EnvironmentDirectory?$AA@ 101ac0cc     LIBCMTD:_pdblkup_.obj
 0002:0002e0e4       ??_C@_0CN@JNNIHDGH@SOFTWARE?2Microsoft?2VisualStudio?2@ 101ac0e4     LIBCMTD:_pdblkup_.obj
 0002:0002e114       ??_C@_0M@HLOHPNFA@RegCloseKey?$AA@ 101ac114     LIBCMTD:_pdblkup_.obj
 0002:0002e120       ??_C@_0BB@HHEIPGME@RegQueryValueExA?$AA@ 101ac120     LIBCMTD:_pdblkup_.obj
 0002:0002e134       ??_C@_0O@DCOGKJGG@RegOpenKeyExA?$AA@ 101ac134     LIBCMTD:_pdblkup_.obj
 0002:0002e144       ??_C@_0BP@OGBCLIBO@Stack?5around?5_alloca?5corrupted?$AA@ 101ac144     LIBCMTD:_userapi_.obj
 0002:0002e164       ??_C@_0CK@CNLNOEPB@Local?5variable?5used?5before?5initi@ 101ac164     LIBCMTD:_userapi_.obj
 0002:0002e190       ??_C@_0BI@CIGMDCBH@Stack?5memory?5corruption?$AA@ 101ac190     LIBCMTD:_userapi_.obj
 0002:0002e1a8       ??_C@_0CK@FEGOIOPB@Cast?5to?5smaller?5type?5causing?5los@ 101ac1a8     LIBCMTD:_userapi_.obj
 0002:0002e1d4       ??_C@_0BJ@HEGAHDFO@Stack?5pointer?5corruption?$AA@ 101ac1d4     LIBCMTD:_userapi_.obj
 0002:0002e204       ??_C@_1O@EGMJNCOI@?$AAf?$AAc?$AAl?$AAo?$AAs?$AAe?$AA?$AA@ 101ac204     LIBCMTD:fclose.obj
 0002:0002e218       ??_C@_1GA@KMIDAPAP@?$AAf?$AA?3?$AA?2?$AAd?$AAd?$AA?2?$AAv?$AAc?$AAt?$AAo?$AAo?$AAl?$AAs?$AA?2?$AAc?$AAr?$AAt?$AA_?$AAb?$AAl?$AAd?$AA?2?$AAs?$AAe?$AAl?$AAf?$AA_?$AAx?$AA8?$AA6?$AA?2?$AAc@ 101ac218     LIBCMTD:fclose.obj
 0002:0002e278       ??_C@_1BO@JINCABEC@?$AA_?$AAf?$AAc?$AAl?$AAo?$AAs?$AAe?$AA_?$AAn?$AAo?$AAl?$AAo?$AAc?$AAk?$AA?$AA@ 101ac278     LIBCMTD:fclose.obj
 0002:0002e298       ??_C@_1DG@LNNHNFHJ@?$AA?$CI?$AA_?$AAo?$AAs?$AAf?$AAi?$AAl?$AAe?$AA?$CI?$AAf?$AAi?$AAl?$AAe?$AAd?$AAe?$AAs?$AA?$CJ?$AA?5?$AA?$CG?$AA?5?$AAF?$AAO?$AAP?$AAE?$AAN?$AA?$CJ?$AA?$AA@ 101ac298     LIBCMTD:commit.obj
 0002:0002e2d0       ??_C@_1BA@FLNMBBIM@?$AA_?$AAc?$AAo?$AAm?$AAm?$AAi?$AAt?$AA?$AA@ 101ac2d0     LIBCMTD:commit.obj
 0002:0002e2e0       ??_C@_1GA@BOPCOCFN@?$AAf?$AA?3?$AA?2?$AAd?$AAd?$AA?2?$AAv?$AAc?$AAt?$AAo?$AAo?$AAl?$AAs?$AA?2?$AAc?$AAr?$AAt?$AA_?$AAb?$AAl?$AAd?$AA?2?$AAs?$AAe?$AAl?$AAf?$AA_?$AAx?$AA8?$AA6?$AA?2?$AAc@ 101ac2e0     LIBCMTD:commit.obj
 0002:0002e340       ??_C@_1HC@KFLBHHBC@?$AA?$CI?$AAf?$AAi?$AAl?$AAe?$AAd?$AAe?$AAs?$AA?5?$AA?$DO?$AA?$DN?$AA?5?$AA0?$AA?5?$AA?$CG?$AA?$CG?$AA?5?$AA?$CI?$AAu?$AAn?$AAs?$AAi?$AAg?$AAn?$AAe?$AAd?$AA?$CJ?$AAf?$AAi?$AAl?$AAe?$AAd@ 101ac340     LIBCMTD:commit.obj
 0002:0002e3d8       ??_7type_info@@6B@         101ac3d8     LIBCMTD:typinfo.obj
 0002:0002e3e0       ??_7exception@std@@6B@     101ac3e0     LIBCMTD:stdexcpt.obj
 0002:0002e3e8       ??_C@_0BC@EOODALEL@Unknown?5exception?$AA@ 101ac3e8     LIBCMTD:stdexcpt.obj
 0002:0002e400       ??_7bad_cast@std@@6B@      101ac400     LIBCMTD:stdexcpt.obj
 0002:0002e40c       ??_7bad_typeid@std@@6B@    101ac40c     LIBCMTD:stdexcpt.obj
 0002:0002e418       ??_7__non_rtti_object@std@@6B@ 101ac418     LIBCMTD:stdexcpt.obj
 0002:0002e420       ??_C@_1FA@HILOOCMA@?$AA?$CI?$AA_?$AAt?$AAc?$AAs?$AAn?$AAl?$AAe?$AAn?$AA?$CI?$AAo?$AAp?$AAt?$AAi?$AAo?$AAn?$AA?0?$AA?5?$AA_?$AAM?$AAA?$AAX?$AA_?$AAE?$AAN?$AAV?$AA?$CJ?$AA?5?$AA?$DM?$AA?5?$AA_?$AAM@ 101ac420     LIBCMTD:getenv.obj
 0002:0002e470       ??_C@_1O@GMKGKCJO@?$AAg?$AAe?$AAt?$AAe?$AAn?$AAv?$AA?$AA@ 101ac470     LIBCMTD:getenv.obj
 0002:0002e480       ??_C@_1GA@IPPICGKB@?$AAf?$AA?3?$AA?2?$AAd?$AAd?$AA?2?$AAv?$AAc?$AAt?$AAo?$AAo?$AAl?$AAs?$AA?2?$AAc?$AAr?$AAt?$AA_?$AAb?$AAl?$AAd?$AA?2?$AAs?$AAe?$AAl?$AAf?$AA_?$AAx?$AA8?$AA6?$AA?2?$AAc@ 101ac480     LIBCMTD:getenv.obj
 0002:0002e4e0       ??_C@_1CC@FKAOHHLO@?$AA?$CI?$AAo?$AAp?$AAt?$AAi?$AAo?$AAn?$AA?5?$AA?$CB?$AA?$DN?$AA?5?$AAN?$AAU?$AAL?$AAL?$AA?$CJ?$AA?$AA@ 101ac4e0     LIBCMTD:getenv.obj
 0002:0002e508       ??_C@_1GI@JBIFPFJH@?$AA_?$AAt?$AAc?$AAs?$AAn?$AAl?$AAe?$AAn?$AA?$CI?$AA?$CK?$AAs?$AAe?$AAa?$AAr?$AAc?$AAh?$AA?5?$AA?$CL?$AA?5?$AAl?$AAe?$AAn?$AAg?$AAt?$AAh?$AA?5?$AA?$CL?$AA?5?$AA1?$AA?0?$AA?5?$AA_@ 101ac508     LIBCMTD:getenv.obj
 0002:0002e570       ??_C@_1EI@HHOBPCFK@?$AAs?$AAt?$AAr?$AAc?$AAp?$AAy?$AA_?$AAs?$AA?$CI?$AAb?$AAu?$AAf?$AAf?$AAe?$AAr?$AA?0?$AA?5?$AAs?$AAi?$AAz?$AAe?$AAI?$AAn?$AAT?$AAC?$AAh?$AAa?$AAr?$AAs?$AA?0?$AA?5?$AAs@ 101ac570     LIBCMTD:getenv.obj
 0002:0002e5b8       ??_C@_1JM@NLPGJJPH@?$AA?$CI?$AAb?$AAu?$AAf?$AAf?$AAe?$AAr?$AA?5?$AA?$CB?$AA?$DN?$AA?5?$AAN?$AAU?$AAL?$AAL?$AA?5?$AA?$CG?$AA?$CG?$AA?5?$AAs?$AAi?$AAz?$AAe?$AAI?$AAn?$AAT?$AAC?$AAh?$AAa?$AAr?$AAs?$AA?5@ 101ac5b8     LIBCMTD:getenv.obj
 0002:0002e654       ??_C@_1CC@BAJKDIIF@?$AA_?$AAg?$AAe?$AAt?$AAe?$AAn?$AAv?$AA_?$AAs?$AA_?$AAh?$AAe?$AAl?$AAp?$AAe?$AAr?$AA?$AA@ 101ac654     LIBCMTD:getenv.obj
 0002:0002e678       ??_C@_1CK@PIKDAOCL@?$AAp?$AAR?$AAe?$AAt?$AAu?$AAr?$AAn?$AAV?$AAa?$AAl?$AAu?$AAe?$AA?5?$AA?$CB?$AA?$DN?$AA?5?$AAN?$AAU?$AAL?$AAL?$AA?$AA@ 101ac678     LIBCMTD:getenv.obj
 0002:0002e6a4       ??_C@_1DM@GNKNEGJO@?$AAs?$AAt?$AAr?$AAc?$AAp?$AAy?$AA_?$AAs?$AA?$CI?$AA?$CK?$AAp?$AAB?$AAu?$AAf?$AAf?$AAe?$AAr?$AA?0?$AA?5?$AAs?$AAi?$AAz?$AAe?$AA?0?$AA?5?$AAs?$AAt?$AAr?$AA?$CJ?$AA?$AA@ 101ac6a4     LIBCMTD:getenv.obj
 0002:0002e6e0       ??_C@_1CA@GDBKELOE@?$AAv?$AAa?$AAr?$AAn?$AAa?$AAm?$AAe?$AA?5?$AA?$CB?$AA?$DN?$AA?5?$AAN?$AAU?$AAL?$AAL?$AA?$AA@ 101ac6e0     LIBCMTD:getenv.obj
 0002:0002e700       ??_C@_1CC@KPLOPIEM@?$AA_?$AAd?$AAu?$AAp?$AAe?$AAn?$AAv?$AA_?$AAs?$AA_?$AAh?$AAe?$AAl?$AAp?$AAe?$AAr?$AA?$AA@ 101ac700     LIBCMTD:getenv.obj
 0002:0002e724       ??_C@_1CA@FHNFMDOJ@?$AAp?$AAB?$AAu?$AAf?$AAf?$AAe?$AAr?$AA?5?$AA?$CB?$AA?$DN?$AA?5?$AAN?$AAU?$AAL?$AAL?$AA?$AA@ 101ac724     LIBCMTD:getenv.obj
 0002:0002e744       ??_C@_1BA@BMMDEPNE@?$AAs?$AAt?$AAr?$AAt?$AAo?$AAx?$AAq?$AA?$AA@ 101ac744     LIBCMTD:strtoq.obj
 0002:0002e758       ??_C@_1GA@GIMEIKLC@?$AAf?$AA?3?$AA?2?$AAd?$AAd?$AA?2?$AAv?$AAc?$AAt?$AAo?$AAo?$AAl?$AAs?$AA?2?$AAc?$AAr?$AAt?$AA_?$AAb?$AAl?$AAd?$AA?2?$AAs?$AAe?$AAl?$AAf?$AA_?$AAx?$AA8?$AA6?$AA?2?$AAc@ 101ac758     LIBCMTD:strtoq.obj
 0002:0002e7b8       ??_C@_1O@EDEJGJBM@?$AA_?$AAc?$AAl?$AAo?$AAs?$AAe?$AA?$AA@ 101ac7b8     LIBCMTD:close.obj
 0002:0002e7c8       ??_C@_1FO@NNGNFGFH@?$AAf?$AA?3?$AA?2?$AAd?$AAd?$AA?2?$AAv?$AAc?$AAt?$AAo?$AAo?$AAl?$AAs?$AA?2?$AAc?$AAr?$AAt?$AA_?$AAb?$AAl?$AAd?$AA?2?$AAs?$AAe?$AAl?$AAf?$AA_?$AAx?$AA8?$AA6?$AA?2?$AAc@ 101ac7c8     LIBCMTD:close.obj
 0002:0002e828       ??_C@_1GE@MIMBMOF@?$AAf?$AA?3?$AA?2?$AAd?$AAd?$AA?2?$AAv?$AAc?$AAt?$AAo?$AAo?$AAl?$AAs?$AA?2?$AAc?$AAr?$AAt?$AA_?$AAb?$AAl?$AAd?$AA?2?$AAs?$AAe?$AAl?$AAf?$AA_?$AAx?$AA8?$AA6?$AA?2?$AAc@ 101ac828     LIBCMTD:_freebuf.obj
 0002:0002e88c       ??_C@_1BO@KIJENGPH@?$AAs?$AAt?$AAr?$AAe?$AAa?$AAm?$AA?5?$AA?$CB?$AA?$DN?$AA?5?$AAN?$AAU?$AAL?$AAL?$AA?$AA@ 101ac88c     LIBCMTD:_freebuf.obj
 0002:0002e8b0       ??_C@_1HG@KNCBMCDD@?$AAf?$AA?3?$AA?2?$AAd?$AAd?$AA?2?$AAv?$AAc?$AAt?$AAo?$AAo?$AAl?$AAs?$AA?2?$AAc?$AAr?$AAt?$AA_?$AAb?$AAl?$AAd?$AA?2?$AAs?$AAe?$AAl?$AAf?$AA_?$AAx?$AA8?$AA6?$AA?2?$AAc@ 101ac8b0     LIBCMTD:typname.obj
 0002:0002e928       ??_C@_1CI@IDCGDBOP@?$AAp?$AAN?$AAo?$AAd?$AAe?$AA?9?$AA?$DO?$AAn?$AAe?$AAx?$AAt?$AA?5?$AA?$CB?$AA?$DN?$AA?5?$AAN?$AAU?$AAL?$AAL?$AA?$AA@ 101ac928     LIBCMTD:typname.obj
 0002:0002e950       ??_C@_1JK@MLBKHELP@?$AAs?$AAt?$AAr?$AAc?$AAp?$AAy?$AA_?$AAs?$AA?5?$AA?$CI?$AA?$CI?$AAc?$AAh?$AAa?$AAr?$AA?5?$AA?$CK?$AA?$CJ?$AA?$CI?$AA?$CI?$AAt?$AAy?$AAp?$AAe?$AA_?$AAi?$AAn?$AAf?$AAo?$AA?5?$AA?$CK?$AA?$CJ@ 101ac950     LIBCMTD:typname.obj
 0002:0002e9ec       ??_C@_1CM@OOICDMK@?$AAt?$AAy?$AAp?$AAe?$AA_?$AAi?$AAn?$AAf?$AAo?$AA?3?$AA?3?$AA_?$AAN?$AAa?$AAm?$AAe?$AA_?$AAb?$AAa?$AAs?$AAe?$AA?$AA@ 101ac9ec     LIBCMTD:typname.obj
 0002:0002ea18       ??_C@_1GI@EAJKJPED@?$AAs?$AAt?$AAr?$AAc?$AAp?$AAy?$AA_?$AAs?$AA?5?$AA?$CI?$AAp?$AAT?$AAm?$AAp?$AAT?$AAy?$AAp?$AAe?$AAN?$AAa?$AAm?$AAe?$AA?0?$AA?5?$AAl?$AAe?$AAn?$AA?$CL?$AA2?$AA?0?$AA?5?$AA?$CI@ 101aca18     LIBCMTD:typname.obj
 0002:0002ea80       ??_C@_1DO@OJJLFJPE@?$AAt?$AAy?$AAp?$AAe?$AA_?$AAi?$AAn?$AAf?$AAo?$AA?3?$AA?3?$AA_?$AAN?$AAa?$AAm?$AAe?$AA_?$AAb?$AAa?$AAs?$AAe?$AA_?$AAi?$AAn?$AAt?$AAe?$AAr?$AAn?$AAa?$AAl?$AA?$AA@ 101aca80     LIBCMTD:typname.obj
 0002:0002eac0       ??_C@_1BK@CMPKHPEC@?$AAn?$AA?5?$AA?$DM?$AA?$DN?$AA?5?$AAI?$AAN?$AAT?$AA_?$AAM?$AAA?$AAX?$AA?$AA@ 101acac0     LIBCMTD:mbsnbico.obj
 0002:0002eadc       ??_C@_1BG@GBJNMPFA@?$AAs?$AA2?$AA?5?$AA?$CB?$AA?$DN?$AA?5?$AAN?$AAU?$AAL?$AAL?$AA?$AA@ 101acadc     LIBCMTD:mbsnbico.obj
 0002:0002eaf4       ??_C@_1BM@FKNNDAHH@?$AA_?$AAm?$AAb?$AAs?$AAn?$AAb?$AAi?$AAc?$AAo?$AAl?$AAl?$AA_?$AAl?$AA?$AA@ 101acaf4     LIBCMTD:mbsnbico.obj
 0002:0002eb10       ??_C@_1GE@NJHAJPKI@?$AAf?$AA?3?$AA?2?$AAd?$AAd?$AA?2?$AAv?$AAc?$AAt?$AAo?$AAo?$AAl?$AAs?$AA?2?$AAc?$AAr?$AAt?$AA_?$AAb?$AAl?$AAd?$AA?2?$AAs?$AAe?$AAl?$AAf?$AA_?$AAx?$AA8?$AA6?$AA?2?$AAc@ 101acb10     LIBCMTD:mbsnbico.obj
 0002:0002eb74       ??_C@_1BG@MODEICJK@?$AAs?$AA1?$AA?5?$AA?$CB?$AA?$DN?$AA?5?$AAN?$AAU?$AAL?$AAL?$AA?$AA@ 101acb74     LIBCMTD:mbsnbico.obj
 0002:0002eb8c       ??_C@_0DC@CAFDLBC@f?3?2dd?2vctools?2crt_bld?2self_x86?2c@ 101acb8c     LIBCMTD:wtombenv.obj
 0002:0002ebc0       ??_C@_0BK@CFCOFLF@?5Complete?5Object?5Locator?8?$AA@ 101acbc0     LIBCMTD:undname.obj
 0002:0002ebdc       ??_C@_0BN@MECKDCOJ@?5Class?5Hierarchy?5Descriptor?8?$AA@ 101acbdc     LIBCMTD:undname.obj
 0002:0002ebfc       ??_C@_0BD@LGICGFMM@?5Base?5Class?5Array?8?$AA@ 101acbfc     LIBCMTD:undname.obj
 0002:0002ec10       ??_C@_0BM@LDKODKLH@?5Base?5Class?5Descriptor?5at?5?$CI?$AA@ 101acc10     LIBCMTD:undname.obj
 0002:0002ec2c       ??_C@_0BC@DAFEJGAK@?5Type?5Descriptor?8?$AA@ 101acc2c     LIBCMTD:undname.obj
 0002:0002ec40       ??_C@_0BM@PMGGMLDN@?$GAlocal?5static?5thread?5guard?8?$AA@ 101acc40     LIBCMTD:undname.obj
 0002:0002ec5c       ??_C@_0CL@FGIJHLCE@?$GAmanaged?5vector?5copy?5constructor@ 101acc5c     LIBCMTD:undname.obj
 0002:0002ec88       ??_C@_0CJ@GJELGAMM@?$GAvector?5vbase?5copy?5constructor?5i@ 101acc88     LIBCMTD:undname.obj
 0002:0002ecb4       ??_C@_0CD@CGAJBKEJ@?$GAvector?5copy?5constructor?5iterato@ 101accb4     LIBCMTD:undname.obj
 0002:0002ecd8       ??_C@_0CB@PDBIFEP@?$GAdynamic?5atexit?5destructor?5for?5?8@ 101accd8     LIBCMTD:undname.obj
 0002:0002ecfc       ??_C@_0BL@CLIPGLGB@?$GAdynamic?5initializer?5for?5?8?$AA@ 101accfc     LIBCMTD:undname.obj
 0002:0002ed18       ??_C@_0CM@FCBBDIGB@?$GAeh?5vector?5vbase?5copy?5constructo@ 101acd18     LIBCMTD:undname.obj
 0002:0002ed44       ??_C@_0CG@HLDDJMAG@?$GAeh?5vector?5copy?5constructor?5iter@ 101acd44     LIBCMTD:undname.obj
 0002:0002ed6c       ??_C@_0CF@IMGKMJNO@?$GAmanaged?5vector?5destructor?5itera@ 101acd6c     LIBCMTD:undname.obj
 0002:0002ed94       ??_C@_0CG@CFDHKGGD@?$GAmanaged?5vector?5constructor?5iter@ 101acd94     LIBCMTD:undname.obj
 0002:0002edbc       ??_C@_0BN@CKNJLHMB@?$GAplacement?5delete?$FL?$FN?5closure?8?$AA@ 101acdbc     LIBCMTD:undname.obj
 0002:0002eddc       ??_C@_0BL@CNOONJFP@?$GAplacement?5delete?5closure?8?$AA@ 101acddc     LIBCMTD:undname.obj
 0002:0002edf8       ??_C@_0P@HJKNJFNN@?$GAomni?5callsig?8?$AA@ 101acdf8     LIBCMTD:undname.obj
 0002:0002ee08       ??_C@_09LBNFPBCA@?5delete?$FL?$FN?$AA@ 101ace08     LIBCMTD:undname.obj
 0002:0002ee14       ??_C@_06FHBGPFGH@?5new?$FL?$FN?$AA@ 101ace14     LIBCMTD:undname.obj
 0002:0002ee1c       ??_C@_0CE@IIHCMGGL@?$GAlocal?5vftable?5constructor?5closu@ 101ace1c     LIBCMTD:undname.obj
 0002:0002ee40       ??_C@_0BA@KKLDJDLB@?$GAlocal?5vftable?8?$AA@ 101ace40     LIBCMTD:undname.obj
 0002:0002ee50       ??_C@_05KHLCHHI@?$GARTTI?$AA@ 101ace50     LIBCMTD:undname.obj
 0002:0002ee58       ??_C@_03KLGMFNMG@?$GAEH?$AA@ 101ace58     LIBCMTD:undname.obj
 0002:0002ee5c       ??_C@_0BA@KBCDOMBN@?$GAudt?5returning?8?$AA@ 101ace5c     LIBCMTD:undname.obj
 0002:0002ee6c       ??_C@_0BL@LLKPOHJI@?$GAcopy?5constructor?5closure?8?$AA@ 101ace6c     LIBCMTD:undname.obj
 0002:0002ee88       ??_C@_0CH@OOJPLCPH@?$GAeh?5vector?5vbase?5constructor?5ite@ 101ace88     LIBCMTD:undname.obj
 0002:0002eeb0       ??_C@_0CA@GCEOPDGL@?$GAeh?5vector?5destructor?5iterator?8?$AA@ 101aceb0     LIBCMTD:undname.obj
 0002:0002eed0       ??_C@_0CB@JONCMFFK@?$GAeh?5vector?5constructor?5iterator?8@ 101aced0     LIBCMTD:undname.obj
 0002:0002eef4       ??_C@_0BL@NILFHHPC@?$GAvirtual?5displacement?5map?8?$AA@ 101acef4     LIBCMTD:undname.obj
 0002:0002ef10       ??_C@_0CE@IKBNEHA@?$GAvector?5vbase?5constructor?5iterat@ 101acf10     LIBCMTD:undname.obj
 0002:0002ef34       ??_C@_0BN@LFPFMEDL@?$GAvector?5destructor?5iterator?8?$AA@ 101acf34     LIBCMTD:undname.obj
 0002:0002ef54       ??_C@_0BO@PFGOCPJJ@?$GAvector?5constructor?5iterator?8?$AA@ 101acf54     LIBCMTD:undname.obj
 0002:0002ef74       ??_C@_0BN@IMDCHIKM@?$GAscalar?5deleting?5destructor?8?$AA@ 101acf74     LIBCMTD:undname.obj
 0002:0002ef94       ??_C@_0BO@OBMKPJIG@?$GAdefault?5constructor?5closure?8?$AA@ 101acf94     LIBCMTD:undname.obj
 0002:0002efb4       ??_C@_0BN@DEGPLNFK@?$GAvector?5deleting?5destructor?8?$AA@ 101acfb4     LIBCMTD:undname.obj
 0002:0002efd4       ??_C@_0BD@JDLKDPAB@?$GAvbase?5destructor?8?$AA@ 101acfd4     LIBCMTD:undname.obj
 0002:0002efe8       ??_C@_08OBABFOLI@?$GAstring?8?$AA@ 101acfe8     LIBCMTD:undname.obj
 0002:0002eff4       ??_C@_0BF@KDPPACIK@?$GAlocal?5static?5guard?8?$AA@ 101acff4     LIBCMTD:undname.obj
 0002:0002f00c       ??_C@_08LLFFHHDJ@?$GAtypeof?8?$AA@ 101ad00c     LIBCMTD:undname.obj
 0002:0002f018       ??_C@_07FEEIOKP@?$GAvcall?8?$AA@ 101ad018     LIBCMTD:undname.obj
 0002:0002f020       ??_C@_09BLBHBJP@?$GAvbtable?8?$AA@ 101ad020     LIBCMTD:undname.obj
 0002:0002f02c       ??_C@_09IFPLHPGF@?$GAvftable?8?$AA@ 101ad02c     LIBCMTD:undname.obj
 0002:0002f038       ??_C@_02MHEGNOJ@?$FO?$DN?$AA@ 101ad038     LIBCMTD:undname.obj
 0002:0002f03c       ??_C@_02DHLNPPGH@?$HM?$DN?$AA@ 101ad03c     LIBCMTD:undname.obj
 0002:0002f040       ??_C@_02FGJGFEAB@?$CG?$DN?$AA@ 101ad040     LIBCMTD:undname.obj
 0002:0002f044       ??_C@_03CDNPDDLA@?$DM?$DM?$DN?$AA@ 101ad044     LIBCMTD:undname.obj
 0002:0002f048       ??_C@_03IKFCCPFF@?$DO?$DO?$DN?$AA@ 101ad048     LIBCMTD:undname.obj
 0002:0002f04c       ??_C@_02FENAOKFI@?$CF?$DN?$AA@ 101ad04c     LIBCMTD:undname.obj
 0002:0002f050       ??_C@_02FJEHGPIO@?1?$DN?$AA@ 101ad050     LIBCMTD:undname.obj
 0002:0002f054       ??_C@_02FKMDLLOA@?9?$DN?$AA@ 101ad054     LIBCMTD:undname.obj
 0002:0002f058       ??_C@_02FOEOMHFC@?$CL?$DN?$AA@ 101ad058     LIBCMTD:undname.obj
 0002:0002f05c       ??_C@_02FPIMKNGF@?$CK?$DN?$AA@ 101ad05c     LIBCMTD:undname.obj
 0002:0002f060       ??_C@_02NONPIBCD@?$HM?$HM?$AA@ 101ad060     LIBCMTD:undname.obj
 0002:0002f064       ??_C@_02PPKAJPJL@?$CG?$CG?$AA@ 101ad064     LIBCMTD:undname.obj
 0002:0002f068       ??_C@_01DNKMNLPK@?$HM?$AA@ 101ad068     LIBCMTD:undname.obj
 0002:0002f06c       ??_C@_01JKBOJNNK@?$FO?$AA@ 101ad06c     LIBCMTD:undname.obj
 0002:0002f070       ??_C@_01PJKLJHI@?$HO?$AA@  101ad070     LIBCMTD:undname.obj
 0002:0002f074       ??_C@_02HCKGKOFO@?$CI?$CJ?$AA@ 101ad074     LIBCMTD:undname.obj
 0002:0002f078       ??_C@_01IHBHIGKO@?0?$AA@   101ad078     LIBCMTD:undname.obj
 0002:0002f07c       ??_C@_02EEKDKGMJ@?$DO?$DN?$AA@ 101ad07c     LIBCMTD:undname.obj
 0002:0002f080       ??_C@_01PPODPGHN@?$DO?$AA@ 101ad080     LIBCMTD:undname.obj
 0002:0002f084       ??_C@_02EHCHHCKH@?$DM?$DN?$AA@ 101ad084     LIBCMTD:undname.obj
 0002:0002f088       ??_C@_01MNNFJEPP@?$DM?$AA@ 101ad088     LIBCMTD:undname.obj
 0002:0002f08c       ??_C@_01FGNFDNOH@?$CF?$AA@ 101ad08c     LIBCMTD:undname.obj
 0002:0002f090       ??_C@_01KMDKNFGN@?1?$AA@   101ad090     LIBCMTD:undname.obj
 0002:0002f094       ??_C@_03MNHNFDLC@?9?$DO?$CK?$AA@ 101ad094     LIBCMTD:undname.obj
 0002:0002f098       ??_C@_01HNPIGOCE@?$CG?$AA@ 101ad098     LIBCMTD:undname.obj
 0002:0002f09c       ??_C@_01MIFGBAGJ@?$CL?$AA@ 101ad09c     LIBCMTD:undname.obj
 0002:0002f0a0       ??_C@_01JOAMLHOP@?9?$AA@   101ad0a0     LIBCMTD:undname.obj
 0002:0002f0a4       ??_C@_02BAABKJLB@?9?9?$AA@ 101ad0a4     LIBCMTD:undname.obj
 0002:0002f0a8       ??_C@_02ECNGHCIF@?$CL?$CL?$AA@ 101ad0a8     LIBCMTD:undname.obj
 0002:0002f0ac       ??_C@_01NBENCBCI@?$CK?$AA@ 101ad0ac     LIBCMTD:undname.obj
 0002:0002f0b0       ??_C@_02HBOOOICD@?9?$DO?$AA@ 101ad0b0     LIBCMTD:undname.obj
 0002:0002f0b4       ??_C@_08LHJFAFGD@operator?$AA@ 101ad0b4     LIBCMTD:undname.obj
 0002:0002f0c0       ??_C@_02GPECMEKF@?$FL?$FN?$AA@ 101ad0c0     LIBCMTD:undname.obj
 0002:0002f0c4       ??_C@_02FDNJECIE@?$CB?$DN?$AA@ 101ad0c4     LIBCMTD:undname.obj
 0002:0002f0c8       ??_C@_02EGOFBIJA@?$DN?$DN?$AA@ 101ad0c8     LIBCMTD:undname.obj
 0002:0002f0cc       ??_C@_01DCLJPIOD@?$CB?$AA@ 101ad0cc     LIBCMTD:undname.obj
 0002:0002f0d0       ??_C@_02FODMEDOG@?$DM?$DM?$AA@ 101ad0d0     LIBCMTD:undname.obj
 0002:0002f0d4       ??_C@_02GPIOPFAK@?$DO?$DO?$AA@ 101ad0d4     LIBCMTD:undname.obj
 0002:0002f0d8       ??_C@_07FPCDHGMM@?5delete?$AA@ 101ad0d8     LIBCMTD:undname.obj
 0002:0002f0e0       ??_C@_04NIHEBCM@?5new?$AA@ 101ad0e0     LIBCMTD:undname.obj
 0002:0002f0e8       ??_C@_0M@GFIIJFMG@__unaligned?$AA@ 101ad0e8     LIBCMTD:undname.obj
 0002:0002f0f4       ??_C@_0L@PILCLIHE@__restrict?$AA@ 101ad0f4     LIBCMTD:undname.obj
 0002:0002f100       ??_C@_07JOMMBBKO@__ptr64?$AA@ 101ad100     LIBCMTD:undname.obj
 0002:0002f108       ??_C@_09HIJEGCPM@__clrcall?$AA@ 101ad108     LIBCMTD:undname.obj
 0002:0002f114       ??_C@_0L@JMKHOMEK@__fastcall?$AA@ 101ad114     LIBCMTD:undname.obj
 0002:0002f120       ??_C@_0L@NPHFGOKO@__thiscall?$AA@ 101ad120     LIBCMTD:undname.obj
 0002:0002f12c       ??_C@_09IFJBGAPI@__stdcall?$AA@ 101ad12c     LIBCMTD:undname.obj
 0002:0002f138       ??_C@_08GHMPAG@__pascal?$AA@ 101ad138     LIBCMTD:undname.obj
 0002:0002f144       ??_C@_07KOLFKCDI@__cdecl?$AA@ 101ad144     LIBCMTD:undname.obj
 0002:0002f14c       ??_C@_08EHJDFFNH@__based?$CI?$AA@ 101ad14c     LIBCMTD:undname.obj
 0002:0002f2d8       ??_C@_04HEJADOOB@CV?3?5?$AA@ 101ad2d8     LIBCMTD:undname.obj
 0002:0002f2e0       ??_C@_02MOLJINC@?3?3?$AA@  101ad2e0     LIBCMTD:undname.obj
 0002:0002f2e4       ??_C@_01GEODFPGF@?8?$AA@   101ad2e4     LIBCMTD:undname.obj
 0002:0002f2e8       ??_C@_01NLNLIGKH@?$GA?$AA@ 101ad2e8     LIBCMTD:undname.obj
 0002:0002f2ec       ??_C@_0O@KHGCOMHP@generic?9type?9?$AA@ 101ad2ec     LIBCMTD:undname.obj
 0002:0002f2fc       ??_C@_0BE@JAEOCHPE@template?9parameter?9?$AA@ 101ad2fc     LIBCMTD:undname.obj
 0002:0002f310       ??_C@_02OHHJMEON@?8?8?$AA@ 101ad310     LIBCMTD:undname.obj
 0002:0002f314       ??_C@_0BG@JNJLAMPM@?$GAanonymous?5namespace?8?$AA@ 101ad314     LIBCMTD:undname.obj
 0002:0002f32c       ??_C@_0BN@IBLMMFAP@?$GAnon?9type?9template?9parameter?$AA@ 101ad32c     LIBCMTD:undname.obj
 0002:0002f34c       ??_C@_0BE@EODMJLIF@?$GAtemplate?9parameter?$AA@ 101ad34c     LIBCMTD:undname.obj
 0002:0002f360       ??_C@_04GKJNKENE@void?$AA@ 101ad360     LIBCMTD:undname.obj
 0002:0002f368       ??_C@_04HIBGFPH@NULL?$AA@  101ad368     LIBCMTD:undname.obj
 0002:0002f370       ??_C@_0M@DHNBOJMP@extern?5?$CCC?$CC?5?$AA@ 101ad370     LIBCMTD:undname.obj
 0002:0002f37c       ??_C@_08KJLFOPNE@?$FLthunk?$FN?3?$AA@ 101ad37c     LIBCMTD:undname.obj
 0002:0002f388       ??_C@_08GPDDCMKI@public?3?5?$AA@ 101ad388     LIBCMTD:undname.obj
 0002:0002f394       ??_C@_0M@GAIFPFIP@protected?3?5?$AA@ 101ad394     LIBCMTD:undname.obj
 0002:0002f3a0       ??_C@_09LAPHOOG@private?3?5?$AA@ 101ad3a0     LIBCMTD:undname.obj
 0002:0002f3ac       ??_C@_08NIEOINHE@virtual?5?$AA@ 101ad3ac     LIBCMTD:undname.obj
 0002:0002f3b8       ??_C@_07PGOEDBHP@static?5?$AA@ 101ad3b8     LIBCMTD:undname.obj
 0002:0002f3c0       ??_C@_0DA@HGFJFBBE@?$GAtemplate?5static?5data?5member?5des@ 101ad3c0     LIBCMTD:undname.obj
 0002:0002f3f0       ??_C@_0DB@ILEFOCIJ@?$GAtemplate?5static?5data?5member?5con@ 101ad3f0     LIBCMTD:undname.obj
 0002:0002f424       ??_C@_0CB@KJDOOODE@?$GAlocal?5static?5destructor?5helper?8@ 101ad424     LIBCMTD:undname.obj
 0002:0002f448       ??_C@_0L@HNGCOGAE@?$GAadjustor?$HL?$AA@ 101ad448     LIBCMTD:undname.obj
 0002:0002f454       ??_C@_0L@GHPFDFH@?$GAvtordisp?$HL?$AA@ 101ad454     LIBCMTD:undname.obj
 0002:0002f460       ??_C@_0N@CBHHHENL@?$GAvtordispex?$HL?$AA@ 101ad460     LIBCMTD:undname.obj
 0002:0002f470       ??_C@_01CLKCMJKC@?5?$AA@   101ad470     LIBCMTD:undname.obj
 0002:0002f474       ??_C@_02IGFCGPIL@?$HN?8?$AA@ 101ad474     LIBCMTD:undname.obj
 0002:0002f478       ??_C@_03OPGICMGF@?$HN?8?5?$AA@ 101ad478     LIBCMTD:undname.obj
 0002:0002f47c       ??_C@_02KCKGHPCA@?$CJ?5?$AA@ 101ad47c     LIBCMTD:undname.obj
 0002:0002f480       ??_C@_05BEFAKPML@void?5?$AA@ 101ad480     LIBCMTD:undname.obj
 0002:0002f488       ??_C@_08PABEKFH@volatile?$AA@ 101ad488     LIBCMTD:undname.obj
 0002:0002f494       ??_C@_0M@ELJOJFFH@?0?$DMellipsis?$DO?$AA@ 101ad494     LIBCMTD:undname.obj
 0002:0002f4a0       ??_C@_04EENFHACM@?0?4?4?4?$AA@ 101ad4a0     LIBCMTD:undname.obj
 0002:0002f4a8       ??_C@_0L@EGPHHEKN@?$DMellipsis?$DO?$AA@ 101ad4a8     LIBCMTD:undname.obj
 0002:0002f4b4       ??_C@_07HDJPLPEK@?5throw?$CI?$AA@ 101ad4b4     LIBCMTD:undname.obj
 0002:0002f4bc       ??_C@_09EFNPDFFP@?5volatile?$AA@ 101ad4bc     LIBCMTD:undname.obj
 0002:0002f4c8       ??_C@_05BNCCCJPP@const?$AA@ 101ad4c8     LIBCMTD:undname.obj
 0002:0002f4d0       ??_C@_07EDHNAJHC@signed?5?$AA@ 101ad4d0     LIBCMTD:undname.obj
 0002:0002f4d8       ??_C@_09EBBEKKIH@unsigned?5?$AA@ 101ad4d8     LIBCMTD:undname.obj
 0002:0002f4e4       ??_C@_07NFANNNEC@UNKNOWN?$AA@ 101ad4e4     LIBCMTD:undname.obj
 0002:0002f4ec       ??_C@_06GCICPBLB@__w64?5?$AA@ 101ad4ec     LIBCMTD:undname.obj
 0002:0002f4f4       ??_C@_07CLGGIAMF@wchar_t?$AA@ 101ad4f4     LIBCMTD:undname.obj
 0002:0002f4fc       ??_C@_08GAHOLHEO@__int128?$AA@ 101ad4fc     LIBCMTD:undname.obj
 0002:0002f508       ??_C@_07LFCOJCAC@__int64?$AA@ 101ad508     LIBCMTD:undname.obj
 0002:0002f510       ??_C@_07OFLPPHGP@__int32?$AA@ 101ad510     LIBCMTD:undname.obj
 0002:0002f518       ??_C@_07ICFHOGAF@__int16?$AA@ 101ad518     LIBCMTD:undname.obj
 0002:0002f520       ??_C@_06EBGKOKIG@__int8?$AA@ 101ad520     LIBCMTD:undname.obj
 0002:0002f528       ??_C@_04DDKJGDCM@bool?$AA@ 101ad528     LIBCMTD:undname.obj
 0002:0002f530       ??_C@_06BNJCAIGJ@double?$AA@ 101ad530     LIBCMTD:undname.obj
 0002:0002f538       ??_C@_05CJIMAING@long?5?$AA@ 101ad538     LIBCMTD:undname.obj
 0002:0002f540       ??_C@_05KNFBNCOH@float?$AA@ 101ad540     LIBCMTD:undname.obj
 0002:0002f548       ??_C@_04GOKPGOLB@long?$AA@ 101ad548     LIBCMTD:undname.obj
 0002:0002f550       ??_C@_03JBIPMCLC@int?$AA@  101ad550     LIBCMTD:undname.obj
 0002:0002f554       ??_C@_05BFKKPKCG@short?$AA@ 101ad554     LIBCMTD:undname.obj
 0002:0002f55c       ??_C@_04ENMBGAPA@char?$AA@ 101ad55c     LIBCMTD:undname.obj
 0002:0002f564       ??_C@_05LJGMCFOG@enum?5?$AA@ 101ad564     LIBCMTD:undname.obj
 0002:0002f56c       ??_C@_0N@DLIEFKNA@cointerface?5?$AA@ 101ad56c     LIBCMTD:undname.obj
 0002:0002f57c       ??_C@_08KOFANOFK@coclass?5?$AA@ 101ad57c     LIBCMTD:undname.obj
 0002:0002f588       ??_C@_06LJBABKPM@class?5?$AA@ 101ad588     LIBCMTD:undname.obj
 0002:0002f590       ??_C@_07DIBCDNGL@struct?5?$AA@ 101ad590     LIBCMTD:undname.obj
 0002:0002f598       ??_C@_06MOJHIBMG@union?5?$AA@ 101ad598     LIBCMTD:undname.obj
 0002:0002f5a0       ??_C@_0P@GCIFDJCJ@?$GAunknown?5ecsu?8?$AA@ 101ad5a0     LIBCMTD:undname.obj
 0002:0002f5b0       ??_C@_04LAHKHJMA@int?5?$AA@ 101ad5b0     LIBCMTD:undname.obj
 0002:0002f5b8       ??_C@_06EHJMALKF@short?5?$AA@ 101ad5b8     LIBCMTD:undname.obj
 0002:0002f5c0       ??_C@_05CIHEBHNO@char?5?$AA@ 101ad5c0     LIBCMTD:undname.obj
 0002:0002f5c8       ??_C@_06LIJLOJAG@const?5?$AA@ 101ad5c8     LIBCMTD:undname.obj
 0002:0002f5d0       ??_C@_09GAIEOBLP@volatile?5?$AA@ 101ad5d0     LIBCMTD:undname.obj
 0002:0002f5dc       ??_C@_0O@GKABPPIF@cli?3?3pin_ptr?$DM?$AA@ 101ad5dc     LIBCMTD:undname.obj
 0002:0002f5ec       ??_C@_0M@EALIELKG@cli?3?3array?$DM?$AA@ 101ad5ec     LIBCMTD:undname.obj
 0002:0002f5f8       ??_C@_02GOGNNPBN@?$CJ?$FL?$AA@ 101ad5f8     LIBCMTD:undname.obj
 0002:0002f5fc       ??_C@_06EEGAIFAK@?$HLflat?$HN?$AA@ 101ad5fc     LIBCMTD:undname.obj
 0002:0002f604       ??_C@_02MDINNEEG@s?5?$AA@  101ad604     LIBCMTD:undname.obj
 0002:0002f608       ??_C@_05JIBOFOHK@?$HLfor?5?$AA@ 101ad608     LIBCMTD:undname.obj
 0002:0002f610       ??_7DNameNode@@6B@         101ad610     LIBCMTD:undname.obj
 0002:0002f61c       ??_7charNode@@6B@          101ad61c     LIBCMTD:undname.obj
 0002:0002f628       ??_7pcharNode@@6B@         101ad628     LIBCMTD:undname.obj
 0002:0002f634       ??_7pDNameNode@@6B@        101ad634     LIBCMTD:undname.obj
 0002:0002f640       ??_7DNameStatusNode@@6B@   101ad640     LIBCMTD:undname.obj
 0002:0002f64c       ??_C@_04OKOHEJBO@?5?$DP?$DP?5?$AA@ 101ad64c     LIBCMTD:undname.obj
 0002:0002f654       ??_7pairNode@@6B@          101ad654     LIBCMTD:undname.obj
 0002:0002f660       ??_C@_1FO@IFEMNBMO@?$AAf?$AA?3?$AA?2?$AAd?$AAd?$AA?2?$AAv?$AAc?$AAt?$AAo?$AAo?$AAl?$AAs?$AA?2?$AAc?$AAr?$AAt?$AA_?$AAb?$AAl?$AAd?$AA?2?$AAs?$AAe?$AAl?$AAf?$AA_?$AAx?$AA8?$AA6?$AA?2?$AAc@ 101ad660     LIBCMTD:a_cmp.obj
 0002:0002f6c0       ??_C@_1HK@ELDMAMK@?$AAc?$AAc?$AAh?$AAC?$AAo?$AAu?$AAn?$AAt?$AA1?$AA?$DN?$AA?$DN?$AA0?$AA?5?$AA?$CG?$AA?$CG?$AA?5?$AAc?$AAc?$AAh?$AAC?$AAo?$AAu?$AAn?$AAt?$AA2?$AA?$DN?$AA?$DN?$AA1?$AA?5?$AA?$HM?$AA?$HM?$AA?5@ 101ad6c0     LIBCMTD:a_cmp.obj
 0002:0002f73c       ??_C@_1CC@CNADELFK@?$AA_?$AAs?$AAt?$AAr?$AAi?$AAn?$AAg?$AA2?$AA?5?$AA?$CB?$AA?$DN?$AA?5?$AAN?$AAU?$AAL?$AAL?$AA?$AA@ 101ad73c     LIBCMTD:strnicol.obj
 0002:0002f760       ??_C@_1BK@IOJEBPLP@?$AA_?$AAs?$AAt?$AAr?$AAn?$AAi?$AAc?$AAo?$AAl?$AAl?$AA_?$AAl?$AA?$AA@ 101ad760     LIBCMTD:strnicol.obj
 0002:0002f780       ??_C@_1GE@BDOBNJJ@?$AAf?$AA?3?$AA?2?$AAd?$AAd?$AA?2?$AAv?$AAc?$AAt?$AAo?$AAo?$AAl?$AAs?$AA?2?$AAc?$AAr?$AAt?$AA_?$AAb?$AAl?$AAd?$AA?2?$AAs?$AAe?$AAl?$AAf?$AA_?$AAx?$AA8?$AA6?$AA?2?$AAc@ 101ad780     LIBCMTD:strnicol.obj
 0002:0002f7e4       ??_C@_1CC@ICKKAGJA@?$AA_?$AAs?$AAt?$AAr?$AAi?$AAn?$AAg?$AA1?$AA?5?$AA?$CB?$AA?$DN?$AA?5?$AAN?$AAU?$AAL?$AAL?$AA?$AA@ 101ad7e4     LIBCMTD:strnicol.obj
 0002:0002f808       ??_C@_1FG@OKIAKKPK@?$AAs?$AAt?$AAr?$AAc?$AAp?$AAy?$AA_?$AAs?$AA?$CI?$AAn?$AAa?$AAm?$AAe?$AA?0?$AA?5?$AAs?$AAt?$AAr?$AAl?$AAe?$AAn?$AA?$CI?$AAo?$AAp?$AAt?$AAi?$AAo?$AAn?$AA?$CJ?$AA?5?$AA?$CL?$AA?5@ 101ad808     LIBCMTD:setenv.obj
 0002:0002f860       ??_C@_1EI@GHDNAPMG@?$AA?$CI?$AA?$CC?$AAC?$AAR?$AAT?$AA?5?$AAL?$AAo?$AAg?$AAi?$AAc?$AA?5?$AAe?$AAr?$AAr?$AAo?$AAr?$AA?5?$AAd?$AAu?$AAr?$AAi?$AAn?$AAg?$AA?5?$AAs?$AAe?$AAt?$AAe?$AAn?$AAv?$AA?$CC@ 101ad860     LIBCMTD:setenv.obj
 0002:0002f8a8       ??_C@_0DA@NHJGCDK@f?3?2dd?2vctools?2crt_bld?2self_x86?2c@ 101ad8a8     LIBCMTD:setenv.obj
 0002:0002f8d8       ??_C@_1FC@EEJIEIDF@?$AA_?$AAt?$AAc?$AAs?$AAn?$AAl?$AAe?$AAn?$AA?$CI?$AAe?$AAq?$AAu?$AAa?$AAl?$AA?5?$AA?$CL?$AA?5?$AA1?$AA?0?$AA?5?$AA_?$AAM?$AAA?$AAX?$AA_?$AAE?$AAN?$AAV?$AA?$CJ?$AA?5?$AA?$DM?$AA?5@ 101ad8d8     LIBCMTD:setenv.obj
 0002:0002f92c       ??_C@_1DE@EEHFNNGH@?$AAe?$AAq?$AAu?$AAa?$AAl?$AA?5?$AA?9?$AA?5?$AAo?$AAp?$AAt?$AAi?$AAo?$AAn?$AA?5?$AA?$DM?$AA?5?$AA_?$AAM?$AAA?$AAX?$AA_?$AAE?$AAN?$AAV?$AA?$AA@ 101ad92c     LIBCMTD:setenv.obj
 0002:0002f960       ??_C@_1BI@CDAFOAAL@?$AA_?$AA_?$AAc?$AAr?$AAt?$AAs?$AAe?$AAt?$AAe?$AAn?$AAv?$AA?$AA@ 101ad960     LIBCMTD:setenv.obj
 0002:0002f978       ??_C@_1GA@KKPDKNLP@?$AAf?$AA?3?$AA?2?$AAd?$AAd?$AA?2?$AAv?$AAc?$AAt?$AAo?$AAo?$AAl?$AAs?$AA?2?$AAc?$AAr?$AAt?$AA_?$AAb?$AAl?$AAd?$AA?2?$AAs?$AAe?$AAl?$AAf?$AA_?$AAx?$AA8?$AA6?$AA?2?$AAc@ 101ad978     LIBCMTD:setenv.obj
 0002:0002f9d8       ??_C@_1CA@LMBEKBDN@?$AAp?$AAo?$AAp?$AAt?$AAi?$AAo?$AAn?$AA?5?$AA?$CB?$AA?$DN?$AA?5?$AAN?$AAU?$AAL?$AAL?$AA?$AA@ 101ad9d8     LIBCMTD:setenv.obj
 0002:0002f9f8       ??_C@_1FK@DNFLNPD@?$AAs?$AAt?$AAr?$AAc?$AAp?$AAy?$AA_?$AAs?$AA?$CI?$AA?$CK?$AAn?$AAe?$AAw?$AAe?$AAn?$AAv?$AAp?$AAt?$AAr?$AA?0?$AA?5?$AAe?$AAn?$AAv?$AAp?$AAt?$AAr?$AAS?$AAi?$AAz?$AAe?$AA?0@ 101ad9f8     LIBCMTD:setenv.obj
 0002:0002fa54       ??_C@_1BK@ECKIJLPM@?$AAc?$AAo?$AAp?$AAy?$AA_?$AAe?$AAn?$AAv?$AAi?$AAr?$AAo?$AAn?$AA?$AA@ 101ada54     LIBCMTD:setenv.obj
 0002:0002fa70       ??_C@_1BE@JKKFLIKJ@?$AA_?$AAm?$AAb?$AAs?$AAc?$AAh?$AAr?$AA_?$AAl?$AA?$AA@ 101ada70     LIBCMTD:mbschr.obj
 0002:0002fa88       ??_C@_1GA@GDCAGKMG@?$AAf?$AA?3?$AA?2?$AAd?$AAd?$AA?2?$AAv?$AAc?$AAt?$AAo?$AAo?$AAl?$AAs?$AA?2?$AAc?$AAr?$AAt?$AA_?$AAb?$AAl?$AAd?$AA?2?$AAs?$AAe?$AAl?$AAf?$AA_?$AAx?$AA8?$AA6?$AA?2?$AAc@ 101ada88     LIBCMTD:mbschr.obj
 0002:0002fae8       ??_C@_1BO@JIBAMMGI@?$AAs?$AAt?$AAr?$AAi?$AAn?$AAg?$AA?5?$AA?$CB?$AA?$DN?$AA?5?$AAN?$AAU?$AAL?$AAL?$AA?$AA@ 101adae8     LIBCMTD:mbschr.obj
 0002:0002fb08       __load_config_used         101adb08     LIBCMTD:loadcfg.obj
 0002:00038c3c       ??_R4bad_exception@std@@6B@ 101b6c3c     LIBCMTD:frame.obj
 0002:00038c50       ??_R3bad_exception@std@@8  101b6c50     LIBCMTD:frame.obj
 0002:00038c60       ??_R2bad_exception@std@@8  101b6c60     LIBCMTD:frame.obj
 0002:00038c6c       ??_R1A@?0A@EA@bad_exception@std@@8 101b6c6c     LIBCMTD:frame.obj
 0002:00038c88       ??_R1A@?0A@EA@exception@std@@8 101b6c88     LIBCMTD:frame.obj
 0002:00038ca4       ??_R3exception@std@@8      101b6ca4     LIBCMTD:frame.obj
 0002:00038cb4       ??_R2exception@std@@8      101b6cb4     LIBCMTD:frame.obj
 0002:00038cbc       ??_R4type_info@@6B@        101b6cbc     LIBCMTD:typinfo.obj
 0002:00038cd0       ??_R3type_info@@8          101b6cd0     LIBCMTD:typinfo.obj
 0002:00038ce0       ??_R2type_info@@8          101b6ce0     LIBCMTD:typinfo.obj
 0002:00038ce8       ??_R1A@?0A@EA@type_info@@8 101b6ce8     LIBCMTD:typinfo.obj
 0002:00038d04       ??_R4exception@std@@6B@    101b6d04     LIBCMTD:stdexcpt.obj
 0002:00038d18       ??_R4bad_cast@std@@6B@     101b6d18     LIBCMTD:stdexcpt.obj
 0002:00038d2c       ??_R3bad_cast@std@@8       101b6d2c     LIBCMTD:stdexcpt.obj
 0002:00038d3c       ??_R2bad_cast@std@@8       101b6d3c     LIBCMTD:stdexcpt.obj
 0002:00038d48       ??_R1A@?0A@EA@bad_cast@std@@8 101b6d48     LIBCMTD:stdexcpt.obj
 0002:00038d64       ??_R4bad_typeid@std@@6B@   101b6d64     LIBCMTD:stdexcpt.obj
 0002:00038d78       ??_R3bad_typeid@std@@8     101b6d78     LIBCMTD:stdexcpt.obj
 0002:00038d88       ??_R2bad_typeid@std@@8     101b6d88     LIBCMTD:stdexcpt.obj
 0002:00038d94       ??_R1A@?0A@EA@bad_typeid@std@@8 101b6d94     LIBCMTD:stdexcpt.obj
 0002:00038db0       ??_R4__non_rtti_object@std@@6B@ 101b6db0     LIBCMTD:stdexcpt.obj
 0002:00038dc4       ??_R3__non_rtti_object@std@@8 101b6dc4     LIBCMTD:stdexcpt.obj
 0002:00038dd4       ??_R2__non_rtti_object@std@@8 101b6dd4     LIBCMTD:stdexcpt.obj
 0002:00038de4       ??_R1A@?0A@EA@__non_rtti_object@std@@8 101b6de4     LIBCMTD:stdexcpt.obj
 0002:00038f60       ___safe_se_handler_table   101b6f60     <linker-defined>
 0002:000390a0       ___rtc_iaa                 101b70a0     LIBCMTD:_initsect_.obj
 0002:000391a4       ___rtc_izz                 101b71a4     LIBCMTD:_initsect_.obj
 0002:000392a8       ___rtc_taa                 101b72a8     LIBCMTD:_initsect_.obj
 0002:000393ac       ___rtc_tzz                 101b73ac     LIBCMTD:_initsect_.obj
 0002:00039d5c       __TI2?AVbad_exception@std@@ 101b7d5c     LIBCMTD:frame.obj
 0002:00039d6c       __CTA2?AVbad_exception@std@@ 101b7d6c     LIBCMTD:frame.obj
 0002:00039d78       __CT??_R0?AVbad_exception@std@@@8??0bad_exception@std@@QAE@ABV01@@Z12 101b7d78     LIBCMTD:frame.obj
 0002:00039d94       __CT??_R0?AVexception@std@@@8??0exception@std@@QAE@ABV01@@Z12 101b7d94     LIBCMTD:frame.obj
 0003:00000010       ?m_rayCastSimplex@dgConvexCollision@@1PAY03HA 101bd010     physics:dgConvexCollision.obj
 0003:00000050       ?m_hullDirs@dgConvexCollision@@1PAVdgTriplex@@A 101bd050     physics:dgConvexCollision.obj
 0003:000000f8       ?m_edgeArray@dgCollisionBox@@1PAVdgConvexSimplexEdge@@A 101bd0f8     physics:dgCollisionBox.obj
 0003:00000278       ?m_faceIndex@dgContactSolver@@2PAY03HA 101bd278     physics:dgMinkowskiConv.obj
 0003:000006cc       ?mult@dgPolyhedraMassProperties@@0PAMA 101bd6cc     corelib:dgPolyhedraMassProperties.obj
 0003:00000700       __fltused                  101bd700     LIBCMTD:_fpinit_.obj
 0003:00000704       __ldused                   101bd704     LIBCMTD:_fpinit_.obj
 0003:00000730       __half                     101bd730     LIBCMTD:_pow_.obj
 0003:00000750       __cfltcvt_tab              101bd750     LIBCMTD:cmiscdat.obj
 0003:000008a0       __crtDbgFlag               101bd8a0     LIBCMTD:dbgheap.obj
 0003:000008a4       ___crtDebugFillThreshold   101bd8a4     LIBCMTD:dbgheap.obj
 0003:000008ac       __crtBreakAlloc            101bd8ac     LIBCMTD:dbgheap.obj
 0003:000008b4       __crtAssertBusy            101bd8b4     LIBCMTD:dbgrptt.obj
 0003:000008b8       __CrtDbgMode               101bd8b8     LIBCMTD:dbgrptt.obj
 0003:000008c4       __CrtDbgFile               101bd8c4     LIBCMTD:dbgrptt.obj
 0003:00000a40       ___security_cookie         101bda40     LIBCMTD:gs_cookie.obj
 0003:00000a44       ___security_cookie_complement 101bda44     LIBCMTD:gs_cookie.obj
 0003:00000a48       __aexit_rtn                101bda48     LIBCMTD:crt0dat.obj
 0003:00000a50       __d_inf                    101bda50     LIBCMTD:_util_.obj
 0003:00000a58       __d_ind                    101bda58     LIBCMTD:_util_.obj
 0003:00000a60       __d_max                    101bda60     LIBCMTD:_util_.obj
 0003:00000a68       __d_min                    101bda68     LIBCMTD:_util_.obj
 0003:00000a70       __d_mzero                  101bda70     LIBCMTD:_util_.obj
 0003:00000b7c       ___flsindex                101bdb7c     LIBCMTD:tidtable.obj
 0003:00000b80       ___getvalueindex           101bdb80     LIBCMTD:tidtable.obj
 0003:00000b88       ___badioinfo               101bdb88     LIBCMTD:ioinit.obj
 0003:00000bc8       __amblksiz                 101bdbc8     LIBCMTD:heapinit.obj
 0003:00000bcc       __First_FPE_Indx           101bdbcc     LIBCMTD:winxfltr.obj
 0003:00000bd0       __Num_FPE                  101bdbd0     LIBCMTD:winxfltr.obj
 0003:00000bd4       __XcptActTabSize           101bdbd4     LIBCMTD:winxfltr.obj
 0003:00000bd8       __XcptActTabCount          101bdbd8     LIBCMTD:winxfltr.obj
 0003:00000bdc       ___nullstring              101bdbdc     LIBCMTD:output.obj
 0003:00000be0       ___wnullstring             101bdbe0     LIBCMTD:output.obj
 0003:00000be4       ___abort_behavior          101bdbe4     LIBCMTD:abort.obj
 0003:00000ca0       __infinity                 101bdca0     LIBCMTD:_87tran_.obj
 0003:00000caa       __minfinity                101bdcaa     LIBCMTD:_87tran_.obj
 0003:00000cb4       __logemax                  101bdcb4     LIBCMTD:_87tran_.obj
 0003:00000cda       __OP_EXPjmptab             101bdcda     LIBCMTD:_87tran_.obj
 0003:00000d00       __indefinite               101bdd00     LIBCMTD:_87disp_.obj
 0003:00000d0a       __piby2                    101bdd0a     LIBCMTD:_87disp_.obj
 0003:00000d30       __NLG_Destination          101bdd30     LIBCMTD:exsup.obj
 0003:00000d40       ___initialmbcinfo          101bdd40     LIBCMTD:mbctype.obj
 0003:00000f60       __mbctype                  101bdf60     LIBCMTD:mbctype.obj
 0003:00001068       __mbcasemap                101be068     LIBCMTD:mbctype.obj
 0003:00001168       ___ptmbcinfo               101be168     LIBCMTD:mbctype.obj
 0003:00001264       ___globallocalestatus      101be264     LIBCMTD:glstatus.obj
 0003:00001268       ___clocalestr              101be268     LIBCMTD:nlsdata2.obj
 0003:00001270       ___initiallocinfo          101be270     LIBCMTD:nlsdata2.obj
 0003:00001348       ___ptlocinfo               101be348     LIBCMTD:nlsdata2.obj
 0003:0000134c       ___lc_clike                101be34c     LIBCMTD:nlsdata2.obj
 0003:00001350       ___initiallocalestructinfo 101be350     LIBCMTD:nlsdata2.obj
 0003:00001360       __matherr_flag             101be360     LIBCMTD:_matherr_.obj
 0003:00001368       __pfnAllocHook             101be368     LIBCMTD:dbghook.obj
 0003:00001370       __iob                      101be370     LIBCMTD:_file.obj
 0003:00001750       __pctype                   101be750     LIBCMTD:ctype.obj
 0003:00001754       __pwctype                  101be754     LIBCMTD:ctype.obj
 0003:00001758       ___lc_time_c               101be758     LIBCMTD:strftime.obj
 0003:00001810       ___lc_time_curr            101be810     LIBCMTD:strftime.obj
 0003:00001814       ___lconv_static_decimal    101be814     LIBCMTD:lconv.obj
 0003:00001818       ___lconv_c                 101be818     LIBCMTD:lconv.obj
 0003:00001848       ___lconv                   101be848     LIBCMTD:lconv.obj
 0003:00001850       ___mb_cur_max              101be850     LIBCMTD:nlsdata1.obj
 0003:00001854       ___decimal_point           101be854     LIBCMTD:nlsdata1.obj
 0003:00001858       ___decimal_point_length    101be858     LIBCMTD:nlsdata1.obj
 0003:00001894       ?_RTC_ErrorLevels@@3PAHA   101be894     LIBCMTD:_error_.obj
 0003:000018ac       ??_R0?AVbad_exception@std@@@8 101be8ac     LIBCMTD:frame.obj
 0003:000018cc       ??_R0?AVexception@std@@@8  101be8cc     LIBCMTD:frame.obj
 0003:000018f0       __timezone                 101be8f0     LIBCMTD:timeset.obj
 0003:000018f4       __daylight                 101be8f4     LIBCMTD:timeset.obj
 0003:000018f8       __dstbias                  101be8f8     LIBCMTD:timeset.obj
 0003:00001980       __tzname                   101be980     LIBCMTD:timeset.obj
 0003:000019a0       __pow10pos                 101be9a0     LIBCMTD:_constpow_.obj
 0003:00001b00       __pow10neg                 101beb00     LIBCMTD:_constpow_.obj
 0003:00001c5c       __coninpfh                 101bec5c     LIBCMTD:initcon.obj
 0003:00001c60       __confh                    101bec60     LIBCMTD:initcon.obj
 0003:00001c6c       ??_R0?AVtype_info@@@8      101bec6c     LIBCMTD:typinfo.obj
 0003:00001c88       ??_R0?AVbad_cast@std@@@8   101bec88     LIBCMTD:stdexcpt.obj
 0003:00001ca4       ??_R0?AVbad_typeid@std@@@8 101beca4     LIBCMTD:stdexcpt.obj
 0003:00001cc4       ??_R0?AV__non_rtti_object@std@@@8 101becc4     LIBCMTD:stdexcpt.obj
 0003:00001ce8       __lpdays                   101bece8     LIBCMTD:days.obj
 0003:00001d1c       __days                     101bed1c     LIBCMTD:days.obj
 0003:00002450       ?m_edgeArray@dgCollisionSphere@@1PAVdgConvexSimplexEdge@@A 101bf450     physics:dgCollisionSphere.obj
 0003:00002a50       ?m_shapeRefCount@dgCollisionSphere@@1HA 101bfa50     physics:dgCollisionSphere.obj
 0003:00002a60       ?m_unitSphere@dgCollisionSphere@@1PAVdgVector@@A 101bfa60     physics:dgCollisionSphere.obj
 0003:00002b80       ?m_iniliazised@dgConvexCollision@@1HA 101bfb80     physics:dgConvexCollision.obj
 0003:00002b90       ?m_multiResDir@dgConvexCollision@@1PAVdgVector@@A 101bfb90     physics:dgConvexCollision.obj
 0003:00002c10       ?m_multiResDir_sse@dgConvexCollision@@1PAVdgVector@@A 101bfc10     physics:dgConvexCollision.obj
 0003:00002c70       ?m_zero@dgConvexCollision@@1VdgVector@@A 101bfc70     physics:dgConvexCollision.obj
 0003:00002c80       ?m_negOne@dgConvexCollision@@1VdgVector@@A 101bfc80     physics:dgConvexCollision.obj
 0003:00002c90       ?m_nrh0p5@dgConvexCollision@@1VdgVector@@A 101bfc90     physics:dgConvexCollision.obj
 0003:00002ca0       ?m_nrh3p0@dgConvexCollision@@1VdgVector@@A 101bfca0     physics:dgConvexCollision.obj
 0003:00002cb0       ?m_indexStep@dgConvexCollision@@1VdgVector@@A 101bfcb0     physics:dgConvexCollision.obj
 0003:00002cc0       ?m_index_0123@dgConvexCollision@@1VdgVector@@A 101bfcc0     physics:dgConvexCollision.obj
 0003:00002cd0       ?m_index_4567@dgConvexCollision@@1VdgVector@@A 101bfcd0     physics:dgConvexCollision.obj
 0003:00002ce0       ?m_huge@dgConvexCollision@@1VdgVector@@A 101bfce0     physics:dgConvexCollision.obj
 0003:00002cf0       ?m_negativeTiny@dgConvexCollision@@1VdgVector@@A 101bfcf0     physics:dgConvexCollision.obj
 0003:00002d00       ?m_aabb_padd@dgConvexCollision@@1VdgVector@@A 101bfd00     physics:dgConvexCollision.obj
 0003:00002d10       ?m_signMask@dgConvexCollision@@1VdgVector@@A 101bfd10     physics:dgConvexCollision.obj
 0003:00002d20       ?m_triplexMask@dgConvexCollision@@1VdgVector@@A 101bfd20     physics:dgConvexCollision.obj
 0003:00002d30       ?m_edgeArray@dgCollisionCapsule@@0PAVdgConvexSimplexEdge@@A 101bfd30     physics:dgCollisionCapsule.obj
 0003:00003870       ?m_shapeRefCount@dgCollisionCapsule@@0HA 101c0870     physics:dgCollisionCapsule.obj
 0003:00003878       ?m_edgeArray@dgCollisionCone@@0PAVdgConvexSimplexEdge@@A 101c0878     physics:dgCollisionCone.obj
 0003:00003a78       ?m_shapeRefCount@dgCollisionCone@@0HA 101c0a78     physics:dgCollisionCone.obj
 0003:00003a80       ?m_edgeArray@dgCollisionCylinder@@0PAVdgConvexSimplexEdge@@A 101c0a80     physics:dgCollisionCylinder.obj
 0003:00003d80       ?m_shapeRefCount@dgCollisionCylinder@@0HA 101c0d80     physics:dgCollisionCylinder.obj
 0003:00003d90       ?m_edgeArray@dgCollisionChamferCylinder@@0PAVdgConvexSimplexEdge@@A 101c0d90     physics:dgCollisionChamferCylinder.obj
 0003:00004690       ?m_shapeRefCount@dgCollisionChamferCylinder@@0HA 101c1690     physics:dgCollisionChamferCylinder.obj
 0003:000046a0       ?m_shapesDirs@dgCollisionChamferCylinder@@0PAVdgVector@@A 101c16a0     physics:dgCollisionChamferCylinder.obj
 0003:00004720       ?m_negIndex@dgContactSolver@@2T__m128@@A 101c1720     physics:dgMinkowskiConv.obj
 0003:00004730       ?m_zero@dgContactSolver@@2T__m128@@A 101c1730     physics:dgMinkowskiConv.obj
 0003:00004740       ?m_index_yx@dgContactSolver@@2T__m128@@A 101c1740     physics:dgMinkowskiConv.obj
 0003:00004750       ?m_index_wz@dgContactSolver@@2T__m128@@A 101c1750     physics:dgMinkowskiConv.obj
 0003:00004760       ?m_zeroTolerenace@dgContactSolver@@2T__m128@@A 101c1760     physics:dgMinkowskiConv.obj
 0003:00004770       ?m_nrh0p5@dgContactSolver@@2T__m128@@A 101c1770     physics:dgMinkowskiConv.obj
 0003:00004780       ?m_nrh3p0@dgContactSolver@@2T__m128@@A 101c1780     physics:dgMinkowskiConv.obj
 0003:00004790       ?m_negativeOne@dgContactSolver@@2T__m128@@A 101c1790     physics:dgMinkowskiConv.obj
 0003:000047a0       ?m_dir@dgContactSolver@@2PAVdgVector@@A 101c17a0     physics:dgMinkowskiConv.obj
 0003:00004880       ?m_globalAllocator@dgGlobalAllocator@@2V1@A 101c1880     corelib:dgMemory.obj
 0003:00004a20       ?id@?1???0dgAABBPointTree3d@@QAE@XZ@4HA 101c1a20     corelib:dgConvexHull3d.obj
 0003:00004a28       ?id@?1???0dgAABBPointTree4d@@QAE@XZ@4HA 101c1a28     corelib:dgConvexHull4d.obj
 0003:00004a88       ___fastflag                101c1a88     LIBCMTD:_fpinit_.obj
 0003:00004a8c       __adjust_fdiv              101c1a8c     LIBCMTD:_fpinit_.obj
 0003:00004a94       __aenvptr                  101c1a94     LIBCMTD:dllcrt0.obj
 0003:00004a98       __wenvptr                  101c1a98     LIBCMTD:dllcrt0.obj
 0003:00004a9c       ___error_mode              101c1a9c     LIBCMTD:dllcrt0.obj
 0003:00004aa0       ___app_type                101c1aa0     LIBCMTD:dllcrt0.obj
 0003:00004c24       ?_pfnDumpClient@@3P6AXPAXI@ZA 101c1c24     LIBCMTD:dbgheap.obj
 0003:00004c2c       ___crtDebugCheckCount      101c1c2c     LIBCMTD:dbgheap.obj
 0003:00004c34       ___pInvalidArgHandler      101c1c34     LIBCMTD:invarg.obj
 0003:00004c38       __umaskval                 101c1c38     LIBCMTD:crt0dat.obj
 0003:00004c3c       ___argc                    101c1c3c     LIBCMTD:crt0dat.obj
 0003:00004c40       ___argv                    101c1c40     LIBCMTD:crt0dat.obj
 0003:00004c44       ___wargv                   101c1c44     LIBCMTD:crt0dat.obj
 0003:00004c48       __environ                  101c1c48     LIBCMTD:crt0dat.obj
 0003:00004c4c       ___initenv                 101c1c4c     LIBCMTD:crt0dat.obj
 0003:00004c50       __wenviron                 101c1c50     LIBCMTD:crt0dat.obj
 0003:00004c54       ___winitenv                101c1c54     LIBCMTD:crt0dat.obj
 0003:00004c58       __pgmptr                   101c1c58     LIBCMTD:crt0dat.obj
 0003:00004c5c       __wpgmptr                  101c1c5c     LIBCMTD:crt0dat.obj
 0003:00004c60       __exitflag                 101c1c60     LIBCMTD:crt0dat.obj
 0003:00004c64       __C_Termination_Done       101c1c64     LIBCMTD:crt0dat.obj
 0003:00004c68       __C_Exit_Done              101c1c68     LIBCMTD:crt0dat.obj
 0003:00004c98       __newmode                  101c1c98     LIBCMTD:_newmode.obj
 0003:00004c9c       _gpFlsAlloc                101c1c9c     LIBCMTD:tidtable.obj
 0003:00004ca0       _gpFlsGetValue             101c1ca0     LIBCMTD:tidtable.obj
 0003:00004ca4       _gpFlsSetValue             101c1ca4     LIBCMTD:tidtable.obj
 0003:00004ca8       _gpFlsFree                 101c1ca8     LIBCMTD:tidtable.obj
 0003:00004dbc       __crtheap                  101c1dbc     LIBCMTD:heapinit.obj
 0003:000050dc       ___pPurecall               101c20dc     LIBCMTD:inithelp.obj
 0003:0000516c       ___mbulinfo                101c216c     LIBCMTD:mbctype.obj
 0003:00005178       ___mbcodepage              101c2178     LIBCMTD:mbctype.obj
 0003:0000517c       ___ismbcodepage            101c217c     LIBCMTD:mbctype.obj
 0003:00005180       ___mblcid                  101c2180     LIBCMTD:mbctype.obj
 0003:00005184       ___locale_changed          101c2184     LIBCMTD:setlocal.obj
 0003:00005188       ___lc_handle               101c2188     LIBCMTD:nlsdata2.obj
 0003:000051a0       ___lc_codepage             101c21a0     LIBCMTD:nlsdata2.obj
 0003:000051a4       ___lc_collate_cp           101c21a4     LIBCMTD:nlsdata2.obj
 0003:000051a8       __outputformat             101c21a8     LIBCMTD:outputformat.obj
 0003:000051b0       ?_pnhHeap@@3P6AHI@ZA       101c21b0     LIBCMTD:handler.obj
 0003:000051bc       ___sbh_pHeaderDefer        101c21bc     LIBCMTD:sbheap.obj
 0003:000051c0       ?__pInconsistency@@3P6AXXZA 101c21c0     LIBCMTD:hooks.obj
 0003:000054ec       __cflush                   101c24ec     LIBCMTD:_file.obj
 0003:00005514       ___lconv_static_null       101c2514     LIBCMTD:lconv.obj
 0003:00005518       ?wsprintffp@@3P6AHPADPBDZZA 101c2518     LIBCMTD:_error_.obj
 0003:0000551c       __stdbuf                   101c251c     LIBCMTD:_sftbuf.obj
 0003:00005610       ?pArgList@UnDecorator@@0PAVReplicator@@A 101c2610     LIBCMTD:undname.obj
 0003:00005614       ?pZNameList@UnDecorator@@0PAVReplicator@@A 101c2614     LIBCMTD:undname.obj
 0003:00005618       ?pTemplateArgList@UnDecorator@@0PAVReplicator@@A 101c2618     LIBCMTD:undname.obj
 0003:0000561c       ?gName@UnDecorator@@0PBDB  101c261c     LIBCMTD:undname.obj
 0003:00005620       ?name@UnDecorator@@0PBDB   101c2620     LIBCMTD:undname.obj
 0003:00005624       ?outputString@UnDecorator@@0PADA 101c2624     LIBCMTD:undname.obj
 0003:00005628       ?maxStringLength@UnDecorator@@0HA 101c2628     LIBCMTD:undname.obj
 0003:0000562c       ?disableFlags@UnDecorator@@0KA 101c262c     LIBCMTD:undname.obj
 0003:00005630       ?m_pGetParameter@UnDecorator@@0P6APADJ@ZA 101c2630     LIBCMTD:undname.obj
 0003:00005634       ?fExplicitTemplateParams@UnDecorator@@0_NA 101c2634     LIBCMTD:undname.obj
 0003:00005635       ?fGetTemplateArgumentList@UnDecorator@@0_NA 101c2635     LIBCMTD:undname.obj
 0003:00005688       ?nodes@?1??make@DNameStatusNode@@SAPAV2@W4DNameStatus@@@Z@4PAV2@A 101c2688     LIBCMTD:undname.obj
 0003:000056b8       ??_B?1??make@DNameStatusNode@@SAPAV1@W4DNameStatus@@@Z@51 101c26b8     LIBCMTD:undname.obj
 0003:000056c0       ___piob                    101c26c0     <common>
 0003:00005a00       __bufin                    101c2a00     <common>
 0003:00006a00       __nstream                  101c3a00     <common>
 0003:00006a04       ___sbh_initialized         101c3a04     <common>
 0003:00006a18       ___sbh_cntHeaderList       101c3a18     <common>
 0003:00006a1c       ___sbh_pHeaderList         101c3a1c     <common>
 0003:00006a20       ___sbh_threshold           101c3a20     <common>
 0003:00006a24       ___sbh_pHeaderScan         101c3a24     <common>
 0003:00006a28       ___sbh_sizeHeaderList      101c3a28     <common>
 0003:00006a2c       ___sbh_indGroupDefer       101c3a2c     <common>
 0003:00006a30       __debugger_hook_dummy      101c3a30     <common>
 0003:00006a3c       ___setlc_active            101c3a3c     <common>
 0003:00006a4c       ___unguarded_readlc_active 101c3a4c     <common>
 0003:00006a50       ___active_heap             101c3a50     <common>
 0003:00006a5c       __nhandle                  101c3a5c     <common>
 0003:00006aa0       ___pioinfo                 101c3aa0     <common>
 0003:00006ba0       ___env_initialized         101c3ba0     <common>
 0003:00006bb0       ___onexitend               101c3bb0     <common>
 0003:00006bb4       ___onexitbegin             101c3bb4     <common>
 0003:00006bb8       ___mbctype_initialized     101c3bb8     <common>
 0003:00006bbc       ___dyn_tls_init_callback   101c3bbc     <common>
 0003:00006bc0       __pfnReportHook            101c3bc0     <common>
 0003:00006bd0       __pReportHookListW         101c3bd0     <common>
 0003:00006bd4       __pReportHookList          101c3bd4     <common>
 0003:00006bd8       ___use_sse2_mathfcns       101c3bd8     <common>
 0003:00006be4       __pmatherr                 101c3be4     <common>
 0003:00006bf0       ___sse2_available          101c3bf0     <common>
 0003:00006bfc       __acmdln                   101c3bfc     <common>
 0004:00000000       __IMPORT_DESCRIPTOR_KERNEL32 101c4000     kernel32:KERNEL32.dll
 0004:00000014       __NULL_IMPORT_DESCRIPTOR   101c4014     kernel32:KERNEL32.dll
 0004:00000250       __imp__OutputDebugStringA@4 101c4250     kernel32:KERNEL32.dll
 0004:00000254       __imp__InterlockedExchangeAdd@8 101c4254     kernel32:KERNEL32.dll
 0004:00000258       __imp__GetSystemInfo@4     101c4258     kernel32:KERNEL32.dll
 0004:0000025c       __imp__InitializeCriticalSection@4 101c425c     kernel32:KERNEL32.dll
 0004:00000260       __imp__CreateEventA@16     101c4260     kernel32:KERNEL32.dll
 0004:00000264       __imp__CreateSemaphoreA@16 101c4264     kernel32:KERNEL32.dll
 0004:00000268       __imp__CloseHandle@4       101c4268     kernel32:KERNEL32.dll
 0004:0000026c       __imp__WaitForMultipleObjects@16 101c426c     kernel32:KERNEL32.dll
 0004:00000270       __imp__DeleteCriticalSection@4 101c4270     kernel32:KERNEL32.dll
 0004:00000274       __imp__SetEvent@4          101c4274     kernel32:KERNEL32.dll
 0004:00000278       __imp__Sleep@4             101c4278     kernel32:KERNEL32.dll
 0004:0000027c       __imp__LeaveCriticalSection@4 101c427c     kernel32:KERNEL32.dll
 0004:00000280       __imp__ReleaseSemaphore@12 101c4280     kernel32:KERNEL32.dll
 0004:00000284       __imp__EnterCriticalSection@4 101c4284     kernel32:KERNEL32.dll
 0004:00000288       __imp__WaitForSingleObject@8 101c4288     kernel32:KERNEL32.dll
 0004:0000028c       __imp__InterlockedIncrement@4 101c428c     kernel32:KERNEL32.dll
 0004:00000290       __imp__InterlockedDecrement@4 101c4290     kernel32:KERNEL32.dll
 0004:00000294       __imp__InterlockedExchange@8 101c4294     kernel32:KERNEL32.dll
 0004:00000298       __imp__GetModuleFileNameW@12 101c4298     kernel32:KERNEL32.dll
 0004:0000029c       __imp__GetCurrentThreadId@0 101c429c     kernel32:KERNEL32.dll
 0004:000002a0       __imp__GetCommandLineA@0   101c42a0     kernel32:KERNEL32.dll
 0004:000002a4       __imp__GetLastError@0      101c42a4     kernel32:KERNEL32.dll
 0004:000002a8       __imp__CreateThread@24     101c42a8     kernel32:KERNEL32.dll
 0004:000002ac       __imp__ExitThread@4        101c42ac     kernel32:KERNEL32.dll
 0004:000002b0       __imp__GetProcAddress@8    101c42b0     kernel32:KERNEL32.dll
 0004:000002b4       __imp__GetModuleHandleA@4  101c42b4     kernel32:KERNEL32.dll
 0004:000002b8       __imp__FatalAppExitA@8     101c42b8     kernel32:KERNEL32.dll
 0004:000002bc       __imp__HeapValidate@12     101c42bc     kernel32:KERNEL32.dll
 0004:000002c0       __imp__IsBadReadPtr@8      101c42c0     kernel32:KERNEL32.dll
 0004:000002c4       __imp__DebugBreak@0        101c42c4     kernel32:KERNEL32.dll
 0004:000002c8       __imp__GetStdHandle@4      101c42c8     kernel32:KERNEL32.dll
 0004:000002cc       __imp__WriteFile@20        101c42cc     kernel32:KERNEL32.dll
 0004:000002d0       __imp__WriteConsoleW@20    101c42d0     kernel32:KERNEL32.dll
 0004:000002d4       __imp__GetFileType@4       101c42d4     kernel32:KERNEL32.dll
 0004:000002d8       __imp__OutputDebugStringW@4 101c42d8     kernel32:KERNEL32.dll
 0004:000002dc       __imp__TerminateProcess@8  101c42dc     kernel32:KERNEL32.dll
 0004:000002e0       __imp__GetCurrentProcess@0 101c42e0     kernel32:KERNEL32.dll
 0004:000002e4       __imp__UnhandledExceptionFilter@4 101c42e4     kernel32:KERNEL32.dll
 0004:000002e8       __imp__SetUnhandledExceptionFilter@4 101c42e8     kernel32:KERNEL32.dll
 0004:000002ec       __imp__IsDebuggerPresent@0 101c42ec     kernel32:KERNEL32.dll
 0004:000002f0       __imp__GetModuleHandleW@4  101c42f0     kernel32:KERNEL32.dll
 0004:000002f4       __imp__ExitProcess@4       101c42f4     kernel32:KERNEL32.dll
 0004:000002f8       __imp__SetConsoleCtrlHandler@8 101c42f8     kernel32:KERNEL32.dll
 0004:000002fc       __imp__LoadLibraryW@4      101c42fc     kernel32:KERNEL32.dll
 0004:00000300       __imp__RaiseException@16   101c4300     kernel32:KERNEL32.dll
 0004:00000304       __imp__TlsGetValue@4       101c4304     kernel32:KERNEL32.dll
 0004:00000308       __imp__TlsAlloc@0          101c4308     kernel32:KERNEL32.dll
 0004:0000030c       __imp__TlsSetValue@8       101c430c     kernel32:KERNEL32.dll
 0004:00000310       __imp__TlsFree@4           101c4310     kernel32:KERNEL32.dll
 0004:00000314       __imp__SetLastError@4      101c4314     kernel32:KERNEL32.dll
 0004:00000318       __imp__GetCurrentThread@0  101c4318     kernel32:KERNEL32.dll
 0004:0000031c       __imp__SetHandleCount@4    101c431c     kernel32:KERNEL32.dll
 0004:00000320       __imp__GetStartupInfoA@4   101c4320     kernel32:KERNEL32.dll
 0004:00000324       __imp__GetModuleFileNameA@12 101c4324     kernel32:KERNEL32.dll
 0004:00000328       __imp__FreeEnvironmentStringsA@4 101c4328     kernel32:KERNEL32.dll
 0004:0000032c       __imp__GetEnvironmentStrings@0 101c432c     kernel32:KERNEL32.dll
 0004:00000330       __imp__FreeEnvironmentStringsW@4 101c4330     kernel32:KERNEL32.dll
 0004:00000334       __imp__WideCharToMultiByte@32 101c4334     kernel32:KERNEL32.dll
 0004:00000338       __imp__GetEnvironmentStringsW@0 101c4338     kernel32:KERNEL32.dll
 0004:0000033c       __imp__HeapDestroy@4       101c433c     kernel32:KERNEL32.dll
 0004:00000340       __imp__HeapCreate@12       101c4340     kernel32:KERNEL32.dll
 0004:00000344       __imp__HeapFree@12         101c4344     kernel32:KERNEL32.dll
 0004:00000348       __imp__VirtualFree@12      101c4348     kernel32:KERNEL32.dll
 0004:0000034c       __imp__QueryPerformanceCounter@4 101c434c     kernel32:KERNEL32.dll
 0004:00000350       __imp__GetTickCount@0      101c4350     kernel32:KERNEL32.dll
 0004:00000354       __imp__GetCurrentProcessId@0 101c4354     kernel32:KERNEL32.dll
 0004:00000358       __imp__GetSystemTimeAsFileTime@4 101c4358     kernel32:KERNEL32.dll
 0004:0000035c       __imp__RtlUnwind@16        101c435c     kernel32:KERNEL32.dll
 0004:00000360       __imp__VirtualQuery@12     101c4360     kernel32:KERNEL32.dll
 0004:00000364       __imp__GetACP@0            101c4364     kernel32:KERNEL32.dll
 0004:00000368       __imp__GetOEMCP@0          101c4368     kernel32:KERNEL32.dll
 0004:0000036c       __imp__GetCPInfo@8         101c436c     kernel32:KERNEL32.dll
 0004:00000370       __imp__IsValidCodePage@4   101c4370     kernel32:KERNEL32.dll
 0004:00000374       __imp__InitializeCriticalSectionAndSpinCount@8 101c4374     kernel32:KERNEL32.dll
 0004:00000378       __imp__HeapAlloc@12        101c4378     kernel32:KERNEL32.dll
 0004:0000037c       __imp__HeapSize@12         101c437c     kernel32:KERNEL32.dll
 0004:00000380       __imp__HeapReAlloc@16      101c4380     kernel32:KERNEL32.dll
 0004:00000384       __imp__VirtualAlloc@16     101c4384     kernel32:KERNEL32.dll
 0004:00000388       __imp__MultiByteToWideChar@24 101c4388     kernel32:KERNEL32.dll
 0004:0000038c       __imp__FreeLibrary@4       101c438c     kernel32:KERNEL32.dll
 0004:00000390       __imp__LoadLibraryA@4      101c4390     kernel32:KERNEL32.dll
 0004:00000394       __imp__SetFilePointer@16   101c4394     kernel32:KERNEL32.dll
 0004:00000398       __imp__GetConsoleCP@0      101c4398     kernel32:KERNEL32.dll
 0004:0000039c       __imp__GetConsoleMode@8    101c439c     kernel32:KERNEL32.dll
 0004:000003a0       __imp__GetLocaleInfoW@16   101c43a0     kernel32:KERNEL32.dll
 0004:000003a4       __imp__GetLocaleInfoA@16   101c43a4     kernel32:KERNEL32.dll
 0004:000003a8       __imp__LCMapStringA@24     101c43a8     kernel32:KERNEL32.dll
 0004:000003ac       __imp__LCMapStringW@24     101c43ac     kernel32:KERNEL32.dll
 0004:000003b0       __imp__GetStringTypeA@20   101c43b0     kernel32:KERNEL32.dll
 0004:000003b4       __imp__GetStringTypeW@16   101c43b4     kernel32:KERNEL32.dll
 0004:000003b8       __imp__GetTimeFormatA@24   101c43b8     kernel32:KERNEL32.dll
 0004:000003bc       __imp__GetDateFormatA@24   101c43bc     kernel32:KERNEL32.dll
 0004:000003c0       __imp__IsValidLocale@8     101c43c0     kernel32:KERNEL32.dll
 0004:000003c4       __imp__EnumSystemLocalesA@8 101c43c4     kernel32:KERNEL32.dll
 0004:000003c8       __imp__GetUserDefaultLCID@0 101c43c8     kernel32:KERNEL32.dll
 0004:000003cc       __imp__SetStdHandle@8      101c43cc     kernel32:KERNEL32.dll
 0004:000003d0       __imp__WriteConsoleA@20    101c43d0     kernel32:KERNEL32.dll
 0004:000003d4       __imp__GetConsoleOutputCP@0 101c43d4     kernel32:KERNEL32.dll
 0004:000003d8       __imp__lstrlenA@4          101c43d8     kernel32:KERNEL32.dll
 0004:000003dc       __imp__GetTimeZoneInformation@4 101c43dc     kernel32:KERNEL32.dll
 0004:000003e0       __imp__CreateFileA@28      101c43e0     kernel32:KERNEL32.dll
 0004:000003e4       __imp__GetProcessHeap@0    101c43e4     kernel32:KERNEL32.dll
 0004:000003e8       __imp__FlushFileBuffers@4  101c43e8     kernel32:KERNEL32.dll
 0004:000003ec       __imp__CompareStringA@24   101c43ec     kernel32:KERNEL32.dll
 0004:000003f0       __imp__CompareStringW@24   101c43f0     kernel32:KERNEL32.dll
 0004:000003f4       __imp__SetEnvironmentVariableA@8 101c43f4     kernel32:KERNEL32.dll
 0004:000003f8       \177KERNEL32_NULL_THUNK_DATA 101c43f8     kernel32:KERNEL32.dll

 entry point at        0001:000e40a0

