 newton

 Timestamp is 4d42f037 (Fri Jan 28 08:35:03 2011)

 Preferred load address is 0000000180000000

 Start         Length     Name                   Class
 0001:00000000 000b0daeH .text                   CODE
 0001:000b0db0 0000001fH .text$0                 CODE
 0001:000b0dd0 00000080H .text$00                CODE
 0001:000b0e50 00000248H .text$x                 CODE
 0001:000b10a0 000002d9H .text$yc                CODE
 0001:000b1380 00000020H .text$yd                CODE
 0002:00000000 00000290H .idata$5                DATA
 0002:00000290 00000008H .CRT$XCA                DATA
 0002:00000298 00000020H .CRT$XCU                DATA
 0002:000002b8 00000008H .CRT$XCZ                DATA
 0002:000002c0 00000008H .CRT$XIA                DATA
 0002:000002c8 00000018H .CRT$XIC                DATA
 0002:000002e0 00000008H .CRT$XIZ                DATA
 0002:000002e8 00000008H .CRT$XPA                DATA
 0002:000002f0 00000008H .CRT$XPX                DATA
 0002:000002f8 00000008H .CRT$XPXA               DATA
 0002:00000300 00000008H .CRT$XPZ                DATA
 0002:00000308 00000008H .CRT$XTA                DATA
 0002:00000310 00000008H .CRT$XTZ                DATA
 0002:00000320 00005350H .rdata                  DATA
 0002:00005670 00000076H .rdata$debug            DATA
 0002:000056e8 00000008H .rtc$IAA                DATA
 0002:000056f0 00000008H .rtc$IZZ                DATA
 0002:000056f8 00000008H .rtc$TAA                DATA
 0002:00005700 00000008H .rtc$TZZ                DATA
 0002:00005708 0000879cH .xdata                  DATA
 0002:0000dea4 00000014H .idata$2                DATA
 0002:0000deb8 00000014H .idata$3                DATA
 0002:0000ded0 00000290H .idata$4                DATA
 0002:0000e160 000005e2H .idata$6                DATA
 0002:0000e750 0000325aH .edata                  DATA
 0003:00000000 0000290cH .data                   DATA
 0003:00002920 00006810H .bss                    DATA
 0004:00000000 00005898H .pdata                  DATA
 0005:00000000 00000058H .rsrc$01                DATA
 0005:00000060 000003c0H .rsrc$02                DATA

  Address         Publics by Value              Rva+Base               Lib:Object

 0000:00000000       ___safe_se_handler_count   0000000000000000     <absolute>
 0000:00000000       ___safe_se_handler_table   0000000000000000     <absolute>
 0000:00000000       __ImageBase                0000000180000000     <linker-defined>
 0001:00000000       DllMain                    0000000180001000 f   Newton.obj
 0001:00000010       NewtonGetMemoryUsed        0000000180001010 f   Newton.obj
 0001:00000050       NewtonSetMemorySystem      0000000180001050 f   Newton.obj
 0001:00000090       NewtonCreate               0000000180001090 f   Newton.obj
 0001:00000230       NewtonDestroy              0000000180001230 f   Newton.obj
 0001:00000310       NewtonInvalidateCache      0000000180001310 f   Newton.obj
 0001:00000320       NewtonSetPlatformArchitecture 0000000180001320 f   Newton.obj
 0001:00000340       NewtonGetPlatformArchitecture 0000000180001340 f   Newton.obj
 0001:00000390       NewtonWorldCriticalSectionUnlock 0000000180001390 f   Newton.obj
 0001:000003b0       NewtonSetThreadsCount      00000001800013b0 f   Newton.obj
 0001:000003f0       NewtonGetThreadsCount      00000001800013f0 f   Newton.obj
 0001:00000400       NewtonGetMaxThreadsCount   0000000180001400 f   Newton.obj
 0001:00000410       NewtonSetMultiThreadSolverOnSingleIsland 0000000180001410 f   Newton.obj
 0001:00000420       NewtonGetMultiThreadSolverOnSingleIsland 0000000180001420 f   Newton.obj
 0001:00000430       NewtonSetSolverModel       0000000180001430 f   Newton.obj
 0001:00000440       NewtonSetFrictionModel     0000000180001440 f   Newton.obj
 0001:00000450       NewtonSetPerformanceClock  0000000180001450 f   Newton.obj
 0001:000004a0       NewtonReadThreadPerformanceTicks 00000001800014a0 f   Newton.obj
 0001:000004a0       NewtonReadPerformanceTicks 00000001800014a0 f   Newton.obj
 0001:000004c0       NewtonUpdate               00000001800014c0 f   Newton.obj
 0001:000005f0       NewtonCollisionUpdate      00000001800015f0 f   Newton.obj
 0001:00000670       NewtonSetMinimumFrameRate  0000000180001670 f   Newton.obj
 0001:000006b0       NewtonDestroyAllBodies     00000001800016b0 f   Newton.obj
 0001:00000720       NewtonSetWorldSize         0000000180001720 f   Newton.obj
 0001:00000790       NewtonSetIslandUpdateEvent 0000000180001790 f   Newton.obj
 0001:000007a0       NewtonSetCollisionDestructor 00000001800017a0 f   Newton.obj
 0001:000007b0       NewtonSetDestroyBodyByExeciveForce 00000001800017b0 f   Newton.obj
 0001:000007c0       NewtonSetBodyLeaveWorldEvent 00000001800017c0 f   Newton.obj
 0001:000007d0       NewtonWorldGetFirstBody    00000001800017d0 f   Newton.obj
 0001:000007f0       NewtonWorldGetNextBody     00000001800017f0 f   Newton.obj
 0001:00000810       NewtonWorldForEachJointDo  0000000180001810 f   Newton.obj
 0001:00000a20       NewtonWorldForEachBodyInAABBDo 0000000180001a20 f   Newton.obj
 0001:00000aa0       NewtonWorldGetVersion      0000000180001aa0 f   Newton.obj
 0001:00000ab0       NewtonWorldFloatSize       0000000180001ab0 f   Newton.obj
 0001:00000ac0       NewtonWorldSetUserData     0000000180001ac0 f   Newton.obj
 0001:00000ad0       NewtonWorldGetUserData     0000000180001ad0 f   Newton.obj
 0001:00000ae0       NewtonWorldSetDestructorCallBack 0000000180001ae0 f   Newton.obj
 0001:00000af0       NewtonWorldGetDestructorCallBack 0000000180001af0 f   Newton.obj
 0001:00000b00       NewtonWorldGetBodyCount    0000000180001b00 f   Newton.obj
 0001:00000b10       NewtonWorldGetConstraintCount 0000000180001b10 f   Newton.obj
 0001:00000b20       NewtonWorldRayCast         0000000180001b20 f   Newton.obj
 0001:00000bb0       NewtonWorldConvexCast      0000000180001bb0 f   Newton.obj
 0001:00000c50       NewtonIslandGetBody        0000000180001c50 f   Newton.obj
 0001:00000c70       NewtonIslandGetBodyAABB    0000000180001c70 f   Newton.obj
 0001:00000ce0       NewtonMaterialGetDefaultGroupID 0000000180001ce0 f   Newton.obj
 0001:00000cf0       NewtonMaterialCreateGroupID 0000000180001cf0 f   Newton.obj
 0001:00000d00       NewtonMaterialDestroyAllGroupID 0000000180001d00 f   Newton.obj
 0001:00000d10       NewtonMaterialSetDefaultCollidable 0000000180001d10 f   Newton.obj
 0001:00000d70       NewtonMaterialSetContinuousCollisionMode 0000000180001d70 f   Newton.obj
 0001:00000dd0       NewtonMaterialSetSurfaceThickness 0000000180001dd0 f   Newton.obj
 0001:00000e50       NewtonMaterialSetDefaultFriction 0000000180001e50 f   Newton.obj
 0001:00000f20       NewtonMaterialSetDefaultElasticity 0000000180001f20 f   Newton.obj
 0001:00000fa0       NewtonMaterialSetDefaultSoftness 0000000180001fa0 f   Newton.obj
 0001:00001020       NewtonMaterialSetCollisionCallback 0000000180002020 f   Newton.obj
 0001:00001090       NewtonMaterialGetUserData  0000000180002090 f   Newton.obj
 0001:000010f0       NewtonWorldGetFirstMaterial 00000001800020f0 f   Newton.obj
 0001:00001120       NewtonWorldGetNextMaterial 0000000180002120 f   Newton.obj
 0001:00001180       NewtonMaterialGetMaterialPairUserData 0000000180002180 f   Newton.obj
 0001:00001190       NewtonMaterialGetContactFaceAttribute 0000000180002190 f   Newton.obj
 0001:000011a0       NewtonMaterialGetContactNormalSpeed 00000001800021a0 f   Newton.obj
 0001:00001320       NewtonMaterialGetContactTangentSpeed 0000000180002320 f   Newton.obj
 0001:00001510       NewtonMaterialGetContactPositionAndNormal 0000000180002510 f   Newton.obj
 0001:00001540       NewtonMaterialGetContactForce 0000000180002540 f   Newton.obj
 0001:00001600       NewtonMaterialGetContactTangentDirections 0000000180002600 f   Newton.obj
 0001:00001640       NewtonMaterialGetBodyCollisionID 0000000180002640 f   Newton.obj
 0001:00001660       NewtonMaterialSetContactSoftness 0000000180002660 f   Newton.obj
 0001:00001690       NewtonMaterialSetContactElasticity 0000000180002690 f   Newton.obj
 0001:000016c0       NewtonMaterialSetContactFrictionState 00000001800026c0 f   Newton.obj
 0001:000016f0       NewtonMaterialSetContactFrictionCoef 00000001800026f0 f   Newton.obj
 0001:000017a0       NewtonMaterialSetContactNormalAcceleration 00000001800027a0 f   Newton.obj
 0001:000017b0       NewtonMaterialSetContactTangentAcceleration 00000001800027b0 f   Newton.obj
 0001:000017e0       NewtonMaterialSetContactNormalDirection 00000001800027e0 f   Newton.obj
 0001:00001ba0       NewtonMaterialContactRotateTangentDirections 0000000180002ba0 f   Newton.obj
 0001:00001d70       NewtonCreateNull           0000000180002d70 f   Newton.obj
 0001:00001d80       NewtonCreateBox            0000000180002d80 f   Newton.obj
 0001:00001e30       NewtonCreateSphere         0000000180002e30 f   Newton.obj
 0001:00001f30       NewtonCreateCone           0000000180002f30 f   Newton.obj
 0001:00001fd0       NewtonCreateCapsule        0000000180002fd0 f   Newton.obj
 0001:00002070       NewtonCreateCylinder       0000000180003070 f   Newton.obj
 0001:00002110       NewtonCreateChamferCylinder 0000000180003110 f   Newton.obj
 0001:000021b0       NewtonCreateConvexHull     00000001800031b0 f   Newton.obj
 0001:00002270       NewtonCreateConvexHullFromMesh 0000000180003270 f   Newton.obj
 0001:00002290       NewtonCreateConvexHullModifier 0000000180003290 f   Newton.obj
 0001:00002310       NewtonConvexHullModifierGetMatrix 0000000180003310 f   Newton.obj
 0001:00002350       NewtonConvexHullModifierSetMatrix 0000000180003350 f   Newton.obj
 0001:00002360       NewtonCreateCompoundCollision 0000000180003360 f   Newton.obj
 0001:000023d0       NewtonCreateCompoundCollisionFromMesh 00000001800033d0 f   Newton.obj
 0001:000023f0       NewtonCreateCompoundBreakable 00000001800033f0 f   Newton.obj
 0001:00002440       NewtonCompoundBreakableResetAnchoredPieces 0000000180003440 f   Newton.obj
 0001:000024a0       NewtonCompoundBreakableSetAnchoredPieces 00000001800034a0 f   Newton.obj
 0001:000024c0       NewtonBreakableGetMainMesh 00000001800034c0 f   Newton.obj
 0001:000024e0       NewtonBreakableBeginDelete 00000001800034e0 f   Newton.obj
 0001:00002510       NewtonBreakableDeleteComponent 0000000180003510 f   Newton.obj
 0001:00002530       NewtonBreakableEndDelete   0000000180003530 f   Newton.obj
 0001:00002550       NewtonBreakableGetFirstComponent 0000000180003550 f   Newton.obj
 0001:00002580       NewtonBreakableGetNextComponent 0000000180003580 f   Newton.obj
 0001:00002590       NewtonCompoundBreakableGetVertexCount 0000000180003590 f   Newton.obj
 0001:000025b0       NewtonCompoundBreakableGetVertexStreams 00000001800035b0 f   Newton.obj
 0001:000025f0       NewtonBreakableGetFirstSegment 00000001800035f0 f   Newton.obj
 0001:00002600       NewtonBreakableGetNextSegment 0000000180003600 f   Newton.obj
 0001:00002610       NewtonBreakableGetComponentsInRadius 0000000180003610 f   Newton.obj
 0001:00002670       NewtonBreakableSegmentGetMaterial 0000000180003670 f   Newton.obj
 0001:00002680       NewtonBreakableSegmentGetIndexCount 0000000180003680 f   Newton.obj
 0001:00002690       NewtonBreakableSegmentGetIndexStream 0000000180003690 f   Newton.obj
 0001:000026b0       NewtonBreakableSegmentGetIndexStreamShort 00000001800036b0 f   Newton.obj
 0001:000026d0       NewtonCollisionIsTriggerVolume 00000001800036d0 f   Newton.obj
 0001:000026f0       NewtonCollisionSetAsTriggerVolume 00000001800036f0 f   Newton.obj
 0001:00002700       NewtonCollisionSetMaxBreakImpactImpulse 0000000180003700 f   Newton.obj
 0001:00002710       NewtonCollisionGetMaxBreakImpactImpulse 0000000180003710 f   Newton.obj
 0001:00002720       NewtonCollisionSetUserID   0000000180003720 f   Newton.obj
 0001:00002730       NewtonCollisionGetUserID   0000000180003730 f   Newton.obj
 0001:00002740       NewtonConvexHullGetFaceIndices 0000000180003740 f   Newton.obj
 0001:00002790       NewtonConvexCollisionCalculateVolume 0000000180003790 f   Newton.obj
 0001:000027a0       NewtonConvexCollisionCalculateInertialMatrix 00000001800037a0 f   Newton.obj
 0001:00002810       NewtonCreateUserMeshCollision 0000000180003810 f   Newton.obj
 0001:00002960       NewtonCreateTreeCollision  0000000180003960 f   Newton.obj
 0001:000029c0       NewtonStaticCollisionSetDebugCallback 00000001800039c0 f   Newton.obj
 0001:00002a20       NewtonTreeCollisionSetUserRayCastCallback 0000000180003a20 f   Newton.obj
 0001:00002a40       NewtonHeightFieldSetUserRayCastCallback 0000000180003a40 f   Newton.obj
 0001:00002a60       NewtonTreeCollisionBeginBuild 0000000180003a60 f   Newton.obj
 0001:00002a70       NewtonTreeCollisionAddFace 0000000180003a70 f   Newton.obj
 0001:00002b00       NewtonTreeCollisionEndBuild 0000000180003b00 f   Newton.obj
 0001:00002b10       NewtonTreeCollisionGetFaceAtribute 0000000180003b10 f   Newton.obj
 0001:00002b20       NewtonTreeCollisionSetFaceAtribute 0000000180003b20 f   Newton.obj
 0001:00002b30       NewtonTreeCollisionGetVertexListIndexListInAABB 0000000180003b30 f   Newton.obj
 0001:00002c20       NewtonCreateHeightFieldCollision 0000000180003c20 f   Newton.obj
 0001:00002c70       NewtonCreateSceneCollision 0000000180003c70 f   Newton.obj
 0001:00002cd0       NewtonSceneCollisionCreateProxy 0000000180003cd0 f   Newton.obj
 0001:00002d40       NewtonSceneCollisionDestroyProxy 0000000180003d40 f   Newton.obj
 0001:00002d80       NewtonSceneProxySetMatrix  0000000180003d80 f   Newton.obj
 0001:00002df0       NewtonSceneProxyGetMatrix  0000000180003df0 f   Newton.obj
 0001:00002e30       NewtonSceneCollisionOptimize 0000000180003e30 f   Newton.obj
 0001:00002e40       NewtonCollisionPointDistance 0000000180003e40 f   Newton.obj
 0001:00002e70       NewtonCollisionClosestPoint 0000000180003e70 f   Newton.obj
 0001:00002ec0       NewtonCollisionCollide     0000000180003ec0 f   Newton.obj
 0001:00002f30       NewtonCollisionCollideContinue 0000000180003f30 f   Newton.obj
 0001:00002fe0       NewtonCollisionSupportVertex 0000000180003fe0 f   Newton.obj
 0001:000031d0       NewtonCollisionRayCast     00000001800041d0 f   Newton.obj
 0001:00003440       NewtonCollisionCalculateAABB 0000000180004440 f   Newton.obj
 0001:000034b0       NewtonCollisionForEachPolygonDo 00000001800044b0 f   Newton.obj
 0001:00003510       NewtonCollisionMakeUnique  0000000180004510 f   Newton.obj
 0001:00003520       NewtonAddCollisionReference 0000000180004520 f   Newton.obj
 0001:00003530       NewtonReleaseCollision     0000000180004530 f   Newton.obj
 0001:00003540       NewtonCollisionSerialize   0000000180004540 f   Newton.obj
 0001:00003550       NewtonCreateCollisionFromSerialization 0000000180004550 f   Newton.obj
 0001:00003560       NewtonCollisionGetInfo     0000000180004560 f   Newton.obj
 0001:00003570       NewtonGetEulerAngle        0000000180004570 f   Newton.obj
 0001:000035b0       NewtonSetEulerAngle        00000001800045b0 f   Newton.obj
 0001:00003a90       NewtonCalculateSpringDamperAcceleration 0000000180004a90 f   Newton.obj
 0001:00003b00       NewtonCreateBody           0000000180004b00 f   Newton.obj
 0001:00003b70       NewtonDestroyBody          0000000180004b70 f   Newton.obj
 0001:00003b80       NewtonBodySetUserData      0000000180004b80 f   Newton.obj
 0001:00003b90       NewtonBodyGetUserData      0000000180004b90 f   Newton.obj
 0001:00003ba0       NewtonBodyGetWorld         0000000180004ba0 f   Newton.obj
 0001:00003bb0       NewtonBodySetTransformCallback 0000000180004bb0 f   Newton.obj
 0001:00003bc0       NewtonBodyGetTransformCallback 0000000180004bc0 f   Newton.obj
 0001:00003bd0       NewtonBodyGetForceAndTorqueCallback 0000000180004bd0 f   Newton.obj
 0001:00003be0       NewtonBodySetDestructorCallback 0000000180004be0 f   Newton.obj
 0001:00003bf0       NewtonBodySetMassMatrix    0000000180004bf0 f   Newton.obj
 0001:00003d20       NewtonBodyGetMassMatrix    0000000180004d20 f   Newton.obj
 0001:00003da0       NewtonBodyGetInvMass       0000000180004da0 f   Newton.obj
 0001:00003e50       NewtonBodySetMatrix        0000000180004e50 f   Newton.obj
 0001:00003eb0       NewtonBodySetMatrixRecursive 0000000180004eb0 f   Newton.obj
 0001:00003ef0       NewtonBodyGetMatrix        0000000180004ef0 f   Newton.obj
 0001:00003f10       NewtonBodyGetRotation      0000000180004f10 f   Newton.obj
 0001:00003f40       NewtonBodySetForce         0000000180004f40 f   Newton.obj
 0001:00004010       NewtonBodyAddForce         0000000180005010 f   Newton.obj
 0001:00004050       NewtonBodyGetForceAcc      0000000180005050 f   Newton.obj
 0001:000040b0       NewtonBodyGetForce         00000001800050b0 f   Newton.obj
 0001:00004110       NewtonBodyCalculateInverseDynamicsForce 0000000180005110 f   Newton.obj
 0001:00004180       NewtonBodySetTorque        0000000180005180 f   Newton.obj
 0001:00004250       NewtonBodyAddTorque        0000000180005250 f   Newton.obj
 0001:00004290       NewtonBodyGetTorque        0000000180005290 f   Newton.obj
 0001:000042f0       NewtonBodyGetTorqueAcc     00000001800052f0 f   Newton.obj
 0001:00004350       NewtonBodySetCentreOfMass  0000000180005350 f   Newton.obj
 0001:000043a0       NewtonBodyGetCentreOfMass  00000001800053a0 f   Newton.obj
 0001:00004400       NewtonBodyGetFirstJoint    0000000180005400 f   Newton.obj
 0001:00004440       NewtonBodyGetNextJoint     0000000180005440 f   Newton.obj
 0001:00004490       NewtonBodyGetFirstContactJoint 0000000180005490 f   Newton.obj
 0001:000044d0       NewtonBodyGetNextContactJoint 00000001800054d0 f   Newton.obj
 0001:00004520       NewtonContactJointGetContactCount 0000000180005520 f   Newton.obj
 0001:00004540       NewtonContactJointGetFirstContact 0000000180005540 f   Newton.obj
 0001:00004560       NewtonContactJointGetNextContact 0000000180005560 f   Newton.obj
 0001:00004580       NewtonContactJointRemoveContact 0000000180005580 f   Newton.obj
 0001:000045b0       NewtonContactGetMaterial   00000001800055b0 f   Newton.obj
 0001:000045c0       NewtonBodyAddBuoyancyForce 00000001800055c0 f   Newton.obj
 0001:00004640       NewtonBodySetCollision     0000000180005640 f   Newton.obj
 0001:00004650       NewtonBodyGetCollision     0000000180005650 f   Newton.obj
 0001:00004660       NewtonBodySetMaterialGroupID 0000000180005660 f   Newton.obj
 0001:00004670       NewtonBodyGetMaterialGroupID 0000000180005670 f   Newton.obj
 0001:00004680       NewtonBodySetContinuousCollisionMode 0000000180005680 f   Newton.obj
 0001:000046a0       NewtonBodyGetContinuousCollisionMode 00000001800056a0 f   Newton.obj
 0001:000046b0       NewtonBodySetJointRecursiveCollision 00000001800056b0 f   Newton.obj
 0001:000046d0       NewtonBodyGetJointRecursiveCollision 00000001800056d0 f   Newton.obj
 0001:000046e0       NewtonBodyGetFreezeState   00000001800056e0 f   Newton.obj
 0001:000046f0       NewtonBodySetFreezeState   00000001800056f0 f   Newton.obj
 0001:00004700       NewtonBodySetAutoSleep     0000000180005700 f   Newton.obj
 0001:00004730       NewtonBodyGetAutoSleep     0000000180005730 f   Newton.obj
 0001:00004740       NewtonBodyGetSleepState    0000000180005740 f   Newton.obj
 0001:00004750       NewtonBodyGetAABB          0000000180005750 f   Newton.obj
 0001:000047a0       NewtonBodySetVelocity      00000001800057a0 f   Newton.obj
 0001:00004810       NewtonBodyGetVelocity      0000000180005810 f   Newton.obj
 0001:00004870       NewtonBodySetOmega         0000000180005870 f   Newton.obj
 0001:000048e0       NewtonBodyGetOmega         00000001800058e0 f   Newton.obj
 0001:00004940       NewtonBodySetLinearDamping 0000000180005940 f   Newton.obj
 0001:00004980       NewtonBodyGetLinearDamping 0000000180005980 f   Newton.obj
 0001:000049a0       NewtonBodySetAngularDamping 00000001800059a0 f   Newton.obj
 0001:00004a50       NewtonBodyGetAngularDamping 0000000180005a50 f   Newton.obj
 0001:00004aa0       NewtonBodyAddImpulse       0000000180005aa0 f   Newton.obj
 0001:00004b20       NewtonConstraintCreateBall 0000000180005b20 f   Newton.obj
 0001:00004bc0       NewtonBallSetConeLimits    0000000180005bc0 f   Newton.obj
 0001:00005000       NewtonBallSetUserCallback  0000000180006000 f   Newton.obj
 0001:00005000       NewtonBodySetForceAndTorqueCallback 0000000180006000 f   Newton.obj
 0001:00005010       NewtonBallGetJointAngle    0000000180006010 f   Newton.obj
 0001:00005070       NewtonBallGetJointOmega    0000000180006070 f   Newton.obj
 0001:000050b0       NewtonBallGetJointForce    00000001800060b0 f   Newton.obj
 0001:000050f0       NewtonConstraintCreateHinge 00000001800060f0 f   Newton.obj
 0001:00005170       NewtonHingeSetUserCallback 0000000180006170 f   Newton.obj
 0001:00005170       NewtonSliderSetUserCallback 0000000180006170 f   Newton.obj
 0001:00005180       NewtonHingeCalculateStopAlpha 0000000180006180 f   Newton.obj
 0001:00005190       NewtonHingeGetJointForce   0000000180006190 f   Newton.obj
 0001:000051d0       NewtonConstraintCreateSlider 00000001800061d0 f   Newton.obj
 0001:00005250       NewtonCorkscrewGetJointVeloc 0000000180006250 f   Newton.obj
 0001:00005250       NewtonSliderGetJointVeloc  0000000180006250 f   Newton.obj
 0001:00005260       NewtonSliderCalculateStopAccel 0000000180006260 f   Newton.obj
 0001:00005270       NewtonSliderGetJointForce  0000000180006270 f   Newton.obj
 0001:000052b0       NewtonConstraintCreateCorkscrew 00000001800062b0 f   Newton.obj
 0001:00005330       NewtonCorkscrewGetJointPosit 0000000180006330 f   Newton.obj
 0001:00005330       NewtonUniversalGetJointAngle1 0000000180006330 f   Newton.obj
 0001:00005340       NewtonUniversalGetJointOmega0 0000000180006340 f   Newton.obj
 0001:00005340       NewtonHingeGetJointOmega   0000000180006340 f   Newton.obj
 0001:00005340       NewtonCorkscrewGetJointOmega 0000000180006340 f   Newton.obj
 0001:00005350       NewtonUniversalCalculateStopAlpha0 0000000180006350 f   Newton.obj
 0001:00005350       NewtonCorkscrewCalculateStopAlpha 0000000180006350 f   Newton.obj
 0001:00005360       NewtonCorkscrewCalculateStopAccel 0000000180006360 f   Newton.obj
 0001:00005370       NewtonConstraintCreateUniversal 0000000180006370 f   Newton.obj
 0001:00005420       NewtonCorkscrewSetUserCallback 0000000180006420 f   Newton.obj
 0001:00005420       NewtonUniversalSetUserCallback 0000000180006420 f   Newton.obj
 0001:00005430       NewtonUniversalGetJointAngle0 0000000180006430 f   Newton.obj
 0001:00005430       NewtonHingeGetJointAngle   0000000180006430 f   Newton.obj
 0001:00005430       NewtonCorkscrewGetJointAngle 0000000180006430 f   Newton.obj
 0001:00005430       NewtonSliderGetJointPosit  0000000180006430 f   Newton.obj
 0001:00005440       NewtonUniversalGetJointOmega1 0000000180006440 f   Newton.obj
 0001:00005450       NewtonUniversalCalculateStopAlpha1 0000000180006450 f   Newton.obj
 0001:00005460       NewtonUniversalGetJointForce 0000000180006460 f   Newton.obj
 0001:00005460       NewtonCorkscrewGetJointForce 0000000180006460 f   Newton.obj
 0001:000054a0       NewtonConstraintCreateUpVector 00000001800064a0 f   Newton.obj
 0001:000054e0       NewtonUpVectorGetPin       00000001800064e0 f   Newton.obj
 0001:00005540       NewtonUpVectorSetPin       0000000180006540 f   Newton.obj
 0001:00005580       NewtonConstraintCreateUserJoint 0000000180006580 f   Newton.obj
 0001:00005600       NewtonUserJointAddLinearRow 0000000180006600 f   Newton.obj
 0001:00005820       NewtonUserJointAddAngularRow 0000000180006820 f   Newton.obj
 0001:00005930       NewtonUserJointAddGeneralRow 0000000180006930 f   Newton.obj
 0001:00005940       NewtonUserJointSetRowMaximumFriction 0000000180006940 f   Newton.obj
 0001:000059b0       NewtonUserJointSetRowMinimumFriction 00000001800069b0 f   Newton.obj
 0001:00005a20       NewtonUserJointSetRowAcceleration 0000000180006a20 f   Newton.obj
 0001:00005a50       NewtonUserJointSetRowSpringDamperAcceleration 0000000180006a50 f   Newton.obj
 0001:00005a60       NewtonUserJointSetRowStiffness 0000000180006a60 f   Newton.obj
 0001:00005ac0       NewtonUserJointGetRowForce 0000000180006ac0 f   Newton.obj
 0001:00005af0       NewtonUserJointSetFeedbackCollectorCallback 0000000180006af0 f   Newton.obj
 0001:00005b00       NewtonJointSetUserData     0000000180006b00 f   Newton.obj
 0001:00005b10       NewtonJointGetUserData     0000000180006b10 f   Newton.obj
 0001:00005b20       NewtonJointGetInfo         0000000180006b20 f   Newton.obj
 0001:00005b30       NewtonJointGetBody0        0000000180006b30 f   Newton.obj
 0001:00005b40       NewtonJointGetBody1        0000000180006b40 f   Newton.obj
 0001:00005b60       NewtonJointSetCollisionState 0000000180006b60 f   Newton.obj
 0001:00005b80       NewtonJointGetCollisionState 0000000180006b80 f   Newton.obj
 0001:00005b90       NewtonJointSetStiffness    0000000180006b90 f   Newton.obj
 0001:00005ba0       NewtonJointGetStiffness    0000000180006ba0 f   Newton.obj
 0001:00005bb0       NewtonJointSetDestructor   0000000180006bb0 f   Newton.obj
 0001:00005bc0       NewtonDestroyJoint         0000000180006bc0 f   Newton.obj
 0001:00005c20       NewtonMeshCreate           0000000180006c20 f   Newton.obj
 0001:00005cb0       NewtonMeshCreateFromMesh   0000000180006cb0 f   Newton.obj
 0001:00005cf0       NewtonMeshCreateFromCollision 0000000180006cf0 f   Newton.obj
 0001:00005d30       NewtonMeshConvexHull       0000000180006d30 f   Newton.obj
 0001:00005db0       NewtonMeshCreatePlane      0000000180006db0 f   Newton.obj
 0001:00005e30       NewtonMeshDestroy          0000000180006e30 f   Newton.obj
 0001:00005e50       NewtonMeshCalculateOOBB    0000000180006e50 f   Newton.obj
 0001:00005ed0       NewtonMeshCalculateVertexNormals 0000000180006ed0 f   Newton.obj
 0001:00005ee0       NewtonMeshApplySphericalMapping 0000000180006ee0 f   Newton.obj
 0001:00005ef0       NewtonMeshApplyBoxMapping  0000000180006ef0 f   Newton.obj
 0001:00005f00       NewtonMeshApplyCylindricalMapping 0000000180006f00 f   Newton.obj
 0001:00005f10       NewtonMeshTriangulate      0000000180006f10 f   Newton.obj
 0001:00005f20       NewtonMeshPolygonize       0000000180006f20 f   Newton.obj
 0001:00005f30       NewtonMeshIsOpenMesh       0000000180006f30 f   Newton.obj
 0001:00005f50       NewtonMeshFixTJoints       0000000180006f50 f   Newton.obj
 0001:00005f60       NewtonMeshClip             0000000180006f60 f   Newton.obj
 0001:00005f90       NewtonMeshIntersection     0000000180006f90 f   Newton.obj
 0001:00005f90       NewtonMeshDifference       0000000180006f90 f   Newton.obj
 0001:00005f90       NewtonMeshUnion            0000000180006f90 f   Newton.obj
 0001:00005fa0       NewtonRemoveUnusedVertices 0000000180006fa0 f   Newton.obj
 0001:00005fb0       NewtonMeshBeginFace        0000000180006fb0 f   Newton.obj
 0001:00005fd0       NewtonMeshAddFace          0000000180006fd0 f   Newton.obj
 0001:00005ff0       NewtonMeshEndFace          0000000180006ff0 f   Newton.obj
 0001:00006000       NewtonMeshBuildFromVertexListIndexList 0000000180007000 f   Newton.obj
 0001:000060b0       NewtonMeshGetVertexCount   00000001800070b0 f   Newton.obj
 0001:000060c0       NewtonMeshGetVertexStrideInByte 00000001800070c0 f   Newton.obj
 0001:000060d0       NewtonMeshGetVertexArray   00000001800070d0 f   Newton.obj
 0001:000060e0       NewtonMeshGetPointCount    00000001800070e0 f   Newton.obj
 0001:000060f0       NewtonMeshGetPointStrideInByte 00000001800070f0 f   Newton.obj
 0001:00006100       NewtonMeshGetPointArray    0000000180007100 f   Newton.obj
 0001:00006110       NewtonMeshGetNormalArray   0000000180007110 f   Newton.obj
 0001:00006120       NewtonMeshGetUV0Array      0000000180007120 f   Newton.obj
 0001:00006130       NewtonMeshGetUV1Array      0000000180007130 f   Newton.obj
 0001:00006140       NewtonMeshGetVertexStreams 0000000180007140 f   Newton.obj
 0001:00006190       NewtonMeshGetIndirectVertexStreams 0000000180007190 f   Newton.obj
 0001:00006240       NewtonMeshBeginHandle      0000000180007240 f   Newton.obj
 0001:00006250       NewtonMeshEndHandle        0000000180007250 f   Newton.obj
 0001:00006270       NewtonMeshFirstMaterial    0000000180007270 f   Newton.obj
 0001:00006280       NewtonMeshNextMaterial     0000000180007280 f   Newton.obj
 0001:00006290       NewtonMeshMaterialGetMaterial 0000000180007290 f   Newton.obj
 0001:000062a0       NewtonMeshMaterialGetIndexCount 00000001800072a0 f   Newton.obj
 0001:000062b0       NewtonMeshMaterialGetIndexStream 00000001800072b0 f   Newton.obj
 0001:00006320       NewtonMeshMaterialGetIndexStreamShort 0000000180007320 f   Newton.obj
 0001:00006390       NewtonMeshCreateFirstSingleSegment 0000000180007390 f   Newton.obj
 0001:00006430       NewtonMeshCreateNextSingleSegment 0000000180007430 f   Newton.obj
 0001:000064d0       NewtonMeshGetTotalFaceCount 00000001800074d0 f   Newton.obj
 0001:000064e0       NewtonMeshGetTotalIndexCount 00000001800074e0 f   Newton.obj
 0001:000064f0       NewtonMeshGetFaces         00000001800074f0 f   Newton.obj
 0001:00006500       NewtonMeshGetFirstVertex   0000000180007500 f   Newton.obj
 0001:00006570       NewtonMeshGetNextVertex    0000000180007570 f   Newton.obj
 0001:00006580       NewtonMeshGetVertexIndex   0000000180007580 f   Newton.obj
 0001:00006580       NewtonMeshGetVertexIndexFromPoint 0000000180007580 f   Newton.obj
 0001:00006590       NewtonMeshGetFirstPoint    0000000180007590 f   Newton.obj
 0001:000065a0       NewtonMeshGetNextPoint     00000001800075a0 f   Newton.obj
 0001:000065b0       NewtonMeshGetPointIndex    00000001800075b0 f   Newton.obj
 0001:000065c0       NewtonMeshGetFirstEdge     00000001800075c0 f   Newton.obj
 0001:00006610       NewtonMeshGetNextEdge      0000000180007610 f   Newton.obj
 0001:00006620       NewtonMeshGetEdgeIndices   0000000180007620 f   Newton.obj
 0001:00006630       NewtonMeshGetFirstFace     0000000180007630 f   Newton.obj
 0001:00006690       NewtonMeshGetNextFace      0000000180007690 f   Newton.obj
 0001:000066a0       NewtonMeshIsFaceOpen       00000001800076a0 f   Newton.obj
 0001:000066b0       NewtonMeshGetFaceIndexCount 00000001800076b0 f   Newton.obj
 0001:000066d0       NewtonMeshGetFaceMaterial  00000001800076d0 f   Newton.obj
 0001:000066f0       NewtonMeshGetFaceIndices   00000001800076f0 f   Newton.obj
 0001:00006720       NewtonMeshGetFacePointIndices 0000000180007720 f   Newton.obj
 0001:00006750       ?Remove@?$dgList@VdgContactMaterial@@@@QEAAXQEAVdgListNode@1@@Z 0000000180007750 f i Newton.obj
 0001:000067d0       ?SetCentreOfMass@dgBody@@QEAAXAEBVdgVector@@@Z 00000001800077d0 f i Newton.obj
 0001:000068f0       ?AddTorque@dgBody@@QEAAXAEBVdgVector@@@Z 00000001800078f0 f i Newton.obj
 0001:000069e0       ?AddForce@dgBody@@QEAAXAEBVdgVector@@@Z 00000001800079e0 f i Newton.obj
 0001:00006ad0       ?Scale@?$dgTemplateVector@N@@QEBA?AV1@N@Z 0000000180007ad0 f i Newton.obj
 0001:00006b00       ??L?$dgTemplateVector@N@@QEBANAEBV0@@Z 0000000180007b00 f i Newton.obj
 0001:00006b30       ??D?$dgTemplateVector@N@@QEBA?AV0@AEBV0@@Z 0000000180007b30 f i Newton.obj
 0001:00006ba0       ??H?$dgTemplateVector@N@@QEBA?AV0@AEBV0@@Z 0000000180007ba0 f i Newton.obj
 0001:00006be0       ??G?$dgTemplateVector@N@@QEBA?AV0@AEBV0@@Z 0000000180007be0 f i Newton.obj
 0001:00006c20       ??0?$dgTemplateVector@N@@QEAA@NNNN@Z 0000000180007c20 f i Newton.obj
 0001:00006c40       NewtonWorldCriticalSectionLock 0000000180007c40 f i Newton.obj
 0001:00006c40       ?dgGetUserLock@dgWorld@@QEBAXXZ 0000000180007c40 f i Newton.obj
 0001:00006c90       ?DestroyBodies@NewtonDeadBodies@@QEAAXAEAVNewton@@@Z 0000000180007c90 f   NewtonClass.obj
 0001:00006eb0       ?DestroyJoints@NewtonDeadJoints@@QEAAXAEAVNewton@@@Z 0000000180007eb0 f   NewtonClass.obj
 0001:00006fb0       ?DefaultAllocMemory@Newton@@SAPEAXH@Z 0000000180007fb0 f   NewtonClass.obj
 0001:00006fc0       ??0Newton@@QEAA@NQEAVdgMemoryAllocator@@@Z 0000000180007fc0 f   NewtonClass.obj
 0001:000070e0       ?DestroyBody@Newton@@QEAAXPEAVdgBody@@@Z 00000001800080e0 f   NewtonClass.obj
 0001:00007170       ??0NewtonUserJoint@@QEAA@PEAVdgWorld@@HP6AXPEBUNewtonJoint@@NH@ZP6AX1PEAUNewtonJointRecord@@@ZPEAVdgBody@@5@Z 0000000180008170 f   NewtonClass.obj
 0001:00007280       ??_GNewtonUserJoint@@UEAAPEAXI@Z 0000000180008280 f i NewtonClass.obj
 0001:00007280       ??_ENewtonUserJoint@@UEAAPEAXI@Z 0000000180008280 f i  CIL library: CIL module
 0001:00007310       ?JacobianDerivative@NewtonUserJoint@@UEAAIAEAVdgContraintDescritor@@@Z 0000000180008310 f   NewtonClass.obj
 0001:00007350       ?AddAngularRowJacobian@NewtonUserJoint@@QEAAXAEBVdgVector@@N@Z 0000000180008350 f   NewtonClass.obj
 0001:00007440       ?AddGeneralRowJacobian@NewtonUserJoint@@QEAAXPEBN0@Z 0000000180008440 f   NewtonClass.obj
 0001:00007530       ?SetSpringDamperAcceleration@NewtonUserJoint@@QEAAXNN@Z 0000000180008530 f   NewtonClass.obj
 0001:000075b0       ?GetInfo@NewtonUserJoint@@UEBAXQEAVdgConstraintInfo@@@Z 00000001800085b0 f   NewtonClass.obj
 0001:00007600       ?Insert@?$dgTree@PEAVdgConstraint@@PEAX@@QEAAPEAVdgTreeNode@1@AEBQEAVdgConstraint@@PEAXAEA_N@Z 0000000180008600 f i NewtonClass.obj
 0001:00007600       ?Insert@?$dgTree@PEAVdgBody@@PEAX@@QEAAPEAVdgTreeNode@1@AEBQEAVdgBody@@PEAXAEA_N@Z 0000000180008600 f i NewtonClass.obj
 0001:000076f0       ?RemoveAll@?$dgTree@PEAVdgBody@@PEAX@@QEAAXXZ 00000001800086f0 f i NewtonClass.obj
 0001:000076f0       ?RemoveAll@?$dgTree@VdgEdge@@_J@@QEAAXXZ 00000001800086f0 f i physics:dgMeshEffect.obj
 0001:000076f0       ?RemoveAll@?$dgTree@VdgEdgeSharedTetras@Tetrahedralization@@_K@@QEAAXXZ 00000001800086f0 f i physics:dgMeshEffect2.obj
 0001:000076f0       ?RemoveAll@?$dgTree@PEAVdgConstraint@@PEAX@@QEAAXXZ 00000001800086f0 f i NewtonClass.obj
 0001:00007770       ?ModifierGetMatrix@dgCollision@@UEBA?AVdgMatrix@@XZ 0000000180008770 f i physics:dgWorld.obj
 0001:000077a0       ?Release@dgCollision@@UEAAHXZ 00000001800087a0 f i physics:dgWorld.obj
 0001:000077d0       ?GetBreakImpulse@dgCollision@@UEBANXZ 00000001800087d0 f i physics:dgWorld.obj
 0001:000077e0       ??0dgWorld@@QEAA@QEAVdgMemoryAllocator@@@Z 00000001800087e0 f   physics:dgWorld.obj
 0001:00007e20       ??1dgWorldDynamicUpdate@@QEAA@XZ 0000000180008e20 f i physics:dgWorld.obj
 0001:00007f90       ??1dgWorld@@QEAA@XZ        0000000180008f90 f   physics:dgWorld.obj
 0001:00008310       ?AddSentinelBody@dgWorld@@AEAAXXZ 0000000180009310 f   physics:dgWorld.obj
 0001:000083b0       ?RemoveAllGroupID@dgWorld@@QEAAXXZ 00000001800093b0 f   physics:dgWorld.obj
 0001:00008430       ?DestroyAllBodies@dgWorld@@QEAAXXZ 0000000180009430 f   physics:dgWorld.obj
 0001:000084d0       ?CreateBody@dgWorld@@QEAAPEAVdgBody@@QEAVdgCollision@@AEBVdgMatrix@@@Z 00000001800094d0 f   physics:dgWorld.obj
 0001:000086d0       ?UpdateCollision@dgWorld@@QEAAXXZ 00000001800096d0 f   physics:dgWorld.obj
 0001:00008780       ?Update@dgWorld@@QEAAXN@Z  0000000180009780 f   physics:dgWorld.obj
 0001:000088a0       ?CreateHingeConstraint@dgWorld@@QEAAPEAVdgHingeConstraint@@AEBVdgVector@@0QEAVdgBody@@PEAV4@@Z 00000001800098a0 f   physics:dgWorld.obj
 0001:00008970       ?CreateUpVectorConstraint@dgWorld@@QEAAPEAVdgUpVectorConstraint@@AEBVdgVector@@PEAVdgBody@@@Z 0000000180009970 f   physics:dgWorld.obj
 0001:00008a60       ?CreateSlidingConstraint@dgWorld@@QEAAPEAVdgSlidingConstraint@@AEBVdgVector@@0QEAVdgBody@@PEAV4@@Z 0000000180009a60 f   physics:dgWorld.obj
 0001:00008b30       ?CreateCorkscrewConstraint@dgWorld@@QEAAPEAVdgCorkscrewConstraint@@AEBVdgVector@@0QEAVdgBody@@PEAV4@@Z 0000000180009b30 f   physics:dgWorld.obj
 0001:00008c00       ?CreateUniversalConstraint@dgWorld@@QEAAPEAVdgUniversalConstraint@@AEBVdgVector@@00QEAVdgBody@@PEAV4@@Z 0000000180009c00 f   physics:dgWorld.obj
 0001:00008cd0       ?BodySetMatrix@dgWorld@@QEAAXPEAVdgBody@@AEBVdgMatrix@@@Z 0000000180009cd0 f   physics:dgWorld.obj
 0001:00009060       ?AreBodyConnectedByJoints@dgWorld@@AEAA_NQEAVdgBody@@0@Z 000000018000a060 f   physics:dgWorld.obj
 0001:00009150       ?FlushCache@dgWorld@@QEAAXXZ 000000018000a150 f   physics:dgWorld.obj
 0001:000091d0       ?ApplyExtenalForces@dgBody@@AEAAXNH@Z 000000018000a1d0 f i physics:dgBroadPhaseCollision.obj
 0001:00009280       ?IsInEquelibrium@dgBody@@QEBA_NXZ 000000018000a280 f i physics:dgBroadPhaseCollision.obj
 0001:000093f0       ?Remove@dgSortArray@@QEAAXQEAVdgBody@@@Z 000000018000a3f0 f   physics:dgBroadPhaseCollision.obj
 0001:00009490       ?Sort@dgSortArray@@QEAANXZ 000000018000a490 f   physics:dgBroadPhaseCollision.obj
 0001:00009620       ?RayCast@dgSortArray@@QEBANNAEBUdgLineBox@@P6ANQEBVdgBody@@AEBVdgVector@@HQEAXN@ZP6AI1QEBVdgCollision@@3@Z3@Z 000000018000a620 f   physics:dgBroadPhaseCollision.obj
 0001:00009720       ??1dgBroadPhaseCell@@QEAA@XZ 000000018000a720 f   physics:dgBroadPhaseCollision.obj
 0001:000097c0       ?Add@dgBroadPhaseCell@@AEAAXQEAVdgBody@@@Z 000000018000a7c0 f   physics:dgBroadPhaseCollision.obj
 0001:00009890       ?Remove@dgBroadPhaseCell@@AEAAXQEAVdgBody@@@Z 000000018000a890 f   physics:dgBroadPhaseCollision.obj
 0001:000098e0       ?UpdateAutoPair@dgBroadPhaseCell@@AEAAXQEAVdgWorld@@H@Z 000000018000a8e0 f   physics:dgBroadPhaseCollision.obj
 0001:00009a40       ?Init@dgBroadPhaseLayer@@AEAAXQEAVdgWorld@@NH@Z 000000018000aa40 f   physics:dgBroadPhaseCollision.obj
 0001:00009a60       ?FindCreate@dgBroadPhaseLayer@@AEAAPEAVdgBroadPhaseCell@@HH@Z 000000018000aa60 f   physics:dgBroadPhaseCollision.obj
 0001:00009cd0       ??0dgBroadPhaseCollision@@AEAA@PEAVdgMemoryAllocator@@@Z 000000018000acd0 f   physics:dgBroadPhaseCollision.obj
 0001:0000a170       ??_GdgParallelSolverCalculateForces@@UEAAPEAXI@Z 000000018000b170 f i physics:dgWorldDynamicUpdate.obj
 0001:0000a170       ??_EdgParallelSolverBodyInertia@@UEAAPEAXI@Z 000000018000b170 f i  CIL library: CIL module
 0001:0000a170       ??_EdgParallelSolverBuildJacobianMatrix@@UEAAPEAXI@Z 000000018000b170 f i  CIL library: CIL module
 0001:0000a170       ??_GdgParallelSolverClear@@UEAAPEAXI@Z 000000018000b170 f i physics:dgWorldDynamicUpdate.obj
 0001:0000a170       ??_GdgBroadPhaseApplyExternalForce@@UEAAPEAXI@Z 000000018000b170 f i physics:dgBroadPhaseCollision.obj
 0001:0000a170       ??_GdgParallelSolverInitInternalForces@@UEAAPEAXI@Z 000000018000b170 f i physics:dgWorldDynamicUpdate.obj
 0001:0000a170       ??_EdgBroadPhaseCalculateContactsWorkerThread@@UEAAPEAXI@Z 000000018000b170 f i  CIL library: CIL module
 0001:0000a170       ??_GdgParallelSolverBuildJacobianRows@@UEAAPEAXI@Z 000000018000b170 f i physics:dgWorldDynamicUpdate.obj
 0001:0000a170       ??_EdgParallelSolverBuildJacobianRows@@UEAAPEAXI@Z 000000018000b170 f i  CIL library: CIL module
 0001:0000a170       ??_GdgBroadPhaseCellPairsWorkerThread@@UEAAPEAXI@Z 000000018000b170 f i physics:dgBroadPhaseCollision.obj
 0001:0000a170       ??_EdgParallelSolverUpdateForce@@UEAAPEAXI@Z 000000018000b170 f i  CIL library: CIL module
 0001:0000a170       ??_EdgParallelSolverCalculateForces@@UEAAPEAXI@Z 000000018000b170 f i  CIL library: CIL module
 0001:0000a170       ??_EdgWorkerThread@@UEAAPEAXI@Z 000000018000b170 f i  CIL library: CIL module
 0001:0000a170       ??_GdgParallelSolverUpdateForce@@UEAAPEAXI@Z 000000018000b170 f i physics:dgWorldDynamicUpdate.obj
 0001:0000a170       ??_EdgBroadPhaseCellPairsWorkerThread@@UEAAPEAXI@Z 000000018000b170 f i  CIL library: CIL module
 0001:0000a170       ??_GdgBroadPhaseMaterialCallbackWorkerThread@@UEAAPEAXI@Z 000000018000b170 f i physics:dgBroadPhaseCollision.obj
 0001:0000a170       ??_GdgParallelSolverBuildJacobianMatrix@@UEAAPEAXI@Z 000000018000b170 f i physics:dgWorldDynamicUpdate.obj
 0001:0000a170       ??_EdgParallelSolverClear@@UEAAPEAXI@Z 000000018000b170 f i  CIL library: CIL module
 0001:0000a170       ??_EdgParallelSolverJointAcceleration@@UEAAPEAXI@Z 000000018000b170 f i  CIL library: CIL module
 0001:0000a170       ??_EdgSolverWorlkerThreads@@UEAAPEAXI@Z 000000018000b170 f i  CIL library: CIL module
 0001:0000a170       ??_GdgBroadPhaseCalculateContactsWorkerThread@@UEAAPEAXI@Z 000000018000b170 f i physics:dgBroadPhaseCollision.obj
 0001:0000a170       ??_EdgParallelSolverUpdateVeloc@@UEAAPEAXI@Z 000000018000b170 f i  CIL library: CIL module
 0001:0000a170       ??_EdgParallelSolverInitFeedbackUpdate@@UEAAPEAXI@Z 000000018000b170 f i  CIL library: CIL module
 0001:0000a170       ??_EdgBroadPhaseApplyExternalForce@@UEAAPEAXI@Z 000000018000b170 f i  CIL library: CIL module
 0001:0000a170       ??_GdgParallelSolverJointAcceleration@@UEAAPEAXI@Z 000000018000b170 f i physics:dgWorldDynamicUpdate.obj
 0001:0000a170       ??_GdgParallelSolverUpdateVeloc@@UEAAPEAXI@Z 000000018000b170 f i physics:dgWorldDynamicUpdate.obj
 0001:0000a170       ??_EdgParallelSolverInitInternalForces@@UEAAPEAXI@Z 000000018000b170 f i  CIL library: CIL module
 0001:0000a170       ??_GdgSolverWorlkerThreads@@UEAAPEAXI@Z 000000018000b170 f i physics:dgWorldDynamicUpdate.obj
 0001:0000a170       ??_GdgWorkerThread@@UEAAPEAXI@Z 000000018000b170 f i physics:dgWorld.obj
 0001:0000a170       ??_GdgParallelSolverInitFeedbackUpdate@@UEAAPEAXI@Z 000000018000b170 f i physics:dgWorldDynamicUpdate.obj
 0001:0000a170       ??_GdgParallelSolverBodyInertia@@UEAAPEAXI@Z 000000018000b170 f i physics:dgWorldDynamicUpdate.obj
 0001:0000a170       ??_EdgBroadPhaseMaterialCallbackWorkerThread@@UEAAPEAXI@Z 000000018000b170 f i  CIL library: CIL module
 0001:0000a1a0       ??1dgBroadPhaseCollision@@AEAA@XZ 000000018000b1a0 f   physics:dgBroadPhaseCollision.obj
 0001:0000a2d0       ?SetWorldSize@dgBroadPhaseCollision@@QEAAXAEBVdgVector@@0@Z 000000018000b2d0 f   physics:dgBroadPhaseCollision.obj
 0001:0000a690       ?InvalidateCache@dgBroadPhaseCollision@@AEAAXXZ 000000018000b690 f   physics:dgBroadPhaseCollision.obj
 0001:0000a730       ?Remove@dgBroadPhaseCollision@@AEAAXQEAVdgBody@@@Z 000000018000b730 f   physics:dgBroadPhaseCollision.obj
 0001:0000a7f0       ?UpdatePairs@dgBroadPhaseCollision@@AEBAXQEAVdgBody@@QEAVdgListNode@?$dgList@VdgSortArrayEntry@@@@HH@Z 000000018000b7f0 f   physics:dgBroadPhaseCollision.obj
 0001:0000a920       ?UpdatePairs@dgBroadPhaseCollision@@AEBAXAEAVdgBroadPhaseCell@@0H@Z 000000018000b920 f   physics:dgBroadPhaseCollision.obj
 0001:0000a9c0       ?ForEachBodyInAABB@dgBroadPhaseCollision@@QEBAXAEBVdgVector@@0P6AXPEAVdgBody@@QEAX@Z2@Z 000000018000b9c0 f   physics:dgBroadPhaseCollision.obj
 0001:0000ad10       ?ConvexCast@dgBroadPhaseCollision@@QEBAHQEAVdgCollision@@AEBVdgMatrix@@AEBVdgVector@@AEANP6AIQEBVdgBody@@QEBV2@QEAX@Z6QEAVdgConvexCastReturnInfo@@HH@Z 000000018000bd10 f   physics:dgBroadPhaseCollision.obj
 0001:0000b9a0       ?Realloc@dgBroadPhaseCalculateContactsWorkerThread@@QEAAXHHH@Z 000000018000c9a0 f   physics:dgBroadPhaseCollision.obj
 0001:0000bb20       ?ThreadExecute@dgBroadPhaseCellPairsWorkerThread@@UEAAXXZ 000000018000cb20 f   physics:dgBroadPhaseCollision.obj
 0001:0000bbd0       ?ThreadExecute@dgBroadPhaseApplyExternalForce@@UEAAXXZ 000000018000cbd0 f   physics:dgBroadPhaseCollision.obj
 0001:0000bdc0       ?ThreadExecute@dgBroadPhaseCalculateContactsWorkerThread@@UEAAXXZ 000000018000cdc0 f   physics:dgBroadPhaseCollision.obj
 0001:0000bfb0       ?ThreadExecute@dgBroadPhaseMaterialCallbackWorkerThread@@UEAAXXZ 000000018000cfb0 f   physics:dgBroadPhaseCollision.obj
 0001:0000c090       ?RayCast@dgBroadPhaseCollision@@QEBAXAEBVdgVector@@0P6ANQEBVdgBody@@0HQEAXN@ZP6AI1QEBVdgCollision@@2@Z2@Z 000000018000d090 f   physics:dgBroadPhaseCollision.obj
 0001:0000ca20       ?UpdateBodyBroadphase@dgBroadPhaseCollision@@AEAAXQEAVdgBody@@H@Z 000000018000da20 f   physics:dgBroadPhaseCollision.obj
 0001:0000cfc0       ?UpdateContactsBroadPhaseBegin@dgBroadPhaseCollision@@AEAAIN_NI@Z 000000018000dfc0 f   physics:dgBroadPhaseCollision.obj
 0001:0000dd20       ?UpdateContactsBroadPhaseEnd@dgBroadPhaseCollision@@AEAAXN@Z 000000018000ed20 f   physics:dgBroadPhaseCollision.obj
 0001:0000de20       ?UpdateContacts@dgBroadPhaseCollision@@AEAAXN_N@Z 000000018000ee20 f   physics:dgBroadPhaseCollision.obj
 0001:0000e0d0       ??Z?$dgTemplateVector@N@@QEAAAEAV0@AEBV0@@Z 000000018000f0d0 f i physics:dgBroadPhaseCollision.obj
 0001:0000e100       ?Append@?$dgList@VdgSortArrayEntry@@@@QEAAPEAVdgListNode@1@XZ 000000018000f100 f i physics:dgBroadPhaseCollision.obj
 0001:0000e1a0       ?AddDamingAcceleration@dgBody@@AEAAXXZ 000000018000f1a0 f i physics:dgWorldDynamicUpdate.obj
 0001:0000e3f0       ??0dgWorldDynamicUpdate@@AEAA@XZ 000000018000f3f0 f   physics:dgWorldDynamicUpdate.obj
 0001:0000ea30       ?UpdateDynamics@dgWorldDynamicUpdate@@AEAAXQEAVdgWorld@@HN@Z 000000018000fa30 f   physics:dgWorldDynamicUpdate.obj
 0001:0000ef80       ?ThreadExecute@dgSolverWorlkerThreads@@UEAAXXZ 000000018000ff80 f   physics:dgWorldDynamicUpdate.obj
 0001:0000f960       ?ReallocBodyMemory@dgWorldDynamicUpdate@@AEAAXH@Z 0000000180010960 f   physics:dgWorldDynamicUpdate.obj
 0001:0000fa90       ?ReallocIslandMemory@dgWorldDynamicUpdate@@AEAAXH@Z 0000000180010a90 f   physics:dgWorldDynamicUpdate.obj
 0001:0000fbe0       ?ReallocJointsMemory@dgWorldDynamicUpdate@@AEAAXH@Z 0000000180010be0 f   physics:dgWorldDynamicUpdate.obj
 0001:0000fd10       ?ReallocJacobiansMemory@dgWorldDynamicUpdate@@AEAAXHH@Z 0000000180010d10 f   physics:dgWorldDynamicUpdate.obj
 0001:00010060       ?ReallocIntenalForcesMemory@dgWorldDynamicUpdate@@AEAAXHH@Z 0000000180011060 f   physics:dgWorldDynamicUpdate.obj
 0001:000101f0       ?BuildIsland@dgWorldDynamicUpdate@@AEAAXAEAV?$dgQueue@PEAVdgBody@@@@HHH@Z 00000001800111f0 f   physics:dgWorldDynamicUpdate.obj
 0001:000104f0       ?SpanningTree@dgWorldDynamicUpdate@@AEAAXQEAVdgBody@@@Z 00000001800114f0 f   physics:dgWorldDynamicUpdate.obj
 0001:00010a00       ?IntegrateArray@dgWorldDynamicUpdate@@AEBAXPEBVdgBodyInfo@@HNNH_N@Z 0000000180011a00 f   physics:dgWorldDynamicUpdate.obj
 0001:00011130       ?GetJacobialDerivatives@dgWorldDynamicUpdate@@AEAAHAEBVdgIsland@@H_NHN@Z 0000000180012130 f   physics:dgWorldDynamicUpdate.obj
 0001:00011980       ?BuildJacobianMatrix@dgWorldDynamicUpdate@@AEAAXAEBVdgIsland@@HN@Z 0000000180012980 f   physics:dgWorldDynamicUpdate.obj
 0001:00012300       ?ApplyExternalForcesAndAcceleration@dgJacobianMemory@@QEBAXN@Z 0000000180013300 f   physics:dgWorldDynamicUpdate.obj
 0001:00012c30       ?SwapRows@dgJacobianMemory@@QEBAXHH@Z 0000000180013c30 f   physics:dgWorldDynamicUpdate.obj
 0001:00012e30       ?CalculateSimpleBodyReactionsForces@dgJacobianMemory@@QEBAXN@Z 0000000180013e30 f   physics:dgWorldDynamicUpdate.obj
 0001:00014300       ?CalculateForcesSimulationMode@dgJacobianMemory@@QEBAXN@Z 0000000180015300 f   physics:dgWorldDynamicUpdate.obj
 0001:00016c00       ?CalculateJointForces@dgJacobianMemory@@QEBANHPEANN@Z 0000000180017c00 f   physics:dgWorldDynamicUpdate.obj
 0001:00017dc0       ?CalculateForcesGameMode@dgJacobianMemory@@QEBAXHN@Z 0000000180018dc0 f   physics:dgWorldDynamicUpdate.obj
 0001:00019420       ?ThreadExecute@dgParallelSolverBodyInertia@@UEAAXXZ 000000018001a420 f   physics:dgWorldDynamicUpdate.obj
 0001:000194c0       ?ThreadExecute@dgParallelSolverBuildJacobianRows@@UEAAXXZ 000000018001a4c0 f   physics:dgWorldDynamicUpdate.obj
 0001:00019be0       ?ThreadExecute@dgParallelSolverBuildJacobianMatrix@@UEAAXXZ 000000018001abe0 f   physics:dgWorldDynamicUpdate.obj
 0001:0001a400       ?GetJacobialDerivativesParallel@dgWorldDynamicUpdate@@AEAAHAEBVdgIsland@@_NHN@Z 000000018001b400 f   physics:dgWorldDynamicUpdate.obj
 0001:0001a630       ?BuildJacobianMatrixParallel@dgWorldDynamicUpdate@@AEAAXAEBVdgIsland@@NH@Z 000000018001b630 f   physics:dgWorldDynamicUpdate.obj
 0001:0001aaf0       ?ThreadExecute@dgParallelSolverClear@@UEAAXXZ 000000018001baf0 f   physics:dgWorldDynamicUpdate.obj
 0001:0001ac70       ?ThreadExecute@dgParallelSolverInitInternalForces@@UEAAXXZ 000000018001bc70 f   physics:dgWorldDynamicUpdate.obj
 0001:0001b050       ?ThreadExecute@dgParallelSolverJointAcceleration@@UEAAXXZ 000000018001c050 f   physics:dgWorldDynamicUpdate.obj
 0001:0001b270       ?ThreadExecute@dgParallelSolverUpdateVeloc@@UEAAXXZ 000000018001c270 f   physics:dgWorldDynamicUpdate.obj
 0001:0001b540       ?ThreadExecute@dgParallelSolverUpdateForce@@UEAAXXZ 000000018001c540 f   physics:dgWorldDynamicUpdate.obj
 0001:0001bb20       ?ThreadExecute@dgParallelSolverInitFeedbackUpdate@@UEAAXXZ 000000018001cb20 f   physics:dgWorldDynamicUpdate.obj
 0001:0001bc60       ?ThreadExecute@dgParallelSolverCalculateForces@@UEAAXXZ 000000018001cc60 f   physics:dgWorldDynamicUpdate.obj
 0001:0001c3e0       ?CalculateForcesGameModeParallel@dgJacobianMemory@@QEBAXHNH@Z 000000018001d3e0 f   physics:dgWorldDynamicUpdate.obj
 0001:0001cfc0       ??Y?$dgTemplateVector@N@@QEAAAEAV0@AEBV0@@Z 000000018001dfc0 f i physics:dgWorldDynamicUpdate.obj
 0001:0001cff0       ?CompProduct@?$dgTemplateVector@N@@QEBA?AV1@AEBV1@@Z 000000018001dff0 f i physics:dgWorldDynamicUpdate.obj
 0001:0001d040       ??$dgSort@VdgIsland@@@@YAXQEAVdgIsland@@HP6AHQEBV0@1QEAX@Z2@Z 000000018001e040 f i physics:dgWorldDynamicUpdate.obj
 0001:0001d310       ?AddToBreakQueue@dgWorld@@QEAAXQEBVdgContact@@QEAVdgBody@@N@Z 000000018001e310 f i physics:dgNarrowPhaseCollision.obj
 0001:0001d3b0       ?CreateNull@dgWorld@@QEAAPEAVdgCollision@@XZ 000000018001e3b0 f   physics:dgNarrowPhaseCollision.obj
 0001:0001d530       ?CreateBox@dgWorld@@QEAAPEAVdgCollision@@NNNHAEBVdgMatrix@@@Z 000000018001e530 f   physics:dgNarrowPhaseCollision.obj
 0001:0001d840       ?CreateSphere@dgWorld@@QEAAPEAVdgCollision@@NHAEBVdgMatrix@@@Z 000000018001e840 f   physics:dgNarrowPhaseCollision.obj
 0001:0001dad0       ?CreateEllipse@dgWorld@@QEAAPEAVdgCollision@@NNNHAEBVdgMatrix@@@Z 000000018001ead0 f   physics:dgNarrowPhaseCollision.obj
 0001:0001dda0       ?CreateCapsule@dgWorld@@QEAAPEAVdgCollision@@NNHAEBVdgMatrix@@@Z 000000018001eda0 f   physics:dgNarrowPhaseCollision.obj
 0001:0001e060       ?CreateCone@dgWorld@@QEAAPEAVdgCollision@@NNHAEBVdgMatrix@@@Z 000000018001f060 f   physics:dgNarrowPhaseCollision.obj
 0001:0001e320       ?CreateCylinder@dgWorld@@QEAAPEAVdgCollision@@NNHAEBVdgMatrix@@@Z 000000018001f320 f   physics:dgNarrowPhaseCollision.obj
 0001:0001e5e0       ?CreateChamferCylinder@dgWorld@@QEAAPEAVdgCollision@@NNHAEBVdgMatrix@@@Z 000000018001f5e0 f   physics:dgNarrowPhaseCollision.obj
 0001:0001e8a0       ?CreateConvexHull@dgWorld@@QEAAPEAVdgCollision@@HPEBNHNHAEBVdgMatrix@@@Z 000000018001f8a0 f   physics:dgNarrowPhaseCollision.obj
 0001:0001ed30       ?CreateCollisionCompoundBreakable@dgWorld@@QEAAPEAVdgCollision@@HQEBQEBVdgMeshEffect@@QEBHQEBN1HN@Z 000000018001fd30 f   physics:dgNarrowPhaseCollision.obj
 0001:0001edd0       ?CreateBVHFieldCollision@dgWorld@@QEAAPEAVdgCollision@@HHHQEBGQEBDNN@Z 000000018001fdd0 f   physics:dgNarrowPhaseCollision.obj
 0001:0001ee70       ?Serialize@dgWorld@@QEBAXPEAVdgCollision@@P6AXPEAXPEBX_K@ZQEAX@Z 000000018001fe70 f   physics:dgNarrowPhaseCollision.obj
 0001:0001eef0       ?CreateFromSerialization@dgWorld@@QEAAPEAVdgCollision@@P6AXPEAX0_K@ZQEAX@Z 000000018001fef0 f   physics:dgNarrowPhaseCollision.obj
 0001:0001fa90       ?CreateBodyGroupID@dgWorld@@QEAAIXZ 0000000180020a90 f   physics:dgNarrowPhaseCollision.obj
 0001:0001fcc0       ?RemoveFromCache@dgWorld@@QEAAXQEAVdgCollision@@@Z 0000000180020cc0 f   physics:dgNarrowPhaseCollision.obj
 0001:0001fd50       ?ReleaseCollision@dgWorld@@QEAAXQEAVdgCollision@@@Z 0000000180020d50 f   physics:dgNarrowPhaseCollision.obj
 0001:0001fe30       ?ClosestPoint@dgWorld@@QEBAHAEAVdgTriplex@@QEAVdgCollision@@AEBVdgMatrix@@00H@Z 0000000180020e30 f   physics:dgNarrowPhaseCollision.obj
 0001:0001ff10       ?ClosestPoint@dgWorld@@QEBAHQEAVdgCollision@@AEBVdgMatrix@@01AEAVdgTriplex@@22H@Z 0000000180020f10 f   physics:dgNarrowPhaseCollision.obj
 0001:000202d0       ?ReduceContacts@dgWorld@@AEBAHHQEAVdgContactPoint@@HNH@Z 00000001800212d0 f   physics:dgNarrowPhaseCollision.obj
 0001:00020550       ?PruneContacts@dgWorld@@AEBAHHQEAVdgContactPoint@@H@Z 0000000180021550 f   physics:dgNarrowPhaseCollision.obj
 0001:00020820       ?ProcessCachedContacts@dgWorld@@AEBAXQEAVdgContact@@QEBVdgContactMaterial@@NH@Z 0000000180021820 f   physics:dgNarrowPhaseCollision.obj
 0001:00020920       ?ProcessTriggers@dgWorld@@AEAAXQEAUdgPair@dgCollidingPairCollector@@NH@Z 0000000180021920 f   physics:dgNarrowPhaseCollision.obj
 0001:00020a70       ?ProcessContacts@dgWorld@@AEAAXQEAUdgPair@dgCollidingPairCollector@@NH@Z 0000000180021a70 f   physics:dgNarrowPhaseCollision.obj
 0001:00021d00       ?ValidateContactCache@dgWorld@@AEBAHQEAVdgBody@@0QEAVdgContact@@@Z 0000000180022d00 f   physics:dgNarrowPhaseCollision.obj
 0001:00022510       ?CompoundContactsSimd@dgWorld@@AEBAXQEAUdgPair@dgCollidingPairCollector@@AEAVdgCollisionParamProxi@@@Z 0000000180023510 f   physics:dgNarrowPhaseCollision.obj
 0001:00022620       ?CompoundContacts@dgWorld@@AEBAXQEAUdgPair@dgCollidingPairCollector@@AEAVdgCollisionParamProxi@@@Z 0000000180023620 f   physics:dgNarrowPhaseCollision.obj
 0001:00022720       ?ConvexContactsSimd@dgWorld@@AEBAXQEAUdgPair@dgCollidingPairCollector@@AEAVdgCollisionParamProxi@@@Z 0000000180023720 f   physics:dgNarrowPhaseCollision.obj
 0001:00022820       ?ConvexContacts@dgWorld@@AEBAXQEAUdgPair@dgCollidingPairCollector@@AEAVdgCollisionParamProxi@@@Z 0000000180023820 f   physics:dgNarrowPhaseCollision.obj
 0001:00022990       ?SceneContacts@dgWorld@@AEBAXAEBUdgProxy@dgCollisionScene@@QEAUdgPair@dgCollidingPairCollector@@AEAVdgCollisionParamProxi@@@Z 0000000180023990 f   physics:dgNarrowPhaseCollision.obj
 0001:00022ac0       ?SceneContacts@dgWorld@@AEBAXQEAUdgPair@dgCollidingPairCollector@@AEAVdgCollisionParamProxi@@@Z 0000000180023ac0 f   physics:dgNarrowPhaseCollision.obj
 0001:00022bd0       ?SceneContactsSimd@dgWorld@@AEBAXQEAUdgPair@dgCollidingPairCollector@@AEAVdgCollisionParamProxi@@@Z 0000000180023bd0 f   physics:dgNarrowPhaseCollision.obj
 0001:00022ce0       ?CalculateContactsSimd@dgWorld@@AEAAXQEAUdgPair@dgCollidingPairCollector@@NH@Z 0000000180023ce0 f   physics:dgNarrowPhaseCollision.obj
 0001:00022e60       ?CalculateContacts@dgWorld@@AEAAXQEAUdgPair@dgCollidingPairCollector@@NH@Z 0000000180023e60 f   physics:dgNarrowPhaseCollision.obj
 0001:00022ff0       ?CollideContinueSimd@dgWorld@@QEAAHPEAVdgCollision@@AEBVdgMatrix@@AEBVdgVector@@20122AEANPEAVdgTriplex@@4PEANHH@Z 0000000180023ff0 f   physics:dgNarrowPhaseCollision.obj
 0001:000238b0       ?CollideContinue@dgWorld@@QEAAHPEAVdgCollision@@AEBVdgMatrix@@AEBVdgVector@@20122AEANPEAVdgTriplex@@4PEANHH@Z 00000001800248b0 f   physics:dgNarrowPhaseCollision.obj
 0001:000241b0       ?Collide@dgWorld@@QEAAHPEAVdgCollision@@AEBVdgMatrix@@01PEAVdgTriplex@@2PEANHH@Z 00000001800251b0 f   physics:dgNarrowPhaseCollision.obj
 0001:00024790       ?Append@?$dgList@VdgContactMaterial@@@@QEAAPEAVdgListNode@1@XZ 0000000180025790 f i physics:dgNarrowPhaseCollision.obj
 0001:00024810       ??$dgSort@VdgContactPoint@@@@YAXQEAVdgContactPoint@@HP6AHQEBV0@1QEAX@Z2@Z 0000000180025810 f i physics:dgNarrowPhaseCollision.obj
 0001:00024a70       ??0dgListNode@?$dgList@VdgContactMaterial@@@@AEAA@QEAV01@0@Z 0000000180025a70 f i physics:dgNarrowPhaseCollision.obj
 0001:00024b30       ??0dgMeshEffectBuilder@@QEAA@XZ 0000000180025b30 f i physics:dgMeshEffect.obj
 0001:00024c00       ?GetShapeFromCollision@dgMeshEffectBuilder@@SAXPEAXHPEBNH@Z 0000000180025c00 f i physics:dgMeshEffect.obj
 0001:00024de0       ??_EdgMeshEffect@@UEAAPEAXI@Z 0000000180025de0 f i  CIL library: CIL module
 0001:00024de0       ??_GdgMeshEffect@@UEAAPEAXI@Z 0000000180025de0 f i physics:dgMeshEffect.obj
 0001:00024e20       ??0dgMeshEffect@@QEAA@AEAVdgPolyhedra@@AEBV0@@Z 0000000180025e20 f   physics:dgMeshEffect.obj
 0001:00024f30       ??0dgMeshEffect@@QEAA@AEBV0@@Z 0000000180025f30 f   physics:dgMeshEffect.obj
 0001:00025040       ??0dgMeshEffect@@QEAA@QEAVdgCollision@@@Z 0000000180026040 f   physics:dgMeshEffect.obj
 0001:00025430       ??1dgMeshEffect@@UEAA@XZ   0000000180026430 f   physics:dgMeshEffect.obj
 0001:000254b0       ?Init@dgMeshEffect@@AEAAX_N@Z 00000001800264b0 f   physics:dgMeshEffect.obj
 0001:00025570       ?Triangulate@dgMeshEffect@@QEAAXXZ 0000000180026570 f   physics:dgMeshEffect.obj
 0001:00025950       ?ConvertToPolygons@dgMeshEffect@@QEAAXXZ 0000000180026950 f   physics:dgMeshEffect.obj
 0001:00025d30       ?RemoveUnusedVertices@dgMeshEffect@@QEAAXQEAH@Z 0000000180026d30 f   physics:dgMeshEffect.obj
 0001:00026380       ?CalculateOOBB@dgMeshEffect@@QEBA?AVdgMatrix@@AEAVdgVector@@@Z 0000000180027380 f   physics:dgMeshEffect.obj
 0001:00026620       ?CalculateAABB@dgMeshEffect@@QEBAXAEAVdgVector@@0@Z 0000000180027620 f   physics:dgMeshEffect.obj
 0001:00026820       ?EnumerateAttributeArray@dgMeshEffect@@AEAAXPEAUdgVertexAtribute@1@@Z 0000000180027820 f   physics:dgMeshEffect.obj
 0001:00026910       ?ApplyAttributeArray@dgMeshEffect@@AEAAXPEAUdgVertexAtribute@1@@Z 0000000180027910 f   physics:dgMeshEffect.obj
 0001:00026ae0       ?FixCylindricalMapping@dgMeshEffect@@AEBAXPEAUdgVertexAtribute@1@@Z 0000000180027ae0 f   physics:dgMeshEffect.obj
 0001:00026cd0       ?SphericalMapping@dgMeshEffect@@QEAAXH@Z 0000000180027cd0 f   physics:dgMeshEffect.obj
 0001:000270c0       ?CylindricalMapping@dgMeshEffect@@QEAAXHH@Z 00000001800280c0 f   physics:dgMeshEffect.obj
 0001:00027680       ?BoxMapping@dgMeshEffect@@QEAAXHHH@Z 0000000180028680 f   physics:dgMeshEffect.obj
 0001:00027b90       ?CalculateNormals@dgMeshEffect@@QEAAXN@Z 0000000180028b90 f   physics:dgMeshEffect.obj
 0001:00028080       ?AddAtribute@dgMeshEffect@@AEAAXAEBUdgVertexAtribute@1@@Z 0000000180029080 f   physics:dgMeshEffect.obj
 0001:00028160       ?AddVertex@dgMeshEffect@@AEAAXAEBVdgVector@@@Z 0000000180029160 f   physics:dgMeshEffect.obj
 0001:00028270       ?AddPoint@dgMeshEffect@@AEAAXPEBNH@Z 0000000180029270 f   physics:dgMeshEffect.obj
 0001:00028380       ?PackVertexArrays@dgMeshEffect@@QEAAXXZ 0000000180029380 f   physics:dgMeshEffect.obj
 0001:000284a0       ?AddPolygon@dgMeshEffect@@QEAAXHPEBNHH@Z 00000001800294a0 f   physics:dgMeshEffect.obj
 0001:000286f0       ?EndPolygon@dgMeshEffect@@QEAAXXZ 00000001800296f0 f   physics:dgMeshEffect.obj
 0001:00028ad0       ?BuildFromVertexListIndexList@dgMeshEffect@@QEAAXHQEBH0QEBNH01H01H01H0@Z 0000000180029ad0 f   physics:dgMeshEffect.obj
 0001:00029180       ?GetTotalIndexCount@dgMeshEffect@@QEBAHXZ 000000018002a180 f   physics:dgMeshEffect.obj
 0001:00029240       ?GetFaces@dgMeshEffect@@QEBAXQEAH0QEAPEAX@Z 000000018002a240 f   physics:dgMeshEffect.obj
 0001:00029390       ?GetNextVertex@dgMeshEffect@@QEAAPEAXPEBX@Z 000000018002a390 f   physics:dgMeshEffect.obj
 0001:00029450       ?GetFirstPoint@dgMeshEffect@@QEAAPEAXXZ 000000018002a450 f   physics:dgMeshEffect.obj
 0001:00029510       ?GetNextPoint@dgMeshEffect@@QEAAPEAXPEBX@Z 000000018002a510 f   physics:dgMeshEffect.obj
 0001:000295d0       ?ConectVertex@dgMeshEffect@@QEAAPEAVdgEdge@@QEAV2@0@Z 000000018002a5d0 f   physics:dgMeshEffect.obj
 0001:00029710       ?GetNextEdge@dgMeshEffect@@QEAAPEAXPEBX@Z 000000018002a710 f   physics:dgMeshEffect.obj
 0001:000297c0       ?GetNextFace@dgMeshEffect@@QEAAPEAXPEBX@Z 000000018002a7c0 f   physics:dgMeshEffect.obj
 0001:00029870       ?GetVertexStreams@dgMeshEffect@@QEAAXHPEANH0H0H0@Z 000000018002a870 f   physics:dgMeshEffect.obj
 0001:000299e0       ?GetIndirectVertexStreams@dgMeshEffect@@QEAAXHPEANPEAH1H011H011H011@Z 000000018002a9e0 f   physics:dgMeshEffect.obj
 0001:00029e30       ?MaterialGeomteryBegin@dgMeshEffect@@QEAAPEAUdgIndexArray@1@XZ 000000018002ae30 f   physics:dgMeshEffect.obj
 0001:0002a0c0       ?CreateConvexCollision@dgMeshEffect@@QEBAPEAVdgCollision@@NHAEBVdgMatrix@@@Z 000000018002b0c0 f   physics:dgMeshEffect.obj
 0001:0002a580       ?InterpolateEdge@dgMeshEffect@@AEBA?AUdgVertexAtribute@1@QEAVdgEdge@@N@Z 000000018002b580 f   physics:dgMeshEffect.obj
 0001:0002a6d0       ?InsertEdgeVertex@dgMeshEffect@@QEAAPEAVdgEdge@@QEAV2@N@Z 000000018002b6d0 f   physics:dgMeshEffect.obj
 0001:0002a800       ?Difference@dgMeshEffect@@QEBAPEAV1@AEBVdgMatrix@@PEBV1@@Z 000000018002b800 f   physics:dgMeshEffect.obj
 0001:0002a800       ?Intersection@dgMeshEffect@@QEBAPEAV1@AEBVdgMatrix@@PEBV1@@Z 000000018002b800 f   physics:dgMeshEffect.obj
 0001:0002a800       ?Union@dgMeshEffect@@QEBAPEAV1@AEBVdgMatrix@@PEBV1@@Z 000000018002b800 f   physics:dgMeshEffect.obj
 0001:0002a890       ?ClipMesh@dgMeshEffect@@QEBAXAEBVdgMatrix@@PEBV1@PEAPEAV1@2@Z 000000018002b890 f   physics:dgMeshEffect.obj
 0001:0002a940       ?HasOpenEdges@dgMeshEffect@@QEBA_NXZ 000000018002b940 f   physics:dgMeshEffect.obj
 0001:0002a9d0       ?WeldTJoints@dgMeshEffect@@QEAAXXZ 000000018002b9d0 f   physics:dgMeshEffect.obj
 0001:0002b170       ??_EdgMeshEffect@@WDA@EAAPEAXI@Z 000000018002c170 f i physics:dgMeshEffect.obj
 0001:0002b180       ??_GdgRefCounter@@MEAAPEAXI@Z 000000018002c180 f i physics:dgMeshEffect.obj
 0001:0002b180       ??_EdgRefCounter@@MEAAPEAXI@Z 000000018002c180 f i  CIL library: CIL module
 0001:0002b1b0       ??0dgMeshEffect@@QEAA@QEAVdgMemoryAllocator@@QEBNHHN@Z 000000018002c1b0 f   physics:dgMeshEffect2.obj
 0001:0002b6e0       ??1dgEdgeMap@Tetrahedralization@@QEAA@XZ 000000018002c6e0 f i physics:dgMeshEffect2.obj
 0001:0002b7c0       ??1Tetrahedralization@@UEAA@XZ 000000018002c7c0 f i physics:dgMeshEffect2.obj
 0001:0002b850       ?RecoverEdges@Tetrahedralization@@QEAAXXZ 000000018002c850 f i physics:dgMeshEffect2.obj
 0001:0002bf90       ?RemoveDegeneratedTetras@Tetrahedralization@@QEAAXXZ 000000018002cf90 f i physics:dgMeshEffect2.obj
 0001:0002c310       ?MatchFace@Tetrahedralization@@QEBA_NAEAVdgMeshEffect@@QEAVdgEdge@@H@Z 000000018002d310 f i physics:dgMeshEffect2.obj
 0001:0002c5c0       ?RecoverFace@Tetrahedralization@@QEBAXAEAVdgMeshEffect@@QEAVdgEdge@@HHAEAV?$dgTree@PEAVdgEdge@@PEAV1@@@@Z 000000018002d5c0 f i physics:dgMeshEffect2.obj
 0001:0002cbc0       ?ConvexCompareIndex@Tetrahedralization@@SAHQEBVdgIndexMapPair@1@0QEAX@Z 000000018002dbc0 f i physics:dgMeshEffect2.obj
 0001:0002cbe0       ?CreateIndexMap@Tetrahedralization@@QEAAXXZ 000000018002dbe0 f i physics:dgMeshEffect2.obj
 0001:0002ccf0       ?InsertNewNode@Tetrahedralization@@QEAAXHHQEAVdgListNode@?$dgList@VdgConvexHull4dTetraherum@@@@@Z 000000018002dcf0 f i physics:dgMeshEffect2.obj
 0001:0002ce40       ?AddEdges@Tetrahedralization@@QEAAXQEAVdgListNode@?$dgList@VdgConvexHull4dTetraherum@@@@@Z 000000018002de40 f i physics:dgMeshEffect2.obj
 0001:0002ced0       ?RemoveNode@Tetrahedralization@@QEAAXHHQEAVdgListNode@?$dgList@VdgConvexHull4dTetraherum@@@@@Z 000000018002ded0 f i physics:dgMeshEffect2.obj
 0001:0002d0d0       ?AddFace@Tetrahedralization@@UEAAPEAVdgListNode@?$dgList@VdgConvexHull4dTetraherum@@@@HHHH@Z 000000018002e0d0 f i physics:dgMeshEffect2.obj
 0001:0002d110       ?DeleteFace@Tetrahedralization@@UEAAXQEAVdgListNode@?$dgList@VdgConvexHull4dTetraherum@@@@@Z 000000018002e110 f i physics:dgMeshEffect2.obj
 0001:0002d230       ?RecoverFaces@Tetrahedralization@@QEAAXXZ 000000018002e230 f i physics:dgMeshEffect2.obj
 0001:0002d870       ??_GTetrahedralization@@UEAAPEAXI@Z 000000018002e870 f i physics:dgMeshEffect2.obj
 0001:0002d870       ??_ETetrahedralization@@UEAAPEAXI@Z 000000018002e870 f i  CIL library: CIL module
 0001:0002d8b0       ?CreateConvexApproximationCollision@dgMeshEffect@@QEBAPEAVdgCollision@@QEAVdgWorld@@HHH@Z 000000018002e8b0 f   physics:dgMeshEffect2.obj
 0001:0002e390       ?Scale4@?$dgTemplateVector@N@@QEBA?AV1@N@Z 000000018002f390 f i physics:dgMeshEffect2.obj
 0001:0002e3d0       ?Add4@?$dgTemplateVector@N@@QEBA?AV1@AEBV1@@Z 000000018002f3d0 f i physics:dgMeshEffect2.obj
 0001:0002e420       ?Append@?$dgList@PEAVdgTreeNode@?$dgTree@VdgEdge@@_J@@@@QEAAPEAVdgListNode@1@AEBQEAVdgTreeNode@?$dgTree@VdgEdge@@_J@@@Z 000000018002f420 f i physics:dgMeshEffect2.obj
 0001:0002e420       ?Append@?$dgList@PEAVdgMemoryAllocator@@@@QEAAPEAVdgListNode@1@AEBQEAVdgMemoryAllocator@@@Z 000000018002f420 f i corelib:dgMemory.obj
 0001:0002e420       ?Append@?$dgList@PEAVdgListNode@?$dgList@VdgConvexHull4dTetraherum@@@@@@QEAAPEAVdgListNode@1@AEBQEAV2?$dgList@VdgConvexHull4dTetraherum@@@@@Z 000000018002f420 f i physics:dgMeshEffect2.obj
 0001:0002e420       ?Append@?$dgList@PEAVdgContact@@@@QEAAPEAVdgListNode@1@AEBQEAVdgContact@@@Z 000000018002f420 f i physics:dgContact.obj
 0001:0002e4e0       ??$dgSort@VdgIndexMapPair@Tetrahedralization@@@@YAXQEAVdgIndexMapPair@Tetrahedralization@@HP6AHQEBV01@1QEAX@Z2@Z 000000018002f4e0 f i physics:dgMeshEffect2.obj
 0001:0002e630       ?Resize@?$dgArray@VdgIndexMapPair@Tetrahedralization@@@@QEBAXH@Z 000000018002f630 f i physics:dgMeshEffect2.obj
 0001:0002e790       ?Resize@?$dgArray@VdgHullVector@@@@QEBAXH@Z 000000018002f790 f i physics:dgMeshEffect2.obj
 0001:0002e950       ?Resize@?$dgArray@VdgVector@@@@QEBAXH@Z 000000018002f950 f i physics:dgMeshEffect2.obj
 0001:0002eaf0       ?IsBilateral@dgConstraint@@MEBA_NXZ 000000018002faf0 f i physics:dgConstraint.obj
 0001:0002eaf0       ?IsTriggerVolume@dgCollision@@UEBA_NXZ 000000018002faf0 f i physics:dgCollisionCompoundBreakable.obj
 0001:0002eaf0       ?IsBilateral@dgUpVectorConstraint@@UEBA_NXZ 000000018002faf0 f i physics:dgUpVectorConstraint.obj
 0001:0002eb00       ??_GdgCollisionConvexIntance@dgCollisionCompoundBreakable@@UEAAPEAXI@Z 000000018002fb00 f i physics:dgCollisionCompoundBreakable.obj
 0001:0002eb00       ??_EdgCollisionConvexIntance@dgCollisionCompoundBreakable@@UEAAPEAXI@Z 000000018002fb00 f i  CIL library: CIL module
 0001:0002eb40       ??0dgCollisionConvexIntance@dgCollisionCompoundBreakable@@QEAA@AEBV01@PEAVdgListNode@?$dgList@V?$dgGraphNode@VdgDebriNodeInfo@dgCollisionCompoundBreakable@@VdgSharedNodeMesh@2@@@@@@Z 000000018002fb40 f   physics:dgCollisionCompoundBreakable.obj
 0001:0002ec40       ??0dgCollisionConvexIntance@dgCollisionCompoundBreakable@@QEAA@QEAVdgWorld@@P6AXPEAX1_K@ZQEAX@Z 000000018002fc40 f   physics:dgCollisionCompoundBreakable.obj
 0001:0002ed20       ??1dgCollisionConvexIntance@dgCollisionCompoundBreakable@@UEAA@XZ 000000018002fd20 f   physics:dgCollisionCompoundBreakable.obj
 0001:0002ed90       ?GetVolume@dgCollisionConvexIntance@dgCollisionCompoundBreakable@@MEBANXZ 000000018002fd90 f   physics:dgCollisionCompoundBreakable.obj
 0001:0002eda0       ?OOBBTest@dgCollisionConvexIntance@dgCollisionCompoundBreakable@@MEBA_NAEBVdgMatrix@@QEBVdgConvexCollision@@QEAX@Z 000000018002fda0 f   physics:dgCollisionCompoundBreakable.obj
 0001:0002edb0       ?SupportVertex@dgCollisionConvexIntance@dgCollisionCompoundBreakable@@MEBA?AVdgVector@@AEBV3@@Z 000000018002fdb0 f   physics:dgCollisionCompoundBreakable.obj
 0001:0002edd0       ?SupportVertexSimd@dgCollisionConvexIntance@dgCollisionCompoundBreakable@@MEBA?AVdgVector@@AEBV3@@Z 000000018002fdd0 f   physics:dgCollisionCompoundBreakable.obj
 0001:0002ee00       ?CalcAABB@dgCollisionConvexIntance@dgCollisionCompoundBreakable@@MEBAXAEBVdgMatrix@@AEAVdgVector@@1@Z 000000018002fe00 f   physics:dgCollisionCompoundBreakable.obj
 0001:0002ee10       ?CalcAABBSimd@dgCollisionConvexIntance@dgCollisionCompoundBreakable@@MEBAXAEBVdgMatrix@@AEAVdgVector@@1@Z 000000018002fe10 f   physics:dgCollisionCompoundBreakable.obj
 0001:0002ee20       ?DebugCollision@dgCollisionConvexIntance@dgCollisionCompoundBreakable@@MEBAXAEBVdgMatrix@@P6AXPEAXHPEBNH@ZQEAX@Z 000000018002fe20 f   physics:dgCollisionCompoundBreakable.obj
 0001:0002ee30       ?RayCast@dgCollisionConvexIntance@dgCollisionCompoundBreakable@@MEBANAEBVdgVector@@0AEAVdgContactPoint@@P6AIQEBVdgBody@@QEBVdgCollision@@QEAX@Z24@Z 000000018002fe30 f   physics:dgCollisionCompoundBreakable.obj
 0001:0002ee70       ?RayCastSimd@dgCollisionConvexIntance@dgCollisionCompoundBreakable@@MEBANAEBVdgVector@@0AEAVdgContactPoint@@P6AIQEBVdgBody@@QEBVdgCollision@@QEAX@Z24@Z 000000018002fe70 f   physics:dgCollisionCompoundBreakable.obj
 0001:0002eeb0       ?CalculateVolumeIntegral@dgCollisionConvexIntance@dgCollisionCompoundBreakable@@MEBA?AVdgVector@@AEBVdgMatrix@@P6AIPEAX10AEAVdgPlane@@@ZQEAX@Z 000000018002feb0 f   physics:dgCollisionCompoundBreakable.obj
 0001:0002eee0       ?SetCollisionBBox@dgCollisionConvexIntance@dgCollisionCompoundBreakable@@EEAAXAEBVdgVector@@0@Z 000000018002fee0 f   physics:dgCollisionCompoundBreakable.obj
 0001:0002eef0       ?GetBoxMinRadius@dgCollisionConvexIntance@dgCollisionCompoundBreakable@@EEBANXZ 000000018002fef0 f   physics:dgCollisionCompoundBreakable.obj
 0001:0002ef00       ?GetBoxMaxRadius@dgCollisionConvexIntance@dgCollisionCompoundBreakable@@EEBANXZ 000000018002ff00 f   physics:dgCollisionCompoundBreakable.obj
 0001:0002ef10       ?CalculatePlaneIntersection@dgCollisionConvexIntance@dgCollisionCompoundBreakable@@EEBAHAEBVdgVector@@0QEAV3@@Z 000000018002ff10 f   physics:dgCollisionCompoundBreakable.obj
 0001:0002ef30       ?CalculatePlaneIntersectionSimd@dgCollisionConvexIntance@dgCollisionCompoundBreakable@@EEBAHAEBVdgVector@@0QEAV3@@Z 000000018002ff30 f   physics:dgCollisionCompoundBreakable.obj
 0001:0002ef50       ?GetCollisionInfo@dgCollisionConvexIntance@dgCollisionCompoundBreakable@@EEBAXPEAVdgCollisionInfo@@@Z 000000018002ff50 f   physics:dgCollisionCompoundBreakable.obj
 0001:0002ef70       ?Serialize@dgCollisionConvexIntance@dgCollisionCompoundBreakable@@EEBAXP6AXPEAXPEBX_K@ZQEAX@Z 000000018002ff70 f   physics:dgCollisionCompoundBreakable.obj
 0001:0002eff0       ?SetBreakImpulse@dgCollisionConvexIntance@dgCollisionCompoundBreakable@@EEAAXN@Z 000000018002fff0 f   physics:dgCollisionCompoundBreakable.obj
 0001:0002f000       ?GetBreakImpulse@dgCollisionConvexIntance@dgCollisionCompoundBreakable@@EEBANXZ 0000000180030000 f   physics:dgCollisionCompoundBreakable.obj
 0001:0002f010       ??_EdgVertexBuffer@dgCollisionCompoundBreakable@@UEAAPEAXI@Z 0000000180030010 f i  CIL library: CIL module
 0001:0002f010       ??_GdgVertexBuffer@dgCollisionCompoundBreakable@@UEAAPEAXI@Z 0000000180030010 f i physics:dgCollisionCompoundBreakable.obj
 0001:0002f080       ??0dgVertexBuffer@dgCollisionCompoundBreakable@@QEAA@QEAVdgMemoryAllocator@@P6AXPEAX1_K@ZQEAX@Z 0000000180030080 f   physics:dgCollisionCompoundBreakable.obj
 0001:0002f160       ?Serialize@dgVertexBuffer@dgCollisionCompoundBreakable@@QEBAXP6AXPEAXPEBX_K@ZQEAX@Z 0000000180030160 f   physics:dgCollisionCompoundBreakable.obj
 0001:0002f1f0       ?GetVertexStreams@dgVertexBuffer@dgCollisionCompoundBreakable@@QEBAXHPEANH0H0@Z 00000001800301f0 f   physics:dgCollisionCompoundBreakable.obj
 0001:0002f350       ??_EdgMesh@dgCollisionCompoundBreakable@@UEAAPEAXI@Z 0000000180030350 f i  CIL library: CIL module
 0001:0002f350       ??_GdgMesh@dgCollisionCompoundBreakable@@UEAAPEAXI@Z 0000000180030350 f i physics:dgCollisionCompoundBreakable.obj
 0001:0002f3a0       ??0dgMesh@dgCollisionCompoundBreakable@@QEAA@QEAVdgMemoryAllocator@@P6AXPEAX1_K@ZQEAX@Z 00000001800303a0 f   physics:dgCollisionCompoundBreakable.obj
 0001:0002f540       ?Serialize@dgMesh@dgCollisionCompoundBreakable@@QEBAXP6AXPEAXPEBX_K@ZQEAX@Z 0000000180030540 f   physics:dgCollisionCompoundBreakable.obj
 0001:0002f600       ??0dgDebriGraph@dgCollisionCompoundBreakable@@QEAA@QEAVdgMemoryAllocator@@P6AXPEAX1_K@ZQEAX@Z 0000000180030600 f   physics:dgCollisionCompoundBreakable.obj
 0001:0002f930       ??0dgDebriGraph@dgCollisionCompoundBreakable@@QEAA@AEBV01@@Z 0000000180030930 f   physics:dgCollisionCompoundBreakable.obj
 0001:0002fc50       ?Serialize@dgDebriGraph@dgCollisionCompoundBreakable@@QEBAXP6AXPEAXPEBX_K@ZQEAX@Z 0000000180030c50 f   physics:dgCollisionCompoundBreakable.obj
 0001:0002ff90       ??0dgCollisionCompoundBreakable@@QEAA@HQEBQEBVdgMeshEffect@@QEBHQEBN1HNPEAVdgWorld@@@Z 0000000180030f90 f   physics:dgCollisionCompoundBreakable.obj
 0001:00030e20       ??_GdgCollisionCompoundBreakable@@UEAAPEAXI@Z 0000000180031e20 f i physics:dgCollisionCompoundBreakable.obj
 0001:00030e20       ??_EdgCollisionCompoundBreakable@@UEAAPEAXI@Z 0000000180031e20 f i  CIL library: CIL module
 0001:00030e60       ??0dgCollisionCompoundBreakable@@QEAA@AEBV0@@Z 0000000180031e60 f   physics:dgCollisionCompoundBreakable.obj
 0001:000312b0       ??0dgCollisionCompoundBreakable@@QEAA@QEAVdgWorld@@P6AXPEAX1_K@ZQEAX@Z 00000001800322b0 f   physics:dgCollisionCompoundBreakable.obj
 0001:000314c0       ??1dgCollisionCompoundBreakable@@UEAA@XZ 00000001800324c0 f   physics:dgCollisionCompoundBreakable.obj
 0001:00031540       ?Serialize@dgCollisionCompoundBreakable@@EEBAXP6AXPEAXPEBX_K@ZQEAX@Z 0000000180032540 f   physics:dgCollisionCompoundBreakable.obj
 0001:00031610       ?GetCollisionInfo@dgCollisionCompoundBreakable@@EEBAXPEAVdgCollisionInfo@@@Z 0000000180032610 f   physics:dgCollisionCompoundBreakable.obj
 0001:000316a0       ?GetSegmentIndexStreamShort@dgCollisionCompoundBreakable@@QEBAHQEAVdgListNode@?$dgList@V?$dgGraphNode@VdgDebriNodeInfo@dgCollisionCompoundBreakable@@VdgSharedNodeMesh@2@@@@@PEAV2?$dgList@VdgSubMesh@dgCollisionCompoundBreakable@@@@QEAF@Z 00000001800326a0 f   physics:dgCollisionCompoundBreakable.obj
 0001:00031770       ?GetSegmentIndexStream@dgCollisionCompoundBreakable@@QEBAHQEAVdgListNode@?$dgList@V?$dgGraphNode@VdgDebriNodeInfo@dgCollisionCompoundBreakable@@VdgSharedNodeMesh@2@@@@@PEAV2?$dgList@VdgSubMesh@dgCollisionCompoundBreakable@@@@QEAH@Z 0000000180032770 f   physics:dgCollisionCompoundBreakable.obj
 0001:00031840       ?GetSegmentsInRadius@dgCollisionCompoundBreakable@@QEAAHAEBVdgVector@@NPEAPEAVdgListNode@?$dgList@V?$dgGraphNode@VdgDebriNodeInfo@dgCollisionCompoundBreakable@@VdgSharedNodeMesh@2@@@@@H@Z 0000000180032840 f   physics:dgCollisionCompoundBreakable.obj
 0001:00031a70       ?EnumerateIslands@dgCollisionCompoundBreakable@@QEAAXXZ 0000000180032a70 f   physics:dgCollisionCompoundBreakable.obj
 0001:00031b90       ?SetAnchoredParts@dgCollisionCompoundBreakable@@QEAAXHQEBVdgMatrix@@PEAPEBVdgCollision@@@Z 0000000180032b90 f   physics:dgCollisionCompoundBreakable.obj
 0001:00031ec0       ?DeleteComponent@dgCollisionCompoundBreakable@@QEAAXPEAVdgListNode@?$dgList@V?$dgGraphNode@VdgDebriNodeInfo@dgCollisionCompoundBreakable@@VdgSharedNodeMesh@2@@@@@@Z 0000000180032ec0 f   physics:dgCollisionCompoundBreakable.obj
 0001:00032120       ?DeleteComponentEnd@dgCollisionCompoundBreakable@@QEAAXXZ 0000000180033120 f   physics:dgCollisionCompoundBreakable.obj
 0001:000325c0       ?Append@?$dgList@VdgSubMesh@dgCollisionCompoundBreakable@@@@QEAAPEAVdgListNode@1@AEBVdgSubMesh@dgCollisionCompoundBreakable@@@Z 00000001800335c0 f i physics:dgCollisionCompoundBreakable.obj
 0001:000326b0       ?DeleteNode@?$dgGraph@VdgDebriNodeInfo@dgCollisionCompoundBreakable@@VdgSharedNodeMesh@2@@@QEAAXQEAVdgListNode@?$dgList@V?$dgGraphNode@VdgDebriNodeInfo@dgCollisionCompoundBreakable@@VdgSharedNodeMesh@2@@@@@@Z 00000001800336b0 f i physics:dgCollisionCompoundBreakable.obj
 0001:00032780       ?DeleteEdge@?$dgGraphNode@VdgDebriNodeInfo@dgCollisionCompoundBreakable@@VdgSharedNodeMesh@2@@@QEAAXQEAVdgListNode@?$dgList@V?$dgGraphEdge@VdgDebriNodeInfo@dgCollisionCompoundBreakable@@VdgSharedNodeMesh@2@@@@@@Z 0000000180033780 f i physics:dgCollisionCompoundBreakable.obj
 0001:00032880       ?Resize@?$dgArray@VdgFlatVertex@dgCollisionCompoundBreakable@@@@QEBAXH@Z 0000000180033880 f i physics:dgCollisionCompoundBreakable.obj
 0001:00032a00       ?RemoveAll@?$dgList@VdgSubMesh@dgCollisionCompoundBreakable@@@@QEAAXXZ 0000000180033a00 f i physics:dgCollisionCompoundBreakable.obj
 0001:00032ab0       ?Append@?$dgList@V?$dgGraphNode@VdgDebriNodeInfo@dgCollisionCompoundBreakable@@VdgSharedNodeMesh@2@@@@@QEAAPEAVdgListNode@1@XZ 0000000180033ab0 f i physics:dgCollisionCompoundBreakable.obj
 0001:00032b90       ?Remove@?$dgList@V?$dgGraphNode@VdgDebriNodeInfo@dgCollisionCompoundBreakable@@VdgSharedNodeMesh@2@@@@@QEAAXQEAVdgListNode@1@@Z 0000000180033b90 f i physics:dgCollisionCompoundBreakable.obj
 0001:00032c30       ?RemoveAll@?$dgList@V?$dgGraphNode@VdgDebriNodeInfo@dgCollisionCompoundBreakable@@VdgSharedNodeMesh@2@@@@@QEAAXXZ 0000000180033c30 f i physics:dgCollisionCompoundBreakable.obj
 0001:00032d60       ?RemoveAll@?$dgList@VdgBodyMasterListCell@@@@QEAAXXZ 0000000180033d60 f i physics:dgBodyMasterList.obj
 0001:00032d60       ?RemoveAll@?$dgList@V?$dgGraphEdge@VdgDebriNodeInfo@dgCollisionCompoundBreakable@@VdgSharedNodeMesh@2@@@@@QEAAXXZ 0000000180033d60 f i physics:dgCollisionCompoundBreakable.obj
 0001:00032de0       ??0dgCollisionConvexHull@@QEAA@QEAVdgMemoryAllocator@@IHHNPEBNAEBVdgMatrix@@@Z 0000000180033de0 f   physics:dgCollisionConvexHull.obj
 0001:00033250       ??_EdgCollisionConvexHull@@UEAAPEAXI@Z 0000000180034250 f i  CIL library: CIL module
 0001:00033250       ??_GdgCollisionConvexHull@@UEAAPEAXI@Z 0000000180034250 f i physics:dgCollisionConvexHull.obj
 0001:00033290       ??0dgCollisionConvexHull@@QEAA@QEAVdgWorld@@P6AXPEAX1_K@ZQEAX@Z 0000000180034290 f   physics:dgCollisionConvexHull.obj
 0001:000334c0       ??1dgCollisionConvexHull@@UEAA@XZ 00000001800344c0 f   physics:dgCollisionConvexHull.obj
 0001:00033540       ?FaceNormal@dgCollisionConvexHull@@AEBA?AVdgBigVector@@PEBVdgEdge@@QEBVdgVector@@@Z 0000000180034540 f   physics:dgCollisionConvexHull.obj
 0001:000337a0       ?RemoveCoplanarEdge@dgCollisionConvexHull@@AEBA_NAEAVdgPolyhedra@@QEAVdgVector@@@Z 00000001800347a0 f   physics:dgCollisionConvexHull.obj
 0001:00033de0       ?CheckConvex@dgCollisionConvexHull@@AEBA_NAEAVdgPolyhedra@@PEBVdgVector@@@Z 0000000180034de0 f   physics:dgCollisionConvexHull.obj
 0001:000342c0       ?Create@dgCollisionConvexHull@@AEAA_NHHQEBNN@Z 00000001800352c0 f   physics:dgCollisionConvexHull.obj
 0001:00034aa0       ?SetBreakImpulse@dgCollisionConvexHull@@EEAAXN@Z 0000000180035aa0 f   physics:dgCollisionConvexHull.obj
 0001:00034ab0       ?DebugCollision@dgCollisionConvexHull@@EEBAXAEBVdgMatrix@@P6AXPEAXHPEBNH@ZQEAX@Z 0000000180035ab0 f   physics:dgCollisionConvexHull.obj
 0001:00034c20       ?GetCollisionInfo@dgCollisionConvexHull@@EEBAXPEAVdgCollisionInfo@@@Z 0000000180035c20 f   physics:dgCollisionConvexHull.obj
 0001:00034cd0       ?Serialize@dgCollisionConvexHull@@EEBAXP6AXPEAXPEBX_K@ZQEAX@Z 0000000180035cd0 f   physics:dgCollisionConvexHull.obj
 0001:00034e70       ?OOBBTest@dgCollisionConvexHull@@EEBA_NAEBVdgMatrix@@QEBVdgConvexCollision@@QEAX@Z 0000000180035e70 f   physics:dgCollisionConvexHull.obj
 0001:00035440       ??0dgCollisionConvexPolygon@dgCollisionMesh@@QEAA@QEAVdgMemoryAllocator@@@Z 0000000180036440 f   physics:dgCollisionMesh.obj
 0001:00035510       ?CalculateSignature@dgCollisionConvexPolygon@dgCollisionMesh@@UEBAHXZ 0000000180036510 f   physics:dgCollisionMesh.obj
 0001:00035520       ?OOBBTest@dgCollisionConvexPolygon@dgCollisionMesh@@UEBA_NAEBVdgMatrix@@QEBVdgConvexCollision@@QEAX@Z 0000000180036520 f   physics:dgCollisionMesh.obj
 0001:00035520       ?OOBBTest@dgCollisionMesh@@EEBA_NAEBVdgMatrix@@QEBVdgConvexCollision@@QEAX@Z 0000000180036520 f   physics:dgCollisionMesh.obj
 0001:00035520       ?OOBBTest@dgCollisionConvexModifier@@MEBA_NAEBVdgMatrix@@QEBVdgConvexCollision@@QEAX@Z 0000000180036520 f   physics:dgCollisionConvexModifier.obj
 0001:00035520       ?OOBBTest@dgCollisionCompound@@MEBA_NAEBVdgMatrix@@QEBVdgConvexCollision@@QEAX@Z 0000000180036520 f   physics:dgCollisionCompound.obj
 0001:00035520       ?OOBBTest@dgCollisionScene@@EEBA_NAEBVdgMatrix@@QEBVdgConvexCollision@@QEAX@Z 0000000180036520 f   physics:dgCollisionScene.obj
 0001:00035520       ?IsBilateral@dgBilateralConstraint@@MEBA_NXZ 0000000180036520 f   physics:dgBilateralConstraint.obj
 0001:00035530       ?SupportVertex@dgCollisionConvexPolygon@dgCollisionMesh@@UEBA?AVdgVector@@AEBV3@@Z 0000000180036530 f   physics:dgCollisionMesh.obj
 0001:00035610       ?CalculateNormal@dgCollisionConvexPolygon@dgCollisionMesh@@QEAAXXZ 0000000180036610 f   physics:dgCollisionMesh.obj
 0001:000357d0       ?QuickTestContinue@dgCollisionConvexPolygon@dgCollisionMesh@@QEAAHPEBVdgConvexCollision@@AEBVdgMatrix@@@Z 00000001800367d0 f   physics:dgCollisionMesh.obj
 0001:00035b80       ?QuickTest@dgCollisionConvexPolygon@dgCollisionMesh@@QEAAHPEBVdgConvexCollision@@AEBVdgMatrix@@@Z 0000000180036b80 f   physics:dgCollisionMesh.obj
 0001:000360c0       ?ClipContacts@dgCollisionConvexPolygon@dgCollisionMesh@@QEBAHHQEAVdgContactPoint@@AEBVdgMatrix@@@Z 00000001800370c0 f   physics:dgCollisionMesh.obj
 0001:00036bc0       ?BeamClipping@dgCollisionConvexPolygon@dgCollisionMesh@@QEAAXPEBVdgConvexCollision@@AEBVdgMatrix@@N@Z 0000000180037bc0 f   physics:dgCollisionMesh.obj
 0001:000375a0       ?ClosestDistanceToTriangle@dgCollisionConvexPolygon@dgCollisionMesh@@QEBA?AVdgVector@@AEBV3@000@Z 00000001800385a0 f   physics:dgCollisionMesh.obj
 0001:00037a50       ?PointToPolygonDistance@dgCollisionConvexPolygon@dgCollisionMesh@@QEAA_NAEBVdgVector@@NAEAV3@@Z 0000000180038a50 f   physics:dgCollisionMesh.obj
 0001:00037d80       ?DistanceToOrigen@dgCollisionConvexPolygon@dgCollisionMesh@@QEAA_NAEBVdgMatrix@@AEBVdgVector@@NAEAV4@@Z 0000000180038d80 f   physics:dgCollisionMesh.obj
 0001:00038520       ?MovingPointToPolygonContact@dgCollisionConvexPolygon@dgCollisionMesh@@QEAANAEBVdgVector@@0NAEAVdgContactPoint@@@Z 0000000180039520 f   physics:dgCollisionMesh.obj
 0001:00039040       ?CalculatePlaneIntersection@dgCollisionConvexPolygon@dgCollisionMesh@@UEBAHAEBVdgVector@@0QEAV3@@Z 000000018003a040 f   physics:dgCollisionMesh.obj
 0001:00039c30       ??0dgCollisionMesh@@QEAA@QEAVdgMemoryAllocator@@W4dgCollisionID@@@Z 000000018003ac30 f   physics:dgCollisionMesh.obj
 0001:00039d90       ??_GdgCollisionMesh@@UEAAPEAXI@Z 000000018003ad90 f i physics:dgCollisionMesh.obj
 0001:00039d90       ??_EdgCollisionMesh@@UEAAPEAXI@Z 000000018003ad90 f i  CIL library: CIL module
 0001:00039e10       ??0dgCollisionMesh@@QEAA@QEAVdgWorld@@P6AXPEAX1_K@ZQEAX@Z 000000018003ae10 f   physics:dgCollisionMesh.obj
 0001:00039ef0       ?CalcAABB@dgCollisionMesh@@EEBAXAEBVdgMatrix@@AEAVdgVector@@1@Z 000000018003aef0 f   physics:dgCollisionMesh.obj
 0001:00039ef0       ?CalcAABB@dgCollisionScene@@EEBAXAEBVdgMatrix@@AEAVdgVector@@1@Z 000000018003aef0 f   physics:dgCollisionScene.obj
 0001:0003a1b0       ?CalcAABBSimd@dgCollisionNull@@MEBAXAEBVdgMatrix@@AEAVdgVector@@1@Z 000000018003b1b0 f   physics:dgCollisionNull.obj
 0001:0003a1b0       ?CalcAABBSimd@dgCollisionMesh@@EEBAXAEBVdgMatrix@@AEAVdgVector@@1@Z 000000018003b1b0 f   physics:dgCollisionMesh.obj
 0001:0003a1b0       ?CalcAABBSimd@dgCollisionScene@@EEBAXAEBVdgMatrix@@AEAVdgVector@@1@Z 000000018003b1b0 f   physics:dgCollisionScene.obj
 0001:0003a1c0       ?UpdateAABB@dgNode@dgCollisionScene@@QEAAXAEBVdgVector@@0@Z 000000018003b1c0 f i physics:dgCollisionScene.obj
 0001:0003a260       ??_GdgNode@dgCollisionScene@@QEAAPEAXI@Z 000000018003b260 f i physics:dgCollisionScene.obj
 0001:0003a2b0       ??0dgCollisionScene@@QEAA@PEAVdgWorld@@@Z 000000018003b2b0 f   physics:dgCollisionScene.obj
 0001:0003a3e0       ??_EdgCollisionScene@@UEAAPEAXI@Z 000000018003b3e0 f i  CIL library: CIL module
 0001:0003a3e0       ??_GdgCollisionScene@@UEAAPEAXI@Z 000000018003b3e0 f i physics:dgCollisionScene.obj
 0001:0003a420       ??0dgCollisionScene@@QEAA@QEAVdgWorld@@P6AXPEAX1_K@ZQEAX@Z 000000018003b420 f   physics:dgCollisionScene.obj
 0001:0003a7d0       ??1dgCollisionScene@@UEAA@XZ 000000018003b7d0 f   physics:dgCollisionScene.obj
 0001:0003a880       ?Serialize@dgCollisionScene@@EEBAXP6AXPEAXPEBX_K@ZQEAX@Z 000000018003b880 f   physics:dgCollisionScene.obj
 0001:0003aae0       ?GetProxyMatrix@dgCollisionScene@@QEAA?AVdgMatrix@@PEAX@Z 000000018003bae0 f   physics:dgCollisionScene.obj
 0001:0003acd0       ?DebugCollision@dgCollisionScene@@EEBAXAEBVdgMatrix@@P6AXPEAXHPEBNH@ZQEAX@Z 000000018003bcd0 f   physics:dgCollisionScene.obj
 0001:0003ad80       ?SetCollisionBBox@dgCollisionScene@@EEAAXAEBVdgVector@@0@Z 000000018003bd80 f   physics:dgCollisionScene.obj
 0001:0003ad80       ?SetCollisionBBox@dgCollisionMesh@@MEAAXAEBVdgVector@@0@Z 000000018003bd80 f   physics:dgCollisionMesh.obj
 0001:0003aea0       ?CalculateInertia@dgCollisionConvexPolygon@dgCollisionMesh@@UEBAXAEAVdgVector@@0@Z 000000018003bea0 f   physics:dgCollisionMesh.obj
 0001:0003aea0       ?CalculateInertia@dgCollisionScene@@EEBAXAEAVdgVector@@0@Z 000000018003bea0 f   physics:dgCollisionScene.obj
 0001:0003aea0       ?CalculateInertia@dgCollisionNull@@MEBAXAEAVdgVector@@0@Z 000000018003bea0 f   physics:dgCollisionNull.obj
 0001:0003aea0       ?CalculateInertia@dgCollisionPoint@@UEBAXAEAVdgVector@@0@Z 000000018003bea0 f   physics:dgCollisionSphere.obj
 0001:0003aea0       ?CalculateInertia@dgCollisionMesh@@UEBAXAEAVdgVector@@0@Z 000000018003bea0 f   physics:dgCollisionMesh.obj
 0001:0003aec0       ?GetCollisionInfo@dgCollisionScene@@EEBAXPEAVdgCollisionInfo@@@Z 000000018003bec0 f   physics:dgCollisionScene.obj
 0001:0003af40       ?GetAxis@dgCollisionScene@@AEBAHQEAPEAVdgListNode@?$dgList@UdgProxy@dgCollisionScene@@@@H@Z 000000018003bf40 f   physics:dgCollisionScene.obj
 0001:0003b100       ?RayCastSimd@dgCollisionScene@@EEBANAEBVdgVector@@0AEAVdgContactPoint@@P6AIQEBVdgBody@@QEBVdgCollision@@QEAX@Z24@Z 000000018003c100 f   physics:dgCollisionScene.obj
 0001:0003b130       ?RayCast@dgCollisionScene@@EEBANAEBVdgVector@@0AEAVdgContactPoint@@P6AIQEBVdgBody@@QEBVdgCollision@@QEAX@Z24@Z 000000018003c130 f   physics:dgCollisionScene.obj
 0001:0003b8d0       ?CollidePairSimd@dgCollisionScene@@QEBAXQEAUdgPair@dgCollidingPairCollector@@AEAVdgCollisionParamProxi@@@Z 000000018003c8d0 f   physics:dgCollisionScene.obj
 0001:0003baf0       ?CollidePair@dgCollisionScene@@QEBAXQEAUdgPair@dgCollidingPairCollector@@AEAVdgCollisionParamProxi@@@Z 000000018003caf0 f   physics:dgCollisionScene.obj
 0001:0003c030       ?CompareProxy@dgCollisionScene@@CAHQEBVdgListNode@?$dgList@UdgProxy@dgCollisionScene@@@@0PEAX@Z 000000018003d030 f   physics:dgCollisionScene.obj
 0001:0003c060       ?SortAndSpliteSplite@dgCollisionScene@@AEBAHQEAPEAVdgListNode@?$dgList@UdgProxy@dgCollisionScene@@@@H@Z 000000018003d060 f   physics:dgCollisionScene.obj
 0001:0003c300       ?BuildTree@dgCollisionScene@@AEAAPEAUdgNode@1@PEAU21@QEAPEAVdgListNode@?$dgList@UdgProxy@dgCollisionScene@@@@HH@Z 000000018003d300 f   physics:dgCollisionScene.obj
 0001:0003c4b0       ?BuildTree@dgCollisionScene@@QEAAXXZ 000000018003d4b0 f   physics:dgCollisionScene.obj
 0001:0003c6c0       ?Append@?$dgList@UdgProxy@dgCollisionScene@@@@QEAAPEAVdgListNode@1@XZ 000000018003d6c0 f i physics:dgCollisionScene.obj
 0001:0003c770       ?Remove@?$dgList@UdgProxy@dgCollisionScene@@@@QEAAXQEAVdgListNode@1@@Z 000000018003d770 f i physics:dgCollisionScene.obj
 0001:0003c7f0       ??$dgSortIndirect@VdgListNode@?$dgList@UdgProxy@dgCollisionScene@@@@@@YAXQEAPEAVdgListNode@?$dgList@UdgProxy@dgCollisionScene@@@@HP6AHQEBV01@1QEAX@Z2@Z 000000018003d7f0 f i physics:dgCollisionScene.obj
 0001:0003c9d0       ??0dgListNode@?$dgList@UdgProxy@dgCollisionScene@@@@AEAA@QEAV01@0@Z 000000018003d9d0 f i physics:dgCollisionScene.obj
 0001:0003ca30       ?RemoveAll@?$dgList@UdgProxy@dgCollisionScene@@@@QEAAXXZ 000000018003da30 f i physics:dgCollisionScene.obj
 0001:0003cad0       ?Reset@FastRayTest@@QEAAXN@Z 000000018003dad0 f i physics:dgCollisionScene.obj
 0001:0003cb40       ??0dgCollisionBVH@@QEAA@QEAVdgMemoryAllocator@@@Z 000000018003db40 f   physics:dgCollisionBVH.obj
 0001:0003cbc0       ??_GdgCollisionBVH@@UEAAPEAXI@Z 000000018003dbc0 f i physics:dgCollisionBVH.obj
 0001:0003cbc0       ??_EdgCollisionBVH@@UEAAPEAXI@Z 000000018003dbc0 f i  CIL library: CIL module
 0001:0003cc00       ??0dgCollisionBVH@@QEAA@QEAVdgWorld@@P6AXPEAX1_K@ZQEAX@Z 000000018003dc00 f   physics:dgCollisionBVH.obj
 0001:0003cce0       ??1dgCollisionBVH@@UEAA@XZ 000000018003dce0 f   physics:dgCollisionBVH.obj
 0001:0003cd60       ?Serialize@dgCollisionBVH@@EEBAXP6AXPEAXPEBX_K@ZQEAX@Z 000000018003dd60 f   physics:dgCollisionBVH.obj
 0001:0003cdb0       ?BeginBuild@dgCollisionBVH@@QEAAXXZ 000000018003ddb0 f   physics:dgCollisionBVH.obj
 0001:0003ce80       ?EndBuild@dgCollisionBVH@@QEAAXH@Z 000000018003de80 f   physics:dgCollisionBVH.obj
 0001:0003cf30       ?GetCollisionInfo@dgCollisionBVH@@EEBAXPEAVdgCollisionInfo@@@Z 000000018003df30 f   physics:dgCollisionBVH.obj
 0001:0003d060       ?CollectVertexListIndexList@dgCollisionBVH@@CA?AW4dgIntersectStatus@@PEAXQEBNHQEBHH@Z 000000018003e060 f   physics:dgCollisionBVH.obj
 0001:0003d130       ?GetTriangleCount@dgCollisionBVH@@CA?AW4dgIntersectStatus@@PEAXQEBNHQEBHH@Z 000000018003e130 f   physics:dgCollisionBVH.obj
 0001:0003d160       ?GetVertexListIndexList@dgCollisionBVH@@UEBAXAEBVdgVector@@0AEAVdgGetVertexListIndexList@dgCollisionMesh@@@Z 000000018003e160 f   physics:dgCollisionBVH.obj
 0001:0003d1c0       ?RayHitSimd@dgCollisionBVH@@CANPEAXQEBNHQEBHH@Z 000000018003e1c0 f   physics:dgCollisionBVH.obj
 0001:0003d2f0       ?RayHit@dgCollisionBVH@@CANPEAXQEBNHQEBHH@Z 000000018003e2f0 f   physics:dgCollisionBVH.obj
 0001:0003d480       ?RayHitUserSimd@dgCollisionBVH@@CANPEAXQEBNHQEBHH@Z 000000018003e480 f   physics:dgCollisionBVH.obj
 0001:0003d5a0       ?RayHitUser@dgCollisionBVH@@CANPEAXQEBNHQEBHH@Z 000000018003e5a0 f   physics:dgCollisionBVH.obj
 0001:0003d7b0       ?RayCastSimd@dgCollisionBVH@@EEBANAEBVdgVector@@0AEAVdgContactPoint@@P6AIQEBVdgBody@@QEBVdgCollision@@QEAX@Z24@Z 000000018003e7b0 f   physics:dgCollisionBVH.obj
 0001:0003d9c0       ?RayCast@dgCollisionBVH@@EEBANAEBVdgVector@@0AEAVdgContactPoint@@P6AIQEBVdgBody@@QEBVdgCollision@@QEAX@Z24@Z 000000018003e9c0 f   physics:dgCollisionBVH.obj
 0001:0003dbd0       ?GetPolygon@dgCollisionBVH@@CA?AW4dgIntersectStatus@@PEAXQEBNHQEBHH@Z 000000018003ebd0 f   physics:dgCollisionBVH.obj
 0001:0003e1f0       ?GetCollidingFacesSimd@dgCollisionBVH@@EEBAXQEAVdgPolygonMeshDesc@@@Z 000000018003f1f0 f   physics:dgCollisionBVH.obj
 0001:0003e290       ?GetCollidingFaces@dgCollisionBVH@@EEBAXQEAVdgPolygonMeshDesc@@@Z 000000018003f290 f   physics:dgCollisionBVH.obj
 0001:0003e330       ?SupportVertex@dgCollisionBVH@@EEBA?AVdgVector@@AEBV2@@Z 000000018003f330 f   physics:dgCollisionBVH.obj
 0001:0003e350       ?ShowDebugPolygon@dgCollisionBVH@@CA?AW4dgIntersectStatus@@PEAXQEBNHQEBHH@Z 000000018003f350 f   physics:dgCollisionBVH.obj
 0001:0003e840       ?DebugCollision@dgCollisionBVH@@EEBAXAEBVdgMatrix@@P6AXPEAXHPEBNH@ZQEAX@Z 000000018003f840 f   physics:dgCollisionBVH.obj
 0001:0003e900       ??_EdgCollisionBVH@@WBEA@EAAPEAXI@Z 000000018003f900 f i physics:dgCollisionBVH.obj
 0001:0003e910       ?Serialize@dgCollisionBVH@@GBEA@EBAXP6AXPEAXPEBX_K@ZQEAX@Z 000000018003f910 f i physics:dgCollisionBVH.obj
 0001:0003e920       ??0dgCollisionHeightField@@QEAA@QEAVdgWorld@@HHHQEBGQEBDNN@Z 000000018003f920 f   physics:dgCollisionHeightField.obj
 0001:0003eda0       ??_GdgCollisionHeightField@@UEAAPEAXI@Z 000000018003fda0 f i physics:dgCollisionHeightField.obj
 0001:0003eda0       ??_EdgCollisionHeightField@@UEAAPEAXI@Z 000000018003fda0 f i  CIL library: CIL module
 0001:0003ede0       ??0dgCollisionHeightField@@QEAA@QEAVdgWorld@@P6AXPEAX1_K@ZQEAX@Z 000000018003fde0 f   physics:dgCollisionHeightField.obj
 0001:0003f190       ??1dgCollisionHeightField@@UEAA@XZ 0000000180040190 f   physics:dgCollisionHeightField.obj
 0001:0003f300       ?Serialize@dgCollisionHeightField@@EEBAXP6AXPEAXPEBX_K@ZQEAX@Z 0000000180040300 f   physics:dgCollisionHeightField.obj
 0001:0003f410       ?AllocateVertex@dgCollisionHeightField@@AEBAXQEAVdgWorld@@H@Z 0000000180040410 f   physics:dgCollisionHeightField.obj
 0001:0003f500       ?GetCollisionInfo@dgCollisionHeightField@@EEBAXPEAVdgCollisionInfo@@@Z 0000000180040500 f   physics:dgCollisionHeightField.obj
 0001:0003f5d0       ?CalculateMinExtend2d@dgCollisionHeightField@@AEBAXAEBVdgVector@@0AEAV2@1@Z 00000001800405d0 f   physics:dgCollisionHeightField.obj
 0001:0003f7c0       ?CalculateMinExtend3d@dgCollisionHeightField@@AEBAXAEBVdgVector@@0AEAV2@1@Z 00000001800407c0 f   physics:dgCollisionHeightField.obj
 0001:0003f970       ?RayCastCellSimd@dgCollisionHeightField@@AEBANAEBVFastRayTest@@HHAEAVdgVector@@@Z 0000000180040970 f   physics:dgCollisionHeightField.obj
 0001:0003fd10       ?RayCastCell@dgCollisionHeightField@@AEBANAEBVFastRayTest@@HHAEAVdgVector@@@Z 0000000180040d10 f   physics:dgCollisionHeightField.obj
 0001:00040420       ?RayCastSimd@dgCollisionHeightField@@EEBANAEBVdgVector@@0AEAVdgContactPoint@@P6AIQEBVdgBody@@QEBVdgCollision@@QEAX@Z24@Z 0000000180041420 f   physics:dgCollisionHeightField.obj
 0001:00040a40       ?RayCast@dgCollisionHeightField@@EEBANAEBVdgVector@@0AEAVdgContactPoint@@P6AIQEBVdgBody@@QEBVdgCollision@@QEAX@Z24@Z 0000000180041a40 f   physics:dgCollisionHeightField.obj
 0001:00040fc0       ?GetVertexListIndexList@dgCollisionHeightField@@EEBAXAEBVdgVector@@0AEAVdgGetVertexListIndexList@dgCollisionMesh@@@Z 0000000180041fc0 f   physics:dgCollisionHeightField.obj
 0001:00040fd0       ?DebugCollision@dgCollisionHeightField@@EEBAXAEBVdgMatrix@@P6AXPEAXHPEBNH@ZQEAX@Z 0000000180041fd0 f   physics:dgCollisionHeightField.obj
 0001:000417e0       ?GetLocalAABB@dgCollisionHeightField@@AEBAXAEBVdgVector@@0AEAV2@1@Z 00000001800427e0 f   physics:dgCollisionHeightField.obj
 0001:000419f0       ?GetCollidingFacesSimd@dgCollisionUserMesh@@EEBAXQEAVdgPolygonMeshDesc@@@Z 00000001800429f0 f   physics:dgCollisionUserMesh.obj
 0001:000419f0       ?GetCollidingFacesSimd@dgCollisionHeightField@@EEBAXQEAVdgPolygonMeshDesc@@@Z 00000001800429f0 f   physics:dgCollisionHeightField.obj
 0001:000419f0       ?CalculatePlaneIntersectionSimd@dgCollisionConvexModifier@@EEBAHAEBVdgVector@@0QEAV2@@Z 00000001800429f0 f   physics:dgCollisionConvexModifier.obj
 0001:00041a00       ?GetCollidingFaces@dgCollisionHeightField@@EEBAXQEAVdgPolygonMeshDesc@@@Z 0000000180042a00 f   physics:dgCollisionHeightField.obj
 0001:00043610       ?SetMatrixOriginAndRotation@dgBody@@AEAAXAEBVdgMatrix@@@Z 0000000180044610 f i physics:dgBody.obj
 0001:00043740       ?SetAparentMassMatrix@dgBody@@QEAAXAEBVdgVector@@@Z 0000000180044740 f   physics:dgBody.obj
 0001:000437d0       ?SetMassMatrix@dgBody@@QEAAXNNNN@Z 00000001800447d0 f   physics:dgBody.obj
 0001:00043970       ?AttachCollision@dgBody@@QEAAXPEAVdgCollision@@@Z 0000000180044970 f   physics:dgBody.obj
 0001:00043ad0       ?SetMatrix@dgBody@@QEAAXAEBVdgMatrix@@@Z 0000000180044ad0 f   physics:dgBody.obj
 0001:00043b10       ?SetMatrixIgnoreSleep@dgBody@@QEAAXAEBVdgMatrix@@@Z 0000000180044b10 f   physics:dgBody.obj
 0001:00043c50       ?UpdateCollisionMatrix@dgBody@@AEAAXNH@Z 0000000180044c50 f   physics:dgBody.obj
 0001:000441f0       ?RayCast@dgBody@@QEBANAEBUdgLineBox@@P6ANQEBV1@AEBVdgVector@@HQEAXN@ZP6AI1QEBVdgCollision@@3@Z3N@Z 00000001800451f0 f   physics:dgBody.obj
 0001:000445a0       ?AddBuoyancyForce@dgBody@@QEAAXNNNAEBVdgVector@@P6AIPEAX1AEBVdgMatrix@@AEAVdgPlane@@@ZQEAX@Z 00000001800455a0 f   physics:dgBody.obj
 0001:000448e0       ?CalcInvInertiaMatrix@dgBody@@QEAAXXZ 00000001800458e0 f   physics:dgBody.obj
 0001:000449f0       ?UpdateMatrix@dgBody@@AEAAXNH@Z 00000001800459f0 f   physics:dgBody.obj
 0001:00044a40       ?IntegrateVelocity@dgBody@@AEAAXN@Z 0000000180045a40 f   physics:dgBody.obj
 0001:00044de0       ?CalculateContinueVelocity@dgBody@@AEBAXNAEAVdgVector@@0@Z 0000000180045de0 f   physics:dgBody.obj
 0001:00045050       ?CalculateInverseDynamicForce@dgBody@@QEBA?AVdgVector@@AEBV2@N@Z 0000000180046050 f   physics:dgBody.obj
 0001:000450f0       ?SetFreeze@dgBody@@QEAAX_N@Z 00000001800460f0 f   physics:dgBody.obj
 0001:00045190       ?Freeze@dgBody@@QEAAXXZ    0000000180046190 f   physics:dgBody.obj
 0001:000451f0       ?Unfreeze@dgBody@@QEAAXXZ  00000001800461f0 f   physics:dgBody.obj
 0001:00045250       ?AddImpulse@dgBody@@AEAAXAEBVdgVector@@0@Z 0000000180046250 f   physics:dgBody.obj
 0001:000457b0       ?InvalidateCache@dgBody@@QEAAXXZ 00000001800467b0 f   physics:dgBody.obj
 0001:00045890       ?InsertAfter@?$dgList@VdgBodyMasterListRow@@@@QEAAXQEAVdgListNode@1@0@Z 0000000180046890 f i physics:dgBody.obj
 0001:00045910       ??DdgQuaternion@@QEBA?AV0@AEBV0@@Z 0000000180046910 f i physics:dgBody.obj
 0001:00045a50       ??0dgBallConstraint@@AEAA@XZ 0000000180046a50 f   physics:dgBallConstraint.obj
 0001:00045ae0       ?GetJointOmega@dgBallConstraint@@QEBA?AVdgVector@@XZ 0000000180046ae0 f   physics:dgBallConstraint.obj
 0001:00045d90       ?GetJointForce@dgBallConstraint@@QEBA?AVdgVector@@XZ 0000000180046d90 f   physics:dgBallConstraint.obj
 0001:00045e80       ?SetPivotPoint@dgBallConstraint@@AEAAXAEBVdgVector@@@Z 0000000180046e80 f   physics:dgBallConstraint.obj
 0001:00045fb0       ?SetLimits@dgBallConstraint@@QEAAXAEBVdgVector@@NNN0NN@Z 0000000180046fb0 f   physics:dgBallConstraint.obj
 0001:00046b60       ?JacobianDerivative@dgBallConstraint@@EEAAIAEAVdgContraintDescritor@@@Z 0000000180047b60 f   physics:dgBallConstraint.obj
 0001:00047360       ?GetJointAngle@dgCorkscrewConstraint@@QEBANXZ 0000000180048360 f   physics:dgCorkscrewConstraint.obj
 0001:00047360       ?GetJointAngle@dgHingeConstraint@@QEBANXZ 0000000180048360 f   physics:dgHingeConstraint.obj
 0001:00047360       ?GetJointAngle0@dgUniversalConstraint@@QEBANXZ 0000000180048360 f   physics:dgUniversalConstraint.obj
 0001:00047360       ?GetJointPosit@dgSlidingConstraint@@QEBANXZ 0000000180048360 f   physics:dgSlidingConstraint.obj
 0001:00047370       ?GetJointOmega@dgCorkscrewConstraint@@QEBANXZ 0000000180048370 f   physics:dgCorkscrewConstraint.obj
 0001:00047370       ?GetJointOmega@dgHingeConstraint@@QEBANXZ 0000000180048370 f   physics:dgHingeConstraint.obj
 0001:00047370       ?GetJointOmega0@dgUniversalConstraint@@QEBANXZ 0000000180048370 f   physics:dgUniversalConstraint.obj
 0001:00047440       ?CalculateStopAlpha@dgHingeConstraint@@QEBANNPEBVdgJointCallBackParam@@@Z 0000000180048440 f   physics:dgHingeConstraint.obj
 0001:000474e0       ?GetJointForce@dgHingeConstraint@@QEBA?AVdgVector@@XZ 00000001800484e0 f   physics:dgHingeConstraint.obj
 0001:00047640       ?JacobianDerivative@dgHingeConstraint@@EEAAIAEAVdgContraintDescritor@@@Z 0000000180048640 f   physics:dgHingeConstraint.obj
 0001:000479c0       ?GetJointVeloc@dgSlidingConstraint@@QEBANXZ 00000001800489c0 f   physics:dgSlidingConstraint.obj
 0001:000479c0       ?GetJointVeloc@dgCorkscrewConstraint@@QEBANXZ 00000001800489c0 f   physics:dgCorkscrewConstraint.obj
 0001:00047a90       ?CalculateStopAccel@dgSlidingConstraint@@QEBANNPEBVdgJointCallBackParam@@@Z 0000000180048a90 f   physics:dgSlidingConstraint.obj
 0001:00047b20       ?GetJointForce@dgSlidingConstraint@@QEBA?AVdgVector@@XZ 0000000180048b20 f   physics:dgSlidingConstraint.obj
 0001:00047c80       ?JacobianDerivative@dgSlidingConstraint@@EEAAIAEAVdgContraintDescritor@@@Z 0000000180048c80 f   physics:dgSlidingConstraint.obj
 0001:000481c0       ??_GdgBilateralConstraint@@MEAAPEAXI@Z 00000001800491c0 f i physics:dgBilateralConstraint.obj
 0001:000481c0       ??_GdgUpVectorConstraint@@EEAAPEAXI@Z 00000001800491c0 f i physics:dgUpVectorConstraint.obj
 0001:000481c0       ??_GdgBallConstraint@@EEAAPEAXI@Z 00000001800491c0 f i physics:dgBallConstraint.obj
 0001:000481c0       ??_GdgHingeConstraint@@EEAAPEAXI@Z 00000001800491c0 f i physics:dgHingeConstraint.obj
 0001:000481c0       ??_EdgUpVectorConstraint@@EEAAPEAXI@Z 00000001800491c0 f i  CIL library: CIL module
 0001:000481c0       ??_EdgUniversalConstraint@@EEAAPEAXI@Z 00000001800491c0 f i  CIL library: CIL module
 0001:000481c0       ??_EdgHingeConstraint@@EEAAPEAXI@Z 00000001800491c0 f i  CIL library: CIL module
 0001:000481c0       ??_GdgUniversalConstraint@@EEAAPEAXI@Z 00000001800491c0 f i physics:dgUniversalConstraint.obj
 0001:000481c0       ??_EdgBilateralConstraint@@MEAAPEAXI@Z 00000001800491c0 f i  CIL library: CIL module
 0001:000481c0       ??_EdgSlidingConstraint@@EEAAPEAXI@Z 00000001800491c0 f i  CIL library: CIL module
 0001:000481c0       ??_EdgBallConstraint@@EEAAPEAXI@Z 00000001800491c0 f i  CIL library: CIL module
 0001:000481c0       ??_EdgUserConstraint@@MEAAPEAXI@Z 00000001800491c0 f i  CIL library: CIL module
 0001:000481c0       ??_GdgUserConstraint@@MEAAPEAXI@Z 00000001800491c0 f i physics:dgUserConstraint.obj
 0001:000481c0       ??_EdgCorkscrewConstraint@@EEAAPEAXI@Z 00000001800491c0 f i  CIL library: CIL module
 0001:000481c0       ??_GdgCorkscrewConstraint@@EEAAPEAXI@Z 00000001800491c0 f i physics:dgCorkscrewConstraint.obj
 0001:000481c0       ??_GdgSlidingConstraint@@EEAAPEAXI@Z 00000001800491c0 f i physics:dgSlidingConstraint.obj
 0001:00048220       ?CalculateStopAlpha@dgCorkscrewConstraint@@QEBANNPEBVdgJointCallBackParam@@@Z 0000000180049220 f   physics:dgCorkscrewConstraint.obj
 0001:00048220       ?CalculateStopAlpha0@dgUniversalConstraint@@QEBANNPEBVdgJointCallBackParam@@@Z 0000000180049220 f   physics:dgUniversalConstraint.obj
 0001:000482b0       ?CalculateStopAccel@dgCorkscrewConstraint@@QEBANNPEBVdgJointCallBackParam@@@Z 00000001800492b0 f   physics:dgCorkscrewConstraint.obj
 0001:00048340       ?JacobianDerivative@dgCorkscrewConstraint@@EEAAIAEAVdgContraintDescritor@@@Z 0000000180049340 f   physics:dgCorkscrewConstraint.obj
 0001:000488b0       ?GetJointAngle1@dgUniversalConstraint@@QEBANXZ 00000001800498b0 f   physics:dgUniversalConstraint.obj
 0001:000488b0       ?GetJointPosit@dgCorkscrewConstraint@@QEBANXZ 00000001800498b0 f   physics:dgCorkscrewConstraint.obj
 0001:000488c0       ?GetJointOmega1@dgUniversalConstraint@@QEBANXZ 00000001800498c0 f   physics:dgUniversalConstraint.obj
 0001:000489a0       ?CalculateStopAlpha1@dgUniversalConstraint@@QEBANNPEBVdgJointCallBackParam@@@Z 00000001800499a0 f   physics:dgUniversalConstraint.obj
 0001:00048a30       ?GetJointForce@dgCorkscrewConstraint@@QEBA?AVdgVector@@XZ 0000000180049a30 f   physics:dgCorkscrewConstraint.obj
 0001:00048a30       ?GetJointForce@dgUniversalConstraint@@QEBA?AVdgVector@@XZ 0000000180049a30 f   physics:dgUniversalConstraint.obj
 0001:00048b60       ?JacobianDerivative@dgUniversalConstraint@@EEAAIAEAVdgContraintDescritor@@@Z 0000000180049b60 f   physics:dgUniversalConstraint.obj
 0001:00049120       ?SetPinDir@dgUpVectorConstraint@@QEAAXAEBVdgVector@@@Z 000000018004a120 f   physics:dgUpVectorConstraint.obj
 0001:00049430       ?JacobianDerivative@dgUpVectorConstraint@@EEAAIAEAVdgContraintDescritor@@@Z 000000018004a430 f   physics:dgUpVectorConstraint.obj
 0001:00049650       ?InitPointParam@dgConstraint@@IEBAXAEAVdgPointParam@1@NAEBVdgVector@@1@Z 000000018004a650 f   physics:dgConstraint.obj
 0001:000499b0       ?InitInfo@dgConstraint@@IEBAXPEAVdgConstraintInfo@@@Z 000000018004a9b0 f   physics:dgConstraint.obj
 0001:00049a40       ?GetInfo@dgUserConstraint@@MEBAXQEAVdgConstraintInfo@@@Z 000000018004aa40 f   physics:dgUserConstraint.obj
 0001:00049a50       ??_GdgConstraint@@MEAAPEAXI@Z 000000018004aa50 f i physics:dgBilateralConstraint.obj
 0001:00049a50       ??_EdgConstraint@@MEAAPEAXI@Z 000000018004aa50 f i  CIL library: CIL module
 0001:00049a80       ?GetStiffness@dgConstraint@@UEBANXZ 000000018004aa80 f i physics:dgBilateralConstraint.obj
 0001:00049a90       ??0dgBilateralConstraint@@IEAA@XZ 000000018004aa90 f   physics:dgBilateralConstraint.obj
 0001:00049b60       ?GetStiffness@dgBilateralConstraint@@MEBANXZ 000000018004ab60 f   physics:dgBilateralConstraint.obj
 0001:00049b80       ?SetStiffness@dgBilateralConstraint@@MEAAXN@Z 000000018004ab80 f   physics:dgBilateralConstraint.obj
 0001:00049bc0       ?SetDestructorCallback@dgBilateralConstraint@@UEAAXP6AXAEAVdgConstraint@@@Z@Z 000000018004abc0 f   physics:dgBilateralConstraint.obj
 0001:00049bd0       ?CalculateMatrixOffset@dgBilateralConstraint@@IEAAXAEBVdgVector@@0AEAVdgMatrix@@1@Z 000000018004abd0 f   physics:dgBilateralConstraint.obj
 0001:0004a2b0       ?SetPivotAndPinDir@dgBilateralConstraint@@IEAAXAEBVdgVector@@00@Z 000000018004b2b0 f   physics:dgBilateralConstraint.obj
 0001:0004a880       ?CalculateGlobalMatrixAndAngle@dgBilateralConstraint@@IEBA?AVdgVector@@AEAVdgMatrix@@0@Z 000000018004b880 f   physics:dgBilateralConstraint.obj
 0001:0004aae0       ?SetMotorAcceleration@dgBilateralConstraint@@IEAAXHNAEAVdgContraintDescritor@@@Z 000000018004bae0 f   physics:dgBilateralConstraint.obj
 0001:0004ab10       ?SetJacobianDerivative@dgBilateralConstraint@@IEAAXHAEAVdgContraintDescritor@@PEBN1PEAN@Z 000000018004bb10 f   physics:dgBilateralConstraint.obj
 0001:0004ac10       ?CalculateSpringDamperAcceleration@dgBilateralConstraint@@IEAANHAEBVdgContraintDescritor@@NAEBVdgVector@@1NN@Z 000000018004bc10 f   physics:dgBilateralConstraint.obj
 0001:0004af40       ?CalculateAngularDerivative@dgBilateralConstraint@@IEAAXHAEAVdgContraintDescritor@@AEBVdgVector@@NNPEAN@Z 000000018004bf40 f   physics:dgBilateralConstraint.obj
 0001:0004b150       ?CalculatePointDerivative@dgBilateralConstraint@@IEAAXHAEAVdgContraintDescritor@@AEBVdgVector@@AEBVdgPointParam@dgConstraint@@PEAN@Z 000000018004c150 f   physics:dgBilateralConstraint.obj
 0001:0004b4a0       ?JointAccelerations@dgBilateralConstraint@@MEAAXAEBVdgJointAccelerationDecriptor@@@Z 000000018004c4a0 f   physics:dgBilateralConstraint.obj
 0001:0004b800       ?SortList@dgBodyMasterListRow@@QEAAXXZ 000000018004c800 f   physics:dgBodyMasterList.obj
 0001:0004b920       ?RemoveBody@dgBodyMasterList@@QEAAXQEAVdgBody@@@Z 000000018004c920 f   physics:dgBodyMasterList.obj
 0001:0004ba10       ?AttachConstraint@dgBodyMasterList@@QEAAXQEAVdgConstraint@@QEAVdgBody@@1@Z 000000018004ca10 f   physics:dgBodyMasterList.obj
 0001:0004bb20       ?RemoveConstraint@dgBodyMasterList@@QEAAXQEAVdgConstraint@@@Z 000000018004cb20 f   physics:dgBodyMasterList.obj
 0001:0004bd00       ?SortMasterList@dgBodyMasterList@@QEAAXXZ 000000018004cd00 f   physics:dgBodyMasterList.obj
 0001:0004beb0       ?Addtop@?$dgList@VdgBodyMasterListCell@@@@QEAAPEAVdgListNode@1@XZ 000000018004ceb0 f i physics:dgBodyMasterList.obj
 0001:0004bf50       ?Append@?$dgList@VdgBodyMasterListRow@@@@QEAAPEAVdgListNode@1@XZ 000000018004cf50 f i physics:dgBodyMasterList.obj
 0001:0004c010       ?RemoveAll@?$dgList@VdgBodyMasterListRow@@@@QEAAXXZ 000000018004d010 f i physics:dgBodyMasterList.obj
 0001:0004c110       ??_EdgCollisionPoint@@UEAAPEAXI@Z 000000018004d110 f i  CIL library: CIL module
 0001:0004c110       ??_GdgCollisionPoint@@UEAAPEAXI@Z 000000018004d110 f i physics:dgWorld.obj
 0001:0004c110       ??_GdgCollisionSphere@@UEAAPEAXI@Z 000000018004d110 f i physics:dgCollisionSphere.obj
 0001:0004c110       ??_GdgCollisionEllipse@@UEAAPEAXI@Z 000000018004d110 f i physics:dgCollisionEllipse.obj
 0001:0004c110       ??_EdgCollisionEllipse@@UEAAPEAXI@Z 000000018004d110 f i  CIL library: CIL module
 0001:0004c110       ??_EdgCollisionSphere@@UEAAPEAXI@Z 000000018004d110 f i  CIL library: CIL module
 0001:0004c160       ??0dgCollisionSphere@@QEAA@QEAVdgWorld@@P6AXPEAX1_K@ZQEAX@Z 000000018004d160 f   physics:dgCollisionSphere.obj
 0001:0004c1d0       ?Init@dgCollisionSphere@@IEAAXNPEAVdgMemoryAllocator@@@Z 000000018004d1d0 f   physics:dgCollisionSphere.obj
 0001:0004c8a0       ?SupportVertexSimd@dgCollisionSphere@@MEBA?AVdgVector@@AEBV2@@Z 000000018004d8a0 f   physics:dgCollisionSphere.obj
 0001:0004c8a0       ?SupportVertex@dgCollisionSphere@@MEBA?AVdgVector@@AEBV2@@Z 000000018004d8a0 f   physics:dgCollisionSphere.obj
 0001:0004c8f0       ?TesselateTriangle@dgCollisionSphere@@IEBAXHAEBVdgVector@@00AEAHPEAV2@@Z 000000018004d8f0 f   physics:dgCollisionSphere.obj
 0001:0004cc60       ?CalculateSignature@dgCollisionSphere@@MEBAHXZ 000000018004dc60 f   physics:dgCollisionSphere.obj
 0001:0004cd60       ?CalcAABB@dgCollisionSphere@@MEBAXAEBVdgMatrix@@AEAVdgVector@@1@Z 000000018004dd60 f   physics:dgCollisionSphere.obj
 0001:0004cde0       ?CalculatePlaneIntersection@dgCollisionSphere@@MEBAHAEBVdgVector@@0QEAV2@@Z 000000018004dde0 f   physics:dgCollisionSphere.obj
 0001:0004ce40       ?DebugCollision@dgCollisionSphere@@MEBAXAEBVdgMatrix@@P6AXPEAXHPEBNH@ZQEAX@Z 000000018004de40 f   physics:dgCollisionSphere.obj
 0001:0004d270       ?GetBoxMaxRadius@dgCollisionConvexPolygon@dgCollisionMesh@@UEBANXZ 000000018004e270 f   physics:dgCollisionMesh.obj
 0001:0004d270       ?GetVolume@dgCollisionMesh@@UEBANXZ 000000018004e270 f   physics:dgCollisionMesh.obj
 0001:0004d270       ?GetBoxMinRadius@dgCollisionScene@@EEBANXZ 000000018004e270 f   physics:dgCollisionScene.obj
 0001:0004d270       ?GetVolume@dgCollisionConvexPolygon@dgCollisionMesh@@UEBANXZ 000000018004e270 f   physics:dgCollisionMesh.obj
 0001:0004d270       ?GetVolume@dgCollisionNull@@MEBANXZ 000000018004e270 f   physics:dgCollisionNull.obj
 0001:0004d270       ?GetVolume@dgCollisionPoint@@UEBANXZ 000000018004e270 f   physics:dgCollisionSphere.obj
 0001:0004d270       ?GetBoxMaxRadius@dgCollisionScene@@EEBANXZ 000000018004e270 f   physics:dgCollisionScene.obj
 0001:0004d270       ?GetVolume@dgCollisionScene@@EEBANXZ 000000018004e270 f   physics:dgCollisionScene.obj
 0001:0004d270       ?GetBoxMaxRadius@dgCollisionMesh@@UEBANXZ 000000018004e270 f   physics:dgCollisionMesh.obj
 0001:0004d270       ?GetBoxMinRadius@dgCollisionConvexPolygon@dgCollisionMesh@@UEBANXZ 000000018004e270 f   physics:dgCollisionMesh.obj
 0001:0004d270       ?GetBoxMinRadius@dgCollisionMesh@@UEBANXZ 000000018004e270 f   physics:dgCollisionMesh.obj
 0001:0004d270       ?RayCast@dgCollisionConvexPolygon@dgCollisionMesh@@UEBANAEBVdgVector@@0AEAVdgContactPoint@@P6AIQEBVdgBody@@QEBVdgCollision@@QEAX@Z24@Z 000000018004e270 f   physics:dgCollisionMesh.obj
 0001:0004d270       ?RayCastSimd@dgCollision@@UEBANAEBVdgVector@@0AEAVdgContactPoint@@P6AIQEBVdgBody@@QEBV1@QEAX@Z24@Z 000000018004e270 f   physics:dgCollision.obj
 0001:0004d280       ?RayCast@dgCollisionSphere@@MEBANAEBVdgVector@@0AEAVdgContactPoint@@P6AIQEBVdgBody@@QEBVdgCollision@@QEAX@Z24@Z 000000018004e280 f   physics:dgCollisionSphere.obj
 0001:0004d540       ?CalculateMassProperties@dgCollisionSphere@@MEBANAEAVdgVector@@00@Z 000000018004e540 f   physics:dgCollisionSphere.obj
 0001:0004d6d0       ?GetCollisionInfo@dgCollisionSphere@@MEBAXPEAVdgCollisionInfo@@@Z 000000018004e6d0 f   physics:dgCollisionSphere.obj
 0001:0004d770       ?Serialize@dgCollisionSphere@@MEBAXP6AXPEAXPEBX_K@ZQEAX@Z 000000018004e770 f   physics:dgCollisionSphere.obj
 0001:0004d7d0       ??0dgContact@@AEAA@PEAVdgWorld@@@Z 000000018004e7d0 f   physics:dgContact.obj
 0001:0004d8d0       ??_EdgContact@@EEAAPEAXI@Z 000000018004e8d0 f i  CIL library: CIL module
 0001:0004d8d0       ??_GdgContact@@EEAAPEAXI@Z 000000018004e8d0 f i physics:dgContact.obj
 0001:0004d910       ??1dgContact@@EEAA@XZ      000000018004e910 f i physics:dgContact.obj
 0001:0004d9e0       ?GetInfo@dgContact@@EEBAXQEAVdgConstraintInfo@@@Z 000000018004e9e0 f   physics:dgContact.obj
 0001:0004da40       ?CalculatePointDerivative@dgContact@@AEBAXHAEAVdgContraintDescritor@@AEBVdgVector@@AEBVdgPointParam@dgConstraint@@@Z 000000018004ea40 f   physics:dgContact.obj
 0001:0004dba0       ?JacobianDerivative@dgContact@@EEAAIAEAVdgContraintDescritor@@@Z 000000018004eba0 f   physics:dgContact.obj
 0001:0004dc30       ?JacobianContactDerivative@dgContact@@AEAAXAEAVdgContraintDescritor@@AEBVdgContactMaterial@@HAEAH@Z 000000018004ec30 f   physics:dgContact.obj
 0001:0004e0f0       ?JointAccelerations@dgContact@@EEAAXAEBVdgJointAccelerationDecriptor@@@Z 000000018004f0f0 f   physics:dgContact.obj
 0001:0004e490       ?FlushChache@dgCollidingPairCollector@@QEAAXQEAUdgThreadPairCache@1@@Z 000000018004f490 f   physics:dgContact.obj
 0001:0004e5c0       ?AddPair@dgCollidingPairCollector@@QEAAXQEAVdgBody@@0H@Z 000000018004f5c0 f   physics:dgContact.obj
 0001:0004e980       ?RemoveAll@?$dgList@VdgContactMaterial@@@@QEAAXXZ 000000018004f980 f i physics:dgContact.obj
 0001:0004ea20       ??_EdgCollisionNull@@UEAAPEAXI@Z 000000018004fa20 f i  CIL library: CIL module
 0001:0004ea20       ??_EdgConvexCollision@@MEAAPEAXI@Z 000000018004fa20 f i  CIL library: CIL module
 0001:0004ea20       ??_GdgCollisionConvexPolygon@dgCollisionMesh@@UEAAPEAXI@Z 000000018004fa20 f i physics:dgCollisionMesh.obj
 0001:0004ea20       ??_EdgCollisionConvexPolygon@dgCollisionMesh@@UEAAPEAXI@Z 000000018004fa20 f i  CIL library: CIL module
 0001:0004ea20       ??_GdgConvexCollision@@MEAAPEAXI@Z 000000018004fa20 f i physics:dgConvexCollision.obj
 0001:0004ea20       ??_GdgCollisionNull@@UEAAPEAXI@Z 000000018004fa20 f i physics:dgCollisionNull.obj
 0001:0004eaa0       ?Serialize@dgCollisionNull@@EEBAXP6AXPEAXPEBX_K@ZQEAX@Z 000000018004faa0 f   physics:dgCollisionNull.obj
 0001:0004eab0       ?CalculateSignature@dgCollisionConvexHull@@EEBAHXZ 000000018004fab0 f   physics:dgCollisionConvexHull.obj
 0001:0004eab0       ?CalculateSignature@dgCollisionNull@@EEBAHXZ 000000018004fab0 f   physics:dgCollisionNull.obj
 0001:0004eac0       ?CalcAABB@dgCollisionNull@@MEBAXAEBVdgMatrix@@AEAVdgVector@@1@Z 000000018004fac0 f   physics:dgCollisionNull.obj
 0001:0004eb10       ?RayCast@dgCollisionNull@@MEBANAEBVdgVector@@0AEAVdgContactPoint@@P6AIQEBVdgBody@@QEBVdgCollision@@QEAX@Z24@Z 000000018004fb10 f   physics:dgCollisionNull.obj
 0001:0004eb10       ?RayCastSimd@dgCollisionNull@@MEBANAEBVdgVector@@0AEAVdgContactPoint@@P6AIQEBVdgBody@@QEBVdgCollision@@QEAX@Z24@Z 000000018004fb10 f   physics:dgCollisionNull.obj
 0001:0004eb20       ??0dgConvexCollision@@IEAA@QEAVdgMemoryAllocator@@IAEBVdgMatrix@@W4dgCollisionID@@@Z 000000018004fb20 f   physics:dgConvexCollision.obj
 0001:0004eca0       ??0dgConvexCollision@@IEAA@QEAVdgWorld@@P6AXPEAX1_K@ZQEAX@Z 000000018004fca0 f   physics:dgConvexCollision.obj
 0001:0004edb0       ?SerializeLow@dgConvexCollision@@MEBAXP6AXPEAXPEBX_K@ZQEAX@Z 000000018004fdb0 f   physics:dgConvexCollision.obj
 0001:0004ee40       ?GetUserData@dgConvexCollision@@MEBAPEAXXZ 000000018004fe40 f   physics:dgConvexCollision.obj
 0001:0004ee50       ?SetUserData@dgConvexCollision@@MEAAXQEAX@Z 000000018004fe50 f   physics:dgConvexCollision.obj
 0001:0004ee60       ?SetVolumeAndCG@dgConvexCollision@@IEAAXXZ 000000018004fe60 f   physics:dgConvexCollision.obj
 0001:0004f3a0       ?DebugCollision@dgConvexCollision@@MEBAXAEBVdgMatrix@@P6AXPEAXHPEBNH@ZQEAX@Z 00000001800503a0 f   physics:dgConvexCollision.obj
 0001:0004f510       ?CalcAABB@dgConvexCollision@@UEBAXAEBVdgMatrix@@AEAVdgVector@@1@Z 0000000180050510 f   physics:dgConvexCollision.obj
 0001:0004f7d0       ?GetSupportEdge@dgConvexCollision@@IEBAPEAVdgConvexSimplexEdge@@AEBVdgVector@@@Z 00000001800507d0 f   physics:dgConvexCollision.obj
 0001:0004f880       ?CalculateInertia@dgConvexCollision@@CAXPEAXHPEBNH@Z 0000000180050880 f   physics:dgConvexCollision.obj
 0001:0004f890       ?CalculateInertia@dgConvexCollision@@EEBAXAEAVdgVector@@0@Z 0000000180050890 f   physics:dgConvexCollision.obj
 0001:0004fad0       ?GetVolume@dgConvexCollision@@EEBANXZ 0000000180050ad0 f   physics:dgConvexCollision.obj
 0001:0004fae0       ?GetBoxMinRadius@dgConvexCollision@@EEBANXZ 0000000180050ae0 f   physics:dgConvexCollision.obj
 0001:0004faf0       ?GetBoxMaxRadius@dgConvexCollision@@EEBANXZ 0000000180050af0 f   physics:dgConvexCollision.obj
 0001:0004fb00       ?RayCastClosestFace@dgConvexCollision@@AEBAHPEAVdgVector@@AEBV2@AEAN@Z 0000000180050b00 f   physics:dgConvexCollision.obj
 0001:000501f0       ?RayHitBox@dgConvexCollision@@AEBA_NAEBVdgVector@@0@Z 00000001800511f0 f   physics:dgConvexCollision.obj
 0001:00050390       ?CalculateVolumeIntegral@dgConvexCollision@@EEBA?AVdgVector@@AEBVdgMatrix@@P6AIPEAX10AEAVdgPlane@@@ZQEAX@Z 0000000180051390 f   physics:dgConvexCollision.obj
 0001:00050600       ?CalculateVolumeIntegral@dgConvexCollision@@IEBA?AVdgVector@@AEBVdgPlane@@@Z 0000000180051600 f   physics:dgConvexCollision.obj
 0001:00050dc0       ?SupportVertex@dgConvexCollision@@UEBA?AVdgVector@@AEBV2@@Z 0000000180051dc0 f   physics:dgConvexCollision.obj
 0001:00051010       ?SupportVertex@dgCollisionScene@@EEBA?AVdgVector@@AEBV2@@Z 0000000180052010 f   physics:dgCollisionScene.obj
 0001:00051010       ?SupportVertex@dgCollisionPoint@@UEBA?AVdgVector@@AEBV2@@Z 0000000180052010 f   physics:dgCollisionSphere.obj
 0001:00051010       ?CalculateVolumeIntegral@dgCollisionScene@@EEBA?AVdgVector@@AEBVdgMatrix@@P6AIPEAX10AEAVdgPlane@@@ZQEAX@Z 0000000180052010 f   physics:dgCollisionScene.obj
 0001:00051010       ?SupportVertexSimd@dgCollisionCapsule@@EEBA?AVdgVector@@AEBV2@@Z 0000000180052010 f   physics:dgCollisionCapsule.obj
 0001:00051010       ?CalculateVolumeIntegral@dgCollisionNull@@MEBA?AVdgVector@@AEBVdgMatrix@@P6AIPEAX10AEAVdgPlane@@@ZQEAX@Z 0000000180052010 f   physics:dgCollisionNull.obj
 0001:00051010       ?SupportVertex@dgCollisionNull@@MEBA?AVdgVector@@AEBV2@@Z 0000000180052010 f   physics:dgCollisionNull.obj
 0001:00051010       ?SupportVertexSimd@dgConvexCollision@@UEBA?AVdgVector@@AEBV2@@Z 0000000180052010 f   physics:dgConvexCollision.obj
 0001:00051010       ?SupportVertexSimd@dgCollisionBox@@MEBA?AVdgVector@@AEBV2@@Z 0000000180052010 f   physics:dgCollisionBox.obj
 0001:00051010       ?SupportVertexSimd@dgCollisionEllipse@@MEBA?AVdgVector@@AEBV2@@Z 0000000180052010 f   physics:dgCollisionEllipse.obj
 0001:00051010       ?SupportVertexSimd@dgCollisionConvexPolygon@dgCollisionMesh@@UEBA?AVdgVector@@AEBV3@@Z 0000000180052010 f   physics:dgCollisionMesh.obj
 0001:00051010       ?SupportVertexSimd@dgCollisionPoint@@UEBA?AVdgVector@@AEBV2@@Z 0000000180052010 f   physics:dgCollisionSphere.obj
 0001:00051010       ?CalculateVolumeIntegral@dgCollisionMesh@@EEBA?AVdgVector@@AEBVdgMatrix@@P6AIPEAX10AEAVdgPlane@@@ZQEAX@Z 0000000180052010 f   physics:dgCollisionMesh.obj
 0001:00051010       ?SupportVertexSimd@dgCollisionConvexModifier@@MEBA?AVdgVector@@AEBV2@@Z 0000000180052010 f   physics:dgCollisionConvexModifier.obj
 0001:00051010       ?SupportVertexSimd@dgCollisionNull@@MEBA?AVdgVector@@AEBV2@@Z 0000000180052010 f   physics:dgCollisionNull.obj
 0001:00051010       ?SupportVertex@dgCollisionMesh@@EEBA?AVdgVector@@AEBV2@@Z 0000000180052010 f   physics:dgCollisionMesh.obj
 0001:00051030       ?SimplifyClipPolygon@dgConvexCollision@@AEBAHHAEBVdgVector@@QEAV2@@Z 0000000180052030 f   physics:dgConvexCollision.obj
 0001:000513b0       ?RectifyConvexSlice@dgConvexCollision@@IEBAHHAEBVdgVector@@QEAV2@@Z 00000001800523b0 f   physics:dgConvexCollision.obj
 0001:000518b0       ?CalculatePlaneIntersection@dgConvexCollision@@UEBAHAEBVdgVector@@0QEAV2@@Z 00000001800528b0 f   physics:dgConvexCollision.obj
 0001:00051f90       ?RayCast@dgConvexCollision@@UEBANAEBVdgVector@@0AEAVdgContactPoint@@P6AIQEBVdgBody@@QEBVdgCollision@@QEAX@Z24@Z 0000000180052f90 f   physics:dgConvexCollision.obj
 0001:000531d0       ?IsTriggerVolume@dgConvexCollision@@UEBA_NXZ 00000001800541d0 f   physics:dgConvexCollision.obj
 0001:000531e0       ?SetAsTriggerVolume@dgConvexCollision@@MEAAX_N@Z 00000001800541e0 f   physics:dgConvexCollision.obj
 0001:00053200       ?OOBBTest@dgConvexCollision@@UEBA_NAEBVdgMatrix@@QEBV1@QEAX@Z 0000000180054200 f   physics:dgConvexCollision.obj
 0001:000534b0       ??_EdgCollision@@MEAAPEAXI@Z 00000001800544b0 f i  CIL library: CIL module
 0001:000534b0       ??_GdgCollision@@MEAAPEAXI@Z 00000001800544b0 f i physics:dgCollision.obj
 0001:000534e0       ??0dgCollision@@IEAA@QEAVdgWorld@@P6AXPEAX1_K@ZQEAX@Z 00000001800544e0 f   physics:dgCollision.obj
 0001:00053590       ?Quantize@dgCollision@@SAIN@Z 0000000180054590 f   physics:dgCollision.obj
 0001:000535a0       ?GetCollisionInfo@dgCollision@@UEBAXPEAVdgCollisionInfo@@@Z 00000001800545a0 f   physics:dgCollision.obj
 0001:00053600       ?SerializeLow@dgCollision@@UEBAXP6AXPEAXPEBX_K@ZQEAX@Z 0000000180054600 f   physics:dgCollision.obj
 0001:00053670       ??_EdgCollisionBox@@UEAAPEAXI@Z 0000000180054670 f i  CIL library: CIL module
 0001:00053670       ??_GdgCollisionBox@@UEAAPEAXI@Z 0000000180054670 f i physics:dgCollisionBox.obj
 0001:000536b0       ?Init@dgCollisionBox@@IEAAXNNN@Z 00000001800546b0 f   physics:dgCollisionBox.obj
 0001:00053c20       ?CalculateSignature@dgCollisionBox@@MEBAHXZ 0000000180054c20 f   physics:dgCollisionBox.obj
 0001:00053d50       ?SupportVertex@dgCollisionBox@@MEBA?AVdgVector@@AEBV2@@Z 0000000180054d50 f   physics:dgCollisionBox.obj
 0001:00053dc0       ?CalcAABB@dgCollisionBox@@MEBAXAEBVdgMatrix@@AEAVdgVector@@1@Z 0000000180054dc0 f   physics:dgCollisionBox.obj
 0001:00053f20       ?RayCast@dgCollisionBox@@MEBANAEBVdgVector@@0AEAVdgContactPoint@@P6AIQEBVdgBody@@QEBVdgCollision@@QEAX@Z24@Z 0000000180054f20 f   physics:dgCollisionBox.obj
 0001:00054160       ?RayCastSimd@dgCollisionUserMesh@@EEBANAEBVdgVector@@0AEAVdgContactPoint@@P6AIQEBVdgBody@@QEBVdgCollision@@QEAX@Z24@Z 0000000180055160 f   physics:dgCollisionUserMesh.obj
 0001:00054160       ?RayCastSimd@dgCollisionCylinder@@EEBANAEBVdgVector@@0AEAVdgContactPoint@@P6AIQEBVdgBody@@QEBVdgCollision@@QEAX@Z24@Z 0000000180055160 f   physics:dgCollisionCylinder.obj
 0001:00054160       ?RayCastSimd@dgCollisionCapsule@@EEBANAEBVdgVector@@0AEAVdgContactPoint@@P6AIQEBVdgBody@@QEBVdgCollision@@QEAX@Z24@Z 0000000180055160 f   physics:dgCollisionCapsule.obj
 0001:00054160       ?RayCastSimd@dgCollisionBox@@MEBANAEBVdgVector@@0AEAVdgContactPoint@@P6AIQEBVdgBody@@QEBVdgCollision@@QEAX@Z24@Z 0000000180055160 f   physics:dgCollisionBox.obj
 0001:00054160       ?RayCastSimd@dgConvexCollision@@UEBANAEBVdgVector@@0AEAVdgContactPoint@@P6AIQEBVdgBody@@QEBVdgCollision@@QEAX@Z24@Z 0000000180055160 f   physics:dgConvexCollision.obj
 0001:00054160       ?RayCastSimd@dgCollisionSphere@@MEBANAEBVdgVector@@0AEAVdgContactPoint@@P6AIQEBVdgBody@@QEBVdgCollision@@QEAX@Z24@Z 0000000180055160 f   physics:dgCollisionSphere.obj
 0001:000541a0       ?CalculateMassProperties@dgCollisionBox@@MEBANAEAVdgVector@@00@Z 00000001800551a0 f   physics:dgCollisionBox.obj
 0001:00054630       ?SetBreakImpulse@dgCollisionBox@@MEAAXN@Z 0000000180055630 f   physics:dgCollisionBox.obj
 0001:00054640       ?GetBreakImpulse@dgCollisionBox@@MEBANXZ 0000000180055640 f   physics:dgCollisionBox.obj
 0001:00054650       ?CalculatePlaneIntersection@dgCollisionBox@@MEBAHAEBVdgVector@@0QEAV2@@Z 0000000180055650 f   physics:dgCollisionBox.obj
 0001:00054a50       ?GetCollisionInfo@dgCollisionBox@@MEBAXPEAVdgCollisionInfo@@@Z 0000000180055a50 f   physics:dgCollisionBox.obj
 0001:00054b10       ?Serialize@dgCollisionBox@@MEBAXP6AXPEAXPEBX_K@ZQEAX@Z 0000000180055b10 f   physics:dgCollisionBox.obj
 0001:00054bb0       ??0dgCollisionEllipse@@QEAA@QEAVdgMemoryAllocator@@INNNAEBVdgMatrix@@@Z 0000000180055bb0 f   physics:dgCollisionEllipse.obj
 0001:00054ca0       ??0dgCollisionEllipse@@QEAA@QEAVdgWorld@@P6AXPEAX1_K@ZQEAX@Z 0000000180055ca0 f   physics:dgCollisionEllipse.obj
 0001:00054d80       ?CalculateSignature@dgCollisionEllipse@@EEBAHXZ 0000000180055d80 f   physics:dgCollisionEllipse.obj
 0001:00054eb0       ?CalcAABB@dgCollisionEllipse@@MEBAXAEBVdgMatrix@@AEAVdgVector@@1@Z 0000000180055eb0 f   physics:dgCollisionEllipse.obj
 0001:00054fc0       ?SupportVertex@dgCollisionEllipse@@MEBA?AVdgVector@@AEBV2@@Z 0000000180055fc0 f   physics:dgCollisionEllipse.obj
 0001:00055140       ?CalculatePlaneIntersection@dgCollisionEllipse@@EEBAHAEBVdgVector@@0QEAV2@@Z 0000000180056140 f   physics:dgCollisionEllipse.obj
 0001:00055260       ?DebugCollision@dgCollisionEllipse@@MEBAXAEBVdgMatrix@@P6AXPEAXHPEBNH@ZQEAX@Z 0000000180056260 f   physics:dgCollisionEllipse.obj
 0001:00055570       ?RayCast@dgCollisionEllipse@@MEBANAEBVdgVector@@0AEAVdgContactPoint@@P6AIQEBVdgBody@@QEBVdgCollision@@QEAX@Z24@Z 0000000180056570 f   physics:dgCollisionEllipse.obj
 0001:00055680       ?RayCastSimd@dgCollisionEllipse@@MEBANAEBVdgVector@@0AEAVdgContactPoint@@P6AIQEBVdgBody@@QEBVdgCollision@@QEAX@Z24@Z 0000000180056680 f   physics:dgCollisionEllipse.obj
 0001:00055790       ?CalculateMassProperties@dgCollisionEllipse@@EEBANAEAVdgVector@@00@Z 0000000180056790 f   physics:dgCollisionEllipse.obj
 0001:00055790       ?CalculateMassProperties@dgConvexCollision@@MEBANAEAVdgVector@@00@Z 0000000180056790 f   physics:dgConvexCollision.obj
 0001:00055810       ?GetCollisionInfo@dgCollisionEllipse@@EEBAXPEAVdgCollisionInfo@@@Z 0000000180056810 f   physics:dgCollisionEllipse.obj
 0001:000558b0       ?Serialize@dgCollisionEllipse@@EEBAXP6AXPEAXPEBX_K@ZQEAX@Z 00000001800568b0 f   physics:dgCollisionEllipse.obj
 0001:00055930       ??_GdgCollisionCapsule@@UEAAPEAXI@Z 0000000180056930 f i physics:dgCollisionCapsule.obj
 0001:00055930       ??_EdgCollisionCapsule@@UEAAPEAXI@Z 0000000180056930 f i  CIL library: CIL module
 0001:00055980       ?Init@dgCollisionCapsule@@AEAAXNN@Z 0000000180056980 f   physics:dgCollisionCapsule.obj
 0001:000560a0       ?CalculateSignature@dgCollisionCapsule@@EEBAHXZ 00000001800570a0 f   physics:dgCollisionCapsule.obj
 0001:000561c0       ?TesselateTriangle@dgCollisionCapsule@@AEBAXHNAEBVdgVector@@00AEAHPEAV2@@Z 00000001800571c0 f   physics:dgCollisionCapsule.obj
 0001:00056680       ?DebugCollision@dgCollisionCapsule@@EEBAXAEBVdgMatrix@@P6AXPEAXHPEBNH@ZQEAX@Z 0000000180057680 f   physics:dgCollisionCapsule.obj
 0001:00056ca0       ?Serialize@dgCollisionMesh@@EEBAXP6AXPEAXPEBX_K@ZQEAX@Z 0000000180057ca0 f   physics:dgCollisionMesh.obj
 0001:00056ca0       ?SetCollisionBBox@dgCollisionNull@@EEAAXAEBVdgVector@@0@Z 0000000180057ca0 f   physics:dgCollisionNull.obj
 0001:00056ca0       ?JointVelocityCorrection@dgBilateralConstraint@@MEAAXAEBVdgJointAccelerationDecriptor@@@Z 0000000180057ca0 f   physics:dgBilateralConstraint.obj
 0001:00056ca0       ?SetCollisionBBox@dgCollisionConvexHull@@EEAAXAEBVdgVector@@0@Z 0000000180057ca0 f   physics:dgCollisionConvexHull.obj
 0001:00056ca0       ?Init@dgBilateralConstraint@@MEAAXXZ 0000000180057ca0 f   NewtonClass.obj
 0001:00056ca0       ?SetBreakImpulse@dgCollision@@UEAAXN@Z 0000000180057ca0 f   physics:dgWorld.obj
 0001:00056ca0       ?SetUserData@dgCollision@@UEAAXQEAX@Z 0000000180057ca0 f   physics:dgCollision.obj
 0001:00056ca0       ?SetCollisionBBox@dgCollisionCompound@@MEAAXAEBVdgVector@@0@Z 0000000180057ca0 f   physics:dgCollisionCompound.obj
 0001:00056ca0       ?SetCollisionBBox@dgCollisionCapsule@@EEAAXAEBVdgVector@@0@Z 0000000180057ca0 f   physics:dgCollisionCapsule.obj
 0001:00056ca0       ?JointVelocityCorrection@dgContact@@EEAAXAEBVdgJointAccelerationDecriptor@@@Z 0000000180057ca0 f   physics:dgContact.obj
 0001:00056ca0       ?SetCollisionBBox@dgCollisionChamferCylinder@@MEAAXAEBVdgVector@@0@Z 0000000180057ca0 f   physics:dgCollisionChamferCylinder.obj
 0001:00056ca0       ?ForAllSectorsRayHit@dgPolygonSoupDatabase@@MEBAXAEBVFastRayTest@@P6ANPEAXQEBNHQEBHH@ZQEAX@Z 0000000180057ca0 f   corelib:dgAABBPolygonSoup.obj
 0001:00056ca0       ?SetCollisionBBox@dgCollisionEllipse@@EEAAXAEBVdgVector@@0@Z 0000000180057ca0 f   physics:dgCollisionEllipse.obj
 0001:00056ca0       ?SetDestructorCallback@dgContact@@EEAAXP6AXAEAVdgConstraint@@@Z@Z 0000000180057ca0 f   physics:dgContact.obj
 0001:00056ca0       ?SetCollisionBBox@dgCollisionConvexModifier@@EEAAXAEBVdgVector@@0@Z 0000000180057ca0 f   physics:dgCollisionConvexModifier.obj
 0001:00056ca0       ?GetInfo@dgConstraint@@UEBAXQEAVdgConstraintInfo@@@Z 0000000180057ca0 f   physics:dgConstraint.obj
 0001:00056ca0       ?CalcAABBSimd@dgCollisionEllipse@@MEBAXAEBVdgMatrix@@AEAVdgVector@@1@Z 0000000180057ca0 f   physics:dgCollisionEllipse.obj
 0001:00056ca0       ?JointAccelerationsSimd@dgContact@@EEAAXAEBVdgJointAccelerationDecriptor@@@Z 0000000180057ca0 f   physics:dgContact.obj
 0001:00056ca0       ?GetCollisionInfo@dgCollisionMesh@@EEBAXPEAVdgCollisionInfo@@@Z 0000000180057ca0 f   physics:dgCollisionMesh.obj
 0001:00056ca0       ?ForAllSectorsSimd@dgPolygonSoupDatabase@@MEBAXAEBVdgVector@@0P6A?AW4dgIntersectStatus@@PEAXQEBNHQEBHH@ZQEAX@Z 0000000180057ca0 f   corelib:dgAABBPolygonSoup.obj
 0001:00056ca0       ?SetStiffness@dgConstraint@@UEAAXN@Z 0000000180057ca0 f   physics:dgBilateralConstraint.obj
 0001:00056ca0       ?ForAllSectorsRayHitSimd@dgPolygonSoupDatabase@@MEBAXAEBVFastRayTest@@P6ANPEAXQEBNHQEBHH@ZQEAX@Z 0000000180057ca0 f   corelib:dgAABBPolygonSoup.obj
 0001:00056ca0       ?ForAllSectors@dgPolygonSoupDatabase@@MEBAXAEBVdgVector@@0P6A?AW4dgIntersectStatus@@PEAXQEBNHQEBHH@ZQEAX@Z 0000000180057ca0 f   corelib:dgAABBPolygonSoup.obj
 0001:00056ca0       ?SetCollisionBBox@dgCollisionConvexPolygon@dgCollisionMesh@@UEAAXAEBVdgVector@@0@Z 0000000180057ca0 f   physics:dgCollisionMesh.obj
 0001:00056ca0       ?JointAccelerationsSimd@dgBilateralConstraint@@MEAAXAEBVdgJointAccelerationDecriptor@@@Z 0000000180057ca0 f   physics:dgBilateralConstraint.obj
 0001:00056ca0       ?CalcAABBSimd@dgConvexCollision@@UEBAXAEBVdgMatrix@@AEAVdgVector@@1@Z 0000000180057ca0 f   physics:dgConvexCollision.obj
 0001:00056ca0       ?CalcAABBSimd@dgCollisionConvexModifier@@MEBAXAEBVdgMatrix@@AEAVdgVector@@1@Z 0000000180057ca0 f   physics:dgCollisionConvexModifier.obj
 0001:00056ca0       ?SetCollisionBBox@dgCollisionSphere@@MEAAXAEBVdgVector@@0@Z 0000000180057ca0 f   physics:dgCollisionSphere.obj
 0001:00056ca0       ?Remove@dgBilateralConstraint@@MEAAXPEAVdgWorld@@@Z 0000000180057ca0 f   NewtonClass.obj
 0001:00056ca0       ?SetCollisionBBox@dgCollisionBox@@MEAAXAEBVdgVector@@0@Z 0000000180057ca0 f   physics:dgCollisionBox.obj
 0001:00056ca0       ?Serialize@dgCollisionUserMesh@@EEBAXP6AXPEAXPEBX_K@ZQEAX@Z 0000000180057ca0 f   physics:dgCollisionUserMesh.obj
 0001:00056ca0       ?SetCollisionBBox@dgCollisionCylinder@@EEAAXAEBVdgVector@@0@Z 0000000180057ca0 f   physics:dgCollisionCylinder.obj
 0001:00056ca0       ?DebugCollision@dgCollisionUserMesh@@EEBAXAEBVdgMatrix@@P6AXPEAXHPEBNH@ZQEAX@Z 0000000180057ca0 f   physics:dgCollisionUserMesh.obj
 0001:00056ca0       ?SetAsTriggerVolume@dgCollision@@UEAAX_N@Z 0000000180057ca0 f   physics:dgCollisionCompoundBreakable.obj
 0001:00056ca0       ?DebugCollision@dgCollisionNull@@MEBAXAEBVdgMatrix@@P6AXPEAXHPEBNH@ZQEAX@Z 0000000180057ca0 f   physics:dgCollisionNull.obj
 0001:00056ca0       ?CalcAABBSimd@dgCollisionBox@@MEBAXAEBVdgMatrix@@AEAVdgVector@@1@Z 0000000180057ca0 f   physics:dgCollisionBox.obj
 0001:00056ca0       ?SetCollisionBBox@dgCollisionCone@@EEAAXAEBVdgVector@@0@Z 0000000180057ca0 f   physics:dgCollisionCone.obj
 0001:00056ca0       ?DebugCollision@dgCollisionMesh@@EEBAXAEBVdgMatrix@@P6AXPEAXHPEBNH@ZQEAX@Z 0000000180057ca0 f   physics:dgCollisionMesh.obj
 0001:00056ca0       ?GetAABB@dgPolygonSoupDatabase@@UEBAXAEAVdgVector@@0@Z 0000000180057ca0 f   corelib:dgAABBPolygonSoup.obj
 0001:00056ca0       ?ForAllSectorsRayHitSimd@dgAABBPolygonSoup@@MEBAXAEBVFastRayTest@@P6ANPEAXQEBNHQEBHH@ZQEAX@Z 0000000180057ca0 f   corelib:dgAABBPolygonSoup.obj
 0001:00056ca0       ?ModifierSetMatrix@dgCollision@@UEAAXAEBVdgMatrix@@@Z 0000000180057ca0 f   physics:dgWorld.obj
 0001:00056ca0       ?Serialize@dgCollisionConvexPolygon@dgCollisionMesh@@UEBAXP6AXPEAXPEBX_K@ZQEAX@Z 0000000180057ca0 f   physics:dgCollisionMesh.obj
 0001:00056cb0       ?SupportVertex@dgCollisionCapsule@@EEBA?AVdgVector@@AEBV2@@Z 0000000180057cb0 f   physics:dgCollisionCapsule.obj
 0001:00056d30       ?RayCast@dgCollisionCapsule@@EEBANAEBVdgVector@@0AEAVdgContactPoint@@P6AIQEBVdgBody@@QEBVdgCollision@@QEAX@Z24@Z 0000000180057d30 f   physics:dgCollisionCapsule.obj
 0001:000577d0       ?CalculateMassProperties@dgCollisionCapsule@@EEBANAEAVdgVector@@00@Z 00000001800587d0 f   physics:dgCollisionCapsule.obj
 0001:00057ca0       ?CalculatePlaneIntersection@dgCollisionCapsule@@EEBAHAEBVdgVector@@0QEAV2@@Z 0000000180058ca0 f   physics:dgCollisionCapsule.obj
 0001:00058790       ?GetCollisionInfo@dgCollisionCapsule@@EEBAXPEAVdgCollisionInfo@@@Z 0000000180059790 f   physics:dgCollisionCapsule.obj
 0001:00058840       ?Serialize@dgCollisionCapsule@@EEBAXP6AXPEAXPEBX_K@ZQEAX@Z 0000000180059840 f   physics:dgCollisionCapsule.obj
 0001:000588b0       ??_GdgCollisionCone@@UEAAPEAXI@Z 00000001800598b0 f i physics:dgCollisionCone.obj
 0001:000588b0       ??_EdgCollisionCone@@UEAAPEAXI@Z 00000001800598b0 f i  CIL library: CIL module
 0001:00058900       ?Init@dgCollisionCone@@AEAAXNN@Z 0000000180059900 f   physics:dgCollisionCone.obj
 0001:00058da0       ?CalculateSignature@dgCollisionCone@@EEBAHXZ 0000000180059da0 f   physics:dgCollisionCone.obj
 0001:00058ec0       ?DebugCollision@dgCollisionCone@@EEBAXAEBVdgMatrix@@P6AXPEAXHPEBNH@ZQEAX@Z 0000000180059ec0 f   physics:dgCollisionCone.obj
 0001:00059110       ?SupportVertexSimd@dgCollisionChamferCylinder@@MEBA?AVdgVector@@AEBV2@@Z 000000018005a110 f   physics:dgCollisionChamferCylinder.obj
 0001:00059110       ?SupportVertexSimd@dgCollisionCone@@EEBA?AVdgVector@@AEBV2@@Z 000000018005a110 f   physics:dgCollisionCone.obj
 0001:00059110       ?SupportVertexSimd@dgCollisionCylinder@@EEBA?AVdgVector@@AEBV2@@Z 000000018005a110 f   physics:dgCollisionCylinder.obj
 0001:00059130       ?SupportVertex@dgCollisionCone@@EEBA?AVdgVector@@AEBV2@@Z 000000018005a130 f   physics:dgCollisionCone.obj
 0001:00059220       ?CalculateMassProperties@dgCollisionCone@@EEBANAEAVdgVector@@00@Z 000000018005a220 f   physics:dgCollisionCone.obj
 0001:000596c0       ?CalculatePlaneIntersection@dgCollisionCylinder@@EEBAHAEBVdgVector@@0QEAV2@@Z 000000018005a6c0 f   physics:dgCollisionCylinder.obj
 0001:000596c0       ?CalculatePlaneIntersection@dgCollisionCone@@EEBAHAEBVdgVector@@0QEAV2@@Z 000000018005a6c0 f   physics:dgCollisionCone.obj
 0001:00059980       ?GetCollisionInfo@dgCollisionCone@@EEBAXPEAVdgCollisionInfo@@@Z 000000018005a980 f   physics:dgCollisionCone.obj
 0001:00059a20       ?Serialize@dgCollisionCone@@EEBAXP6AXPEAXPEBX_K@ZQEAX@Z 000000018005aa20 f   physics:dgCollisionCone.obj
 0001:00059a90       ??_EdgCollisionCylinder@@UEAAPEAXI@Z 000000018005aa90 f i  CIL library: CIL module
 0001:00059a90       ??_GdgCollisionCylinder@@UEAAPEAXI@Z 000000018005aa90 f i physics:dgCollisionCylinder.obj
 0001:00059ae0       ?Init@dgCollisionCylinder@@AEAAXNN@Z 000000018005aae0 f   physics:dgCollisionCylinder.obj
 0001:00059f80       ?CalculateSignature@dgCollisionCylinder@@EEBAHXZ 000000018005af80 f   physics:dgCollisionCylinder.obj
 0001:0005a0a0       ?DebugCollision@dgCollisionCylinder@@EEBAXAEBVdgMatrix@@P6AXPEAXHPEBNH@ZQEAX@Z 000000018005b0a0 f   physics:dgCollisionCylinder.obj
 0001:0005a380       ?SupportVertex@dgCollisionCylinder@@EEBA?AVdgVector@@AEBV2@@Z 000000018005b380 f   physics:dgCollisionCylinder.obj
 0001:0005a440       ?CalculateMassProperties@dgCollisionCylinder@@EEBANAEAVdgVector@@00@Z 000000018005b440 f   physics:dgCollisionCylinder.obj
 0001:0005a8b0       ?RayCast@dgCollisionCylinder@@EEBANAEBVdgVector@@0AEAVdgContactPoint@@P6AIQEBVdgBody@@QEBVdgCollision@@QEAX@Z24@Z 000000018005b8b0 f   physics:dgCollisionCylinder.obj
 0001:0005ae40       ?GetCollisionInfo@dgCollisionCylinder@@EEBAXPEAVdgCollisionInfo@@@Z 000000018005be40 f   physics:dgCollisionCylinder.obj
 0001:0005aef0       ?Serialize@dgCollisionCylinder@@EEBAXP6AXPEAXPEBX_K@ZQEAX@Z 000000018005bef0 f   physics:dgCollisionCylinder.obj
 0001:0005af60       ??_GdgCollisionChamferCylinder@@UEAAPEAXI@Z 000000018005bf60 f i physics:dgCollisionChamferCylinder.obj
 0001:0005af60       ??_EdgCollisionChamferCylinder@@UEAAPEAXI@Z 000000018005bf60 f i  CIL library: CIL module
 0001:0005afb0       ?Init@dgCollisionChamferCylinder@@IEAAXNN@Z 000000018005bfb0 f   physics:dgCollisionChamferCylinder.obj
 0001:0005b750       ?DebugCollision@dgCollisionChamferCylinder@@MEBAXAEBVdgMatrix@@P6AXPEAXHPEBNH@ZQEAX@Z 000000018005c750 f   physics:dgCollisionChamferCylinder.obj
 0001:0005c100       ?CalculateSignature@dgCollisionChamferCylinder@@MEBAHXZ 000000018005d100 f   physics:dgCollisionChamferCylinder.obj
 0001:0005c220       ?SupportVertex@dgCollisionChamferCylinder@@MEBA?AVdgVector@@AEBV2@@Z 000000018005d220 f   physics:dgCollisionChamferCylinder.obj
 0001:0005c3b0       ?RayCast@dgCollisionChamferCylinder@@MEBANAEBVdgVector@@0AEAVdgContactPoint@@P6AIQEBVdgBody@@QEBVdgCollision@@QEAX@Z24@Z 000000018005d3b0 f   physics:dgCollisionChamferCylinder.obj
 0001:0005c5f0       ?RayCastSimd@dgCollisionChamferCylinder@@MEBANAEBVdgVector@@0AEAVdgContactPoint@@P6AIQEBVdgBody@@QEBVdgCollision@@QEAX@Z24@Z 000000018005d5f0 f   physics:dgCollisionChamferCylinder.obj
 0001:0005c830       ?CalculatePlaneIntersectionSimd@dgCollisionChamferCylinder@@MEBAHAEBVdgVector@@0QEAV2@@Z 000000018005d830 f   physics:dgCollisionChamferCylinder.obj
 0001:0005c840       ?CalculatePlaneIntersection@dgCollisionChamferCylinder@@MEBAHAEBVdgVector@@0QEAV2@@Z 000000018005d840 f   physics:dgCollisionChamferCylinder.obj
 0001:0005d290       ?GetCollisionInfo@dgCollisionChamferCylinder@@MEBAXPEAVdgCollisionInfo@@@Z 000000018005e290 f   physics:dgCollisionChamferCylinder.obj
 0001:0005d340       ?Serialize@dgCollisionChamferCylinder@@MEBAXP6AXPEAXPEBX_K@ZQEAX@Z 000000018005e340 f   physics:dgCollisionChamferCylinder.obj
 0001:0005d3b0       ??0dgCollisionConvexModifier@@QEAA@PEAVdgConvexCollision@@PEAVdgWorld@@@Z 000000018005e3b0 f   physics:dgCollisionConvexModifier.obj
 0001:0005d4b0       ??_GdgCollisionConvexModifier@@UEAAPEAXI@Z 000000018005e4b0 f i physics:dgCollisionConvexModifier.obj
 0001:0005d4b0       ??_EdgCollisionConvexModifier@@UEAAPEAXI@Z 000000018005e4b0 f i  CIL library: CIL module
 0001:0005d4f0       ??0dgCollisionConvexModifier@@QEAA@QEAVdgWorld@@P6AXPEAX1_K@ZQEAX@Z 000000018005e4f0 f   physics:dgCollisionConvexModifier.obj
 0001:0005d5b0       ??1dgCollisionConvexModifier@@UEAA@XZ 000000018005e5b0 f   physics:dgCollisionConvexModifier.obj
 0001:0005d630       ?ModifierGetMatrix@dgCollisionConvexModifier@@UEBA?AVdgMatrix@@XZ 000000018005e630 f   physics:dgCollisionConvexModifier.obj
 0001:0005d830       ?GetBoxMinRadius@dgCollisionConvexModifier@@EEBANXZ 000000018005e830 f   physics:dgCollisionConvexModifier.obj
 0001:0005d840       ?GetBoxMaxRadius@dgCollisionConvexModifier@@EEBANXZ 000000018005e840 f   physics:dgCollisionConvexModifier.obj
 0001:0005d850       ?ModifierSetMatrix@dgCollisionConvexModifier@@UEAAXAEBVdgMatrix@@@Z 000000018005e850 f   physics:dgCollisionConvexModifier.obj
 0001:0005dde0       ?CalcAABB@dgCollisionConvexModifier@@MEBAXAEBVdgMatrix@@AEAVdgVector@@1@Z 000000018005ede0 f   physics:dgCollisionConvexModifier.obj
 0001:0005e1d0       ?SupportVertex@dgCollisionConvexModifier@@MEBA?AVdgVector@@AEBV2@@Z 000000018005f1d0 f   physics:dgCollisionConvexModifier.obj
 0001:0005e420       ?CalculatePlaneIntersection@dgCollisionConvexModifier@@EEBAHAEBVdgVector@@0QEAV2@@Z 000000018005f420 f   physics:dgCollisionConvexModifier.obj
 0001:0005eb50       ?DebugCollision@dgCollisionConvexModifier@@MEBAXAEBVdgMatrix@@P6AXPEAXHPEBNH@ZQEAX@Z 000000018005fb50 f   physics:dgCollisionConvexModifier.obj
 0001:0005eda0       ?RayCast@dgCollisionConvexModifier@@MEBANAEBVdgVector@@0AEAVdgContactPoint@@P6AIQEBVdgBody@@QEBVdgCollision@@QEAX@Z24@Z 000000018005fda0 f   physics:dgCollisionConvexModifier.obj
 0001:0005f160       ?RayCastSimd@dgCollisionConvexModifier@@MEBANAEBVdgVector@@0AEAVdgContactPoint@@P6AIQEBVdgBody@@QEBVdgCollision@@QEAX@Z24@Z 0000000180060160 f   physics:dgCollisionConvexModifier.obj
 0001:0005f2e0       ?GetVolume@dgCollisionConvexModifier@@MEBANXZ 00000001800602e0 f   physics:dgCollisionConvexModifier.obj
 0001:0005f310       ?CalculateVolumeIntegral@dgCollisionConvexModifier@@MEBA?AVdgVector@@AEBVdgMatrix@@P6AIPEAX10AEAVdgPlane@@@ZQEAX@Z 0000000180060310 f   physics:dgCollisionConvexModifier.obj
 0001:0005f910       ?GetCollisionInfo@dgCollisionConvexModifier@@EEBAXPEAVdgCollisionInfo@@@Z 0000000180060910 f   physics:dgCollisionConvexModifier.obj
 0001:0005f990       ?Serialize@dgCollisionConvexModifier@@EEBAXP6AXPEAXPEBX_K@ZQEAX@Z 0000000180060990 f   physics:dgCollisionConvexModifier.obj
 0001:0005f9f0       ??0OOBBTestData@dgCollisionCompound@@QEAA@AEBVdgMatrix@@@Z 00000001800609f0 f   physics:dgCollisionCompound.obj
 0001:00060010       ??0OOBBTestData@dgCollisionCompound@@QEAA@AEBVdgMatrix@@AEBVdgVector@@1@Z 0000000180061010 f   physics:dgCollisionCompound.obj
 0001:000607e0       ??0dgNodeBase@dgCollisionCompound@@QEAA@PEAVdgConvexCollision@@H@Z 00000001800617e0 f   physics:dgCollisionCompound.obj
 0001:00060950       ??0dgNodeBase@dgCollisionCompound@@QEAA@PEAV01@0H@Z 0000000180061950 f   physics:dgCollisionCompound.obj
 0001:00060b10       ??1dgNodeBase@dgCollisionCompound@@QEAA@XZ 0000000180061b10 f   physics:dgCollisionCompound.obj
 0001:00060b90       ?BoxTest@dgNodeBase@dgCollisionCompound@@QEBA_NAEBVOOBBTestData@2@QEBV12@@Z 0000000180061b90 f   physics:dgCollisionCompound.obj
 0001:00061080       ?BoxTest@dgNodeBase@dgCollisionCompound@@QEBA_NAEBVOOBBTestData@2@@Z 0000000180062080 f   physics:dgCollisionCompound.obj
 0001:000613c0       ??0dgCollisionCompound@@QEAA@PEAVdgWorld@@@Z 00000001800623c0 f   physics:dgCollisionCompound.obj
 0001:00061480       ??_GdgCollisionCompound@@UEAAPEAXI@Z 0000000180062480 f i physics:dgCollisionCompound.obj
 0001:00061480       ??_EdgCollisionCompound@@UEAAPEAXI@Z 0000000180062480 f i  CIL library: CIL module
 0001:000614c0       ??0dgCollisionCompound@@QEAA@HQEBQEAVdgConvexCollision@@PEAVdgWorld@@@Z 00000001800624c0 f   physics:dgCollisionCompound.obj
 0001:000615c0       ??0dgCollisionCompound@@QEAA@AEBV0@@Z 00000001800625c0 f   physics:dgCollisionCompound.obj
 0001:000617d0       ??0dgCollisionCompound@@QEAA@QEAVdgWorld@@P6AXPEAX1_K@ZQEAX@Z 00000001800627d0 f   physics:dgCollisionCompound.obj
 0001:00061b10       ??1dgCollisionCompound@@UEAA@XZ 0000000180062b10 f   physics:dgCollisionCompound.obj
 0001:00061bc0       ?Init@dgCollisionCompound@@IEAAXHQEBQEAVdgConvexCollision@@@Z 0000000180062bc0 f   physics:dgCollisionCompound.obj
 0001:00061d40       ?CalculatePlaneIntersectionSimd@dgCollisionCylinder@@EEBAHAEBVdgVector@@0QEAV2@@Z 0000000180062d40 f   physics:dgCollisionCylinder.obj
 0001:00061d40       ?CalculateSignature@dgCollisionConvexIntance@dgCollisionCompoundBreakable@@EEBAHXZ 0000000180062d40 f   physics:dgCollisionCompoundBreakable.obj
 0001:00061d40       ?CalculatePlaneIntersectionSimd@dgCollisionCone@@EEBAHAEBVdgVector@@0QEAV2@@Z 0000000180062d40 f   physics:dgCollisionCone.obj
 0001:00061d40       ?CalculatePlaneIntersectionSimd@dgConvexCollision@@UEBAHAEBVdgVector@@0QEAV2@@Z 0000000180062d40 f   physics:dgConvexCollision.obj
 0001:00061d40       ?CalculateSignature@dgCollisionCompound@@MEBAHXZ 0000000180062d40 f   physics:dgCollisionCompound.obj
 0001:00061d40       ?CalculatePlaneIntersectionSimd@dgCollisionCapsule@@EEBAHAEBVdgVector@@0QEAV2@@Z 0000000180062d40 f   physics:dgCollisionCapsule.obj
 0001:00061d40       ?CalculateSignature@dgCollisionConvexModifier@@EEBAHXZ 0000000180062d40 f   physics:dgCollisionConvexModifier.obj
 0001:00061d40       ?CalculateSignature@dgCollisionScene@@EEBAHXZ 0000000180062d40 f   physics:dgCollisionScene.obj
 0001:00061d40       ?CalculatePlaneIntersectionSimd@dgCollisionSphere@@MEBAHAEBVdgVector@@0QEAV2@@Z 0000000180062d40 f   physics:dgCollisionSphere.obj
 0001:00061d40       ?GetUserData@dgCollision@@UEBAPEAXXZ 0000000180062d40 f   physics:dgCollision.obj
 0001:00061d40       NewtonBreakableCreateDebrieBody 0000000180062d40 f   Newton.obj
 0001:00061d40       ?CalculatePlaneIntersectionSimd@dgCollisionBox@@MEBAHAEBVdgVector@@0QEAV2@@Z 0000000180062d40 f   physics:dgCollisionBox.obj
 0001:00061d40       ?GetUserData@dgCollisionMesh@@UEBAPEAXXZ 0000000180062d40 f   physics:dgCollisionMesh.obj
 0001:00061d40       ?CalculatePlaneIntersectionSimd@dgCollisionEllipse@@EEBAHAEBVdgVector@@0QEAV2@@Z 0000000180062d40 f   physics:dgCollisionEllipse.obj
 0001:00061d40       ?CalculatePlaneIntersectionSimd@dgCollisionConvexPolygon@dgCollisionMesh@@UEBAHAEBVdgVector@@0QEAV3@@Z 0000000180062d40 f   physics:dgCollisionMesh.obj
 0001:00061d40       ?CalculateSignature@dgCollisionMesh@@EEBAHXZ 0000000180062d40 f   physics:dgCollisionMesh.obj
 0001:00061d40       ?GetPerformanceCount@dgWorld@@CAIXZ 0000000180062d40 f   physics:dgWorld.obj
 0001:00061d50       ?CalcAABBSimd@dgCollisionCompound@@MEBAXAEBVdgMatrix@@AEAVdgVector@@1@Z 0000000180062d50 f   physics:dgCollisionCompound.obj
 0001:00061d50       ?CalcAABB@dgCollisionCompound@@MEBAXAEBVdgMatrix@@AEAVdgVector@@1@Z 0000000180062d50 f   physics:dgCollisionCompound.obj
 0001:00062010       ?DebugCollision@dgCollisionCompound@@MEBAXAEBVdgMatrix@@P6AXPEAXHPEBNH@ZQEAX@Z 0000000180063010 f   physics:dgCollisionCompound.obj
 0001:00062090       ?RayCast@dgCollisionCompound@@MEBANAEBVdgVector@@0AEAVdgContactPoint@@P6AIQEBVdgBody@@QEBVdgCollision@@QEAX@Z24@Z 0000000180063090 f   physics:dgCollisionCompound.obj
 0001:00062470       ?RayCastSimd@dgCollisionCompound@@MEBANAEBVdgVector@@0AEAVdgContactPoint@@P6AIQEBVdgBody@@QEBVdgCollision@@QEAX@Z24@Z 0000000180063470 f   physics:dgCollisionCompound.obj
 0001:000624a0       ?GetVolume@dgCollisionCompound@@MEBANXZ 00000001800634a0 f   physics:dgCollisionCompound.obj
 0001:00062510       ?GetBoxMinRadius@dgCollisionCompound@@MEBANXZ 0000000180063510 f   physics:dgCollisionCompound.obj
 0001:00062520       ?GetBoxMaxRadius@dgCollisionCompound@@MEBANXZ 0000000180063520 f   physics:dgCollisionCompound.obj
 0001:00062530       ?CalculateVolumeIntegral@dgCollisionCompound@@MEBA?AVdgVector@@AEBVdgMatrix@@P6AIPEAX10AEAVdgPlane@@@ZQEAX@Z 0000000180063530 f   physics:dgCollisionCompound.obj
 0001:000626a0       ?CalculateInertia@dgCollisionCompound@@MEBAXAEAVdgVector@@0@Z 00000001800636a0 f   physics:dgCollisionCompound.obj
 0001:00062900       ?RemoveCollision@dgCollisionCompound@@QEAAXPEAVdgNodeBase@1@@Z 0000000180063900 f   physics:dgCollisionCompound.obj
 0001:00062b20       ?SupportVertex@dgCollisionCompound@@MEBA?AVdgVector@@AEBV2@@Z 0000000180063b20 f   physics:dgCollisionCompound.obj
 0001:00063020       ?GetCollisionInfo@dgCollisionCompound@@MEBAXPEAVdgCollisionInfo@@@Z 0000000180064020 f   physics:dgCollisionCompound.obj
 0001:000630b0       ?Serialize@dgCollisionCompound@@MEBAXP6AXPEAXPEBX_K@ZQEAX@Z 00000001800640b0 f   physics:dgCollisionCompound.obj
 0001:00063240       ?BuildTopDownTree@dgCollisionCompound@@IEAAPEAVdgNodeBase@1@HQEAPEAV21@AEAH@Z 0000000180064240 f   physics:dgCollisionCompound.obj
 0001:00063780       ?BuildTree@dgCollisionCompound@@IEAAPEAVdgNodeBase@1@HQEBQEAVdgConvexCollision@@@Z 0000000180064780 f   physics:dgCollisionCompound.obj
 0001:00063880       ?CalculateContactsToSingle@dgCollisionCompound@@IEBAHQEAUdgPair@dgCollidingPairCollector@@AEAVdgCollisionParamProxi@@H@Z 0000000180064880 f   physics:dgCollisionCompound.obj
 0001:00063e30       ?CalculateContactsToCompound@dgCollisionCompound@@IEBAHQEAUdgPair@dgCollidingPairCollector@@AEAVdgCollisionParamProxi@@H@Z 0000000180064e30 f   physics:dgCollisionCompound.obj
 0001:00064350       ?CalculateContactsToCollisionTree@dgCollisionCompound@@IEBAHQEAUdgPair@dgCollidingPairCollector@@AEAVdgCollisionParamProxi@@H@Z 0000000180065350 f   physics:dgCollisionCompound.obj
 0001:00064e90       ?CalculateContactsToHightField@dgCollisionCompound@@IEBAHQEAUdgPair@dgCollidingPairCollector@@AEAVdgCollisionParamProxi@@H@Z 0000000180065e90 f   physics:dgCollisionCompound.obj
 0001:000656c0       ?CalculateContactsBruteForce@dgCollisionCompound@@IEBAHQEAUdgPair@dgCollidingPairCollector@@AEAVdgCollisionParamProxi@@H@Z 00000001800666c0 f   physics:dgCollisionCompound.obj
 0001:00065860       ?ClosestDitance@dgCollisionCompound@@IEBAHQEAVdgBody@@AEAVdgTriplex@@011@Z 0000000180066860 f   physics:dgCollisionCompound.obj
 0001:00065da0       ??_EdgCollisionUserMesh@@UEAAPEAXI@Z 0000000180066da0 f i  CIL library: CIL module
 0001:00065da0       ??_GdgCollisionUserMesh@@UEAAPEAXI@Z 0000000180066da0 f i physics:dgCollisionUserMesh.obj
 0001:00065de0       ??1dgCollisionUserMesh@@UEAA@XZ 0000000180066de0 f   physics:dgCollisionUserMesh.obj
 0001:00065e60       ?GetVertexListIndexList@dgCollisionUserMesh@@UEBAXAEBVdgVector@@0AEAVdgGetVertexListIndexList@dgCollisionMesh@@@Z 0000000180066e60 f   physics:dgCollisionUserMesh.obj
 0001:00065ed0       ?GetCollisionInfo@dgCollisionUserMesh@@EEBAXPEAVdgCollisionInfo@@@Z 0000000180066ed0 f   physics:dgCollisionUserMesh.obj
 0001:00065f60       ?RayCast@dgCollisionUserMesh@@EEBANAEBVdgVector@@0AEAVdgContactPoint@@P6AIQEBVdgBody@@QEBVdgCollision@@QEAX@Z24@Z 0000000180066f60 f   physics:dgCollisionUserMesh.obj
 0001:00066100       ?GetCollidingFaces@dgCollisionUserMesh@@EEBAXQEAVdgPolygonMeshDesc@@@Z 0000000180067100 f   physics:dgCollisionUserMesh.obj
 0001:00066140       ?GetBreakImpulse@dgCollisionConvexHull@@EEBANXZ 0000000180067140 f i physics:dgCollisionConvexHull.obj
 0001:00066140       ?GetHeight@dgCollisionCapsule@@QEBANXZ 0000000180067140 f i physics:dgMinkowskiConv.obj
 0001:00066150       ?GetShapeClipSize@dgContactSolver@@AEBANQEAVdgCollision@@@Z 0000000180067150 f i physics:dgMinkowskiConv.obj
 0001:00066190       ?CheckTetraHedronVolume@dgContactSolver@@AEBA_NXZ 0000000180067190 f i physics:dgMinkowskiConv.obj
 0001:000662b0       ?CheckTetraHedronVolumeLarge@dgContactSolver@@AEBA_NXZ 00000001800672b0 f i physics:dgMinkowskiConv.obj
 0001:000663b0       ?CalcSupportVertex@dgContactSolver@@AEAAXAEBVdgVector@@H@Z 00000001800673b0 f i physics:dgMinkowskiConv.obj
 0001:00066630       ?CalcSupportVertexLarge@dgContactSolver@@AEAAXAEBVdgVector@@H@Z 0000000180067630 f i physics:dgMinkowskiConv.obj
 0001:00066950       ?CalculateClosestPoints@dgContactSolver@@AEAAHXZ 0000000180067950 f i physics:dgMinkowskiConv.obj
 0001:00067b30       ?CalculateConvexShapeIntersectionLine@dgContactSolver@@AEBAHAEBVdgMatrix@@AEBVdgVector@@INHQEAV3@H2QEAVdgContactPoint@@@Z 0000000180068b30 f i physics:dgMinkowskiConv.obj
 0001:00068130       ?ReduceContacts@dgContactSolver@@AEBAPEAUdgPerimenterEdge@1@PEAU21@H@Z 0000000180069130 f i physics:dgMinkowskiConv.obj
 0001:00068460       ?CalculateContactAlternateMethod@dgContactSolver@@AEAAHQEAVdgMinkFace@1@HQEAVdgContactPoint@@H@Z 0000000180069460 f i physics:dgMinkowskiConv.obj
 0001:00069f40       ?CalculateConvexShapeIntersection@dgContactSolver@@AEBAHAEBVdgMatrix@@AEBVdgVector@@INHQEAV3@H2QEAVdgContactPoint@@H@Z 000000018006af40 f i physics:dgMinkowskiConv.obj
 0001:0006a830       ?CalculateContacts@dgContactSolver@@AEAAHQEAVdgMinkFace@1@HQEAVdgContactPoint@@H@Z 000000018006b830 f i physics:dgMinkowskiConv.obj
 0001:0006c410       ?CalculateContactsContinues@dgContactSolver@@AEAAHHQEAVdgContactPoint@@HPEBVdgVector@@1N@Z 000000018006d410 f i physics:dgMinkowskiConv.obj
 0001:0006c6a0       ?ReduceLine@dgContactSolver@@AEAA?AVdgVector@@AEBV2@@Z 000000018006d6a0 f i physics:dgMinkowskiConv.obj
 0001:0006c8a0       ?ReduceLineLarge@dgContactSolver@@AEAA?AVdgBigVector@@AEBV2@@Z 000000018006d8a0 f i physics:dgMinkowskiConv.obj
 0001:0006cac0       ?ReduceTriangle@dgContactSolver@@AEAA?AVdgVector@@AEBV2@@Z 000000018006dac0 f i physics:dgMinkowskiConv.obj
 0001:0006d1f0       ?ReduceTriangleLarge@dgContactSolver@@AEAA?AVdgBigVector@@AEBV2@@Z 000000018006e1f0 f i physics:dgMinkowskiConv.obj
 0001:0006d8a0       ?ReduceTetrahedrum@dgContactSolver@@AEAA?AVdgVector@@AEBV2@@Z 000000018006e8a0 f i physics:dgMinkowskiConv.obj
 0001:0006dd80       ?ReduceTetrahedrumLarge@dgContactSolver@@AEAA?AVdgBigVector@@AEBV2@@Z 000000018006ed80 f i physics:dgMinkowskiConv.obj
 0001:0006e230       ?UpdateSeparatingPlaneFallbackSolution@dgContactSolver@@AEAA?AW4dgMinkReturnCode@1@AEAPEAVdgMinkFace@1@AEBVdgVector@@@Z 000000018006f230 f i physics:dgMinkowskiConv.obj
 0001:0006ff10       ?UpdateSeparatingPlaneFallbackSolutionLarge@dgContactSolver@@AEAA?AW4dgMinkReturnCode@1@AEAPEAVdgMinkFace@1@AEBVdgBigVector@@@Z 0000000180070f10 f i physics:dgMinkowskiConv.obj
 0001:00071ac0       ?UpdateSeparatingPlane@dgContactSolver@@AEAA?AW4dgMinkReturnCode@1@AEAPEAVdgMinkFace@1@AEBVdgVector@@@Z 0000000180072ac0 f i physics:dgMinkowskiConv.obj
 0001:000725d0       ?UpdateSeparatingPlaneLarge@dgContactSolver@@AEAA?AW4dgMinkReturnCode@1@AEAPEAVdgMinkFace@1@AEBVdgBigVector@@@Z 00000001800735d0 f i physics:dgMinkowskiConv.obj
 0001:00073120       ?CalcSeparatingPlane@dgContactSolver@@AEAA?AW4dgMinkReturnCode@1@AEAPEAVdgMinkFace@1@AEBVdgVector@@@Z 0000000180074120 f i physics:dgMinkowskiConv.obj
 0001:00073950       ?CalcSeparatingPlaneLarge@dgContactSolver@@AEAA?AW4dgMinkReturnCode@1@AEAPEAVdgMinkFace@1@AEBVdgBigVector@@@Z 0000000180074950 f i physics:dgMinkowskiConv.obj
 0001:000740c0       ?CalcFacePlane@dgContactSolver@@AEAA_NQEAVdgMinkFace@1@@Z 00000001800750c0 f i physics:dgMinkowskiConv.obj
 0001:00074250       ?CalcFacePlaneLarge@dgContactSolver@@AEAA_NQEAVdgMinkFace@1@@Z 0000000180075250 f i physics:dgMinkowskiConv.obj
 0001:000743f0       ?CalculateClipPlane@dgContactSolver@@AEAAPEAVdgMinkFace@1@XZ 00000001800753f0 f i physics:dgMinkowskiConv.obj
 0001:00075270       ?CalculateClipPlaneLarge@dgContactSolver@@AEAAPEAVdgMinkFace@1@XZ 0000000180076270 f i physics:dgMinkowskiConv.obj
 0001:000761b0       ??0dgContactSolver@@QEAA@AEAVdgCollisionParamProxi@@@Z 00000001800771b0 f i physics:dgMinkowskiConv.obj
 0001:00076250       ?HullHullContacts@dgContactSolver@@QEAAHH@Z 0000000180077250 f i physics:dgMinkowskiConv.obj
 0001:00076610       ?HullHullContactsLarge@dgContactSolver@@QEAAHH@Z 0000000180077610 f i physics:dgMinkowskiConv.obj
 0001:00076a40       ?HullHullContinueContacts@dgContactSolver@@QEAAHAEANQEAVdgContactPoint@@HHH@Z 0000000180077a40 f i physics:dgMinkowskiConv.obj
 0001:00077540       ?CalculateVelocities@dgContactSolver@@QEAAXN@Z 0000000180078540 f i physics:dgMinkowskiConv.obj
 0001:000776c0       ?InitConvexCollision@dgWorld@@CAXXZ 00000001800786c0 f   physics:dgMinkowskiConv.obj
 0001:00078480       ?SphereSphereCollision@dgWorld@@AEBAHAEBVdgVector@@N0NAEAVdgCollisionParamProxi@@@Z 0000000180079480 f   physics:dgMinkowskiConv.obj
 0001:00078750       ?CalculateSphereToSphereContacts@dgWorld@@AEBAHAEAVdgCollisionParamProxi@@@Z 0000000180079750 f   physics:dgMinkowskiConv.obj
 0001:000787a0       ?CalculateCapsuleToSphereContacts@dgWorld@@AEBAHAEAVdgCollisionParamProxi@@@Z 00000001800797a0 f   physics:dgMinkowskiConv.obj
 0001:00078a90       ?CalculateCapsuleToCapsuleContacts@dgWorld@@AEBAHAEAVdgCollisionParamProxi@@@Z 0000000180079a90 f   physics:dgMinkowskiConv.obj
 0001:00079a20       ?CalculateBoxToSphereContacts@dgWorld@@AEBAHAEAVdgCollisionParamProxi@@@Z 000000018007aa20 f   physics:dgMinkowskiConv.obj
 0001:0007ba40       ?FilterPolygonEdgeContacts@dgWorld@@AEBAHHQEAVdgContactPoint@@@Z 000000018007ca40 f   physics:dgMinkowskiConv.obj
 0001:0007bdf0       ?ClosestPoint@dgWorld@@AEBAHAEAVdgCollisionParamProxi@@@Z 000000018007cdf0 f   physics:dgMinkowskiConv.obj
 0001:0007c060       ?CalculateHullToHullContacts@dgWorld@@AEBAHAEAVdgCollisionParamProxi@@@Z 000000018007d060 f   physics:dgMinkowskiConv.obj
 0001:0007c2e0       ?CalculateConvexToConvexContacts@dgWorld@@AEBAHAEAVdgCollisionParamProxi@@@Z 000000018007d2e0 f   physics:dgMinkowskiConv.obj
 0001:0007cd70       ?CalculatePolySoupToSphereContactsDescrete@dgWorld@@AEBAHAEAVdgCollisionParamProxi@@@Z 000000018007dd70 f   physics:dgMinkowskiConv.obj
 0001:0007d4a0       ?CalculatePolySoupToElipseContactsDescrete@dgWorld@@AEBAHAEAVdgCollisionParamProxi@@@Z 000000018007e4a0 f   physics:dgMinkowskiConv.obj
 0001:0007ddd0       ?CalculatePolySoupToSphereContactsContinue@dgWorld@@AEBAHAEAVdgCollisionParamProxi@@@Z 000000018007edd0 f   physics:dgMinkowskiConv.obj
 0001:0007e500       ?CalculatePolySoupToHullContactsDescrete@dgWorld@@AEBAHAEAVdgCollisionParamProxi@@@Z 000000018007f500 f   physics:dgMinkowskiConv.obj
 0001:0007e8c0       ?CalculateConvexToNonConvexContactsContinue@dgWorld@@AEBAHAEAVdgCollisionParamProxi@@@Z 000000018007f8c0 f   physics:dgMinkowskiConv.obj
 0001:0007ee20       ?CalculateConvexToNonConvexContacts@dgWorld@@AEBAHAEAVdgCollisionParamProxi@@@Z 000000018007fe20 f   physics:dgMinkowskiConv.obj
 0001:0007f9a0       ?Pop@?$dgDownHeap@PEAVdgMinkFace@dgContactSolver@@N@@QEAAXXZ 00000001800809a0 f i physics:dgMinkowskiConv.obj
 0001:0007f9a0       ?Pop@?$dgDownHeap@PEAVdgEdge@@N@@QEAAXXZ 00000001800809a0 f i corelib:dgPolyhedra.obj
 0001:0007f9a0       ?Pop@?$dgDownHeap@VdgHeapNodePair@dgAABBTree@@N@@QEAAXXZ 00000001800809a0 f i corelib:dgAABBPolygonSoup.obj
 0001:0007f9a0       ?Pop@?$dgDownHeap@PEAVdgListNode@?$dgList@VdgConvexHull4dTetraherum@@@@N@@QEAAXXZ 00000001800809a0 f i corelib:dgConvexHull4d.obj
 0001:0007fa70       ?Push@?$dgDownHeap@PEAVdgMinkFace@dgContactSolver@@N@@QEAAXAEAPEAVdgMinkFace@dgContactSolver@@N@Z 0000000180080a70 f i physics:dgMinkowskiConv.obj
 0001:0007fae0       ?Pop@?$dgUpHeap@PEAUdgPerimenterEdge@dgContactSolver@@N@@QEAAXXZ 0000000180080ae0 f i physics:dgMinkowskiConv.obj
 0001:0007fbb0       ?__malloc__@dgGlobalAllocator@@SAPEAXI@Z 0000000180080bb0 f i corelib:dgMemory.obj
 0001:0007fbc0       ?DefaultFreeMemory@Newton@@SAXPEAXH@Z 0000000180080bc0 f i NewtonClass.obj
 0001:0007fbc0       ?__free__@dgGlobalAllocator@@SAXPEAXI@Z 0000000180080bc0 f i corelib:dgMemory.obj
 0001:0007fbd0       ??1dgMemoryAllocator@@QEAA@XZ 0000000180080bd0 f   corelib:dgMemory.obj
 0001:0007fc70       ?Malloc@dgMemoryAllocator@@QEAAPEAXH@Z 0000000180080c70 f   corelib:dgMemory.obj
 0001:0007fe00       ?Free@dgMemoryAllocator@@QEAAXPEAX@Z 0000000180080e00 f   corelib:dgMemory.obj
 0001:0007ff50       ?RemoveAll@?$dgList@PEAVdgTreeNode@?$dgTree@VdgEdge@@_J@@@@QEAAXXZ 0000000180080f50 f i physics:dgMeshEffect2.obj
 0001:0007ff50       ?RemoveAll@?$dgList@PEAVdgMemoryAllocator@@@@QEAAXXZ 0000000180080f50 f i corelib:dgMemory.obj
 0001:0007ff50       ?RemoveAll@?$dgList@PEAVdgListNode@?$dgList@V?$dgGraphNode@VdgDebriNodeInfo@dgCollisionCompoundBreakable@@VdgSharedNodeMesh@2@@@@@@@QEAAXXZ 0000000180080f50 f i physics:dgCollisionCompoundBreakable.obj
 0001:0007ffd0       ??0dgThreads@@QEAA@XZ      0000000180080fd0 f   corelib:dgThreads.obj
 0001:00080080       ?CreateThreaded@dgThreads@@QEAAXH@Z 0000000180081080 f   corelib:dgThreads.obj
 0001:00080180       ?DestroydgThreads@dgThreads@@QEAAXXZ 0000000180081180 f   corelib:dgThreads.obj
 0001:00080290       ?SubmitJob@dgThreads@@QEAAHQEAVdgWorkerThread@@@Z 0000000180081290 f   corelib:dgThreads.obj
 0001:00080340       ?ThreadExecute@dgThreads@@CAIPEAX@Z 0000000180081340 f   corelib:dgThreads.obj
 0001:00080360       ?DoWork@dgThreads@@AEAAXH@Z 0000000180081360 f   corelib:dgThreads.obj
 0001:000804c0       ??0dgMatrix@@QEAA@AEBVdgQuaternion@@AEBVdgVector@@@Z 00000001800814c0 f   corelib:dgMatrix.obj
 0001:000806c0       ??DdgMatrix@@QEBA?AV0@AEBV0@@Z 00000001800816c0 f   corelib:dgMatrix.obj
 0001:00080bc0       ?TransformTriplex@dgMatrix@@QEBAXQEAXHQEBXHH@Z 0000000180081bc0 f   corelib:dgMatrix.obj
 0001:00080f40       ?Symetric3by3Inverse@dgMatrix@@QEBA?AV1@XZ 0000000180081f40 f   corelib:dgMatrix.obj
 0001:000811f0       ?CalcPitchYawRoll@dgMatrix@@QEBA?AVdgVector@@XZ 00000001800821f0 f   corelib:dgMatrix.obj
 0001:00086ad0       ?Update@dgPolyhedraDescriptor@@QEAAXAEBVdgPolyhedra@@@Z 0000000180087ad0 f   corelib:dgPolyhedra.obj
 0001:00086d90       ??_EdgPolyhedra@@UEAAPEAXI@Z 0000000180087d90 f i  CIL library: CIL module
 0001:00086d90       ??_GdgPolySoupFilterAllocator@@UEAAPEAXI@Z 0000000180087d90 f i corelib:dgPolygonSoupBuilder.obj
 0001:00086d90       ??_GdgPolyhedra@@UEAAPEAXI@Z 0000000180087d90 f i corelib:dgPolyhedra.obj
 0001:00086d90       ??_EdgPolySoupFilterAllocator@@UEAAPEAXI@Z 0000000180087d90 f i  CIL library: CIL module
 0001:00086de0       ??0dgPolyhedra@@QEAA@AEBV0@@Z 0000000180087de0 f   corelib:dgPolyhedra.obj
 0001:00087050       ?AddFace@dgPolyhedra@@QEAAPEAVdgEdge@@HQEBHQEB_J@Z 0000000180088050 f   corelib:dgPolyhedra.obj
 0001:000874a0       ?DeleteFace@dgPolyhedra@@QEAAXQEAVdgEdge@@@Z 00000001800884a0 f   corelib:dgPolyhedra.obj
 0001:00087530       ?DeleteEdge@dgPolyhedra@@QEAAXQEAVdgEdge@@@Z 0000000180088530 f   corelib:dgPolyhedra.obj
 0001:000875f0       ?CollapseEdge@dgPolyhedra@@QEAAPEAVdgEdge@@QEAV2@@Z 00000001800885f0 f   corelib:dgPolyhedra.obj
 0001:00087a70       ?ChangeEdgeIncidentVertex@dgPolyhedra@@QEAAXQEAVdgEdge@@H@Z 0000000180088a70 f   corelib:dgPolyhedra.obj
 0001:00087c30       ?FlipEdge@dgPolyhedra@@QEAA_NQEAVdgEdge@@@Z 0000000180088c30 f   corelib:dgPolyhedra.obj
 0001:00087e70       ?SpliteEdge@dgPolyhedra@@QEAAPEAVdgEdge@@HQEAV2@@Z 0000000180088e70 f   corelib:dgPolyhedra.obj
 0001:000880e0       ?CalculateSphere@dgPolyhedra@@QEBA?AVdgSphere@@QEBNHQEBVdgMatrix@@@Z 00000001800890e0 f   corelib:dgPolyhedra.obj
 0001:00088e10       ?FaceNormal@dgPolyhedra@@QEBA?AVdgVector@@QEAVdgEdge@@QEBNH@Z 0000000180089e10 f   corelib:dgPolyhedra.obj
 0001:00088e70       ?GetFaceCount@dgPolyhedra@@QEBAHXZ 0000000180089e70 f   corelib:dgPolyhedra.obj
 0001:00088f30       ?DeleteDegenerateFaces@dgPolyhedra@@QEAAXQEBNHN@Z 0000000180089f30 f   corelib:dgPolyhedra.obj
 0001:00089140       ?GetConectedSurface@dgPolyhedra@@QEBA_NAEAV1@@Z 000000018008a140 f   corelib:dgPolyhedra.obj
 0001:00089330       ?Optimize@dgPolyhedra@@QEAAXQEBNHN@Z 000000018008a330 f   corelib:dgPolyhedra.obj
 0001:0008a230       ?Triangulate@dgPolyhedra@@QEAAXQEBNHQEAV1@@Z 000000018008b230 f   corelib:dgPolyhedra.obj
 0001:0008a570       ?ConvexPartition@dgPolyhedra@@QEAAXQEBNHQEAV1@@Z 000000018008b570 f   corelib:dgPolyhedra.obj
 0001:0008a600       ?Insert@?$dgTree@VdgEdge@@_J@@QEAAPEAVdgTreeNode@1@AEBVdgEdge@@_JAEA_N@Z 000000018008b600 f i corelib:dgPolyhedra.obj
 0001:0008a720       ?Addtop@?$dgList@UEDGE_HANDLE@InternalPolyhedra@@@@QEAAPEAVdgListNode@1@AEBUEDGE_HANDLE@InternalPolyhedra@@@Z 000000018008b720 f i corelib:dgPolyhedra.obj
 0001:0008a820       ?Insert@?$dgTree@VdgEdge@@_J@@QEAAPEAVdgTreeNode@1@QEAV21@_J@Z 000000018008b820 f i corelib:dgPolyhedra.obj
 0001:0008a8c0       ?InsertFixup@dgRedBackNode@@QEAAXQEAPEAV1@@Z 000000018008b8c0 f   corelib:dgTree.obj
 0001:0008aad0       ?RemoveFixup@dgRedBackNode@@QEAAXQEAV1@QEAPEAV1@@Z 000000018008bad0 f   corelib:dgTree.obj
 0001:0008ae10       ?Unlink@dgRedBackNode@@QEAAXQEAPEAV1@@Z 000000018008be10 f   corelib:dgTree.obj
 0001:0008af40       ?RemoveAllLow@dgRedBackNode@@QEAAXXZ 000000018008bf40 f   corelib:dgTree.obj
 0001:0008af80       ?GetMinMax@@YAXAEAVdgVector@@0QEBNHH@Z 000000018008bf80 f   corelib:dgTypes.obj
 0001:0008c590       ?dgVertexListToIndexList@@YAHQEANHHHHQEAHN@Z 000000018008d590 f   corelib:dgTypes.obj
 0001:0008c7d0       ??0FastRayTest@@QEAA@AEBVdgVector@@0@Z 000000018008d7d0 f   corelib:dgIntersections.obj
 0001:0008cb10       ?BoxTest@FastRayTest@@QEBAHAEBVdgVector@@0@Z 000000018008db10 f   corelib:dgIntersections.obj
 0001:0008cbb0       ?PolygonIntersect@FastRayTest@@QEBANAEBVdgVector@@QEBNHQEBHH@Z 000000018008dbb0 f   corelib:dgIntersections.obj
 0001:0008ce80       ?dgRayBoxClip@@YA_NAEAVdgVector@@0AEBV1@1@Z 000000018008de80 f   corelib:dgIntersections.obj
 0001:0008d1b0       ?dgRayToRayDistance@@YAXAEBVdgVector@@000AEAV1@1@Z 000000018008e1b0 f   corelib:dgIntersections.obj
 0001:0008d550       ?dgPointToTriangleDistance@@YA?AVdgBigVector@@AEBV1@000@Z 000000018008e550 f   corelib:dgIntersections.obj
 0001:0008d550       ?dgPointToTriangleDistance@@YA?AVdgVector@@AEBV1@000@Z 000000018008e550 f   corelib:dgIntersections.obj
 0001:0008da70       ?AddCGFace@dgPolyhedraMassProperties@@QEAAXHPEBVdgVector@@@Z 000000018008ea70 f   corelib:dgPolyhedraMassProperties.obj
 0001:0008dcc0       ?AddInertiaFace@dgPolyhedraMassProperties@@QEAAXHPEBN@Z 000000018008ecc0 f   corelib:dgPolyhedraMassProperties.obj
 0001:0008e070       ?MassProperties@dgPolyhedraMassProperties@@QEAANAEAVdgVector@@00@Z 000000018008f070 f   corelib:dgPolyhedraMassProperties.obj
 0001:0008e1b0       ?Evalue@dgConvexHull3DFace@@AEBANQEBVdgBigVector@@AEBV2@@Z 000000018008f1b0 f   corelib:dgConvexHull3d.obj
 0001:0008e8f0       ?GetPlaneEquation@dgConvexHull3DFace@@AEBA?AVdgBigPlane@@QEBVdgBigVector@@@Z 000000018008f8f0 f   corelib:dgConvexHull3d.obj
 0001:0008ea90       ??_GdgConvexHull3d@@UEAAPEAXI@Z 000000018008fa90 f i corelib:dgConvexHull3d.obj
 0001:0008ea90       ??_EdgConvexHull3d@@UEAAPEAXI@Z 000000018008fa90 f i  CIL library: CIL module
 0001:0008eb00       ??0dgConvexHull3d@@QEAA@QEAVdgMemoryAllocator@@QEBNHHN@Z 000000018008fb00 f   corelib:dgConvexHull3d.obj
 0001:0008edf0       ?ConvexCompareVertex@dgConvexHull3d@@KAHQEBVdgBigVector@@0QEAX@Z 000000018008fdf0 f   corelib:dgConvexHull3d.obj
 0001:0008ee30       ?BuildTree@dgConvexHull3d@@IEBAPEAVdgAABBPointTree3d@@QEAV2@QEAVdgBigVector@@HHQEAPEADAEAH@Z 000000018008fe30 f   corelib:dgConvexHull3d.obj
 0001:0008f860       ?InitVertexArray@dgConvexHull3d@@MEAAHQEAVdgBigVector@@0QEBNHHQEAXH@Z 0000000180090860 f   corelib:dgConvexHull3d.obj
 0001:0008ff80       ?TetrahedrumVolume@dgConvexHull3d@@IEBANAEBVdgBigVector@@000@Z 0000000180090f80 f   corelib:dgConvexHull3d.obj
 0001:00090080       ?SupportVertex@dgConvexHull3d@@IEBAHQEAPEAVdgAABBPointTree3d@@QEBVdgBigVector@@AEBV3@@Z 0000000180091080 f   corelib:dgConvexHull3d.obj
 0001:00090480       ?AddFace@dgConvexHull3d@@MEAAPEAVdgListNode@?$dgList@VdgConvexHull3DFace@@@@HHH@Z 0000000180091480 f   corelib:dgConvexHull3d.obj
 0001:000904c0       ?DeleteFace@dgConvexHull3d@@MEAAXQEAVdgListNode@?$dgList@VdgConvexHull3DFace@@@@@Z 00000001800914c0 f   corelib:dgConvexHull3d.obj
 0001:00090520       ?CalculateConvexHull@dgConvexHull3d@@IEAAXPEAVdgAABBPointTree3d@@QEAVdgBigVector@@1HN@Z 0000000180091520 f   corelib:dgConvexHull3d.obj
 0001:00090dc0       ?Append@?$dgList@VdgConvexHull3DFace@@@@QEAAPEAVdgListNode@1@XZ 0000000180091dc0 f i corelib:dgConvexHull3d.obj
 0001:00090e80       ??$dgSort@VdgBigVector@@@@YAXQEAVdgBigVector@@HP6AHQEBV0@1QEAX@Z2@Z 0000000180091e80 f i corelib:dgConvexHull3d.obj
 0001:00091190       ?RemoveAll@?$dgList@VdgConvexHull3DFace@@@@QEAAXXZ 0000000180092190 f i corelib:dgConvexHull3d.obj
 0001:00091210       ??0dgDelaunayTetrahedralization@@QEAA@QEAVdgMemoryAllocator@@QEBNHHN@Z 0000000180092210 f   corelib:dgDelaunayTetrahedralization.obj
 0001:00091600       ?AddVertex@dgDelaunayTetrahedralization@@UEAAHAEBVdgBigVector@@@Z 0000000180092600 f   corelib:dgDelaunayTetrahedralization.obj
 0001:00091670       ?RemoveUpperHull@dgDelaunayTetrahedralization@@QEAAXXZ 0000000180092670 f   corelib:dgDelaunayTetrahedralization.obj
 0001:000916f0       ?GetTetraVolume@dgDelaunayTetrahedralization@@IEBANQEBVdgConvexHull4dTetraherum@@@Z 00000001800926f0 f   corelib:dgDelaunayTetrahedralization.obj
 0001:00091e50       ??0dgTetrahedrumPlane@dgConvexHull4dTetraherum@@QEAA@AEBVdgBigVector@@000@Z 0000000180092e50 f   corelib:dgConvexHull4d.obj
 0001:00092060       ?Evalue@dgConvexHull4dTetraherum@@QEBANQEBVdgHullVector@@AEBVdgBigVector@@@Z 0000000180093060 f   corelib:dgConvexHull4d.obj
 0001:00092960       ??_EdgConvexHull4d@@UEAAPEAXI@Z 0000000180093960 f i  CIL library: CIL module
 0001:00092960       ??_GdgConvexHull4d@@UEAAPEAXI@Z 0000000180093960 f i corelib:dgConvexHull4d.obj
 0001:00092960       ??_EdgDelaunayTetrahedralization@@UEAAPEAXI@Z 0000000180093960 f i  CIL library: CIL module
 0001:00092960       ??_GdgDelaunayTetrahedralization@@UEAAPEAXI@Z 0000000180093960 f i corelib:dgDelaunayTetrahedralization.obj
 0001:000929d0       ?BuildHull@dgConvexHull4d@@IEAAXQEAVdgMemoryAllocator@@QEBVdgBigVector@@HN@Z 00000001800939d0 f   corelib:dgConvexHull4d.obj
 0001:00092b40       ?TessellateTriangle@dgConvexHull3d@@IEBAXHAEBVdgVector@@00AEAHQEAVdgBigVector@@1@Z 0000000180093b40 f   corelib:dgConvexHull3d.obj
 0001:00092b40       ?TessellateTriangle@dgConvexHull4d@@IEBAXHAEBVdgVector@@00AEAHQEAVdgBigVector@@1@Z 0000000180093b40 f   corelib:dgConvexHull4d.obj
 0001:00093160       ?BuildNormalList@dgConvexHull3d@@IEBAHQEAVdgBigVector@@@Z 0000000180094160 f   corelib:dgConvexHull3d.obj
 0001:00093160       ?BuildNormalList@dgConvexHull4d@@IEBAHQEAVdgBigVector@@@Z 0000000180094160 f   corelib:dgConvexHull4d.obj
 0001:000934b0       ?SupportVertex@dgConvexHull4d@@IEBAHQEAPEAVdgAABBPointTree4d@@QEBVdgHullVector@@AEBVdgBigVector@@@Z 00000001800944b0 f   corelib:dgConvexHull4d.obj
 0001:00093920       ?ConvexCompareVertex@dgConvexHull4d@@KAHQEBVdgHullVector@@0QEAX@Z 0000000180094920 f   corelib:dgConvexHull4d.obj
 0001:00093960       ?BuildTree@dgConvexHull4d@@IEBAPEAVdgAABBPointTree4d@@QEAV2@QEAVdgHullVector@@HHQEAPEADAEAH@Z 0000000180094960 f   corelib:dgConvexHull4d.obj
 0001:000943f0       ?InitVertexArray@dgConvexHull4d@@MEAAHQEAVdgHullVector@@QEBVdgBigVector@@HQEAXH@Z 00000001800953f0 f   corelib:dgConvexHull4d.obj
 0001:00094c00       ?AddFace@dgConvexHull4d@@MEAAPEAVdgListNode@?$dgList@VdgConvexHull4dTetraherum@@@@HHHH@Z 0000000180095c00 f   corelib:dgConvexHull4d.obj
 0001:00094cc0       ?DeleteFace@dgConvexHull4d@@MEAAXQEAVdgListNode@?$dgList@VdgConvexHull4dTetraherum@@@@@Z 0000000180095cc0 f   corelib:dgConvexHull4d.obj
 0001:00094d20       ?LinkSibling@dgConvexHull4d@@IEBAXPEAVdgListNode@?$dgList@VdgConvexHull4dTetraherum@@@@0@Z 0000000180095d20 f   corelib:dgConvexHull4d.obj
 0001:00094de0       ?InsertNewVertex@dgConvexHull4d@@IEAAXHQEAVdgListNode@?$dgList@VdgConvexHull4dTetraherum@@@@AEAV?$dgList@PEAVdgListNode@?$dgList@VdgConvexHull4dTetraherum@@@@@@1@Z 0000000180095de0 f   corelib:dgConvexHull4d.obj
 0001:00095490       ?CalculateConvexHull@dgConvexHull4d@@IEAAXPEAVdgAABBPointTree4d@@QEAVdgHullVector@@HN@Z 0000000180096490 f   corelib:dgConvexHull4d.obj
 0001:00095a50       ?FindFacingNode@dgConvexHull4d@@IEAAPEAVdgListNode@?$dgList@VdgConvexHull4dTetraherum@@@@AEBVdgBigVector@@@Z 0000000180096a50 f   corelib:dgConvexHull4d.obj
 0001:00095e70       ?AddVertex@dgConvexHull4d@@MEAAHAEBVdgBigVector@@@Z 0000000180096e70 f   corelib:dgConvexHull4d.obj
 0001:00096090       ?CrossProduct4@?$dgTemplateVector@N@@QEBA?AV1@AEBV1@0@Z 0000000180097090 f i corelib:dgConvexHull4d.obj
 0001:00096290       ?Append@?$dgList@VdgConvexHull4dTetraherum@@@@QEAAPEAVdgListNode@1@XZ 0000000180097290 f i corelib:dgConvexHull4d.obj
 0001:00096330       ??$dgSort@VdgHullVector@@@@YAXQEAVdgHullVector@@HP6AHQEBV0@1QEAX@Z2@Z 0000000180097330 f i corelib:dgConvexHull4d.obj
 0001:000966e0       ?RemoveAll@?$dgList@VdgConvexHull4dTetraherum@@@@QEAAXXZ 00000001800976e0 f i corelib:dgConvexHull4d.obj
 0001:00096760       ??_EdgPolygonSoupDatabase@@MEAAPEAXI@Z 0000000180097760 f i  CIL library: CIL module
 0001:00096760       ??_GdgPolygonSoupDatabase@@MEAAPEAXI@Z 0000000180097760 f i corelib:dgAABBPolygonSoup.obj
 0001:000967c0       ??0dgConstructionTree@dgAABBTree@@QEAA@QEAV01@0@Z 00000001800977c0 f i corelib:dgAABBPolygonSoup.obj
 0001:000968a0       ?CalcExtends@dgAABBTree@@QEAAXQEAVdgTriplex@@HQEBH@Z 00000001800978a0 f i corelib:dgAABBPolygonSoup.obj
 0001:00096c10       ?BuildTree@dgAABBTree@@QEAAHPEAVdgConstructionTree@1@QEAV1@1QEAVdgTriplex@@AEAH@Z 0000000180097c10 f i corelib:dgAABBPolygonSoup.obj
 0001:00096d80       ?BuildBottomUp@dgAABBTree@@QEAAHQEAVdgMemoryAllocator@@HQEAV1@QEAVdgTriplex@@AEAH@Z 0000000180097d80 f i corelib:dgAABBPolygonSoup.obj
 0001:00097630       ?BuildTree@dgAABBTree@@QEAAPEAVdgConstructionTree@1@QEAVdgMemoryAllocator@@HHQEAV1@QEBVdgTriplex@@@Z 0000000180098630 f i corelib:dgAABBPolygonSoup.obj
 0001:00097860       ?BuildTopDown@dgAABBTree@@QEAAHQEAVdgMemoryAllocator@@HQEAV1@QEAVdgTriplex@@AEAH@Z 0000000180098860 f i corelib:dgAABBPolygonSoup.obj
 0001:00097990       ?ForAllSectorsSimd@dgAABBTree@@QEBAXQEBHQEBNAEBVdgVector@@2P6A?AW4dgIntersectStatus@@PEAX1H0H@ZQEAX@Z 0000000180098990 f i corelib:dgAABBPolygonSoup.obj
 0001:00097ac0       ?ForAllSectors@dgAABBTree@@QEBAXQEBHQEBNAEBVdgVector@@2P6A?AW4dgIntersectStatus@@PEAX1H0H@ZQEAX@Z 0000000180098ac0 f i corelib:dgAABBPolygonSoup.obj
 0001:00097cb0       ?ForAllSectorsRayHit@dgAABBTree@@QEBAXAEBVFastRayTest@@PEBHPEBNP6ANPEAXQEBNHQEBHH@ZQEAX@Z 0000000180098cb0 f i corelib:dgAABBPolygonSoup.obj
 0001:00097f40       ?ForAllSectorsSupportVertex@dgAABBTree@@QEBA?AVdgVector@@AEBV2@QEBHQEBN@Z 0000000180098f40 f i corelib:dgAABBPolygonSoup.obj
 0001:00098a20       ?GetAxis@dgAABBTree@@AEBAHPEAPEAVdgConstructionTree@1@H@Z 0000000180099a20 f i corelib:dgAABBPolygonSoup.obj
 0001:00098bd0       ?CompareBox@dgAABBTree@@CAHQEBVdgConstructionTree@1@0QEAX@Z 0000000180099bd0 f i corelib:dgAABBPolygonSoup.obj
 0001:00099750       ??_GdgConstructionTree@dgAABBTree@@QEAAPEAXI@Z 000000018009a750 f i corelib:dgAABBPolygonSoup.obj
 0001:000997a0       ??_GdgAABBPolygonSoup@@MEAAPEAXI@Z 000000018009a7a0 f i corelib:dgAABBPolygonSoup.obj
 0001:000997a0       ??_EdgAABBPolygonSoup@@MEAAPEAXI@Z 000000018009a7a0 f i  CIL library: CIL module
 0001:000997d0       ??1dgAABBPolygonSoup@@MEAA@XZ 000000018009a7d0 f   corelib:dgAABBPolygonSoup.obj
 0001:00099860       ?ForAllSectorsSimd@dgAABBPolygonSoup@@MEBAXAEBVdgVector@@0P6A?AW4dgIntersectStatus@@PEAXQEBNHQEBHH@ZQEAX@Z 000000018009a860 f   corelib:dgAABBPolygonSoup.obj
 0001:000998a0       ?ForAllSectors@dgAABBPolygonSoup@@MEBAXAEBVdgVector@@0P6A?AW4dgIntersectStatus@@PEAXQEBNHQEBHH@ZQEAX@Z 000000018009a8a0 f   corelib:dgAABBPolygonSoup.obj
 0001:000998e0       ?ForAllSectorsSupportVectex@dgAABBPolygonSoup@@MEBA?AVdgVector@@AEBV2@@Z 000000018009a8e0 f   corelib:dgAABBPolygonSoup.obj
 0001:00099930       ?GetAABB@dgAABBPolygonSoup@@UEBAXAEAVdgVector@@0@Z 000000018009a930 f   corelib:dgAABBPolygonSoup.obj
 0001:00099a50       ?ForAllSectorsRayHit@dgAABBPolygonSoup@@MEBAXAEBVFastRayTest@@P6ANPEAXQEBNHQEBHH@ZQEAX@Z 000000018009aa50 f   corelib:dgAABBPolygonSoup.obj
 0001:00099a80       ?Serialize@dgAABBPolygonSoup@@UEBAXP6AXPEAXPEBX_K@ZQEAX@Z 000000018009aa80 f   corelib:dgAABBPolygonSoup.obj
 0001:00099b50       ?Deserialize@dgAABBPolygonSoup@@UEAAXP6AXPEAX0_K@ZQEAX@Z 000000018009ab50 f   corelib:dgAABBPolygonSoup.obj
 0001:00099d10       ?CalculateThisFaceEdgeNormals@dgAABBPolygonSoup@@CA?AW4dgIntersectStatus@@PEAXQEBNHQEBHH@Z 000000018009ad10 f   corelib:dgAABBPolygonSoup.obj
 0001:0009a0c0       ?CalculateAllFaceEdgeNormals@dgAABBPolygonSoup@@CA?AW4dgIntersectStatus@@PEAXQEBNHQEBHH@Z 000000018009b0c0 f   corelib:dgAABBPolygonSoup.obj
 0001:0009a660       ?CalculateFaceMaxSize@dgAABBPolygonSoup@@IEBANQEAVdgTriplex@@HQEBH@Z 000000018009b660 f   corelib:dgAABBPolygonSoup.obj
 0001:0009a9e0       ?Create@dgAABBPolygonSoup@@IEAAXAEBVdgPolygonSoupDatabaseBuilder@@_N@Z 000000018009b9e0 f   corelib:dgAABBPolygonSoup.obj
 0001:0009b070       ?Sort@?$dgDownHeap@VdgHeapNodePair@dgAABBTree@@N@@QEAAXXZ 000000018009c070 f i corelib:dgAABBPolygonSoup.obj
 0001:0009b290       ??$dgSortIndirect@VdgConstructionTree@dgAABBTree@@@@YAXQEAPEAVdgConstructionTree@dgAABBTree@@HP6AHQEBV01@1QEAX@Z2@Z 000000018009c290 f i corelib:dgAABBPolygonSoup.obj
 0001:0009b470       ?Resize@?$dgArray@VdgTriplex@@@@QEBAXH@Z 000000018009c470 f i corelib:dgAABBPolygonSoup.obj
 0001:0009b600       ?Resize@?$dgArray@H@@QEBAXH@Z 000000018009c600 f i corelib:dgAABBPolygonSoup.obj
 0001:0009b760       ?AddFilterFace@dgPolySoupFilterAllocator@@QEAAHIQEAH@Z 000000018009c760 f i corelib:dgPolygonSoupBuilder.obj
 0001:0009b860       ??1dgPolygonSoupDatabaseBuilder@@QEAA@XZ 000000018009c860 f   corelib:dgPolygonSoupBuilder.obj
 0001:0009b930       ?AddMesh@dgPolygonSoupDatabaseBuilder@@QEAAXQEBNHHHQEBH11AEBVdgMatrix@@@Z 000000018009c930 f   corelib:dgPolygonSoupBuilder.obj
 0001:0009bb90       ?EndAndOptimize@dgPolygonSoupDatabaseBuilder@@AEAAX_N@Z 000000018009cb90 f   corelib:dgPolygonSoupBuilder.obj
 0001:0009bda0       ?OptimizeByGroupID@dgPolygonSoupDatabaseBuilder@@AEAAXXZ 000000018009cda0 f   corelib:dgPolygonSoupBuilder.obj
 0001:0009c970       ?OptimizeByGroupID@dgPolygonSoupDatabaseBuilder@@AEAAXAEAV1@HH0@Z 000000018009d970 f   corelib:dgPolygonSoupBuilder.obj
 0001:0009d150       ?OptimizeByIndividualFaces@dgPolygonSoupDatabaseBuilder@@AEAAXXZ 000000018009e150 f   corelib:dgPolygonSoupBuilder.obj
 0001:0009d2c0       ?End@dgPolygonSoupDatabaseBuilder@@QEAAX_N@Z 000000018009e2c0 f   corelib:dgPolygonSoupBuilder.obj
 0001:0009d870       ?Optimize@dgPolygonSoupDatabaseBuilder@@AEAAX_N@Z 000000018009e870 f   corelib:dgPolygonSoupBuilder.obj
 0001:0009ec40       ?FilterFace@dgPolygonSoupDatabaseBuilder@@AEAAHHQEAH@Z 000000018009fc40 f   corelib:dgPolygonSoupBuilder.obj
 0001:0009f710       ?AddConvexFace@dgPolygonSoupDatabaseBuilder@@AEAAHHQEAH0@Z 00000001800a0710 f   corelib:dgPolygonSoupBuilder.obj
 0001:000a0480       ??0dgQuaternion@@QEAA@AEBVdgMatrix@@@Z 00000001800a1480 f   corelib:dgQuaternion.obj
 0001:000a0630       ??0dgQuaternion@@QEAA@AEBVdgVector@@N@Z 00000001800a1630 f   corelib:dgQuaternion.obj
 0001:000a06a0       ?Determinant3x3@@YANQEAY02$$CBNQEAN@Z 00000001800a16a0 f   corelib:dgSmallDeterminant.obj
 0001:000a0810       ?Determinant3x3@@YA?AVdgGoogol@@QEAY02$$CBV1@@Z 00000001800a1810 f   corelib:dgSmallDeterminant.obj
 0001:000a0cd0       ?Determinant4x4@@YANQEAY03$$CBNQEAN@Z 00000001800a1cd0 f   corelib:dgSmallDeterminant.obj
 0001:000a0e50       ?Determinant4x4@@YA?AVdgGoogol@@QEAY03$$CBV1@@Z 00000001800a1e50 f   corelib:dgSmallDeterminant.obj
 0001:000a11d0       ?InitFloatFloat@dgGoogol@@QEAAXN@Z 00000001800a21d0 f   corelib:dgGoogol.obj
 0001:000a12a0       ?PackFloat@dgGoogol@@AEAAXXZ 00000001800a22a0 f i corelib:dgGoogol.obj
 0001:000a1500       ?ScaleFloat@dgGoogol@@AEBA?AV1@N@Z 00000001800a2500 f i corelib:dgGoogol.obj
 0001:000a1ac0       ??HdgGoogol@@QEBA?AV0@AEBV0@@Z 00000001800a2ac0 f   corelib:dgGoogol.obj
 0001:000a1df0       free                       00000001800a2df0 f   LIBCMT:free.obj
 0001:000a1e30       malloc                     00000001800a2e30 f   LIBCMT:malloc.obj
 0001:000a1ee8       _CRT_INIT                  00000001800a2ee8 f   LIBCMT:dllcrt0.obj
 0001:000a213c       _DllMainCRTStartup         00000001800a313c f   LIBCMT:dllcrt0.obj
 0001:000a217c       sprintf                    00000001800a317c f   LIBCMT:sprintf.obj
 0001:000a2218       _purecall                  00000001800a3218 f   LIBCMT:purevirt.obj
 0001:000a2250       ??3@YAXPEAX@Z              00000001800a3250 f   LIBCMT:delete.obj
 0001:000a2258       __onexitinit               00000001800a3258 f   LIBCMT:onexit.obj
 0001:000a229c       _onexit                    00000001800a329c f   LIBCMT:onexit.obj
 0001:000a23a4       atexit                     00000001800a33a4 f   LIBCMT:onexit.obj
 0001:000a23bc       _endthreadex               00000001800a33bc f   LIBCMT:threadex.obj
 0001:000a24cc       _beginthreadex             00000001800a34cc f   LIBCMT:threadex.obj
 0001:000a25d0       _get_errno_from_oserr      00000001800a35d0 f   LIBCMT:dosmap.obj
 0001:000a2618       _errno                     00000001800a3618 f   LIBCMT:dosmap.obj
 0001:000a2638       __doserrno                 00000001800a3638 f   LIBCMT:dosmap.obj
 0001:000a2658       _dosmaperr                 00000001800a3658 f   LIBCMT:dosmap.obj
 0001:000a26a0       _heap_init                 00000001800a36a0 f   LIBCMT:heapinit.obj
 0001:000a26ec       _heap_term                 00000001800a36ec f   LIBCMT:heapinit.obj
 0001:000a270c       _amsg_exit                 00000001800a370c f   LIBCMT:crt0dat.obj
 0001:000a273c       __crtCorExitProcess        00000001800a373c f   LIBCMT:crt0dat.obj
 0001:000a2778       __crtExitProcess           00000001800a3778 f   LIBCMT:crt0dat.obj
 0001:000a2790       _lockexit                  00000001800a3790 f   LIBCMT:crt0dat.obj
 0001:000a279c       _unlockexit                00000001800a379c f   LIBCMT:crt0dat.obj
 0001:000a27dc       _initterm_e                00000001800a37dc f   LIBCMT:crt0dat.obj
 0001:000a2818       _cinit                     00000001800a3818 f   LIBCMT:crt0dat.obj
 0001:000a2a54       _exit                      00000001800a3a54 f   LIBCMT:crt0dat.obj
 0001:000a2a60       _cexit                     00000001800a3a60 f   LIBCMT:crt0dat.obj
 0001:000a2a70       _init_pointers             00000001800a3a70 f   LIBCMT:crt0dat.obj
 0001:000a2ad8       _NMSG_WRITE                00000001800a3ad8 f   LIBCMT:crt0msg.obj
 0001:000a2d00       _FF_MSGBANNER              00000001800a3d00 f   LIBCMT:crt0msg.obj
 0001:000a2d44       _initp_heap_handler        00000001800a3d44 f   LIBCMT:handler.obj
 0001:000a2d4c       _callnewh                  00000001800a3d4c f   LIBCMT:handler.obj
 0001:000a2d80       _encode_pointer            00000001800a3d80 f   LIBCMT:tidtable.obj
 0001:000a2d88       _encoded_null              00000001800a3d88 f   LIBCMT:tidtable.obj
 0001:000a2d94       _decode_pointer            00000001800a3d94 f   LIBCMT:tidtable.obj
 0001:000a2d9c       __fls_getvalue             00000001800a3d9c f   LIBCMT:tidtable.obj
 0001:000a2da4       __get_flsindex             00000001800a3da4 f   LIBCMT:tidtable.obj
 0001:000a2dac       __fls_setvalue             00000001800a3dac f   LIBCMT:tidtable.obj
 0001:000a2db4       _mtterm                    00000001800a3db4 f   LIBCMT:tidtable.obj
 0001:000a2ddc       _initptd                   00000001800a3ddc f   LIBCMT:tidtable.obj
 0001:000a2e90       _getptd_noexit             00000001800a3e90 f   LIBCMT:tidtable.obj
 0001:000a2f14       _getptd                    00000001800a3f14 f   LIBCMT:tidtable.obj
 0001:000a2f38       _freefls                   00000001800a3f38 f   LIBCMT:tidtable.obj
 0001:000a3070       _freeptd                   00000001800a4070 f   LIBCMT:tidtable.obj
 0001:000a30b0       _mtinit                    00000001800a40b0 f   LIBCMT:tidtable.obj
 0001:000a3134       _malloc_crt                00000001800a4134 f   LIBCMT:crtheap.obj
 0001:000a31a0       _calloc_crt                00000001800a41a0 f   LIBCMT:crtheap.obj
 0001:000a3224       _realloc_crt               00000001800a4224 f   LIBCMT:crtheap.obj
 0001:000a32ac       _ioinit                    00000001800a42ac f   LIBCMT:ioinit.obj
 0001:000a359c       _ioterm                    00000001800a459c f   LIBCMT:ioinit.obj
 0001:000a3608       _setenvp                   00000001800a4608 f   LIBCMT:stdenvp.obj
 0001:000a3908       _setargv                   00000001800a4908 f   LIBCMT:stdargv.obj
 0001:000a3a00       __crtGetEnvironmentStringsA 00000001800a4a00 f   LIBCMT:a_env.obj
 0001:000a3bb4       _RTC_Initialize            00000001800a4bb4 f   LIBCMT:_initsect_.obj
 0001:000a3bec       _RTC_Terminate             00000001800a4bec f   LIBCMT:_initsect_.obj
 0001:000a3c24       __C_specific_handler       00000001800a4c24 f   LIBCMT:chandler.obj
 0001:000a3dc8       _initp_misc_winxfltr       00000001800a4dc8 f   LIBCMT:winxfltr.obj
 0001:000a3dc8       _fpclear                   00000001800a4dc8 f   LIBCMT:_fpinit_.obj
 0001:000a3dcc       _XcptFilter                00000001800a4dcc f   LIBCMT:winxfltr.obj
 0001:000a3f9c       __CppXcptFilter            00000001800a4f9c f   LIBCMT:winxfltr.obj
 0001:000a3fbc       __security_init_cookie     00000001800a4fbc f   LIBCMT:gs_support.obj
 0001:000a4070       _flsbuf                    00000001800a5070 f   LIBCMT:_flsbuf.obj
 0001:000a4200       ??0_LocaleUpdate@@QEAA@PEAUlocaleinfo_struct@@@Z 00000001800a5200 f i LIBCMT:output.obj
 0001:000a43c8       _output_l                  00000001800a53c8 f   LIBCMT:output.obj
 0001:000a4eb0       _initp_misc_invarg         00000001800a5eb0 f   LIBCMT:invarg.obj
 0001:000a4eb8       _invoke_watson             00000001800a5eb8 f   LIBCMT:invarg.obj
 0001:000a4fe0       _invalid_parameter         00000001800a5fe0 f   LIBCMT:invarg.obj
 0001:000a5068       abort                      00000001800a6068 f   LIBCMT:abort.obj
 0001:000a510c       _set_abort_behavior        00000001800a610c f   LIBCMT:abort.obj
 0001:000a5128       _initp_misc_purevirt       00000001800a6128 f   LIBCMT:inithelp.obj
 0001:000a5130       _msize                     00000001800a6130 f   LIBCMT:msize.obj
 0001:000a5180       _ValidateImageBase         00000001800a6180 f   LIBCMT:pesect.obj
 0001:000a51b0       _FindPESection             00000001800a61b0 f   LIBCMT:pesect.obj
 0001:000a5200       _IsNonwritableInCurrentImage 00000001800a6200 f   LIBCMT:pesect.obj
 0001:000a5244       _mtinitlocks               00000001800a6244 f   LIBCMT:mlock.obj
 0001:000a52d0       _mtdeletelocks             00000001800a62d0 f   LIBCMT:mlock.obj
 0001:000a5354       _unlock                    00000001800a6354 f   LIBCMT:mlock.obj
 0001:000a536c       _mtinitlocknum             00000001800a636c f   LIBCMT:mlock.obj
 0001:000a5454       _lock                      00000001800a6454 f   LIBCMT:mlock.obj
 0001:000a5498       _initp_misc_cfltcvt_tab    00000001800a6498 f   LIBCMT:cmiscdat.obj
 0001:000a54d0       ?terminate@@YAXXZ          00000001800a64d0 f   LIBCMT:hooks.obj
 0001:000a54f4       _initp_eh_hooks            00000001800a64f4 f   LIBCMT:hooks.obj
 0001:000a5510       _initp_misc_winsig         00000001800a6510 f   LIBCMT:winsig.obj
 0001:000a5530       __get_sigabrt              00000001800a6530 f   LIBCMT:winsig.obj
 0001:000a553c       raise                      00000001800a653c f   LIBCMT:winsig.obj
 0001:000a57b0       _initp_misc_rand_s         00000001800a67b0 f   LIBCMT:rand_s.obj
 0001:000a57b8       _initp_misc_initcrit       00000001800a67b8 f   LIBCMT:initcrit.obj
 0001:000a57c0       __crtInitCritSecAndSpinCount 00000001800a67c0 f   LIBCMT:initcrit.obj
 0001:000a57f0       __crtMessageBoxA           00000001800a67f0 f   LIBCMT:crtmbox.obj
 0001:000a59e4       strcat_s                   00000001800a69e4 f   LIBCMT:strcat_s.obj
 0001:000a5a70       strncpy_s                  00000001800a6a70 f   LIBCMT:strncpy_s.obj
 0001:000a5b60       strlen                     00000001800a6b60 f   LIBCMT:strlen.obj
 0001:000a5c08       strcpy_s                   00000001800a6c08 f   LIBCMT:strcpy_s.obj
 0001:000a5c7c       _set_error_mode            00000001800a6c7c f   LIBCMT:errmode.obj
 0001:000a5ccc       __freetlocinfo             00000001800a6ccc f   LIBCMT:setlocal.obj
 0001:000a5e48       __addlocaleref             00000001800a6e48 f   LIBCMT:setlocal.obj
 0001:000a5ee0       __removelocaleref          00000001800a6ee0 f   LIBCMT:setlocal.obj
 0001:000a5fe0       __updatetlocinfo           00000001800a6fe0 f   LIBCMT:setlocal.obj
 0001:000a62d0       __updatetmbcinfo           00000001800a72d0 f   LIBCMT:mbctype.obj
 0001:000a641c       _setmbcp_nolock            00000001800a741c f   LIBCMT:mbctype.obj
 0001:000a6694       _setmbcp                   00000001800a7694 f   LIBCMT:mbctype.obj
 0001:000a688c       __initmbctable             00000001800a788c f   LIBCMT:mbctype.obj
 0001:000a68b4       _calloc_impl               00000001800a78b4 f   LIBCMT:calloc_impl.obj
 0001:000a6964       realloc                    00000001800a7964 f   LIBCMT:realloc.obj
 0001:000a6ab4       _ismbblead                 00000001800a7ab4 f   LIBCMT:ismbbyte.obj
 0001:000a6ae0       memmove                    00000001800a7ae0     LIBCMT:memcpy.obj
 0001:000a6ae0       memcpy                     00000001800a7ae0 f   LIBCMT:memcpy.obj
 0001:000a6e30       _local_unwind              00000001800a7e30 f   LIBCMT:jmpuwind.obj
 0001:000a6e60       _NLG_Notify                00000001800a7e60 f   LIBCMT:jmpuwind.obj
 0001:000a6e80       __NLG_Dispatch2            00000001800a7e80 f   LIBCMT:jmpuwind.obj
 0001:000a6e90       __NLG_Return2              00000001800a7e90 f   LIBCMT:jmpuwind.obj
 0001:000a6e94       _lseeki64_nolock           00000001800a7e94 f   LIBCMT:lseeki64.obj
 0001:000a6f2c       _lseeki64                  00000001800a7f2c f   LIBCMT:lseeki64.obj
 0001:000a7064       _write_nolock              00000001800a8064 f   LIBCMT:write.obj
 0001:000a77c4       _write                     00000001800a87c4 f   LIBCMT:write.obj
 0001:000a78f8       _getbuf                    00000001800a88f8 f   LIBCMT:_getbuf.obj
 0001:000a794c       _isatty                    00000001800a894c f   LIBCMT:isatty.obj
 0001:000a79bc       __iob_func                 00000001800a89bc f   LIBCMT:_file.obj
 0001:000a79c4       __initstdio                00000001800a89c4 f   LIBCMT:_file.obj
 0001:000a7aa8       __endstdio                 00000001800a8aa8 f   LIBCMT:_file.obj
 0001:000a7ad0       _lock_file                 00000001800a8ad0 f   LIBCMT:_file.obj
 0001:000a7b30       _lock_file2                00000001800a8b30 f   LIBCMT:_file.obj
 0001:000a7b60       _unlock_file               00000001800a8b60 f   LIBCMT:_file.obj
 0001:000a7bb8       _unlock_file2              00000001800a8bb8 f   LIBCMT:_file.obj
 0001:000a7be0       _fileno                    00000001800a8be0 f   LIBCMT:fileno.obj
 0001:000a7c18       __GSHandlerCheckCommon     00000001800a8c18 f   LIBCMT:gshandler.obj
 0001:000a7c7c       __GSHandlerCheck           00000001800a8c7c f   LIBCMT:gshandler.obj
 0001:000a7c9c       _isleadbyte_l              00000001800a8c9c f i LIBCMT:_wctype.obj
 0001:000a7ce4       isleadbyte                 00000001800a8ce4 f i LIBCMT:_wctype.obj
 0001:000a7d2c       _get_printf_count_output   00000001800a8d2c f   LIBCMT:printf.obj
 0001:000a7d44       _wctomb_s_l                00000001800a8d44 f   LIBCMT:wctomb.obj
 0001:000a7f54       wctomb_s                   00000001800a8f54 f   LIBCMT:wctomb.obj
 0001:000a7f80       __security_check_cookie    00000001800a8f80 f   LIBCMT:amdsecgs.obj
 0001:000a7fa0       __crt_debugger_hook        00000001800a8fa0 f   LIBCMT:dbghook.obj
 0001:000a7fc0       memset                     00000001800a8fc0 f   LIBCMT:memset.obj
 0001:000a80ac       isdigit                    00000001800a90ac f i LIBCMT:_ctype.obj
 0001:000a812c       _fptrap                    00000001800a912c f   LIBCMT:crt0fp.obj
 0001:000a8138       __free_lc_time             00000001800a9138 f   LIBCMT:inittime.obj
 0001:000a8324       __free_lconv_num           00000001800a9324 f   LIBCMT:initnum.obj
 0001:000a836c       __free_lconv_mon           00000001800a936c f   LIBCMT:initmon.obj
 0001:000a8420       strcmp                     00000001800a9420 f   LIBCMT:strcmp.obj
 0001:000a84e0       memcmp                     00000001800a94e0 f   LIBCMT:memcmp.obj
 0001:000a8814       __crtGetStringTypeA        00000001800a9814 f   LIBCMT:a_str.obj
 0001:000a88b0       strncmp                    00000001800a98b0 f   LIBCMT:strncmp.obj
 0001:000a8ea8       __crtLCMapStringA          00000001800a9ea8 f   LIBCMT:a_map.obj
 0001:000a8f40       _free_osfhnd               00000001800a9f40 f   LIBCMT:osfinfo.obj
 0001:000a8fec       _get_osfhandle             00000001800a9fec f   LIBCMT:osfinfo.obj
 0001:000a9070       __lock_fhandle             00000001800aa070 f   LIBCMT:osfinfo.obj
 0001:000a9118       _unlock_fhandle            00000001800aa118 f   LIBCMT:osfinfo.obj
 0001:000a9140       _putwch_nolock             00000001800aa140 f   LIBCMT:putwch.obj
 0001:000a9254       _mbtowc_l                  00000001800aa254 f   LIBCMT:mbtowc.obj
 0001:000a93c8       mbtowc                     00000001800aa3c8 f   LIBCMT:mbtowc.obj
 0001:000a93d0       _fcloseall                 00000001800aa3d0 f   LIBCMT:closeall.obj
 0001:000a9480       _flush                     00000001800aa480 f   LIBCMT:fflush.obj
 0001:000a94fc       _fflush_nolock             00000001800aa4fc f   LIBCMT:fflush.obj
 0001:000a9638       _flushall                  00000001800aa638 f   LIBCMT:fflush.obj
 0001:000a9644       __report_gsfailure         00000001800aa644 f   LIBCMT:gs_report.obj
 0001:000a9a14       strtol                     00000001800aaa14 f   LIBCMT:strtol.obj
 0001:000a9a44       _isctype_l                 00000001800aaa44 f   LIBCMT:isctype.obj
 0001:000a9b50       atol                       00000001800aab50 f   LIBCMT:atox.obj
 0001:000a9b5c       __ansicp                   00000001800aab5c f   LIBCMT:convrtcp.obj
 0001:000a9bb0       __convertcp                00000001800aabb0 f   LIBCMT:convrtcp.obj
 0001:000a9e38       __initconout               00000001800aae38 f   LIBCMT:initcon.obj
 0001:000a9e74       __termcon                  00000001800aae74 f   LIBCMT:initcon.obj
 0001:000a9eb0       _fclose_nolock             00000001800aaeb0 f   LIBCMT:fclose.obj
 0001:000a9f3c       fclose                     00000001800aaf3c f   LIBCMT:fclose.obj
 0001:000a9fb4       _commit                    00000001800aafb4 f   LIBCMT:commit.obj
 0001:000aa0c8       _tolower_l                 00000001800ab0c8 f   LIBCMT:tolower.obj
 0001:000aa238       tolower                    00000001800ab238 f   LIBCMT:tolower.obj
 0001:000aa260       _close_nolock              00000001800ab260 f   LIBCMT:close.obj
 0001:000aa31c       _close                     00000001800ab31c f   LIBCMT:close.obj
 0001:000aa434       _freebuf                   00000001800ab434 f   LIBCMT:_freebuf.obj
 0001:000aa46c       RtlUnwindEx                00000001800ab46c f   kernel32:KERNEL32.dll
 0001:000aa472       RtlVirtualUnwind           00000001800ab472 f   kernel32:KERNEL32.dll
 0001:000aa478       RtlLookupFunctionEntry     00000001800ab478 f   kernel32:KERNEL32.dll
 0001:000aa480       _cfltcvt_init              00000001800ab480 f   LIBCMT:_fpinit_.obj
 0001:000aa508       _fpmath                    00000001800ab508 f   LIBCMT:_fpinit_.obj
 0001:000aa664       sin                        00000001800ab664 f   LIBCMT:_sincos_.obj
 0001:000aa980       cos                        00000001800ab980 f   LIBCMT:_sincos_.obj
 0001:000aac84       sqrt                       00000001800abc84 f   LIBCMT:_sqrt_.obj
 0001:000aad90       floor                      00000001800abd90 f   LIBCMT:_floor_.obj
 0001:000aae94       asin                       00000001800abe94 f   LIBCMT:_asin_.obj
 0001:000ab174       atan2                      00000001800ac174 f   LIBCMT:_atan2_.obj
 0001:000ab980       acos                       00000001800ac980 f   LIBCMT:_acos_.obj
 0001:000abc80       log                        00000001800acc80 f   LIBCMT:_log_.obj
 0001:000abf74       ceil                       00000001800acf74 f   LIBCMT:_ceil_.obj
 0001:000ac090       pow                        00000001800ad090 f   LIBCMT:_pow_.obj
 0001:000ac681       __clear_x87_state          00000001800ad681 f   LIBCMT:_pow_.obj
 0001:000ac688       _forcdecpt_l               00000001800ad688 f   LIBCMT:cvt.obj
 0001:000ac708       _cropzeros_l               00000001800ad708 f   LIBCMT:cvt.obj
 0001:000ac7a8       _positive                  00000001800ad7a8 f   LIBCMT:cvt.obj
 0001:000ac7c0       _fassign_l                 00000001800ad7c0 f   LIBCMT:cvt.obj
 0001:000ac804       _fassign                   00000001800ad804 f   LIBCMT:cvt.obj
 0001:000ac80c       _forcdecpt                 00000001800ad80c f   LIBCMT:cvt.obj
 0001:000ac814       _cropzeros                 00000001800ad814 f   LIBCMT:cvt.obj
 0001:000aca74       _cftoe_l                   00000001800ada74 f   LIBCMT:cvt.obj
 0001:000acb80       _cftoa_l                   00000001800adb80 f   LIBCMT:cvt.obj
 0001:000ad170       _cftof_l                   00000001800ae170 f   LIBCMT:cvt.obj
 0001:000ad258       _cftog_l                   00000001800ae258 f   LIBCMT:cvt.obj
 0001:000ad39c       _cfltcvt_l                 00000001800ae39c f   LIBCMT:cvt.obj
 0001:000ad434       _cfltcvt                   00000001800ae434 f   LIBCMT:cvt.obj
 0001:000ad458       _controlfp_s               00000001800ae458 f   LIBCMT:_contrlfp_.obj
 0001:000ad4cc       __remainder_piby2          00000001800ae4cc f   LIBCMT:_remainder_piby2_.obj
 0001:000adaf4       _handle_error              00000001800aeaf4 f   LIBCMT:_libm_error_.obj
 0001:000adc44       __pow_error                00000001800aec44 f   LIBCMT:_pow_error_.obj
 0001:000adf54       strrchr                    00000001800aef54 f   LIBCMT:strrchr.obj
 0001:000adf7c       _atodbl_l                  00000001800aef7c f   LIBCMT:atodbl.obj
 0001:000ae080       _atoflt_l                  00000001800af080 f   LIBCMT:atodbl.obj
 0001:000ae184       _fptostr                   00000001800af184 f   LIBCMT:_fptostr.obj
 0001:000ae260       __dtold                    00000001800af260 f   LIBCMT:_cfout_.obj
 0001:000ae338       _fltout2                   00000001800af338 f   LIBCMT:_cfout_.obj
 0001:000ae3f8       _control87                 00000001800af3f8 f i LIBCMT:_ieee_.obj
 0001:000ae694       _raise_exc_ex              00000001800af694 f   LIBCMT:_fpexcept_.obj
 0001:000ae9d0       _raise_exc                 00000001800af9d0 f   LIBCMT:_fpexcept_.obj
 0001:000ae9f8       _set_errno_from_matherr    00000001800af9f8 f   LIBCMT:_fpexcept_.obj
 0001:000aea28       _matherr                   00000001800afa28 f   LIBCMT:_matherr_.obj
 0001:000aea28       __set_flsgetvalue          00000001800afa28 f   LIBCMT:tidtable.obj
 0001:000aea2c       _statfp                    00000001800afa2c f   LIBCMT:_fpctrl_.obj
 0001:000aea40       _clrfp                     00000001800afa40 f   LIBCMT:_fpctrl_.obj
 0001:000aea60       _ctrlfp                    00000001800afa60 f   LIBCMT:_fpctrl_.obj
 0001:000aeadc       _set_statfp                00000001800afadc f   LIBCMT:_fpctrl_.obj
 0001:000aeafc       _ld12tod                   00000001800afafc f   LIBCMT:_intrncvt_.obj
 0001:000af100       _ld12tof                   00000001800b0100 f   LIBCMT:_intrncvt_.obj
 0001:000af704       __strgtold12_l             00000001800b0704 f   LIBCMT:_strgtold_.obj
 0001:000b0000       $I10_OUTPUT                00000001800b1000 f   LIBCMT:_x10fout_.obj
 0001:000b0b70       _set_fpsr                  00000001800b1b70 f   LIBCMT:_fpsr_.obj
 0001:000b0b7a       _fclrf                     00000001800b1b7a f   LIBCMT:_fpsr_.obj
 0001:000b0b90       __mtold12                  00000001800b1b90 f   LIBCMT:_mantold_.obj
 0001:000b0db0       _frnd                      00000001800b1db0 f   LIBCMT:_fpsr_.obj
 0001:000b0de0       _alloca_probe              00000001800b1de0     LIBCMT:chkstk.obj
 0001:000b0de0       __chkstk                   00000001800b1de0 f   LIBCMT:chkstk.obj
 0001:000b0e40       _get_fpsr                  00000001800b1e40 f   LIBCMT:_fpsr_.obj
 0002:00000000       __imp_Sleep                00000001800b3000     kernel32:KERNEL32.dll
 0002:00000008       __imp_GetSystemInfo        00000001800b3008     kernel32:KERNEL32.dll
 0002:00000010       __imp_CreateSemaphoreA     00000001800b3010     kernel32:KERNEL32.dll
 0002:00000018       __imp_CreateEventA         00000001800b3018     kernel32:KERNEL32.dll
 0002:00000020       __imp_InitializeCriticalSection 00000001800b3020     kernel32:KERNEL32.dll
 0002:00000028       __imp_SetEvent             00000001800b3028     kernel32:KERNEL32.dll
 0002:00000030       __imp_DeleteCriticalSection 00000001800b3030     kernel32:KERNEL32.dll
 0002:00000038       __imp_WaitForMultipleObjects 00000001800b3038     kernel32:KERNEL32.dll
 0002:00000040       __imp_CloseHandle          00000001800b3040     kernel32:KERNEL32.dll
 0002:00000048       __imp_WaitForSingleObject  00000001800b3048     kernel32:KERNEL32.dll
 0002:00000050       __imp_EnterCriticalSection 00000001800b3050     kernel32:KERNEL32.dll
 0002:00000058       __imp_ReleaseSemaphore     00000001800b3058     kernel32:KERNEL32.dll
 0002:00000060       __imp_LeaveCriticalSection 00000001800b3060     kernel32:KERNEL32.dll
 0002:00000068       __imp_GetLastError         00000001800b3068     kernel32:KERNEL32.dll
 0002:00000070       __imp_HeapFree             00000001800b3070     kernel32:KERNEL32.dll
 0002:00000078       __imp_HeapAlloc            00000001800b3078     kernel32:KERNEL32.dll
 0002:00000080       __imp_GetCurrentThreadId   00000001800b3080     kernel32:KERNEL32.dll
 0002:00000088       __imp_FlsSetValue          00000001800b3088     kernel32:KERNEL32.dll
 0002:00000090       __imp_GetCommandLineA      00000001800b3090     kernel32:KERNEL32.dll
 0002:00000098       __imp_ExitThread           00000001800b3098     kernel32:KERNEL32.dll
 0002:000000a0       __imp_CreateThread         00000001800b30a0     kernel32:KERNEL32.dll
 0002:000000a8       __imp_HeapSetInformation   00000001800b30a8     kernel32:KERNEL32.dll
 0002:000000b0       __imp_HeapCreate           00000001800b30b0     kernel32:KERNEL32.dll
 0002:000000b8       __imp_HeapDestroy          00000001800b30b8     kernel32:KERNEL32.dll
 0002:000000c0       __imp_GetModuleHandleW     00000001800b30c0     kernel32:KERNEL32.dll
 0002:000000c8       __imp_GetProcAddress       00000001800b30c8     kernel32:KERNEL32.dll
 0002:000000d0       __imp_ExitProcess          00000001800b30d0     kernel32:KERNEL32.dll
 0002:000000d8       __imp_WriteFile            00000001800b30d8     kernel32:KERNEL32.dll
 0002:000000e0       __imp_GetStdHandle         00000001800b30e0     kernel32:KERNEL32.dll
 0002:000000e8       __imp_GetModuleFileNameA   00000001800b30e8     kernel32:KERNEL32.dll
 0002:000000f0       __imp_EncodePointer        00000001800b30f0     kernel32:KERNEL32.dll
 0002:000000f8       __imp_DecodePointer        00000001800b30f8     kernel32:KERNEL32.dll
 0002:00000100       __imp_FlsGetValue          00000001800b3100     kernel32:KERNEL32.dll
 0002:00000108       __imp_FlsFree              00000001800b3108     kernel32:KERNEL32.dll
 0002:00000110       __imp_SetLastError         00000001800b3110     kernel32:KERNEL32.dll
 0002:00000118       __imp_FlsAlloc             00000001800b3118     kernel32:KERNEL32.dll
 0002:00000120       __imp_SetHandleCount       00000001800b3120     kernel32:KERNEL32.dll
 0002:00000128       __imp_GetFileType          00000001800b3128     kernel32:KERNEL32.dll
 0002:00000130       __imp_GetStartupInfoA      00000001800b3130     kernel32:KERNEL32.dll
 0002:00000138       __imp_FreeEnvironmentStringsA 00000001800b3138     kernel32:KERNEL32.dll
 0002:00000140       __imp_GetEnvironmentStrings 00000001800b3140     kernel32:KERNEL32.dll
 0002:00000148       __imp_FreeEnvironmentStringsW 00000001800b3148     kernel32:KERNEL32.dll
 0002:00000150       __imp_WideCharToMultiByte  00000001800b3150     kernel32:KERNEL32.dll
 0002:00000158       __imp_GetEnvironmentStringsW 00000001800b3158     kernel32:KERNEL32.dll
 0002:00000160       __imp_RtlUnwindEx          00000001800b3160     kernel32:KERNEL32.dll
 0002:00000168       __imp_QueryPerformanceCounter 00000001800b3168     kernel32:KERNEL32.dll
 0002:00000170       __imp_GetTickCount         00000001800b3170     kernel32:KERNEL32.dll
 0002:00000178       __imp_GetCurrentProcessId  00000001800b3178     kernel32:KERNEL32.dll
 0002:00000180       __imp_GetSystemTimeAsFileTime 00000001800b3180     kernel32:KERNEL32.dll
 0002:00000188       __imp_TerminateProcess     00000001800b3188     kernel32:KERNEL32.dll
 0002:00000190       __imp_GetCurrentProcess    00000001800b3190     kernel32:KERNEL32.dll
 0002:00000198       __imp_UnhandledExceptionFilter 00000001800b3198     kernel32:KERNEL32.dll
 0002:000001a0       __imp_SetUnhandledExceptionFilter 00000001800b31a0     kernel32:KERNEL32.dll
 0002:000001a8       __imp_IsDebuggerPresent    00000001800b31a8     kernel32:KERNEL32.dll
 0002:000001b0       __imp_RtlVirtualUnwind     00000001800b31b0     kernel32:KERNEL32.dll
 0002:000001b8       __imp_RtlLookupFunctionEntry 00000001800b31b8     kernel32:KERNEL32.dll
 0002:000001c0       __imp_RtlCaptureContext    00000001800b31c0     kernel32:KERNEL32.dll
 0002:000001c8       __imp_HeapSize             00000001800b31c8     kernel32:KERNEL32.dll
 0002:000001d0       __imp_LoadLibraryA         00000001800b31d0     kernel32:KERNEL32.dll
 0002:000001d8       __imp_InitializeCriticalSectionAndSpinCount 00000001800b31d8     kernel32:KERNEL32.dll
 0002:000001e0       __imp_GetCPInfo            00000001800b31e0     kernel32:KERNEL32.dll
 0002:000001e8       __imp_GetACP               00000001800b31e8     kernel32:KERNEL32.dll
 0002:000001f0       __imp_GetOEMCP             00000001800b31f0     kernel32:KERNEL32.dll
 0002:000001f8       __imp_IsValidCodePage      00000001800b31f8     kernel32:KERNEL32.dll
 0002:00000200       __imp_HeapReAlloc          00000001800b3200     kernel32:KERNEL32.dll
 0002:00000208       __imp_SetFilePointer       00000001800b3208     kernel32:KERNEL32.dll
 0002:00000210       __imp_GetConsoleCP         00000001800b3210     kernel32:KERNEL32.dll
 0002:00000218       __imp_GetConsoleMode       00000001800b3218     kernel32:KERNEL32.dll
 0002:00000220       __imp_GetLocaleInfoA       00000001800b3220     kernel32:KERNEL32.dll
 0002:00000228       __imp_GetStringTypeA       00000001800b3228     kernel32:KERNEL32.dll
 0002:00000230       __imp_MultiByteToWideChar  00000001800b3230     kernel32:KERNEL32.dll
 0002:00000238       __imp_GetStringTypeW       00000001800b3238     kernel32:KERNEL32.dll
 0002:00000240       __imp_LCMapStringA         00000001800b3240     kernel32:KERNEL32.dll
 0002:00000248       __imp_LCMapStringW         00000001800b3248     kernel32:KERNEL32.dll
 0002:00000250       __imp_SetStdHandle         00000001800b3250     kernel32:KERNEL32.dll
 0002:00000258       __imp_WriteConsoleA        00000001800b3258     kernel32:KERNEL32.dll
 0002:00000260       __imp_GetConsoleOutputCP   00000001800b3260     kernel32:KERNEL32.dll
 0002:00000268       __imp_WriteConsoleW        00000001800b3268     kernel32:KERNEL32.dll
 0002:00000270       __imp_CreateFileA          00000001800b3270     kernel32:KERNEL32.dll
 0002:00000278       __imp_FlushFileBuffers     00000001800b3278     kernel32:KERNEL32.dll
 0002:00000280       __imp_RaiseException       00000001800b3280     kernel32:KERNEL32.dll
 0002:00000288       \177KERNEL32_NULL_THUNK_DATA 00000001800b3288     kernel32:KERNEL32.dll
 0002:00000290       __xc_a                     00000001800b3290     LIBCMT:crt0init.obj
 0002:000002b8       __xc_z                     00000001800b32b8     LIBCMT:crt0init.obj
 0002:000002c0       __xi_a                     00000001800b32c0     LIBCMT:crt0init.obj
 0002:000002e0       __xi_z                     00000001800b32e0     LIBCMT:crt0init.obj
 0002:000002e8       __xp_a                     00000001800b32e8     LIBCMT:crt0init.obj
 0002:00000300       __xp_z                     00000001800b3300     LIBCMT:crt0init.obj
 0002:00000308       __xt_a                     00000001800b3308     LIBCMT:crt0init.obj
 0002:00000310       __xt_z                     00000001800b3310     LIBCMT:crt0init.obj
 0002:00000340       _pDefaultRawDllMain        00000001800b3340     LIBCMT:dllcrt0.obj
 0002:00000340       _pRawDllMain               00000001800b3340     LIBCMT:dllcrt0.obj
 0002:00000348       ??_C@_0P@MIGLKIOC@CorExitProcess?$AA@ 00000001800b3348     LIBCMT:crt0dat.obj
 0002:00000358       ??_C@_1BI@BGOHAHKC@?$AAm?$AAs?$AAc?$AAo?$AAr?$AAe?$AAe?$AA?4?$AAd?$AAl?$AAl?$AA?$AA@ 00000001800b3358     LIBCMT:crt0dat.obj
 0002:00000370       ??_C@_0P@GGKDKEEG@runtime?5error?5?$AA@ 00000001800b3370     LIBCMT:crt0msg.obj
 0002:00000380       ??_C@_02PCIJFNDE@?$AN?6?$AA@ 00000001800b3380     LIBCMT:crt0msg.obj
 0002:00000388       ??_C@_0O@MJNIPGOH@TLOSS?5error?$AN?6?$AA@ 00000001800b3388     LIBCMT:crt0msg.obj
 0002:00000398       ??_C@_0N@BONNPDHF@SING?5error?$AN?6?$AA@ 00000001800b3398     LIBCMT:crt0msg.obj
 0002:000003a8       ??_C@_0P@MBDAJNE@DOMAIN?5error?$AN?6?$AA@ 00000001800b33a8     LIBCMT:crt0msg.obj
 0002:000003c0       ??_C@_0JL@DFDOOABL@R6034?$AN?6An?5application?5has?5made?5a@ 00000001800b33c0     LIBCMT:crt0msg.obj
 0002:00000460       ??_C@_0PH@EPAFIJ@R6033?$AN?6?9?5Attempt?5to?5use?5MSIL?5cod@ 00000001800b3460     LIBCMT:crt0msg.obj
 0002:00000558       ??_C@_0DD@BKEEABMM@R6032?$AN?6?9?5not?5enough?5space?5for?5lo@ 00000001800b3558     LIBCMT:crt0msg.obj
 0002:00000590       ??_C@_0GD@OFKILIED@R6031?$AN?6?9?5Attempt?5to?5initialize?5t@ 00000001800b3590     LIBCMT:crt0msg.obj
 0002:000005f8       ??_C@_0BP@LPMHJOKI@R6030?$AN?6?9?5CRT?5not?5initialized?$AN?6?$AA@ 00000001800b35f8     LIBCMT:crt0msg.obj
 0002:00000618       ??_C@_0CF@KJDAIALP@R6028?$AN?6?9?5unable?5to?5initialize?5he@ 00000001800b3618     LIBCMT:crt0msg.obj
 0002:00000640       ??_C@_0DF@GAKBPDFP@R6027?$AN?6?9?5not?5enough?5space?5for?5lo@ 00000001800b3640     LIBCMT:crt0msg.obj
 0002:00000678       ??_C@_0DF@IBLNNAIG@R6026?$AN?6?9?5not?5enough?5space?5for?5st@ 00000001800b3678     LIBCMT:crt0msg.obj
 0002:000006b0       ??_C@_0CG@IOHKGFNJ@R6025?$AN?6?9?5pure?5virtual?5function?5c@ 00000001800b36b0     LIBCMT:crt0msg.obj
 0002:000006d8       ??_C@_0DF@JIJJFJDC@R6024?$AN?6?9?5not?5enough?5space?5for?5_o@ 00000001800b36d8     LIBCMT:crt0msg.obj
 0002:00000710       ??_C@_0CJ@EGEJHFME@R6019?$AN?6?9?5unable?5to?5open?5console?5@ 00000001800b3710     LIBCMT:crt0msg.obj
 0002:00000740       ??_C@_0CB@GNHNIELH@R6018?$AN?6?9?5unexpected?5heap?5error?$AN?6@ 00000001800b3740     LIBCMT:crt0msg.obj
 0002:00000768       ??_C@_0CN@FOLDKNG@R6017?$AN?6?9?5unexpected?5multithread?5@ 00000001800b3768     LIBCMT:crt0msg.obj
 0002:00000798       ??_C@_0CM@FAHFJNHO@R6016?$AN?6?9?5not?5enough?5space?5for?5th@ 00000001800b3798     LIBCMT:crt0msg.obj
 0002:000007d0       ??_C@_0JG@LBKMGKLD@?$AN?6This?5application?5has?5requested@ 00000001800b37d0     LIBCMT:crt0msg.obj
 0002:00000868       ??_C@_0CM@FLCNIPKK@R6009?$AN?6?9?5not?5enough?5space?5for?5en@ 00000001800b3868     LIBCMT:crt0msg.obj
 0002:00000898       ??_C@_0CK@KMMJOAPP@R6008?$AN?6?9?5not?5enough?5space?5for?5ar@ 00000001800b3898     LIBCMT:crt0msg.obj
 0002:000008c8       ??_C@_0CN@LEKKICBM@R6002?$AN?6?9?5floating?5point?5support?5@ 00000001800b38c8     LIBCMT:crt0msg.obj
 0002:000008f8       ??_C@_0CF@GOGNBNAK@Microsoft?5Visual?5C?$CL?$CL?5Runtime?5Lib@ 00000001800b38f8     LIBCMT:crt0msg.obj
 0002:00000920       ??_C@_02PHMGELLB@?6?6?$AA@ 00000001800b3920     LIBCMT:crt0msg.obj
 0002:00000924       ??_C@_03KHICJKCI@?4?4?4?$AA@ 00000001800b3924     LIBCMT:crt0msg.obj
 0002:00000928       ??_C@_0BH@DNAGHKFM@?$DMprogram?5name?5unknown?$DO?$AA@ 00000001800b3928     LIBCMT:crt0msg.obj
 0002:00000940       ??_C@_0BK@OFGJDLJJ@Runtime?5Error?$CB?6?6Program?3?5?$AA@ 00000001800b3940     LIBCMT:crt0msg.obj
 0002:00000960       _XcptActTab                00000001800b3960     LIBCMT:winxfltr.obj
 0002:00000a00       ??_C@_1O@CEDCILHN@?$AA?$CI?$AAn?$AAu?$AAl?$AAl?$AA?$CJ?$AA?$AA@ 00000001800b3a00     LIBCMT:output.obj
 0002:00000a10       ??_C@_06OJHGLDPL@?$CInull?$CJ?$AA@ 00000001800b3a10     LIBCMT:output.obj
 0002:00000a20       __lookuptable              00000001800b3a20     LIBCMT:output.obj
 0002:00000a80       ??_C@_0BI@DFKBFLJE@GetProcessWindowStation?$AA@ 00000001800b3a80     LIBCMT:crtmbox.obj
 0002:00000a98       ??_C@_0BK@CIDNPOGP@GetUserObjectInformationA?$AA@ 00000001800b3a98     LIBCMT:crtmbox.obj
 0002:00000ab8       ??_C@_0BD@HHGDFDBJ@GetLastActivePopup?$AA@ 00000001800b3ab8     LIBCMT:crtmbox.obj
 0002:00000ad0       ??_C@_0BA@HNOPNCHB@GetActiveWindow?$AA@ 00000001800b3ad0     LIBCMT:crtmbox.obj
 0002:00000ae0       ??_C@_0M@CHKKJDAI@MessageBoxA?$AA@ 00000001800b3ae0     LIBCMT:crtmbox.obj
 0002:00000af0       ??_C@_0L@NDEGIDAG@USER32?4DLL?$AA@ 00000001800b3af0     LIBCMT:crtmbox.obj
 0002:00000b80       __lookuptable_s            00000001800b3b80     LIBCMT:outputs.obj
 0002:00000be0       __newctype                 00000001800b3be0     LIBCMT:ctype.obj
 0002:00000ee0       _wctype                    00000001800b3ee0     LIBCMT:ctype.obj
 0002:000010f0       __newclmap                 00000001800b40f0     LIBCMT:ctype.obj
 0002:00001270       __newcumap                 00000001800b4270     LIBCMT:ctype.obj
 0002:000013f0       ??_C@_08JCCMCCIL@HH?3mm?3ss?$AA@ 00000001800b43f0     LIBCMT:strftime.obj
 0002:00001400       ??_C@_0BE@CKGJFCPC@dddd?0?5MMMM?5dd?0?5yyyy?$AA@ 00000001800b4400     LIBCMT:strftime.obj
 0002:00001418       ??_C@_08BPBNCDIB@MM?1dd?1yy?$AA@ 00000001800b4418     LIBCMT:strftime.obj
 0002:00001424       ??_C@_02CJNFDJBF@PM?$AA@   00000001800b4424     LIBCMT:strftime.obj
 0002:00001428       ??_C@_02DEDBPAFC@AM?$AA@   00000001800b4428     LIBCMT:strftime.obj
 0002:00001430       ??_C@_08EDHMEBNP@December?$AA@ 00000001800b4430     LIBCMT:strftime.obj
 0002:00001440       ??_C@_08HCHEGEOA@November?$AA@ 00000001800b4440     LIBCMT:strftime.obj
 0002:00001450       ??_C@_07JJNFCEND@October?$AA@ 00000001800b4450     LIBCMT:strftime.obj
 0002:00001458       ??_C@_09BHHEALKD@September?$AA@ 00000001800b4458     LIBCMT:strftime.obj
 0002:00001464       ??_C@_06LBBHFDDG@August?$AA@ 00000001800b4464     LIBCMT:strftime.obj
 0002:0000146c       ??_C@_04MIEPOIFP@July?$AA@ 00000001800b446c     LIBCMT:strftime.obj
 0002:00001474       ??_C@_04CNLMGBGM@June?$AA@ 00000001800b4474     LIBCMT:strftime.obj
 0002:0000147c       ??_C@_05DMJDNLEJ@April?$AA@ 00000001800b447c     LIBCMT:strftime.obj
 0002:00001484       ??_C@_05HPCKOFNC@March?$AA@ 00000001800b4484     LIBCMT:strftime.obj
 0002:00001490       ??_C@_08GNJGEPFN@February?$AA@ 00000001800b4490     LIBCMT:strftime.obj
 0002:000014a0       ??_C@_07CGJPFGJA@January?$AA@ 00000001800b44a0     LIBCMT:strftime.obj
 0002:000014a8       ??_C@_03MKABNOCG@Dec?$AA@  00000001800b44a8     LIBCMT:strftime.obj
 0002:000014ac       ??_C@_03JPJOFNIA@Nov?$AA@  00000001800b44ac     LIBCMT:strftime.obj
 0002:000014b0       ??_C@_03BMAOKBAD@Oct?$AA@  00000001800b44b0     LIBCMT:strftime.obj
 0002:000014b4       ??_C@_03GGCAPAJC@Sep?$AA@  00000001800b44b4     LIBCMT:strftime.obj
 0002:000014b8       ??_C@_03IFJFEIGA@Aug?$AA@  00000001800b44b8     LIBCMT:strftime.obj
 0002:000014bc       ??_C@_03LBGABGKK@Jul?$AA@  00000001800b44bc     LIBCMT:strftime.obj
 0002:000014c0       ??_C@_03IDFGHECI@Jun?$AA@  00000001800b44c0     LIBCMT:strftime.obj
 0002:000014c4       ??_C@_03CNMDKL@May?$AA@    00000001800b44c4     LIBCMT:strftime.obj
 0002:000014c8       ??_C@_03LEOLGMJP@Apr?$AA@  00000001800b44c8     LIBCMT:strftime.obj
 0002:000014cc       ??_C@_03ODNJBKGA@Mar?$AA@  00000001800b44cc     LIBCMT:strftime.obj
 0002:000014d0       ??_C@_03HJBDCHOM@Feb?$AA@  00000001800b44d0     LIBCMT:strftime.obj
 0002:000014d4       ??_C@_03JIHJHPIE@Jan?$AA@  00000001800b44d4     LIBCMT:strftime.obj
 0002:000014d8       ??_C@_08INBOOONO@Saturday?$AA@ 00000001800b44d8     LIBCMT:strftime.obj
 0002:000014e4       ??_C@_06JECMNKMI@Friday?$AA@ 00000001800b44e4     LIBCMT:strftime.obj
 0002:000014f0       ??_C@_08HACCIKIA@Thursday?$AA@ 00000001800b44f0     LIBCMT:strftime.obj
 0002:00001500       ??_C@_09DLIGFAKA@Wednesday?$AA@ 00000001800b4500     LIBCMT:strftime.obj
 0002:00001510       ??_C@_07BAAGCFCM@Tuesday?$AA@ 00000001800b4510     LIBCMT:strftime.obj
 0002:00001518       ??_C@_06JLEDEDGH@Monday?$AA@ 00000001800b4518     LIBCMT:strftime.obj
 0002:00001520       ??_C@_06OOPIFAJ@Sunday?$AA@ 00000001800b4520     LIBCMT:strftime.obj
 0002:00001528       ??_C@_03FEFJNEK@Sat?$AA@   00000001800b4528     LIBCMT:strftime.obj
 0002:0000152c       ??_C@_03IDIOELNC@Fri?$AA@  00000001800b452c     LIBCMT:strftime.obj
 0002:00001530       ??_C@_03IOFIKPDN@Thu?$AA@  00000001800b4530     LIBCMT:strftime.obj
 0002:00001534       ??_C@_03MHOMLAJA@Wed?$AA@  00000001800b4534     LIBCMT:strftime.obj
 0002:00001538       ??_C@_03NAGEINEP@Tue?$AA@  00000001800b4538     LIBCMT:strftime.obj
 0002:0000153c       ??_C@_03PDAGKDH@Mon?$AA@   00000001800b453c     LIBCMT:strftime.obj
 0002:00001540       ??_C@_03KOEHGMDN@Sun?$AA@  00000001800b4540     LIBCMT:strftime.obj
 0002:00001544       ??_C@_13NOLLCAOD@?$AA?$AA?$AA?$AA@ 00000001800b4544     LIBCMT:a_str.obj
 0002:00001558       __dnames                   00000001800b4558     LIBCMT:timeset.obj
 0002:00001570       __mnames                   00000001800b4570     LIBCMT:timeset.obj
 0002:00001598       ??_C@_07GPDNMNG@CONOUT$?$AA@ 00000001800b4598     LIBCMT:initcon.obj
 0002:000015a0       ??_C@_0IE@IMGBDMJL@Newton?5Game?5Dynamics?5is?5the?5prop@ 00000001800b45a0     Newton.obj
 0002:00001628       ??_C@_0P@GHFPNOJB@bad?5allocation?$AA@ 00000001800b4628     NewtonClass.obj
 0002:00001640       ??_7NewtonUserJoint@@6B@   00000001800b4640     NewtonClass.obj
 0002:000016a0       ??_7dgWorkerThread@@6B@    00000001800b46a0     physics:dgWorld.obj
 0002:000016b0       ??_C@_03MKEPLMIM@x87?$AA@  00000001800b46b0     physics:dgWorld.obj
 0002:000016b4       ??_C@_04IABPNMKE@simd?$AA@ 00000001800b46b4     physics:dgWorld.obj
 0002:000016c0       ??_7dgCollisionPoint@@6B@  00000001800b46c0     physics:dgWorld.obj
 0002:000017b8       ??_7dgBroadPhaseApplyExternalForce@@6B@ 00000001800b47b8     physics:dgBroadPhaseCollision.obj
 0002:000017c8       ??_7dgBroadPhaseMaterialCallbackWorkerThread@@6B@ 00000001800b47c8     physics:dgBroadPhaseCollision.obj
 0002:000017d8       ??_7dgBroadPhaseCellPairsWorkerThread@@6B@ 00000001800b47d8     physics:dgBroadPhaseCollision.obj
 0002:000017e8       ??_7dgBroadPhaseCalculateContactsWorkerThread@@6B@ 00000001800b47e8     physics:dgBroadPhaseCollision.obj
 0002:000017f8       ??_7dgSolverWorlkerThreads@@6B@ 00000001800b47f8     physics:dgWorldDynamicUpdate.obj
 0002:00001808       ??_7dgParallelSolverClear@@6B@ 00000001800b4808     physics:dgWorldDynamicUpdate.obj
 0002:00001818       ??_7dgParallelSolverUpdateForce@@6B@ 00000001800b4818     physics:dgWorldDynamicUpdate.obj
 0002:00001828       ??_7dgParallelSolverUpdateVeloc@@6B@ 00000001800b4828     physics:dgWorldDynamicUpdate.obj
 0002:00001838       ??_7dgParallelSolverBodyInertia@@6B@ 00000001800b4838     physics:dgWorldDynamicUpdate.obj
 0002:00001848       ??_7dgParallelSolverBuildJacobianRows@@6B@ 00000001800b4848     physics:dgWorldDynamicUpdate.obj
 0002:00001858       ??_7dgParallelSolverBuildJacobianMatrix@@6B@ 00000001800b4858     physics:dgWorldDynamicUpdate.obj
 0002:00001868       ??_7dgParallelSolverJointAcceleration@@6B@ 00000001800b4868     physics:dgWorldDynamicUpdate.obj
 0002:00001878       ??_7dgParallelSolverInitFeedbackUpdate@@6B@ 00000001800b4878     physics:dgWorldDynamicUpdate.obj
 0002:00001888       ??_7dgParallelSolverInitInternalForces@@6B@ 00000001800b4888     physics:dgWorldDynamicUpdate.obj
 0002:00001898       ??_7dgParallelSolverCalculateForces@@6B@ 00000001800b4898     physics:dgWorldDynamicUpdate.obj
 0002:000018a8       ??_7dgMeshEffect@@6BdgPolyhedra@@@ 00000001800b48a8     physics:dgMeshEffect.obj
 0002:000018b0       ??_7dgMeshEffect@@6BdgRefCounter@@@ 00000001800b48b0     physics:dgMeshEffect.obj
 0002:000018b8       ??_7dgRefCounter@@6B@      00000001800b48b8     physics:dgMeshEffect.obj
 0002:000018c0       ??_7Tetrahedralization@@6B@ 00000001800b48c0     physics:dgMeshEffect2.obj
 0002:000018f0       ??_7dgCollisionCompoundBreakable@@6B@ 00000001800b48f0     physics:dgCollisionCompoundBreakable.obj
 0002:000019c8       ??_7dgVertexBuffer@dgCollisionCompoundBreakable@@6B@ 00000001800b49c8     physics:dgCollisionCompoundBreakable.obj
 0002:000019d0       ??_7dgMesh@dgCollisionCompoundBreakable@@6B@ 00000001800b49d0     physics:dgCollisionCompoundBreakable.obj
 0002:000019e0       ??_7dgCollisionConvexIntance@dgCollisionCompoundBreakable@@6B@ 00000001800b49e0     physics:dgCollisionCompoundBreakable.obj
 0002:00001ae0       ??_7dgCollisionConvexHull@@6B@ 00000001800b4ae0     physics:dgCollisionConvexHull.obj
 0002:00001be0       ??_7dgCollisionMesh@@6B@   00000001800b4be0     physics:dgCollisionMesh.obj
 0002:00001cd0       ??_7dgCollisionConvexPolygon@dgCollisionMesh@@6B@ 00000001800b4cd0     physics:dgCollisionMesh.obj
 0002:00001dd0       ??_7dgCollisionScene@@6B@  00000001800b4dd0     physics:dgCollisionScene.obj
 0002:00001eb0       ??_7dgCollisionBVH@@6BdgCollisionMesh@@@ 00000001800b4eb0     physics:dgCollisionBVH.obj
 0002:00001fa0       ??_7dgCollisionBVH@@6BdgAABBPolygonSoup@@@ 00000001800b4fa0     physics:dgCollisionBVH.obj
 0002:00001ff0       ??_7dgCollisionHeightField@@6B@ 00000001800b4ff0     physics:dgCollisionHeightField.obj
 0002:000020e0       ??_7dgBallConstraint@@6B@  00000001800b50e0     physics:dgBallConstraint.obj
 0002:00002140       ??_7dgHingeConstraint@@6B@ 00000001800b5140     physics:dgHingeConstraint.obj
 0002:000021a0       ??_7dgSlidingConstraint@@6B@ 00000001800b51a0     physics:dgSlidingConstraint.obj
 0002:00002200       ??_7dgCorkscrewConstraint@@6B@ 00000001800b5200     physics:dgCorkscrewConstraint.obj
 0002:00002260       ??_7dgUniversalConstraint@@6B@ 00000001800b5260     physics:dgUniversalConstraint.obj
 0002:000022c0       ??_7dgUpVectorConstraint@@6B@ 00000001800b52c0     physics:dgUpVectorConstraint.obj
 0002:00002320       ??_7dgUserConstraint@@6B@  00000001800b5320     physics:dgUserConstraint.obj
 0002:00002380       ??_7dgConstraint@@6B@      00000001800b5380     physics:dgBilateralConstraint.obj
 0002:000023d0       ??_7dgBilateralConstraint@@6B@ 00000001800b53d0     physics:dgBilateralConstraint.obj
 0002:00002430       ??_7dgCollisionSphere@@6B@ 00000001800b5430     physics:dgCollisionSphere.obj
 0002:00002530       ??_7dgContact@@6B@         00000001800b5530     physics:dgContact.obj
 0002:00002580       ??_7dgCollisionNull@@6B@   00000001800b5580     physics:dgCollisionNull.obj
 0002:00002680       ??_7dgConvexCollision@@6B@ 00000001800b5680     physics:dgConvexCollision.obj
 0002:00002780       ??_7dgCollision@@6B@       00000001800b5780     physics:dgCollision.obj
 0002:00002860       ??_7dgCollisionBox@@6B@    00000001800b5860     physics:dgCollisionBox.obj
 0002:00002960       ??_7dgCollisionEllipse@@6B@ 00000001800b5960     physics:dgCollisionEllipse.obj
 0002:00002a60       ??_7dgCollisionCapsule@@6B@ 00000001800b5a60     physics:dgCollisionCapsule.obj
 0002:00002b60       ??_7dgCollisionCone@@6B@   00000001800b5b60     physics:dgCollisionCone.obj
 0002:00002c60       ??_7dgCollisionCylinder@@6B@ 00000001800b5c60     physics:dgCollisionCylinder.obj
 0002:00002d60       ??_7dgCollisionChamferCylinder@@6B@ 00000001800b5d60     physics:dgCollisionChamferCylinder.obj
 0002:00002e60       ??_7dgCollisionConvexModifier@@6B@ 00000001800b5e60     physics:dgCollisionConvexModifier.obj
 0002:00002f60       ??_7dgCollisionCompound@@6B@ 00000001800b5f60     physics:dgCollisionCompound.obj
 0002:00003040       ??_7dgCollisionUserMesh@@6B@ 00000001800b6040     physics:dgCollisionUserMesh.obj
 0002:00003138       ??_7dgPolySoupFilterAllocator@@6B@ 00000001800b6138     corelib:dgPolygonSoupBuilder.obj
 0002:00003138       ??_7dgPolyhedra@@6B@       00000001800b6138     corelib:dgPolyhedra.obj
 0002:00003140       ??_7dgConvexHull3d@@6B@    00000001800b6140     corelib:dgConvexHull3d.obj
 0002:00003160       ??_7dgDelaunayTetrahedralization@@6B@ 00000001800b6160     corelib:dgDelaunayTetrahedralization.obj
 0002:00003188       ??_7dgConvexHull4d@@6B@    00000001800b6188     corelib:dgConvexHull4d.obj
 0002:000031b0       ??_7dgPolygonSoupDatabase@@6B@ 00000001800b61b0     corelib:dgAABBPolygonSoup.obj
 0002:000031f0       ??_7dgAABBPolygonSoup@@6B@ 00000001800b61f0     corelib:dgAABBPolygonSoup.obj
 0002:00003238       __real@3fe0000000000000    00000001800b6238      CIL library: CIL module
 0002:00003240       __real@4000000000000000    00000001800b6240      CIL library: CIL module
 0002:00003248       __real@3ff0000000000000    00000001800b6248      CIL library: CIL module
 0002:00003250       __real@0000000000000000    00000001800b6250      CIL library: CIL module
 0002:00003260       __mask@@NegDouble@         00000001800b6260      CIL library: CIL module
 0002:00003270       __mask@@AbsDouble@         00000001800b6270      CIL library: CIL module
 0002:00003280       __real@4090000000000000    00000001800b6280      CIL library: CIL module
 0002:00003288       __real@3ff3333340000000    00000001800b6288      CIL library: CIL module
 0002:00003290       __real@3fd0000000000000    00000001800b6290      CIL library: CIL module
 0002:00003298       __real@4014000000000000    00000001800b6298      CIL library: CIL module
 0002:000032a0       __real@bff0000000000000    00000001800b62a0      CIL library: CIL module
 0002:000032a8       __real@4202a05f20000000    00000001800b62a8      CIL library: CIL module
 0002:000032b0       __real@3e45798ee0000000    00000001800b62b0      CIL library: CIL module
 0002:000032b8       __real@42fc6bf520000000    00000001800b62b8      CIL library: CIL module
 0002:000032c0       __real@3f847ae140000000    00000001800b62c0      CIL library: CIL module
 0002:000032c8       __real@3fe6666660000000    00000001800b62c8      CIL library: CIL module
 0002:000032d0       __real@3fc0000000000000    00000001800b62d0      CIL library: CIL module
 0002:000032d8       __real@408f3fffe7190014    00000001800b62d8      CIL library: CIL module
 0002:000032e0       __real@404dffffe5c00017    00000001800b62e0      CIL library: CIL module
 0002:000032e8       __real@3f50624de0000000    00000001800b62e8      CIL library: CIL module
 0002:000032f0       __real@4010000000000000    00000001800b62f0      CIL library: CIL module
 0002:000032f8       __real@4040000000000000    00000001800b62f8      CIL library: CIL module
 0002:00003300       __real@3eb0c6f7a0000000    00000001800b6300      CIL library: CIL module
 0002:00003308       __real@401921fa00000000    00000001800b6308      CIL library: CIL module
 0002:00003310       __real@4060000000000000    00000001800b6310      CIL library: CIL module
 0002:00003318       __real@4070000000000000    00000001800b6318      CIL library: CIL module
 0002:00003320       __real@4059000000000000    00000001800b6320      CIL library: CIL module
 0002:00003328       __real@4097700000000000    00000001800b6328      CIL library: CIL module
 0002:00003330       __real@40c3880000000000    00000001800b6330      CIL library: CIL module
 0002:00003338       __real@c0c3880000000000    00000001800b6338      CIL library: CIL module
 0002:00003340       __real@3ff999999999999a    00000001800b6340      CIL library: CIL module
 0002:00003348       __real@430c6bf520000000    00000001800b6348      CIL library: CIL module
 0002:00003350       __real@3af357c2a0000000    00000001800b6350      CIL library: CIL module
 0002:00003358       __real@3fe3333340000000    00000001800b6358      CIL library: CIL module
 0002:00003360       __real@4058c00000000000    00000001800b6360      CIL library: CIL module
 0002:00003368       __real@bf50624de0000000    00000001800b6368      CIL library: CIL module
 0002:00003370       __real@c30c6bf520000000    00000001800b6370      CIL library: CIL module
 0002:00003378       __real@3fe276c8c0000000    00000001800b6378      CIL library: CIL module
 0002:00003380       __real@3f1a36e2e0000000    00000001800b6380      CIL library: CIL module
 0002:00003388       __real@c202a05f20000000    00000001800b6388      CIL library: CIL module
 0002:00003390       __real@bf1a36e2e0000000    00000001800b6390      CIL library: CIL module
 0002:00003398       __real@c415af1d80000000    00000001800b6398      CIL library: CIL module
 0002:000033a0       __real@4415af1d80000000    00000001800b63a0      CIL library: CIL module
 0002:000033a8       __real@bf91eb8520000000    00000001800b63a8      CIL library: CIL module
 0002:000033b0       __real@3f1a36e2eb1c432d    00000001800b63b0      CIL library: CIL module
 0002:000033b8       __real@3d71979980000000    00000001800b63b8      CIL library: CIL module
 0002:000033c0       __real@3fa99999a0000000    00000001800b63c0      CIL library: CIL module
 0002:000033c8       __real@3fb99999a0000000    00000001800b63c8      CIL library: CIL module
 0002:000033d0       __real@4024000000000000    00000001800b63d0      CIL library: CIL module
 0002:000033d8       __real@3ddb7cdfe0000000    00000001800b63d8      CIL library: CIL module
 0002:000033e0       __real@bfefff9720000000    00000001800b63e0      CIL library: CIL module
 0002:000033e8       __real@3fefff9720000000    00000001800b63e8      CIL library: CIL module
 0002:000033f0       __real@3feffffde0000000    00000001800b63f0      CIL library: CIL module
 0002:000033f8       __real@bfeffffde0000000    00000001800b63f8      CIL library: CIL module
 0002:00003400       __real@3f80000000000000    00000001800b6400      CIL library: CIL module
 0002:00003408       __real@bf70000000000000    00000001800b6408      CIL library: CIL module
 0002:00003410       __real@3fe279a6c0000000    00000001800b6410      CIL library: CIL module
 0002:00003418       __real@bfe279a6c0000000    00000001800b6418      CIL library: CIL module
 0002:00003420       __real@3eb0c6f7bb730840    00000001800b6420      CIL library: CIL module
 0002:00003428       __real@3eb0c6f78dd616ff    00000001800b6428      CIL library: CIL module
 0002:00003430       __real@3c32725de0000000    00000001800b6430      CIL library: CIL module
 0002:00003438       __real@3feffe5ca0000000    00000001800b6438      CIL library: CIL module
 0002:00003440       __real@3fd0c15155555555    00000001800b6440      CIL library: CIL module
 0002:00003448       __real@bfe0000000000000    00000001800b6448      CIL library: CIL module
 0002:00003450       __real@3feff7cee0000000    00000001800b6450      CIL library: CIL module
 0002:00003458       __real@3fd921fa00000000    00000001800b6458      CIL library: CIL module
 0002:00003460       __real@bee4f8b580000000    00000001800b6460      CIL library: CIL module
 0002:00003468       __real@3ee4f8b580000000    00000001800b6468      CIL library: CIL module
 0002:00003470       __real@3fd999999999999a    00000001800b6470      CIL library: CIL module
 0002:00003478       __real@4010c15200000000    00000001800b6478      CIL library: CIL module
 0002:00003480       __real@4079000000000000    00000001800b6480      CIL library: CIL module
 0002:00003488       __real@4077700000000000    00000001800b6488      CIL library: CIL module
 0002:00003490       __real@3e698d99528f96de    00000001800b6490      CIL library: CIL module
 0002:00003498       __real@3fe99999a0000000    00000001800b6498      CIL library: CIL module
 0002:000034a0       __real@3fe3bd3ab3412000    00000001800b64a0      CIL library: CIL module
 0002:000034a8       __real@408f400000000000    00000001800b64a8      CIL library: CIL module
 0002:000034b0       __real@3ff00068e0000000    00000001800b64b0      CIL library: CIL module
 0002:000034b8       __real@3f647ae151eb8520    00000001800b64b8      CIL library: CIL module
 0002:000034c0       __real@3fb0000000000000    00000001800b64c0      CIL library: CIL module
 0002:000034c8       __real@3f1a36e2d7731900    00000001800b64c8      CIL library: CIL module
 0002:000034d0       __real@431550f7d8000000    00000001800b64d0      CIL library: CIL module
 0002:000034d8       __real@4030000000000000    00000001800b64d8      CIL library: CIL module
 0002:000034e0       __real@3fe69fbe80000000    00000001800b64e0      CIL library: CIL module
 0002:000034e8       __real@bfecccccc0000000    00000001800b64e8      CIL library: CIL module
 0002:000034f0       __real@3fefef9dc0000000    00000001800b64f0      CIL library: CIL module
 0002:000034f8       __real@3fe6a09e60000000    00000001800b64f8      CIL library: CIL module
 0002:00003500       __real@3fa1de58c0000000    00000001800b6500      CIL library: CIL module
 0002:00003508       __real@3feffb0280000000    00000001800b6508      CIL library: CIL module
 0002:00003510       __real@3f40624de0000000    00000001800b6510      CIL library: CIL module
 0002:00003518       __real@3feffbe760000000    00000001800b6518      CIL library: CIL module
 0002:00003520       __real@3e112e0be0000000    00000001800b6520      CIL library: CIL module
 0002:00003528       __real@40194af500000000    00000001800b6528      CIL library: CIL module
 0002:00003530       __real@3fd5555555555555    00000001800b6530      CIL library: CIL module
 0002:00003538       __real@3fd3333333333333    00000001800b6538      CIL library: CIL module
 0002:00003540       __real@3fc3333333333333    00000001800b6540      CIL library: CIL module
 0002:00003548       __real@4000dca355555555    00000001800b6548      CIL library: CIL module
 0002:00003550       __real@4010dca355555555    00000001800b6550      CIL library: CIL module
 0002:00003558       __real@4020000000000000    00000001800b6558      CIL library: CIL module
 0002:00003560       __real@3ee2dfd69a4df480    00000001800b6560      CIL library: CIL module
 0002:00003568       __real@3fd3333340000000    00000001800b6568      CIL library: CIL module
 0002:00003570       __real@c010000000000000    00000001800b6570      CIL library: CIL module
 0002:00003578       __real@4049000000000000    00000001800b6578      CIL library: CIL module
 0002:00003580       __real@3fecccccc0000000    00000001800b6580      CIL library: CIL module
 0002:00003588       __real@3fefd70a40000000    00000001800b6588      CIL library: CIL module
 0002:00003590       __real@3ff028f5c0000000    00000001800b6590      CIL library: CIL module
 0002:00003598       __real@bfefff2e40000000    00000001800b6598      CIL library: CIL module
 0002:000035a0       __real@3ff19999a0000000    00000001800b65a0      CIL library: CIL module
 0002:000035a8       __real@40086f41471c71c7    00000001800b65a8      CIL library: CIL module
 0002:000035b0       __real@3ff921fa00000000    00000001800b65b0      CIL library: CIL module
 0002:000035b8       __real@3fb657171c71c71c    00000001800b65b8      CIL library: CIL module
 0002:000035c0       __real@4050000000000000    00000001800b65c0      CIL library: CIL module
 0002:000035c8       __real@c000000000000000    00000001800b65c8      CIL library: CIL module
 0002:000035d0       __real@bfb99999a0000000    00000001800b65d0      CIL library: CIL module
 0002:000035d8       __real@3c670ef540000000    00000001800b65d8      CIL library: CIL module
 0002:000035e0       __real@bc9cd2b2a0000000    00000001800b65e0      CIL library: CIL module
 0002:000035e8       __real@3c9cd2b2a0000000    00000001800b65e8      CIL library: CIL module
 0002:000035f0       __real@3f91df45b05b05b0    00000001800b65f0      CIL library: CIL module
 0002:000035f8       __real@3e70000000000000    00000001800b65f8      CIL library: CIL module
 0002:00003600       __real@4056800000000000    00000001800b6600      CIL library: CIL module
 0002:00003608       __real@4066800000000000    00000001800b6608      CIL library: CIL module
 0002:00003610       __real@400921ff20000000    00000001800b6610      CIL library: CIL module
 0002:00003618       __real@3fefff2e40000000    00000001800b6618      CIL library: CIL module
 0002:00003620       __real@3f40000000000000    00000001800b6620      CIL library: CIL module
 0002:00003628       __real@3f1a36e3068db8c0    00000001800b6628      CIL library: CIL module
 0002:00003630       __real@3f70000000000000    00000001800b6630      CIL library: CIL module
 0002:00003638       __real@c197d78400000000    00000001800b6638      CIL library: CIL module
 0002:00003640       __real@baf357c2a0000000    00000001800b6640      CIL library: CIL module
 0002:00003648       __real@bff921fa00000000    00000001800b6648      CIL library: CIL module
 0002:00003650       __real@3fc6388660000000    00000001800b6650      CIL library: CIL module
 0002:00003658       __real@3fd99999a0000000    00000001800b6658      CIL library: CIL module
 0002:00003660       __real@3f0a36e3068db8c0    00000001800b6660      CIL library: CIL module
 0002:00003668       __real@3f60000000000000    00000001800b6668      CIL library: CIL module
 0002:00003670       __real@3fd51eb860000000    00000001800b6670      CIL library: CIL module
 0002:00003678       __real@3e7ad7f2a0000000    00000001800b6678      CIL library: CIL module
 0002:00003680       __real@3fefae1480000000    00000001800b6680      CIL library: CIL module
 0002:00003688       __real@3fc45f30b21788bb    00000001800b6688      CIL library: CIL module
 0002:00003690       __real@401921fb00000000    00000001800b6690      CIL library: CIL module
 0002:00003698       __real@3ff921fb00000000    00000001800b6698      CIL library: CIL module
 0002:000036a0       __real@4080000000000000    00000001800b66a0      CIL library: CIL module
 0002:000036a8       __real@3f747ae140000000    00000001800b66a8      CIL library: CIL module
 0002:000036b0       __real@3d06849b80000000    00000001800b66b0      CIL library: CIL module
 0002:000036b8       __real@3fe921fa00000000    00000001800b66b8      CIL library: CIL module
 0002:000036c0       __real@3ff0c15155555555    00000001800b66c0      CIL library: CIL module
 0002:000036c8       __real@3fe921ff20000000    00000001800b66c8      CIL library: CIL module
 0002:000036d0       __real@3fef5c2900000000    00000001800b66d0      CIL library: CIL module
 0002:000036d8       __real@431c6bf520000000    00000001800b66d8      CIL library: CIL module
 0002:000036e0       __real@3f611f0c3704ff40    00000001800b66e0      CIL library: CIL module
 0002:000036e8       __real@3ff6666660000000    00000001800b66e8      CIL library: CIL module
 0002:000036f0       __real@3ff8000000000000    00000001800b66f0      CIL library: CIL module
 0002:000036f8       __real@3f50624ddf3b645d    00000001800b66f8      CIL library: CIL module
 0002:00003700       __real@3f847ae151eb8520    00000001800b6700      CIL library: CIL module
 0002:00003708       __real@c059000000000000    00000001800b6708      CIL library: CIL module
 0002:00003710       __real@3bc79ca100000000    00000001800b6710      CIL library: CIL module
 0002:00003718       __real@404e000000000000    00000001800b6718      CIL library: CIL module
 0002:00003720       __real@3f91111120000000    00000001800b6720      CIL library: CIL module
 0002:00003728       __real@3f90000000000000    00000001800b6728      CIL library: CIL module
 0002:00003730       __real@3fb5555560000000    00000001800b6730      CIL library: CIL module
 0002:00003738       _FPinit                    00000001800b6738     LIBCMT:_fpinit_.obj
 0002:00003740       _FPmtinit                  00000001800b6740     LIBCMT:_fpinit_.obj
 0002:00003748       _FPmtterm                  00000001800b6748     LIBCMT:_fpinit_.obj
 0002:00003820       __real@3fc5555555555555    00000001800b6820     LIBCMT:_sincos_.obj
 0002:00003828       __real@3f2a01a019e83e5c    00000001800b6828     LIBCMT:_sincos_.obj
 0002:00003830       __real@3e5ae600b42fdfa7    00000001800b6830     LIBCMT:_sincos_.obj
 0002:00003838       __real@3f56c16c16c16967    00000001800b6838     LIBCMT:_sincos_.obj
 0002:00003840       __real@3e927e4fa17f65f6    00000001800b6840     LIBCMT:_sincos_.obj
 0002:00003848       __real@3da907db46cc5e42    00000001800b6848     LIBCMT:_sincos_.obj
 0002:00003850       __real@411e848000000000    00000001800b6850     LIBCMT:_sincos_.obj
 0002:00003858       ??_C@_03BLEJJJBH@sin?$AA@  00000001800b6858     LIBCMT:_sincos_.obj
 0002:0000385c       ??_C@_03LALBNOCG@cos?$AA@  00000001800b685c     LIBCMT:_sincos_.obj
 0002:00003860       ??_C@_04EIAKFFMI@sqrt?$AA@ 00000001800b6860     LIBCMT:_sqrt_.obj
 0002:00003868       ??_C@_05PBJFFIGL@floor?$AA@ 00000001800b6868     LIBCMT:_floor_.obj
 0002:00003888       __real@3fcd1e4180029834    00000001800b6888     LIBCMT:_asin_.obj
 0002:00003890       __real@3ff5d6b12001f228    00000001800b6890     LIBCMT:_asin_.obj
 0002:00003898       __real@3fdc7b297e269eac    00000001800b6898     LIBCMT:_asin_.obj
 0002:000038a0       __real@400a4646f903cdea    00000001800b68a0     LIBCMT:_asin_.obj
 0002:000038a8       __real@3fd1a2bec1b7ef59    00000001800b68a8     LIBCMT:_asin_.obj
 0002:000038b0       __real@40062021571dccfc    00000001800b68b0     LIBCMT:_asin_.obj
 0002:000038b8       __real@3fac28d390c29690    00000001800b68b8     LIBCMT:_asin_.obj
 0002:000038c0       __real@3fee324ab418f78d    00000001800b68c0     LIBCMT:_asin_.obj
 0002:000038c8       __real@3f51e5f887a62135    00000001800b68c8     LIBCMT:_asin_.obj
 0002:000038d0       __real@3fbb1a422982ce76    00000001800b68d0     LIBCMT:_asin_.obj
 0002:000038d8       __real@3f0951665d321061    00000001800b68d8     LIBCMT:_asin_.obj
 0002:000038e0       __real@bff921fb54442d18    00000001800b68e0     LIBCMT:_asin_.obj
 0002:000038e8       ??_C@_04FIHNOPOL@asin?$AA@ 00000001800b68e8     LIBCMT:_asin_.obj
 0002:00004808       __real@3fd5555555555538    00000001800b7808     LIBCMT:_atan2_.obj
 0002:00004810       __real@3fc99999999643a3    00000001800b7810     LIBCMT:_atan2_.obj
 0002:00004818       __real@3fc2492482bd6be1    00000001800b7818     LIBCMT:_atan2_.obj
 0002:00004820       __real@3fb70c3192d751c2    00000001800b7820     LIBCMT:_atan2_.obj
 0002:00004828       __real@3fbc718839b8c4eb    00000001800b7828     LIBCMT:_atan2_.obj
 0002:00004830       __real@3e45798ee2308c3a    00000001800b7830     LIBCMT:_atan2_.obj
 0002:00004838       __real@3fc99992b9802d7d    00000001800b7838     LIBCMT:_atan2_.obj
 0002:00004840       __real@3fd5555555550877    00000001800b7840     LIBCMT:_atan2_.obj
 0002:00004848       __real@8000000000000000    00000001800b7848     LIBCMT:_atan2_.obj
 0002:00004850       ??_C@_05KNGEOGJB@atan2?$AA@ 00000001800b7850     LIBCMT:_atan2_.obj
 0002:00004878       ??_C@_04PDIFKINK@acos?$AA@ 00000001800b7878     LIBCMT:_acos_.obj
 0002:00004cf0       ??_C@_03MGHMBJCF@log?$AA@  00000001800b7cf0     LIBCMT:_log_.obj
 0002:00004cf4       ??_C@_04GFPJNGEK@ceil?$AA@ 00000001800b7cf4     LIBCMT:_ceil_.obj
 0002:00005580       ??_C@_05KLBDPFGC@e?$CL000?$AA@ 00000001800b8580     LIBCMT:cvt.obj
 0002:000055a8       ??_C@_03JGHBODFD@pow?$AA@  00000001800b85a8     LIBCMT:_pow_error_.obj
 0002:000055b0       ??_C@_0L@KDOEJCKC@_nextafter?$AA@ 00000001800b85b0     LIBCMT:_fpexcept_.obj
 0002:000055bc       ??_C@_05JGDBENOH@_logb?$AA@ 00000001800b85bc     LIBCMT:_fpexcept_.obj
 0002:000055c4       ??_C@_03ONILCKOB@_yn?$AA@  00000001800b85c4     LIBCMT:_fpexcept_.obj
 0002:000055c8       ??_C@_03NAKIGLHK@_y1?$AA@  00000001800b85c8     LIBCMT:_fpexcept_.obj
 0002:000055cc       ??_C@_03MJLDFKDL@_y0?$AA@  00000001800b85cc     LIBCMT:_fpexcept_.obj
 0002:000055d0       ??_C@_05GKKHEGJL@frexp?$AA@ 00000001800b85d0     LIBCMT:_fpexcept_.obj
 0002:000055d8       ??_C@_04KEPJIHGP@fmod?$AA@ 00000001800b85d8     LIBCMT:_fpexcept_.obj
 0002:000055e0       ??_C@_06MEIMCGCF@_hypot?$AA@ 00000001800b85e0     LIBCMT:_fpexcept_.obj
 0002:000055e8       ??_C@_05KBKMEMPO@_cabs?$AA@ 00000001800b85e8     LIBCMT:_fpexcept_.obj
 0002:000055f0       ??_C@_05CEJMAHNP@ldexp?$AA@ 00000001800b85f0     LIBCMT:_fpexcept_.obj
 0002:000055f8       ??_C@_04EHEDPDJG@modf?$AA@ 00000001800b85f8     LIBCMT:_fpexcept_.obj
 0002:00005600       ??_C@_04ODHECPBC@fabs?$AA@ 00000001800b8600     LIBCMT:_fpexcept_.obj
 0002:00005608       ??_C@_03IIINPABG@tan?$AA@  00000001800b8608     LIBCMT:_fpexcept_.obj
 0002:0000560c       ??_C@_04MLLJIGOK@atan?$AA@ 00000001800b860c     LIBCMT:_fpexcept_.obj
 0002:00005614       ??_C@_04FJHINJAO@tanh?$AA@ 00000001800b8614     LIBCMT:_fpexcept_.obj
 0002:0000561c       ??_C@_04HPJJNFIM@cosh?$AA@ 00000001800b861c     LIBCMT:_fpexcept_.obj
 0002:00005624       ??_C@_04COOMCNPB@sinh?$AA@ 00000001800b8624     LIBCMT:_fpexcept_.obj
 0002:0000562c       ??_C@_05HGHHAHAP@log10?$AA@ 00000001800b862c     LIBCMT:_fpexcept_.obj
 0002:00005634       ??_C@_03KHJOGHMM@exp?$AA@  00000001800b8634     LIBCMT:_fpexcept_.obj
 0002:00005638       ??_C@_06IMKFLFPG@1?$CDQNAN?$AA@ 00000001800b8638     LIBCMT:_x10fout_.obj
 0002:00005640       ??_C@_05DNEBIAHO@1?$CDINF?$AA@ 00000001800b8640     LIBCMT:_x10fout_.obj
 0002:00005648       ??_C@_05PHHOCPM@1?$CDIND?$AA@ 00000001800b8648     LIBCMT:_x10fout_.obj
 0002:00005650       ??_C@_06PGGFOGJG@1?$CDSNAN?$AA@ 00000001800b8650     LIBCMT:_x10fout_.obj
 0002:000056e8       __rtc_iaa                  00000001800b86e8     LIBCMT:_initsect_.obj
 0002:000056f0       __rtc_izz                  00000001800b86f0     LIBCMT:_initsect_.obj
 0002:000056f8       __rtc_taa                  00000001800b86f8     LIBCMT:_initsect_.obj
 0002:00005700       __rtc_tzz                  00000001800b8700     LIBCMT:_initsect_.obj
 0002:0000dea4       __IMPORT_DESCRIPTOR_KERNEL32 00000001800c0ea4     kernel32:KERNEL32.dll
 0002:0000deb8       __NULL_IMPORT_DESCRIPTOR   00000001800c0eb8     kernel32:KERNEL32.dll
 0003:00000170       _amblksiz                  00000001800c5170     LIBCMT:heapinit.obj
 0003:00000178       _aexit_rtn                 00000001800c5178     LIBCMT:crt0dat.obj
 0003:000002f0       __flsindex                 00000001800c52f0     LIBCMT:tidtable.obj
 0003:00000300       __badioinfo                00000001800c5300     LIBCMT:ioinit.obj
 0003:00000358       _First_FPE_Indx            00000001800c5358     LIBCMT:winxfltr.obj
 0003:0000035c       _Num_FPE                   00000001800c535c     LIBCMT:winxfltr.obj
 0003:00000360       _XcptActTabSize            00000001800c5360     LIBCMT:winxfltr.obj
 0003:00000364       _XcptActTabCount           00000001800c5364     LIBCMT:winxfltr.obj
 0003:00000368       __nullstring               00000001800c5368     LIBCMT:output.obj
 0003:00000370       __wnullstring              00000001800c5370     LIBCMT:output.obj
 0003:00000378       __abort_behavior           00000001800c5378     LIBCMT:abort.obj
 0003:000005c0       _cfltcvt_tab               00000001800c55c0     LIBCMT:cmiscdat.obj
 0003:00000620       __clocalestr               00000001800c5620     LIBCMT:nlsdata2.obj
 0003:00000630       __initiallocinfo           00000001800c5630     LIBCMT:nlsdata2.obj
 0003:00000790       __ptlocinfo                00000001800c5790     LIBCMT:nlsdata2.obj
 0003:00000798       __lc_clike                 00000001800c5798     LIBCMT:nlsdata2.obj
 0003:000007a0       __initiallocalestructinfo  00000001800c57a0     LIBCMT:nlsdata2.obj
 0003:000007b0       __initialmbcinfo           00000001800c57b0     LIBCMT:mbctype.obj
 0003:000009d0       _mbctype                   00000001800c59d0     LIBCMT:mbctype.obj
 0003:00000ae0       _mbcasemap                 00000001800c5ae0     LIBCMT:mbctype.obj
 0003:00000be0       __ptmbcinfo                00000001800c5be0     LIBCMT:mbctype.obj
 0003:00000ce0       __security_cookie          00000001800c5ce0     LIBCMT:gs_cookie.obj
 0003:00000ce8       __security_cookie_complement 00000001800c5ce8     LIBCMT:gs_cookie.obj
 0003:00000cf0       _iob                       00000001800c5cf0     LIBCMT:_file.obj
 0003:000010b0       __globallocalestatus       00000001800c60b0     LIBCMT:glstatus.obj
 0003:000010c0       _pctype                    00000001800c60c0     LIBCMT:ctype.obj
 0003:000010c8       _pwctype                   00000001800c60c8     LIBCMT:ctype.obj
 0003:000010d0       __lc_time_c                00000001800c60d0     LIBCMT:strftime.obj
 0003:00001238       __lc_time_curr             00000001800c6238     LIBCMT:strftime.obj
 0003:00001240       __lconv_static_decimal     00000001800c6240     LIBCMT:lconv.obj
 0003:00001250       __lconv_c                  00000001800c6250     LIBCMT:lconv.obj
 0003:000012a8       __lconv                    00000001800c62a8     LIBCMT:lconv.obj
 0003:000012b0       __mb_cur_max               00000001800c62b0     LIBCMT:nlsdata1.obj
 0003:000012b4       __decimal_point            00000001800c62b4     LIBCMT:nlsdata1.obj
 0003:000012b8       __decimal_point_length     00000001800c62b8     LIBCMT:nlsdata1.obj
 0003:000012d0       _timezone                  00000001800c62d0     LIBCMT:timeset.obj
 0003:000012d4       _daylight                  00000001800c62d4     LIBCMT:timeset.obj
 0003:000012d8       _dstbias                   00000001800c62d8     LIBCMT:timeset.obj
 0003:00001360       _tzname                    00000001800c6360     LIBCMT:timeset.obj
 0003:00001390       _coninpfh                  00000001800c6390     LIBCMT:initcon.obj
 0003:00001398       _confh                     00000001800c6398     LIBCMT:initcon.obj
 0003:000013a0       _lpdays                    00000001800c63a0     LIBCMT:days.obj
 0003:000013d8       _days                      00000001800c63d8     LIBCMT:days.obj
 0003:00001410       ?mult@dgPolyhedraMassProperties@@0PANA 00000001800c6410     corelib:dgPolyhedraMassProperties.obj
 0003:00001880       ?m_faceIndex@dgContactSolver@@2PAY03HA 00000001800c6880     physics:dgMinkowskiConv.obj
 0003:000018c0       ?m_edgeArray@dgCollisionBox@@1PAVdgConvexSimplexEdge@@A 00000001800c68c0     physics:dgCollisionBox.obj
 0003:00001bc0       ?m_rayCastSimplex@dgConvexCollision@@1PAY03HA 00000001800c6bc0     physics:dgConvexCollision.obj
 0003:00001c00       ?m_hullDirs@dgConvexCollision@@1PAVdgTriplex@@A 00000001800c6c00     physics:dgConvexCollision.obj
 0003:00001d60       ?m_negOne@dgConvexCollision@@1VdgVector@@A 00000001800c6d60     physics:dgConvexCollision.obj
 0003:00001d80       ?m_nrh0p5@dgConvexCollision@@1VdgVector@@A 00000001800c6d80     physics:dgConvexCollision.obj
 0003:00001da0       ?m_nrh3p0@dgConvexCollision@@1VdgVector@@A 00000001800c6da0     physics:dgConvexCollision.obj
 0003:00001dc0       ?m_indexStep@dgConvexCollision@@1VdgVector@@A 00000001800c6dc0     physics:dgConvexCollision.obj
 0003:00001de0       ?m_index_0123@dgConvexCollision@@1VdgVector@@A 00000001800c6de0     physics:dgConvexCollision.obj
 0003:00001e00       ?m_index_4567@dgConvexCollision@@1VdgVector@@A 00000001800c6e00     physics:dgConvexCollision.obj
 0003:00001e20       ?m_huge@dgConvexCollision@@1VdgVector@@A 00000001800c6e20     physics:dgConvexCollision.obj
 0003:00001e40       ?m_negativeTiny@dgConvexCollision@@1VdgVector@@A 00000001800c6e40     physics:dgConvexCollision.obj
 0003:00001e60       ?m_aabb_padd@dgConvexCollision@@1VdgVector@@A 00000001800c6e60     physics:dgConvexCollision.obj
 0003:00001e80       ?m_globalAllocator@dgGlobalAllocator@@2V1@A 00000001800c6e80     corelib:dgMemory.obj
 0003:00001fc4       _fltused                   00000001800c6fc4     LIBCMT:_fpinit_.obj
 0003:00001fc8       _ldused                    00000001800c6fc8     LIBCMT:_fpinit_.obj
 0003:00002400       ?dazSupported@?1??_control87@@9@9 00000001800c7400     LIBCMT:_ieee_.obj
 0003:000025e0       _matherr_flag              00000001800c75e0     LIBCMT:_matherr_.obj
 0003:00002620       _d_inf                     00000001800c7620     LIBCMT:_util_.obj
 0003:00002628       _d_ind                     00000001800c7628     LIBCMT:_util_.obj
 0003:00002630       _d_max                     00000001800c7630     LIBCMT:_util_.obj
 0003:00002638       _d_min                     00000001800c7638     LIBCMT:_util_.obj
 0003:00002640       _d_mzero                   00000001800c7640     LIBCMT:_util_.obj
 0003:00002650       _pow10pos                  00000001800c7650     LIBCMT:_constpow_.obj
 0003:000027b0       _pow10neg                  00000001800c77b0     LIBCMT:_constpow_.obj
 0003:00002924       __error_mode               00000001800c7924     LIBCMT:dllcrt0.obj
 0003:00002928       _aenvptr                   00000001800c7928     LIBCMT:dllcrt0.obj
 0003:00002930       _wenvptr                   00000001800c7930     LIBCMT:dllcrt0.obj
 0003:00002938       __app_type                 00000001800c7938     LIBCMT:dllcrt0.obj
 0003:00002940       _crtheap                   00000001800c7940     LIBCMT:heapinit.obj
 0003:00002948       _umaskval                  00000001800c7948     LIBCMT:crt0dat.obj
 0003:0000294c       __argc                     00000001800c794c     LIBCMT:crt0dat.obj
 0003:00002950       __argv                     00000001800c7950     LIBCMT:crt0dat.obj
 0003:00002958       __wargv                    00000001800c7958     LIBCMT:crt0dat.obj
 0003:00002960       _environ                   00000001800c7960     LIBCMT:crt0dat.obj
 0003:00002968       __initenv                  00000001800c7968     LIBCMT:crt0dat.obj
 0003:00002970       _wenviron                  00000001800c7970     LIBCMT:crt0dat.obj
 0003:00002978       __winitenv                 00000001800c7978     LIBCMT:crt0dat.obj
 0003:00002980       _pgmptr                    00000001800c7980     LIBCMT:crt0dat.obj
 0003:00002988       _wpgmptr                   00000001800c7988     LIBCMT:crt0dat.obj
 0003:00002990       _exitflag                  00000001800c7990     LIBCMT:crt0dat.obj
 0003:00002994       _C_Termination_Done        00000001800c7994     LIBCMT:crt0dat.obj
 0003:00002998       _C_Exit_Done               00000001800c7998     LIBCMT:crt0dat.obj
 0003:00002cb8       ?_pnhHeap@@3P6AH_K@ZEA     00000001800c7cb8     LIBCMT:handler.obj
 0003:00002cc0       _newmode                   00000001800c7cc0     LIBCMT:_newmode.obj
 0003:00002cc4       _maxwait                   00000001800c7cc4     LIBCMT:crtheap.obj
 0003:00002de0       __pInvalidArgHandler       00000001800c7de0     LIBCMT:invarg.obj
 0003:00002df0       __pPurecall                00000001800c7df0     LIBCMT:inithelp.obj
 0003:00003030       ?__pInconsistency@@3P6AXXZEA 00000001800c8030     LIBCMT:hooks.obj
 0003:00003098       __locale_changed           00000001800c8098     LIBCMT:setlocal.obj
 0003:000030a0       __lc_handle                00000001800c80a0     LIBCMT:nlsdata2.obj
 0003:000030b8       __lc_codepage              00000001800c80b8     LIBCMT:nlsdata2.obj
 0003:000030bc       __lc_collate_cp            00000001800c80bc     LIBCMT:nlsdata2.obj
 0003:000030c8       __mbulinfo                 00000001800c80c8     LIBCMT:mbctype.obj
 0003:000030d4       __mbcodepage               00000001800c80d4     LIBCMT:mbctype.obj
 0003:000030d8       __ismbcodepage             00000001800c80d8     LIBCMT:mbctype.obj
 0003:000030dc       __mblcid                   00000001800c80dc     LIBCMT:mbctype.obj
 0003:000030e0       _cflush                    00000001800c80e0     LIBCMT:_file.obj
 0003:000030f0       __lconv_static_null        00000001800c80f0     LIBCMT:lconv.obj
 0003:00003100       _stdbuf                    00000001800c8100     LIBCMT:_sftbuf.obj
 0003:00003744       __@@_PchSym_@00@UmvdglmPCAAUDworyUgllohUmvdglmUkilqvxgPehCAAIUcGEUmvdglmUivovzhvPCAAJPwlfyovPwooUmvdglmxozhhOlyq@ 00000001800c8744     NewtonClass.obj
 0003:00003748       __@@_PchSym_@00@UmvdglmPCAAUDworyUgllohUmvdglmUkilqvxgPehCAAIUcGEUksbhrxhUivovzhvPCAAJPwlfyovPwooUwtdliowOlyq@ 00000001800c8748     physics:dgWorld.obj
 0003:0000374c       __@@_PchSym_@00@UmvdglmPCAAUDworyUgllohUmvdglmUkilqvxgPehCAAIUcGEUxlivoryUivovzhvPCAAJPwlfyovPwooUwtgbkvhOlyq@ 00000001800c874c     corelib:dgTypes.obj
 0003:00003750       ?m_edgeArray@dgCollisionSphere@@1PAVdgConvexSimplexEdge@@A 00000001800c8750     physics:dgCollisionSphere.obj
 0003:00004350       ?m_edgeArray@dgCollisionCapsule@@0PAVdgConvexSimplexEdge@@A 00000001800c9350     physics:dgCollisionCapsule.obj
 0003:000059d0       ?m_edgeArray@dgCollisionCone@@0PAVdgConvexSimplexEdge@@A 00000001800ca9d0     physics:dgCollisionCone.obj
 0003:00005dd0       ?m_edgeArray@dgCollisionCylinder@@0PAVdgConvexSimplexEdge@@A 00000001800cadd0     physics:dgCollisionCylinder.obj
 0003:000063d0       ?m_edgeArray@dgCollisionChamferCylinder@@0PAVdgConvexSimplexEdge@@A 00000001800cb3d0     physics:dgCollisionChamferCylinder.obj
 0003:000075d0       ?m_shapeRefCount@dgCollisionSphere@@1HA 00000001800cc5d0     physics:dgCollisionSphere.obj
 0003:000075d4       ?m_iniliazised@dgConvexCollision@@1HA 00000001800cc5d4     physics:dgConvexCollision.obj
 0003:000075d8       ?m_shapeRefCount@dgCollisionCapsule@@0HA 00000001800cc5d8     physics:dgCollisionCapsule.obj
 0003:000075dc       ?m_shapeRefCount@dgCollisionCone@@0HA 00000001800cc5dc     physics:dgCollisionCone.obj
 0003:000075e0       ?m_shapeRefCount@dgCollisionCylinder@@0HA 00000001800cc5e0     physics:dgCollisionCylinder.obj
 0003:000075e4       ?m_shapeRefCount@dgCollisionChamferCylinder@@0HA 00000001800cc5e4     physics:dgCollisionChamferCylinder.obj
 0003:000075f0       ?m_zero@dgConvexCollision@@1VdgVector@@A 00000001800cc5f0     physics:dgConvexCollision.obj
 0003:00007610       ?m_signMask@dgConvexCollision@@1VdgVector@@A 00000001800cc610     physics:dgConvexCollision.obj
 0003:00007630       ?m_triplexMask@dgConvexCollision@@1VdgVector@@A 00000001800cc630     physics:dgConvexCollision.obj
 0003:000076f0       ?m_unitSphere@dgCollisionSphere@@1PAVdgVector@@A 00000001800cc6f0     physics:dgCollisionSphere.obj
 0003:00007930       ?m_multiResDir@dgConvexCollision@@1PAVdgVector@@A 00000001800cc930     physics:dgConvexCollision.obj
 0003:00007a30       ?m_multiResDir_sse@dgConvexCollision@@1PAVdgVector@@A 00000001800cca30     physics:dgConvexCollision.obj
 0003:00007af0       ?m_shapesDirs@dgCollisionChamferCylinder@@0PAVdgVector@@A 00000001800ccaf0     physics:dgCollisionChamferCylinder.obj
 0003:00007bf0       ?m_dir@dgContactSolver@@2PAVdgVector@@A 00000001800ccbf0     physics:dgMinkowskiConv.obj
 0003:00007eb0       __fastflag                 00000001800cceb0     LIBCMT:_fpinit_.obj
 0003:00007eb4       _outputformat              00000001800cceb4     LIBCMT:outputformat.obj
 0003:00007eb8       _debugger_hook_dummy       00000001800cceb8     <common>
 0003:00007ec0       __piob                     00000001800ccec0     <common>
 0003:00007ee0       _bufin                     00000001800ccee0     <common>
 0003:00008ee0       _nstream                   00000001800cdee0     <common>
 0003:00008ee8       _pDestructExceptionObject  00000001800cdee8     <common>
 0003:00008ef0       _nhandle                   00000001800cdef0     <common>
 0003:00008f00       __pioinfo                  00000001800cdf00     <common>
 0003:00009100       __env_initialized          00000001800ce100     <common>
 0003:00009108       __onexitend                00000001800ce108     <common>
 0003:00009110       __onexitbegin              00000001800ce110     <common>
 0003:00009118       __mbctype_initialized      00000001800ce118     <common>
 0003:00009120       __dyn_tls_init_callback    00000001800ce120     <common>
 0003:00009128       _acmdln                    00000001800ce128     <common>

 entry point at        0001:000a213c

 Static symbols

 0001:0000e3c0       ?CompareIslands@@YAHQEBVdgIsland@@0PEAX@Z 000000018000f3c0 f    CIL library: CIL module
 0001:000202a0       ?CompareContact@@YAHQEBVdgContactPoint@@0PEAX@Z 00000001800212a0 f    CIL library: CIL module
 0001:000812f0       ?MatchTwins@InternalPolyhedra@@YA_NPEAVdgPolyhedra@@@Z 00000001800822f0 f    CIL library: CIL module
 0001:000813f0       ?CloseOpenBounds@InternalPolyhedra@@YAXPEAVdgPolyhedra@@@Z 00000001800823f0 f    CIL library: CIL module
 0001:000815f0       ?NormalizeVertex@InternalPolyhedra@@YAXHQEAVdgTriplex@@QEBNH@Z 00000001800825f0 f    CIL library: CIL module
 0001:000817d0       ?EdgePlane@InternalPolyhedra@@YA?AVdgBigPlane@@HHHQEBVdgTriplex@@@Z 00000001800827d0 f    CIL library: CIL module
 0001:000819a0       ?UnboundedLoopPlane@InternalPolyhedra@@YA?AVdgBigPlane@@HHHQEBVdgTriplex@@@Z 00000001800829a0 f    CIL library: CIL module
 0001:00081c40       ?CalculateAllMetrics@InternalPolyhedra@@YAXPEBVdgPolyhedra@@QEAUVERTEX_METRIC_STRUCT@1@QEBVdgTriplex@@@Z 0000000180082c40 f    CIL library: CIL module
 0001:000820d0       ?BigFaceNormal@InternalPolyhedra@@YA?AVdgBigVector@@PEAVdgEdge@@QEBNH@Z 00000001800830d0 f    CIL library: CIL module
 0001:00082370       ?EdgePenalty@InternalPolyhedra@@YANAEBVdgPolyhedra@@QEBVdgTriplex@@PEAVdgEdge@@@Z 0000000180083370 f    CIL library: CIL module
 0001:00082b30       ?CalculateVertexMetrics@InternalPolyhedra@@YAXQEAUVERTEX_METRIC_STRUCT@1@QEBVdgTriplex@@PEAVdgEdge@@@Z 0000000180083b30 f    CIL library: CIL module
 0001:00082e20       ?RefineTriangulation@InternalPolyhedra@@YAXAEAVdgPolyhedra@@QEBNHQEAVdgVector@@HQEAPEAVdgEdge@@@Z 0000000180083e20 f    CIL library: CIL module
 0001:00083c80       ?FindEarTip@InternalPolyhedra@@YAPEAVdgEdge@@AEBVdgPolyhedra@@QEAV2@QEBNHAEAV?$dgDownHeap@PEAVdgEdge@@N@@AEBVdgVector@@@Z 0000000180084c80 f    CIL library: CIL module
 0001:000843c0       ?IsEssensialPointDiagonal@InternalPolyhedra@@YA_NQEAVdgEdge@@AEBVdgBigVector@@QEBNH@Z 00000001800853c0 f    CIL library: CIL module
 0001:00084670       ?MarkAdjacentCoplanarFaces@InternalPolyhedra@@YAXAEAVdgPolyhedra@@0QEAVdgEdge@@QEBNH@Z 0000000180085670 f    CIL library: CIL module
 0001:00084df0       ?RemoveColinearVertices@InternalPolyhedra@@YAXAEAVdgPolyhedra@@QEBNH@Z 0000000180085df0 f    CIL library: CIL module
 0001:00085360       ?RefineTriangulation@InternalPolyhedra@@YAXAEAVdgPolyhedra@@QEBNH@Z 0000000180086360 f    CIL library: CIL module
 0001:00085500       ?TriangulateFace@InternalPolyhedra@@YAPEAVdgEdge@@AEAVdgPolyhedra@@PEAV2@QEBNHAEAV?$dgDownHeap@PEAVdgEdge@@N@@QEAVdgVector@@@Z 0000000180086500 f    CIL library: CIL module
 0001:000859f0       ?OptimizeTriangulation@InternalPolyhedra@@YAXAEAVdgPolyhedra@@QEBNH@Z 00000001800869f0 f    CIL library: CIL module
 0001:00085d80       ?ConvexPartition@InternalPolyhedra@@YA_NAEAVdgPolyhedra@@QEBNH@Z 0000000180086d80 f    CIL library: CIL module
 0001:0008b3a0       ?SortVertices@InternalGeoUtil@@YAHQEANHHHHN@Z 000000018008c3a0 f    CIL library: CIL module
 0001:0008bee0       ?QuickSortVertices@InternalGeoUtil@@YAHQEANHHHHN@Z 000000018008cee0 f    CIL library: CIL module
 0001:00098c00       ??0dgSpliteInfo@?6??BuildTree@dgAABBTree@@QEAAPEAVdgConstructionTree@2@QEAVdgMemoryAllocator@@HHQEAV2@QEBVdgTriplex@@@Z@QEAA@1H2QEBV32@@Z 0000000180099c00 f    CIL library: CIL module
 0001:000a2024       __DllMainCRTStartup        00000001800a3024 f   LIBCMT:dllcrt0.obj
 0001:000a2400       _callthreadstartex         00000001800a3400 f   LIBCMT:threadex.obj
 0001:000a242c       _threadstartex             00000001800a342c f   LIBCMT:threadex.obj
 0001:000a27a8       _initterm                  00000001800a37a8 f   LIBCMT:crt0dat.obj
 0001:000a28c8       doexit                     00000001800a38c8 f   LIBCMT:crt0dat.obj
 0001:000a3738       parse_cmdline              00000001800a4738 f   LIBCMT:stdargv.obj
 0001:000a42ac       write_char                 00000001800a52ac f   LIBCMT:output.obj
 0001:000a42f4       write_multi_char           00000001800a52f4 f   LIBCMT:output.obj
 0001:000a4348       write_string               00000001800a5348 f   LIBCMT:output.obj
 0001:000a5f88       _updatetlocinfoEx_nolock   00000001800a6f88 f   LIBCMT:setlocal.obj
 0001:000a6058       ?setSBCS@@YAXPEAUthreadmbcinfostruct@@@Z 00000001800a7058 f   LIBCMT:mbctype.obj
 0001:000a60ec       ?setSBUpLow@@YAXPEAUthreadmbcinfostruct@@@Z 00000001800a70ec f   LIBCMT:mbctype.obj
 0001:000a638c       ?getSystemCP@@YAHH@Z       00000001800a738c f   LIBCMT:mbctype.obj
 0001:000a6a38       ?x_ismbbtype_l@@YAHPEAUlocaleinfo_struct@@IHH@Z 00000001800a7a38 f   LIBCMT:ismbbyte.obj
 0001:000a85a8       ?__crtGetStringTypeA_stat@@YAHPEAUlocaleinfo_struct@@KPEBDHPEAGHHH@Z 00000001800a95a8 f   LIBCMT:a_str.obj
 0001:000a8968       ?__crtLCMapStringA_stat@@YAHPEAUlocaleinfo_struct@@KKPEBDHPEADHHH@Z 00000001800a9968 f   LIBCMT:a_map.obj
 0001:000a9544       flsall                     00000001800aa544 f   LIBCMT:fflush.obj
 0001:000a9790       ?strtoxl@@YAKPEAUlocaleinfo_struct@@PEBDPEAPEBDHH@Z 00000001800aa790 f   LIBCMT:strtol.obj
 0001:000aa510       sin_piby4                  00000001800ab510 f   LIBCMT:_sincos_.obj
 0001:000aa5b4       cos_piby4                  00000001800ab5b4 f   LIBCMT:_sincos_.obj
 0001:000ac81c       _cftoe2_l                  00000001800ad81c f   LIBCMT:cvt.obj
 0001:000acfac       _cftof2_l                  00000001800adfac f   LIBCMT:cvt.obj
 0001:000ad9d0       _call_matherr              00000001800ae9d0 f   LIBCMT:_libm_error_.obj
 0001:000ada38       _exception_enabled         00000001800aea38 f   LIBCMT:_libm_error_.obj
 0001:000b0e50       __DllMainCRTStartup$filt$0 00000001800b1e50 f   LIBCMT:dllcrt0.obj
 0001:000b0e6c       _onexit$fin$0              00000001800b1e6c f   LIBCMT:onexit.obj
 0001:000b0e80       _callthreadstartex$filt$0  00000001800b1e80 f   LIBCMT:threadex.obj
 0001:000b0e9c       doexit$fin$0               00000001800b1e9c f   LIBCMT:crt0dat.obj
 0001:000b0ebe       _initptd$fin$1             00000001800b1ebe f   LIBCMT:tidtable.obj
 0001:000b0ebe       _freefls$fin$1             00000001800b1ebe f   LIBCMT:tidtable.obj
 0001:000b0ede       _initptd$fin$0             00000001800b1ede f   LIBCMT:tidtable.obj
 0001:000b0ede       _freefls$fin$0             00000001800b1ede f   LIBCMT:tidtable.obj
 0001:000b0f00       _IsNonwritableInCurrentImage$filt$0 00000001800b1f00 f   LIBCMT:pesect.obj
 0001:000b0f21       _mtinitlocknum$fin$0       00000001800b1f21 f   LIBCMT:mlock.obj
 0001:000b0f3d       raise$fin$0                00000001800b1f3d f   LIBCMT:winsig.obj
 0001:000b0f59       __crtInitCritSecAndSpinCount$filt$0 00000001800b1f59 f   LIBCMT:initcrit.obj
 0001:000b0f7a       __updatetlocinfo$fin$0     00000001800b1f7a f   LIBCMT:setlocal.obj
 0001:000b0f93       __updatetmbcinfo$fin$0     00000001800b1f93 f   LIBCMT:mbctype.obj
 0001:000b0f93       _setmbcp$fin$0             00000001800b1f93 f   LIBCMT:mbctype.obj
 0001:000b0fac       _lseeki64$fin$0            00000001800b1fac f   LIBCMT:write.obj
 0001:000b0fac       _write$fin$0               00000001800b1fac f   LIBCMT:write.obj
 0001:000b0fc3       __lock_fhandle$fin$0       00000001800b1fc3 f   LIBCMT:osfinfo.obj
 0001:000b0fdc       _fcloseall$fin$0           00000001800b1fdc f   LIBCMT:closeall.obj
 0001:000b0ff5       flsall$fin$0               00000001800b1ff5 f   LIBCMT:fflush.obj
 0001:000b1025       flsall$fin$1               00000001800b2025 f   LIBCMT:fflush.obj
 0001:000b103e       fclose$fin$0               00000001800b203e f   LIBCMT:fclose.obj
 0001:000b1056       _close$fin$0               00000001800b2056 f   LIBCMT:close.obj
 0001:000b1056       _commit$fin$0              00000001800b2056 f   LIBCMT:close.obj
 0001:000b106d       _control87$filt$0          00000001800b206d f   LIBCMT:_ieee_.obj
 0001:000b106d       _ctrlfp$filt$0             00000001800b206d f   LIBCMT:_ieee_.obj
 0001:000b10a0       ??__E?m_globalAllocator@dgGlobalAllocator@@2V1@A@@YAXXZ 00000001800b20a0 f    CIL library: CIL module
 0001:000b10f0       ??__EzeroMatrix@@YAXXZ     00000001800b20f0 f    CIL library: CIL module
 0001:000b1220       ??__EidentityMatrix@@YAXXZ 00000001800b2220 f    CIL library: CIL module
 0001:000b1360       ??__EidentitySphere@@YAXXZ 00000001800b2360 f    CIL library: CIL module
 0001:000b1380       ??__F?m_globalAllocator@dgGlobalAllocator@@2V1@A@@YAXXZ 00000001800b2380 f    CIL library: CIL module
