 newton_d

 Timestamp is 4d42f04d (Fri Jan 28 08:35:25 2011)

 Preferred load address is 0000000180000000

 Start         Length     Name                   Class
 0001:00000000 001bfef0H .text                   CODE
 0001:001bfef0 00001026H .text$0                 CODE
 0001:001c0f20 00001104H .text$00                CODE
 0001:001c2030 0000228bH .text$x                 CODE
 0001:001c42c0 000016e6H .text$yc                CODE
 0001:001c59b0 0000101aH .text$yd                CODE
 0002:00000000 00000109H .CRT$XCA                DATA
 0002:00000110 000001c9H .CRT$XCU                DATA
 0002:000002e0 00000109H .CRT$XCZ                DATA
 0002:000003f0 00000109H .CRT$XIA                DATA
 0002:00000500 0000011cH .CRT$XIC                DATA
 0002:00000620 00000109H .CRT$XIZ                DATA
 0002:00000730 00000109H .CRT$XPA                DATA
 0002:00000840 00000113H .CRT$XPX                DATA
 0002:00000958 00000109H .CRT$XPXA               DATA
 0002:00000a68 00000109H .CRT$XPZ                DATA
 0002:00000b78 00000109H .CRT$XTA                DATA
 0002:00000c88 00000109H .CRT$XTZ                DATA
 0002:00000da0 000379fcH .rdata                  DATA
 0002:0003879c 0000018dH .rdata$debug            DATA
 0002:00038930 0000048bH .rdata$r                DATA
 0002:00038dc0 00000109H .rtc$IAA                DATA
 0002:00038ed0 00000109H .rtc$IZZ                DATA
 0002:00038fe0 00000109H .rtc$TAA                DATA
 0002:000390f0 00000109H .rtc$TZZ                DATA
 0002:00039200 000092f0H .xdata                  DATA
 0002:000424f0 0000019eH .xdata$x                DATA
 0002:00042690 00003d6eH .edata                  DATA
 0003:00000000 0000318dH .data                   DATA
 0003:000031a0 00007091H .bss                    DATA
 0004:00000000 0000a290H .pdata                  DATA
 0005:00000000 00000014H .idata$2                DATA
 0005:00000014 00000014H .idata$3                DATA
 0005:00000028 00000460H .idata$4                DATA
 0005:00000488 00000460H .idata$5                DATA
 0005:000008e8 000009a5H .idata$6                DATA
 0006:00000000 00000169H .rsrc$01                DATA
 0006:00000170 00000580H .rsrc$02                DATA

  Address         Publics by Value              Rva+Base               Lib:Object

 0000:00000000       ___safe_se_handler_count   0000000000000000     <absolute>
 0000:00000000       ___safe_se_handler_table   0000000000000000     <absolute>
 0000:00000000       __ImageBase                0000000180000000     <linker-defined>
 0001:00001640       ?TraceFuntionName@@YAXPEBD@Z 0000000180002640 f   Newton.obj
 0001:00001670       DllMain                    0000000180002670 f   Newton.obj
 0001:00001690       NewtonGetMemoryUsed        0000000180002690 f   Newton.obj
 0001:000016b0       NewtonSetMemorySystem      00000001800026b0 f   Newton.obj
 0001:00001720       NewtonCreate               0000000180002720 f   Newton.obj
 0001:00001890       NewtonDestroy              0000000180002890 f   Newton.obj
 0001:00001960       NewtonInvalidateCache      0000000180002960 f   Newton.obj
 0001:00001990       NewtonSetPlatformArchitecture 0000000180002990 f   Newton.obj
 0001:000019c0       NewtonGetPlatformArchitecture 00000001800029c0 f   Newton.obj
 0001:00001a00       NewtonWorldCriticalSectionLock 0000000180002a00 f   Newton.obj
 0001:00001a30       NewtonWorldCriticalSectionUnlock 0000000180002a30 f   Newton.obj
 0001:00001a60       NewtonSetThreadsCount      0000000180002a60 f   Newton.obj
 0001:00001a90       NewtonGetThreadsCount      0000000180002a90 f   Newton.obj
 0001:00001ac0       NewtonGetMaxThreadsCount   0000000180002ac0 f   Newton.obj
 0001:00001af0       NewtonSetMultiThreadSolverOnSingleIsland 0000000180002af0 f   Newton.obj
 0001:00001b20       NewtonGetMultiThreadSolverOnSingleIsland 0000000180002b20 f   Newton.obj
 0001:00001b50       NewtonSetSolverModel       0000000180002b50 f   Newton.obj
 0001:00001b80       NewtonSetFrictionModel     0000000180002b80 f   Newton.obj
 0001:00001bb0       NewtonSetPerformanceClock  0000000180002bb0 f   Newton.obj
 0001:00001bf0       NewtonReadPerformanceTicks 0000000180002bf0 f   Newton.obj
 0001:00001c20       NewtonReadThreadPerformanceTicks 0000000180002c20 f   Newton.obj
 0001:00001c50       NewtonUpdate               0000000180002c50 f   Newton.obj
 0001:00001d40       NewtonCollisionUpdate      0000000180002d40 f   Newton.obj
 0001:00001d90       NewtonSetMinimumFrameRate  0000000180002d90 f   Newton.obj
 0001:00001df0       NewtonDestroyAllBodies     0000000180002df0 f   Newton.obj
 0001:00001e90       NewtonSetWorldSize         0000000180002e90 f   Newton.obj
 0001:00001f60       NewtonSetIslandUpdateEvent 0000000180002f60 f   Newton.obj
 0001:00001fa0       NewtonSetCollisionDestructor 0000000180002fa0 f   Newton.obj
 0001:00001fe0       NewtonSetDestroyBodyByExeciveForce 0000000180002fe0 f   Newton.obj
 0001:00002020       NewtonSetBodyLeaveWorldEvent 0000000180003020 f   Newton.obj
 0001:00002060       NewtonWorldGetFirstBody    0000000180003060 f   Newton.obj
 0001:00002120       NewtonWorldGetNextBody     0000000180003120 f   Newton.obj
 0001:00002180       NewtonWorldForEachJointDo  0000000180003180 f   Newton.obj
 0001:000022b0       NewtonWorldForEachBodyInAABBDo 00000001800032b0 f   Newton.obj
 0001:00002390       NewtonWorldGetVersion      0000000180003390 f   Newton.obj
 0001:000023a0       NewtonWorldFloatSize       00000001800033a0 f   Newton.obj
 0001:000023b0       NewtonWorldSetUserData     00000001800033b0 f   Newton.obj
 0001:000023f0       NewtonWorldGetUserData     00000001800033f0 f   Newton.obj
 0001:00002420       NewtonWorldSetDestructorCallBack 0000000180003420 f   Newton.obj
 0001:00002460       NewtonWorldGetDestructorCallBack 0000000180003460 f   Newton.obj
 0001:00002490       NewtonWorldGetBodyCount    0000000180003490 f   Newton.obj
 0001:000024c0       NewtonWorldGetConstraintCount 00000001800034c0 f   Newton.obj
 0001:000024f0       NewtonWorldRayCast         00000001800034f0 f   Newton.obj
 0001:000025f0       NewtonWorldConvexCast      00000001800035f0 f   Newton.obj
 0001:000026d0       NewtonIslandGetBody        00000001800036d0 f   Newton.obj
 0001:00002710       NewtonIslandGetBodyAABB    0000000180003710 f   Newton.obj
 0001:00002770       NewtonMaterialGetDefaultGroupID 0000000180003770 f   Newton.obj
 0001:000027a0       NewtonMaterialCreateGroupID 00000001800037a0 f   Newton.obj
 0001:000027d0       NewtonMaterialDestroyAllGroupID 00000001800037d0 f   Newton.obj
 0001:00002800       NewtonMaterialSetDefaultCollidable 0000000180003800 f   Newton.obj
 0001:00002880       NewtonMaterialSetContinuousCollisionMode 0000000180003880 f   Newton.obj
 0001:00002900       NewtonMaterialSetSurfaceThickness 0000000180003900 f   Newton.obj
 0001:00002970       NewtonMaterialSetDefaultFriction 0000000180003970 f   Newton.obj
 0001:00002ac0       NewtonMaterialSetDefaultElasticity 0000000180003ac0 f   Newton.obj
 0001:00002b30       NewtonMaterialSetDefaultSoftness 0000000180003b30 f   Newton.obj
 0001:00002ba0       NewtonMaterialSetCollisionCallback 0000000180003ba0 f   Newton.obj
 0001:00002c10       ?NewtonMaterialSetCompondCollisionCallback@@YAXPEBUNewtonWorld@@HHP6AHPEBUNewtonMaterial@@PEBUNewtonBody@@2H@Z@Z 0000000180003c10 f   Newton.obj
 0001:00002c70       NewtonMaterialGetUserData  0000000180003c70 f   Newton.obj
 0001:00002cc0       NewtonWorldGetFirstMaterial 0000000180003cc0 f   Newton.obj
 0001:00002cf0       NewtonWorldGetNextMaterial 0000000180003cf0 f   Newton.obj
 0001:00002d30       NewtonMaterialGetMaterialPairUserData 0000000180003d30 f   Newton.obj
 0001:00002d60       NewtonMaterialGetContactFaceAttribute 0000000180003d60 f   Newton.obj
 0001:00002d90       NewtonMaterialGetContactNormalSpeed 0000000180003d90 f   Newton.obj
 0001:00002f40       NewtonMaterialGetContactTangentSpeed 0000000180003f40 f   Newton.obj
 0001:00003180       NewtonMaterialGetContactPositionAndNormal 0000000180004180 f   Newton.obj
 0001:00003220       NewtonMaterialGetContactForce 0000000180004220 f   Newton.obj
 0001:00003330       NewtonMaterialGetContactTangentDirections 0000000180004330 f   Newton.obj
 0001:000033e0       NewtonMaterialGetBodyCollisionID 00000001800043e0 f   Newton.obj
 0001:00003450       NewtonMaterialSetContactSoftness 0000000180004450 f   Newton.obj
 0001:000034a0       NewtonMaterialSetContactElasticity 00000001800044a0 f   Newton.obj
 0001:000034f0       NewtonMaterialSetContactFrictionState 00000001800044f0 f   Newton.obj
 0001:00003590       NewtonMaterialSetContactFrictionCoef 0000000180004590 f   Newton.obj
 0001:00003690       NewtonMaterialSetContactNormalAcceleration 0000000180004690 f   Newton.obj
 0001:000036e0       NewtonMaterialSetContactTangentAcceleration 00000001800046e0 f   Newton.obj
 0001:00003770       NewtonMaterialSetContactNormalDirection 0000000180004770 f   Newton.obj
 0001:000038f0       NewtonMaterialContactRotateTangentDirections 00000001800048f0 f   Newton.obj
 0001:00003a70       NewtonCreateNull           0000000180004a70 f   Newton.obj
 0001:00003aa0       NewtonCreateBox            0000000180004aa0 f   Newton.obj
 0001:00003b80       NewtonCreateSphere         0000000180004b80 f   Newton.obj
 0001:00003d20       NewtonCreateCone           0000000180004d20 f   Newton.obj
 0001:00003df0       NewtonCreateCapsule        0000000180004df0 f   Newton.obj
 0001:00003ec0       NewtonCreateCylinder       0000000180004ec0 f   Newton.obj
 0001:00003f90       NewtonCreateChamferCylinder 0000000180004f90 f   Newton.obj
 0001:00004060       NewtonCreateConvexHull     0000000180005060 f   Newton.obj
 0001:00004170       NewtonCreateConvexHullFromMesh 0000000180005170 f   Newton.obj
 0001:000041c0       NewtonCreateConvexHullModifier 00000001800051c0 f   Newton.obj
 0001:00004210       NewtonConvexHullModifierGetMatrix 0000000180005210 f   Newton.obj
 0001:000042a0       NewtonConvexHullModifierSetMatrix 00000001800052a0 f   Newton.obj
 0001:000042f0       NewtonCreateCompoundCollision 00000001800052f0 f   Newton.obj
 0001:00004350       NewtonCreateCompoundCollisionFromMesh 0000000180005350 f   Newton.obj
 0001:000043c0       NewtonCreateCompoundBreakable 00000001800053c0 f   Newton.obj
 0001:00004460       NewtonCompoundBreakableResetAnchoredPieces 0000000180005460 f   Newton.obj
 0001:000044b0       NewtonCompoundBreakableSetAnchoredPieces 00000001800054b0 f   Newton.obj
 0001:00004520       NewtonBreakableGetMainMesh 0000000180005520 f   Newton.obj
 0001:00004580       NewtonBreakableBeginDelete 0000000180005580 f   Newton.obj
 0001:000045d0       NewtonBreakableCreateDebrieBody 00000001800055d0 f   Newton.obj
 0001:00004640       NewtonBreakableDeleteComponent 0000000180005640 f   Newton.obj
 0001:000046a0       NewtonBreakableEndDelete   00000001800056a0 f   Newton.obj
 0001:000046f0       NewtonBreakableGetFirstComponent 00000001800056f0 f   Newton.obj
 0001:00004750       NewtonBreakableGetNextComponent 0000000180005750 f   Newton.obj
 0001:000047b0       NewtonCompoundBreakableGetVertexCount 00000001800057b0 f   Newton.obj
 0001:00004810       NewtonCompoundBreakableGetVertexStreams 0000000180005810 f   Newton.obj
 0001:000048a0       NewtonBreakableGetFirstSegment 00000001800058a0 f   Newton.obj
 0001:000048e0       NewtonBreakableGetNextSegment 00000001800058e0 f   Newton.obj
 0001:00004910       NewtonBreakableGetComponentsInRadius 0000000180005910 f   Newton.obj
 0001:000049e0       NewtonBreakableSegmentGetMaterial 00000001800059e0 f   Newton.obj
 0001:00004a10       NewtonBreakableSegmentGetIndexCount 0000000180005a10 f   Newton.obj
 0001:00004a40       NewtonBreakableSegmentGetIndexStream 0000000180005a40 f   Newton.obj
 0001:00004ac0       NewtonBreakableSegmentGetIndexStreamShort 0000000180005ac0 f   Newton.obj
 0001:00004b40       NewtonCollisionIsTriggerVolume 0000000180005b40 f   Newton.obj
 0001:00004b90       NewtonCollisionSetAsTriggerVolume 0000000180005b90 f   Newton.obj
 0001:00004be0       NewtonCollisionSetMaxBreakImpactImpulse 0000000180005be0 f   Newton.obj
 0001:00004c20       NewtonCollisionGetMaxBreakImpactImpulse 0000000180005c20 f   Newton.obj
 0001:00004c60       NewtonCollisionSetUserID   0000000180005c60 f   Newton.obj
 0001:00004c90       NewtonCollisionGetUserID   0000000180005c90 f   Newton.obj
 0001:00004cc0       NewtonConvexHullGetFaceIndices 0000000180005cc0 f   Newton.obj
 0001:00004d20       NewtonConvexCollisionCalculateVolume 0000000180005d20 f   Newton.obj
 0001:00004d50       NewtonConvexCollisionCalculateInertialMatrix 0000000180005d50 f   Newton.obj
 0001:00004e80       NewtonCreateUserMeshCollision 0000000180005e80 f   Newton.obj
 0001:00004fd0       NewtonCreateTreeCollision  0000000180005fd0 f   Newton.obj
 0001:00005020       NewtonStaticCollisionSetDebugCallback 0000000180006020 f   Newton.obj
 0001:000050a0       NewtonTreeCollisionSetUserRayCastCallback 00000001800060a0 f   Newton.obj
 0001:000050f0       NewtonHeightFieldSetUserRayCastCallback 00000001800060f0 f   Newton.obj
 0001:00005140       NewtonTreeCollisionBeginBuild 0000000180006140 f   Newton.obj
 0001:000051b0       NewtonTreeCollisionAddFace 00000001800061b0 f   Newton.obj
 0001:00005240       NewtonTreeCollisionEndBuild 0000000180006240 f   Newton.obj
 0001:000052c0       NewtonTreeCollisionGetFaceAtribute 00000001800062c0 f   Newton.obj
 0001:00005340       NewtonTreeCollisionSetFaceAtribute 0000000180006340 f   Newton.obj
 0001:000053d0       NewtonTreeCollisionGetVertexListIndexListInAABB 00000001800063d0 f   Newton.obj
 0001:00005550       NewtonCreateHeightFieldCollision 0000000180006550 f   Newton.obj
 0001:000055f0       NewtonCreateSceneCollision 00000001800065f0 f   Newton.obj
 0001:00005640       NewtonSceneCollisionCreateProxy 0000000180006640 f   Newton.obj
 0001:000056c0       NewtonSceneCollisionDestroyProxy 00000001800066c0 f   Newton.obj
 0001:00005740       NewtonSceneProxySetMatrix  0000000180006740 f   Newton.obj
 0001:000057a0       NewtonSceneProxyGetMatrix  00000001800067a0 f   Newton.obj
 0001:00005850       NewtonSceneCollisionOptimize 0000000180006850 f   Newton.obj
 0001:000058c0       NewtonCollisionPointDistance 00000001800068c0 f   Newton.obj
 0001:00005930       NewtonCollisionClosestPoint 0000000180006930 f   Newton.obj
 0001:000059c0       NewtonCollisionCollide     00000001800069c0 f   Newton.obj
 0001:00005a60       NewtonCollisionCollideContinue 0000000180006a60 f   Newton.obj
 0001:00005b60       NewtonCollisionSupportVertex 0000000180006b60 f   Newton.obj
 0001:00005d10       NewtonCollisionRayCast     0000000180006d10 f   Newton.obj
 0001:00005f40       NewtonCollisionCalculateAABB 0000000180006f40 f   Newton.obj
 0001:00006030       NewtonCollisionForEachPolygonDo 0000000180007030 f   Newton.obj
 0001:000060c0       NewtonCollisionMakeUnique  00000001800070c0 f   Newton.obj
 0001:00006100       NewtonAddCollisionReference 0000000180007100 f   Newton.obj
 0001:00006140       NewtonReleaseCollision     0000000180007140 f   Newton.obj
 0001:00006180       NewtonCollisionSerialize   0000000180007180 f   Newton.obj
 0001:000061d0       NewtonCreateCollisionFromSerialization 00000001800071d0 f   Newton.obj
 0001:00006210       NewtonCollisionGetInfo     0000000180007210 f   Newton.obj
 0001:00006250       NewtonGetEulerAngle        0000000180007250 f   Newton.obj
 0001:000062c0       NewtonSetEulerAngle        00000001800072c0 f   Newton.obj
 0001:00006470       NewtonCalculateSpringDamperAcceleration 0000000180007470 f   Newton.obj
 0001:00006570       NewtonCreateBody           0000000180007570 f   Newton.obj
 0001:00006630       NewtonDestroyBody          0000000180007630 f   Newton.obj
 0001:00006670       NewtonBodySetUserData      0000000180007670 f   Newton.obj
 0001:000066b0       NewtonBodyGetUserData      00000001800076b0 f   Newton.obj
 0001:000066e0       NewtonBodyGetWorld         00000001800076e0 f   Newton.obj
 0001:00006710       NewtonBodySetTransformCallback 0000000180007710 f   Newton.obj
 0001:00006750       NewtonBodyGetTransformCallback 0000000180007750 f   Newton.obj
 0001:00006780       NewtonBodySetForceAndTorqueCallback 0000000180007780 f   Newton.obj
 0001:000067c0       NewtonBodyGetForceAndTorqueCallback 00000001800077c0 f   Newton.obj
 0001:000067f0       NewtonBodySetDestructorCallback 00000001800077f0 f   Newton.obj
 0001:00006830       NewtonBodySetMassMatrix    0000000180007830 f   Newton.obj
 0001:00006a00       NewtonBodyGetMassMatrix    0000000180007a00 f   Newton.obj
 0001:00006b00       NewtonBodyGetInvMass       0000000180007b00 f   Newton.obj
 0001:00006c00       NewtonBodySetMatrix        0000000180007c00 f   Newton.obj
 0001:00006ca0       NewtonBodySetMatrixRecursive 0000000180007ca0 f   Newton.obj
 0001:00006d20       NewtonBodyGetMatrix        0000000180007d20 f   Newton.obj
 0001:00006d90       NewtonBodyGetRotation      0000000180007d90 f   Newton.obj
 0001:00006df0       NewtonBodySetForce         0000000180007df0 f   Newton.obj
 0001:00006e60       NewtonBodyAddForce         0000000180007e60 f   Newton.obj
 0001:00006ed0       NewtonBodyGetForceAcc      0000000180007ed0 f   Newton.obj
 0001:00006f60       NewtonBodyGetForce         0000000180007f60 f   Newton.obj
 0001:00006ff0       NewtonBodyCalculateInverseDynamicsForce 0000000180007ff0 f   Newton.obj
 0001:000070f0       NewtonBodySetTorque        00000001800080f0 f   Newton.obj
 0001:00007160       NewtonBodyAddTorque        0000000180008160 f   Newton.obj
 0001:000071d0       NewtonBodyGetTorque        00000001800081d0 f   Newton.obj
 0001:00007260       NewtonBodyGetTorqueAcc     0000000180008260 f   Newton.obj
 0001:000072f0       NewtonBodySetCentreOfMass  00000001800082f0 f   Newton.obj
 0001:00007360       NewtonBodyGetCentreOfMass  0000000180008360 f   Newton.obj
 0001:000073d0       NewtonBodyGetFirstJoint    00000001800083d0 f   Newton.obj
 0001:00007400       NewtonBodyGetNextJoint     0000000180008400 f   Newton.obj
 0001:00007440       NewtonBodyGetFirstContactJoint 0000000180008440 f   Newton.obj
 0001:00007470       NewtonBodyGetNextContactJoint 0000000180008470 f   Newton.obj
 0001:000074b0       NewtonContactJointGetContactCount 00000001800084b0 f   Newton.obj
 0001:00007510       NewtonContactJointGetFirstContact 0000000180008510 f   Newton.obj
 0001:00007570       NewtonContactJointGetNextContact 0000000180008570 f   Newton.obj
 0001:000075d0       NewtonContactJointRemoveContact 00000001800085d0 f   Newton.obj
 0001:00007640       NewtonContactGetMaterial   0000000180008640 f   Newton.obj
 0001:00007680       NewtonBodyAddBuoyancyForce 0000000180008680 f   Newton.obj
 0001:00007740       NewtonBodySetCollision     0000000180008740 f   Newton.obj
 0001:00007780       NewtonBodyGetCollision     0000000180008780 f   Newton.obj
 0001:000077b0       NewtonBodySetMaterialGroupID 00000001800087b0 f   Newton.obj
 0001:000077e0       NewtonBodyGetMaterialGroupID 00000001800087e0 f   Newton.obj
 0001:00007810       NewtonBodySetContinuousCollisionMode 0000000180008810 f   Newton.obj
 0001:00007860       NewtonBodyGetContinuousCollisionMode 0000000180008860 f   Newton.obj
 0001:000078b0       NewtonBodySetJointRecursiveCollision 00000001800088b0 f   Newton.obj
 0001:00007900       NewtonBodyGetJointRecursiveCollision 0000000180008900 f   Newton.obj
 0001:00007950       NewtonBodyGetFreezeState   0000000180008950 f   Newton.obj
 0001:000079a0       NewtonBodySetFreezeState   00000001800089a0 f   Newton.obj
 0001:000079f0       NewtonBodySetAutoSleep     00000001800089f0 f   Newton.obj
 0001:00007a40       NewtonBodyGetAutoSleep     0000000180008a40 f   Newton.obj
 0001:00007a90       NewtonBodyGetSleepState    0000000180008a90 f   Newton.obj
 0001:00007ae0       NewtonBodyGetAABB          0000000180008ae0 f   Newton.obj
 0001:00007bb0       NewtonBodySetVelocity      0000000180008bb0 f   Newton.obj
 0001:00007c20       NewtonBodyGetVelocity      0000000180008c20 f   Newton.obj
 0001:00007cb0       NewtonBodySetOmega         0000000180008cb0 f   Newton.obj
 0001:00007d20       NewtonBodyGetOmega         0000000180008d20 f   Newton.obj
 0001:00007db0       NewtonBodySetLinearDamping 0000000180008db0 f   Newton.obj
 0001:00007df0       NewtonBodyGetLinearDamping 0000000180008df0 f   Newton.obj
 0001:00007e20       NewtonBodySetAngularDamping 0000000180008e20 f   Newton.obj
 0001:00007e90       NewtonBodyGetAngularDamping 0000000180008e90 f   Newton.obj
 0001:00007f00       NewtonBodyAddImpulse       0000000180008f00 f   Newton.obj
 0001:00007f80       NewtonConstraintCreateBall 0000000180008f80 f   Newton.obj
 0001:00008020       NewtonBallSetConeLimits    0000000180009020 f   Newton.obj
 0001:00008440       NewtonBallSetUserCallback  0000000180009440 f   Newton.obj
 0001:00008480       NewtonBallGetJointAngle    0000000180009480 f   Newton.obj
 0001:000084f0       NewtonBallGetJointOmega    00000001800094f0 f   Newton.obj
 0001:00008560       NewtonBallGetJointForce    0000000180009560 f   Newton.obj
 0001:000085d0       NewtonConstraintCreateHinge 00000001800095d0 f   Newton.obj
 0001:000086d0       NewtonHingeSetUserCallback 00000001800096d0 f   Newton.obj
 0001:00008710       NewtonHingeGetJointAngle   0000000180009710 f   Newton.obj
 0001:00008740       NewtonHingeGetJointOmega   0000000180009740 f   Newton.obj
 0001:00008770       NewtonHingeCalculateStopAlpha 0000000180009770 f   Newton.obj
 0001:000087b0       NewtonHingeGetJointForce   00000001800097b0 f   Newton.obj
 0001:00008820       NewtonConstraintCreateSlider 0000000180009820 f   Newton.obj
 0001:00008920       NewtonSliderSetUserCallback 0000000180009920 f   Newton.obj
 0001:00008960       NewtonSliderGetJointPosit  0000000180009960 f   Newton.obj
 0001:00008990       NewtonSliderGetJointVeloc  0000000180009990 f   Newton.obj
 0001:000089c0       NewtonSliderCalculateStopAccel 00000001800099c0 f   Newton.obj
 0001:00008a00       NewtonSliderGetJointForce  0000000180009a00 f   Newton.obj
 0001:00008a70       NewtonConstraintCreateCorkscrew 0000000180009a70 f   Newton.obj
 0001:00008b70       NewtonCorkscrewSetUserCallback 0000000180009b70 f   Newton.obj
 0001:00008bb0       NewtonCorkscrewGetJointPosit 0000000180009bb0 f   Newton.obj
 0001:00008be0       NewtonCorkscrewGetJointVeloc 0000000180009be0 f   Newton.obj
 0001:00008c10       NewtonCorkscrewGetJointAngle 0000000180009c10 f   Newton.obj
 0001:00008c40       NewtonCorkscrewGetJointOmega 0000000180009c40 f   Newton.obj
 0001:00008c70       NewtonCorkscrewCalculateStopAlpha 0000000180009c70 f   Newton.obj
 0001:00008cb0       NewtonCorkscrewCalculateStopAccel 0000000180009cb0 f   Newton.obj
 0001:00008cf0       NewtonCorkscrewGetJointForce 0000000180009cf0 f   Newton.obj
 0001:00008d60       NewtonConstraintCreateUniversal 0000000180009d60 f   Newton.obj
 0001:00008ea0       NewtonUniversalSetUserCallback 0000000180009ea0 f   Newton.obj
 0001:00008ee0       NewtonUniversalGetJointAngle0 0000000180009ee0 f   Newton.obj
 0001:00008f10       NewtonUniversalGetJointAngle1 0000000180009f10 f   Newton.obj
 0001:00008f40       NewtonUniversalGetJointOmega0 0000000180009f40 f   Newton.obj
 0001:00008f70       NewtonUniversalGetJointOmega1 0000000180009f70 f   Newton.obj
 0001:00008fa0       NewtonUniversalCalculateStopAlpha0 0000000180009fa0 f   Newton.obj
 0001:00008fe0       NewtonUniversalCalculateStopAlpha1 0000000180009fe0 f   Newton.obj
 0001:00009020       NewtonUniversalGetJointForce 000000018000a020 f   Newton.obj
 0001:00009090       NewtonConstraintCreateUpVector 000000018000a090 f   Newton.obj
 0001:00009120       NewtonUpVectorGetPin       000000018000a120 f   Newton.obj
 0001:00009190       NewtonUpVectorSetPin       000000018000a190 f   Newton.obj
 0001:00009200       NewtonConstraintCreateUserJoint 000000018000a200 f   Newton.obj
 0001:000092d0       NewtonUserJointAddLinearRow 000000018000a2d0 f   Newton.obj
 0001:00009490       NewtonUserJointAddAngularRow 000000018000a490 f   Newton.obj
 0001:000095d0       NewtonUserJointAddGeneralRow 000000018000a5d0 f   Newton.obj
 0001:00009610       NewtonUserJointSetRowMaximumFriction 000000018000a610 f   Newton.obj
 0001:00009650       NewtonUserJointSetRowMinimumFriction 000000018000a650 f   Newton.obj
 0001:00009690       NewtonUserJointSetRowAcceleration 000000018000a690 f   Newton.obj
 0001:000096d0       NewtonUserJointSetRowSpringDamperAcceleration 000000018000a6d0 f   Newton.obj
 0001:00009710       NewtonUserJointSetRowStiffness 000000018000a710 f   Newton.obj
 0001:00009750       NewtonUserJointGetRowForce 000000018000a750 f   Newton.obj
 0001:00009780       NewtonUserJointSetFeedbackCollectorCallback 000000018000a780 f   Newton.obj
 0001:000097c0       NewtonJointSetUserData     000000018000a7c0 f   Newton.obj
 0001:00009800       NewtonJointGetUserData     000000018000a800 f   Newton.obj
 0001:00009830       NewtonJointGetInfo         000000018000a830 f   Newton.obj
 0001:00009870       NewtonJointGetBody0        000000018000a870 f   Newton.obj
 0001:000098a0       NewtonJointGetBody1        000000018000a8a0 f   Newton.obj
 0001:00009910       NewtonJointSetCollisionState 000000018000a910 f   Newton.obj
 0001:00009960       NewtonJointGetCollisionState 000000018000a960 f   Newton.obj
 0001:000099b0       NewtonJointSetStiffness    000000018000a9b0 f   Newton.obj
 0001:000099f0       NewtonJointGetStiffness    000000018000a9f0 f   Newton.obj
 0001:00009a20       NewtonJointSetDestructor   000000018000aa20 f   Newton.obj
 0001:00009a60       NewtonDestroyJoint         000000018000aa60 f   Newton.obj
 0001:00009aa0       NewtonMeshCreate           000000018000aaa0 f   Newton.obj
 0001:00009b20       NewtonMeshCreateFromMesh   000000018000ab20 f   Newton.obj
 0001:00009ba0       NewtonMeshCreateFromCollision 000000018000aba0 f   Newton.obj
 0001:00009c10       NewtonMeshConvexHull       000000018000ac10 f   Newton.obj
 0001:00009cc0       NewtonMeshCreatePlane      000000018000acc0 f   Newton.obj
 0001:00009d90       NewtonMeshDestroy          000000018000ad90 f   Newton.obj
 0001:00009df0       NewtonMeshCalculateOOBB    000000018000adf0 f   Newton.obj
 0001:00009eb0       NewtonMeshCalculateVertexNormals 000000018000aeb0 f   Newton.obj
 0001:00009ef0       NewtonMeshApplySphericalMapping 000000018000aef0 f   Newton.obj
 0001:00009f20       NewtonMeshApplyBoxMapping  000000018000af20 f   Newton.obj
 0001:00009f70       NewtonMeshApplyCylindricalMapping 000000018000af70 f   Newton.obj
 0001:00009fb0       NewtonMeshTriangulate      000000018000afb0 f   Newton.obj
 0001:00009fd0       NewtonMeshPolygonize       000000018000afd0 f   Newton.obj
 0001:00009ff0       NewtonMeshIsOpenMesh       000000018000aff0 f   Newton.obj
 0001:0000a030       NewtonMeshFixTJoints       000000018000b030 f   Newton.obj
 0001:0000a050       NewtonMeshClip             000000018000b050 f   Newton.obj
 0001:0000a0c0       NewtonMeshUnion            000000018000b0c0 f   Newton.obj
 0001:0000a100       NewtonMeshDifference       000000018000b100 f   Newton.obj
 0001:0000a140       NewtonMeshIntersection     000000018000b140 f   Newton.obj
 0001:0000a180       NewtonRemoveUnusedVertices 000000018000b180 f   Newton.obj
 0001:0000a1b0       NewtonMeshBeginFace        000000018000b1b0 f   Newton.obj
 0001:0000a1e0       NewtonMeshAddFace          000000018000b1e0 f   Newton.obj
 0001:0000a230       NewtonMeshEndFace          000000018000b230 f   Newton.obj
 0001:0000a260       NewtonMeshBuildFromVertexListIndexList 000000018000b260 f   Newton.obj
 0001:0000a350       NewtonMeshGetVertexCount   000000018000b350 f   Newton.obj
 0001:0000a380       NewtonMeshGetVertexStrideInByte 000000018000b380 f   Newton.obj
 0001:0000a3b0       NewtonMeshGetVertexArray   000000018000b3b0 f   Newton.obj
 0001:0000a3e0       NewtonMeshGetPointCount    000000018000b3e0 f   Newton.obj
 0001:0000a410       NewtonMeshGetPointStrideInByte 000000018000b410 f   Newton.obj
 0001:0000a440       NewtonMeshGetPointArray    000000018000b440 f   Newton.obj
 0001:0000a470       NewtonMeshGetNormalArray   000000018000b470 f   Newton.obj
 0001:0000a4a0       NewtonMeshGetUV0Array      000000018000b4a0 f   Newton.obj
 0001:0000a4d0       NewtonMeshGetUV1Array      000000018000b4d0 f   Newton.obj
 0001:0000a500       NewtonMeshGetVertexStreams 000000018000b500 f   Newton.obj
 0001:0000a590       NewtonMeshGetIndirectVertexStreams 000000018000b590 f   Newton.obj
 0001:0000a6a0       NewtonMeshBeginHandle      000000018000b6a0 f   Newton.obj
 0001:0000a6d0       NewtonMeshEndHandle        000000018000b6d0 f   Newton.obj
 0001:0000a710       NewtonMeshFirstMaterial    000000018000b710 f   Newton.obj
 0001:0000a750       NewtonMeshNextMaterial     000000018000b750 f   Newton.obj
 0001:0000a790       NewtonMeshMaterialGetMaterial 000000018000b790 f   Newton.obj
 0001:0000a7d0       NewtonMeshMaterialGetIndexCount 000000018000b7d0 f   Newton.obj
 0001:0000a810       NewtonMeshMaterialGetIndexStream 000000018000b810 f   Newton.obj
 0001:0000a860       NewtonMeshMaterialGetIndexStreamShort 000000018000b860 f   Newton.obj
 0001:0000a8b0       NewtonMeshCreateFirstSingleSegment 000000018000b8b0 f   Newton.obj
 0001:0000a980       NewtonMeshCreateNextSingleSegment 000000018000b980 f   Newton.obj
 0001:0000aab0       NewtonMeshGetTotalFaceCount 000000018000bab0 f   Newton.obj
 0001:0000aad0       NewtonMeshGetTotalIndexCount 000000018000bad0 f   Newton.obj
 0001:0000aaf0       NewtonMeshGetFaces         000000018000baf0 f   Newton.obj
 0001:0000ab30       NewtonMeshGetFirstVertex   000000018000bb30 f   Newton.obj
 0001:0000ab50       NewtonMeshGetNextVertex    000000018000bb50 f   Newton.obj
 0001:0000ab80       NewtonMeshGetVertexIndex   000000018000bb80 f   Newton.obj
 0001:0000abb0       NewtonMeshGetFirstPoint    000000018000bbb0 f   Newton.obj
 0001:0000abd0       NewtonMeshGetNextPoint     000000018000bbd0 f   Newton.obj
 0001:0000ac00       NewtonMeshGetPointIndex    000000018000bc00 f   Newton.obj
 0001:0000ac30       NewtonMeshGetVertexIndexFromPoint 000000018000bc30 f   Newton.obj
 0001:0000ac60       NewtonMeshGetFirstEdge     000000018000bc60 f   Newton.obj
 0001:0000ac80       NewtonMeshGetNextEdge      000000018000bc80 f   Newton.obj
 0001:0000acb0       NewtonMeshGetEdgeIndices   000000018000bcb0 f   Newton.obj
 0001:0000acf0       NewtonMeshGetFirstFace     000000018000bcf0 f   Newton.obj
 0001:0000ad10       NewtonMeshGetNextFace      000000018000bd10 f   Newton.obj
 0001:0000ad40       NewtonMeshIsFaceOpen       000000018000bd40 f   Newton.obj
 0001:0000ad70       NewtonMeshGetFaceIndexCount 000000018000bd70 f   Newton.obj
 0001:0000ada0       NewtonMeshGetFaceMaterial  000000018000bda0 f   Newton.obj
 0001:0000add0       NewtonMeshGetFaceIndices   000000018000bdd0 f   Newton.obj
 0001:0000ae10       NewtonMeshGetFacePointIndices 000000018000be10 f   Newton.obj
 0001:0000d440       ??2Newton@@SAPEAX_KQEAVdgMemoryAllocator@@@Z 000000018000e440 f i Newton.obj
 0001:0000d470       ??_GNewton@@QEAAPEAXI@Z    000000018000e470 f i Newton.obj
 0001:0000d4c0       ??3Newton@@SAXPEAX@Z       000000018000e4c0 f i Newton.obj
 0001:0000d4e0       ??_GdgMemoryAllocator@@QEAAPEAXI@Z 000000018000e4e0 f i Newton.obj
 0001:0000d530       ??0dgVector@@QEAA@XZ       000000018000e530 f i Newton.obj
 0001:0000d560       ??0dgVector@@QEAA@AEBV?$dgTemplateVector@N@@@Z 000000018000e560 f i Newton.obj
 0001:0000d670       ??0dgVector@@QEAA@NNNN@Z   000000018000e670 f i Newton.obj
 0001:0000d7a0       ??0dgContactPoint@@QEAA@XZ 000000018000e7a0 f i Newton.obj
 0001:0000d7e0       ??0dgMatrix@@QEAA@AEBVdgVector@@@Z 000000018000e7e0 f i Newton.obj
 0001:0000ddb0       ??AdgMatrix@@QEAAAEAVdgVector@@H@Z 000000018000edb0 f i Newton.obj
 0001:0000de60       ?RotateVector@dgMatrix@@QEBA?AVdgVector@@AEBV2@@Z 000000018000ee60 f i Newton.obj
 0001:0000dfa0       ?UnrotateVector@dgMatrix@@QEBA?AVdgVector@@AEBV2@@Z 000000018000efa0 f i Newton.obj
 0001:0000e060       ?TransformVector@dgMatrix@@QEBA?AVdgVector@@AEBV2@@Z 000000018000f060 f i Newton.obj
 0001:0000e1d0       ?UntransformVector@dgMatrix@@QEBA?AVdgVector@@AEBV2@@Z 000000018000f1d0 f i Newton.obj
 0001:0000e240       ?dgPitchMatrix@@YA?AVdgMatrix@@N@Z 000000018000f240 f i Newton.obj
 0001:0000e3b0       ??0dgMatrix@@QEAA@AEBVdgVector@@000@Z 000000018000f3b0 f i Newton.obj
 0001:0000e4c0       ?dgYawMatrix@@YA?AVdgMatrix@@N@Z 000000018000f4c0 f i Newton.obj
 0001:0000e630       ?dgRollMatrix@@YA?AVdgMatrix@@N@Z 000000018000f630 f i Newton.obj
 0001:0000e7a0       ??0dgVector@@QEAA@PEBN@Z   000000018000f7a0 f i Newton.obj
 0001:0000e8a0       ?GetTagId@dgPolygonSoupDatabase@@QEBAIPEBH@Z 000000018000f8a0 f i Newton.obj
 0001:0000e8c0       ?SetTagId@dgPolygonSoupDatabase@@QEBAXPEBHI@Z 000000018000f8c0 f i Newton.obj
 0001:0000e900       ?GetBody@dgBodyMasterListRow@@QEBAPEAVdgBody@@XZ 000000018000f900 f i Newton.obj
 0001:0000e920       ?SetAutoSleep@dgBody@@QEAAX_N@Z 000000018000f920 f i Newton.obj
 0001:0000e9a0       ?GetAutoSleep@dgBody@@QEBA_NXZ 000000018000f9a0 f i Newton.obj
 0001:0000e9c0       ?GetSleepState@dgBody@@QEBA_NXZ 000000018000f9c0 f i Newton.obj
 0001:0000e9e0       ?GetCollisionWithLinkedBodies@dgBody@@QEBA_NXZ 000000018000f9e0 f i Newton.obj
 0001:0000ea00       ?SetCollisionWithLinkedBodies@dgBody@@QEAAX_N@Z 000000018000fa00 f i Newton.obj
 0001:0000ea40       ?SetUserData@dgBody@@QEAAXQEAX@Z 000000018000fa40 f i Newton.obj
 0001:0000ea70       ?GetUserData@dgBody@@QEBAPEAXXZ 000000018000fa70 f i Newton.obj
 0001:0000ea90       ?GetWorld@dgBody@@QEBAPEAVdgWorld@@XZ 000000018000fa90 f i Newton.obj
 0001:0000eab0       ?GetGroupID@dgBody@@QEBAIXZ 000000018000fab0 f i Newton.obj
 0001:0000ead0       ?SetGroupID@dgBody@@QEAAXI@Z 000000018000fad0 f i Newton.obj
 0001:0000eaf0       ?SetDestructorCallback@dgBody@@QEAAXP6AXAEAV1@@Z@Z 000000018000faf0 f i Newton.obj
 0001:0000eb20       ?SetExtForceAndTorqueCallback@dgBody@@QEAAXP6AXAEAV1@NH@Z@Z 000000018000fb20 f i Newton.obj
 0001:0000eb50       ?GetExtForceAndTorqueCallback@dgBody@@QEBAP6AXAEAV1@NH@ZXZ 000000018000fb50 f i Newton.obj
 0001:0000eb70       ?SetMatrixUpdateCallback@dgBody@@QEAAXP6AXAEBV1@AEBVdgMatrix@@H@Z@Z 000000018000fb70 f i Newton.obj
 0001:0000eba0       ?GetMatrixUpdateCallback@dgBody@@QEAAP6AXAEBV1@AEBVdgMatrix@@H@ZXZ 000000018000fba0 f i Newton.obj
 0001:0000ebc0       ?SetOmega@dgBody@@QEAAXAEBVdgVector@@@Z 000000018000fbc0 f i Newton.obj
 0001:0000ec10       ?SetVelocity@dgBody@@QEAAXAEBVdgVector@@@Z 000000018000fc10 f i Newton.obj
 0001:0000ec60       ?SetCentreOfMass@dgBody@@QEAAXAEBVdgVector@@@Z 000000018000fc60 f i Newton.obj
 0001:0000ed70       ?AddForce@dgBody@@QEAAXAEBVdgVector@@@Z 000000018000fd70 f i Newton.obj
 0001:0000edd0       ?AddTorque@dgBody@@QEAAXAEBVdgVector@@@Z 000000018000fdd0 f i Newton.obj
 0001:0000ee30       ?GetAparentMass@dgBody@@QEBAAEBVdgVector@@XZ 000000018000fe30 f i Newton.obj
 0001:0000ee50       ?GetOmega@dgBody@@QEBAAEBVdgVector@@XZ 000000018000fe50 f i Newton.obj
 0001:0000ee70       ?GetVelocity@dgBody@@QEBAAEBVdgVector@@XZ 000000018000fe70 f i Newton.obj
 0001:0000ee90       ?GetForce@dgBody@@QEBAAEBVdgVector@@XZ 000000018000fe90 f i Newton.obj
 0001:0000eeb0       ?GetTorque@dgBody@@QEBAAEBVdgVector@@XZ 000000018000feb0 f i Newton.obj
 0001:0000eed0       ?GetNetForce@dgBody@@QEBAAEBVdgVector@@XZ 000000018000fed0 f i Newton.obj
 0001:0000eef0       ?GetNetTorque@dgBody@@QEBAAEBVdgVector@@XZ 000000018000fef0 f i Newton.obj
 0001:0000ef10       ?GetCollision@dgBody@@QEBAPEAVdgCollision@@XZ 000000018000ff10 f i Newton.obj
 0001:0000ef30       ?GetPosition@dgBody@@QEBAAEBVdgVector@@XZ 000000018000ff30 f i Newton.obj
 0001:0000ef50       ?GetRotation@dgBody@@QEBAAEBVdgQuaternion@@XZ 000000018000ff50 f i Newton.obj
 0001:0000ef70       ?GetMatrix@dgBody@@QEBAAEBVdgMatrix@@XZ 000000018000ff70 f i Newton.obj
 0001:0000ef80       ?GetCentreOfMass@dgBody@@QEBA?AVdgVector@@XZ 000000018000ff80 f i Newton.obj
 0001:0000efe0       ?GetAABB@dgBody@@QEBAXAEAVdgVector@@0@Z 000000018000ffe0 f i Newton.obj
 0001:0000f0a0       ?SetContinuesCollisionMode@dgBody@@QEAAX_N@Z 00000001800100a0 f i Newton.obj
 0001:0000f0e0       ?GetContinuesCollisionMode@dgBody@@QEBA_NXZ 00000001800100e0 f i Newton.obj
 0001:0000f100       ?GetLinearDamping@dgBody@@QEBANXZ 0000000180010100 f i Newton.obj
 0001:0000f130       ?GetAngularDamping@dgBody@@QEBA?AVdgVector@@XZ 0000000180010130 f i Newton.obj
 0001:0000f1e0       ?SetLinearDamping@dgBody@@QEAAXN@Z 00000001800101e0 f i Newton.obj
 0001:0000f250       ?SetAngularDamping@dgBody@@QEAAXAEBVdgVector@@@Z 0000000180010250 f i Newton.obj
 0001:0000f370       ?SetForce@dgBody@@QEAAXAEBVdgVector@@@Z 0000000180010370 f i Newton.obj
 0001:0000f4f0       ?SetTorque@dgBody@@QEAAXAEBVdgVector@@@Z 00000001800104f0 f i Newton.obj
 0001:0000f670       ?GetMasterList@dgBody@@QEBAPEAVdgListNode@?$dgList@VdgBodyMasterListRow@@@@XZ 0000000180010670 f i Newton.obj
 0001:0000f690       ?GetFreeze@dgBody@@QEBA_NXZ 0000000180010690 f i Newton.obj
 0001:0000f6b0       ??2dgConstraint@@SAPEAX_KQEAVdgMemoryAllocator@@@Z 00000001800106b0 f i Newton.obj
 0001:0000f6e0       ?BeginConectedSurface@dgPolyhedra@@QEBAXXZ 00000001800106e0 f i Newton.obj
 0001:0000f710       ?IncLRU@dgPolyhedra@@QEBAHXZ 0000000180010710 f i Newton.obj
 0001:0000f790       ?EndConectedSurface@dgPolyhedra@@QEBAXXZ 0000000180010790 f i Newton.obj
 0001:0000f7a0       ?IsCollidable@dgConstraint@@QEBA_NXZ 00000001800107a0 f i Newton.obj
 0001:0000f7e0       ?SetCollidable@dgConstraint@@QEAAX_N@Z 00000001800107e0 f i Newton.obj
 0001:0000f820       ?GetId@dgConstraint@@QEBAIXZ 0000000180010820 f i Newton.obj
 0001:0000f840       ?GetBody0@dgConstraint@@QEBAPEAVdgBody@@XZ 0000000180010840 f i Newton.obj
 0001:0000f860       ?GetBody1@dgConstraint@@QEBAPEAVdgBody@@XZ 0000000180010860 f i Newton.obj
 0001:0000f880       ?SetCollisionCallback@dgContactMaterial@@QEAAXP6A_NAEBV1@AEBVdgBody@@1H@ZP6AXAEAVdgContact@@NH@Z@Z 0000000180010880 f i Newton.obj
 0001:0000f8c0       ??2?$dgTree@VdgEdge@@_J@@SAPEAX_KQEAVdgMemoryAllocator@@@Z 00000001800108c0 f i Newton.obj
 0001:0000f8f0       ?GetInfo@dgListNode@?$dgList@V?$dgGraphNode@VdgDebriNodeInfo@dgCollisionCompoundBreakable@@VdgSharedNodeMesh@2@@@@@QEAAAEAV?$dgGraphNode@VdgDebriNodeInfo@dgCollisionCompoundBreakable@@VdgSharedNodeMesh@2@@@XZ 00000001800108f0 f i Newton.obj
 0001:0000f900       ?SetCompoundCollisionCallback@dgContactMaterial@@QEAAXP6A_NAEBV1@AEBVdgBody@@1H@Z@Z 0000000180010900 f i Newton.obj
 0001:0000f930       ?GetInfo@dgListNode@?$dgList@VdgBodyMasterListRow@@@@QEAAAEAVdgBodyMasterListRow@@XZ 0000000180010930 f i Newton.obj
 0001:0000f940       ?GetUserData@dgContactMaterial@@QEBAPEAXXZ 0000000180010940 f i Newton.obj
 0001:0000f960       ?GetNext@dgListNode@?$dgList@VdgBodyMasterListRow@@@@QEBAPEAV12@XZ 0000000180010960 f i Newton.obj
 0001:0000f980       ?SetUserData@dgContactMaterial@@QEAAXQEAX@Z 0000000180010980 f i Newton.obj
 0001:0000f9b0       ?GetInfo@dgListNode@?$dgList@VdgBodyMasterListCell@@@@QEAAAEAVdgBodyMasterListCell@@XZ 00000001800109b0 f i Newton.obj
 0001:0000f9c0       ?GetNext@dgListNode@?$dgList@VdgBodyMasterListCell@@@@QEBAPEAV12@XZ 00000001800109c0 f i Newton.obj
 0001:0000f9e0       ?GetInfo@dgListNode@?$dgList@VdgSubMesh@dgCollisionCompoundBreakable@@@@QEAAAEAVdgSubMesh@dgCollisionCompoundBreakable@@XZ 00000001800109e0 f i Newton.obj
 0001:0000f9f0       ?GetNext@dgListNode@?$dgList@VdgSubMesh@dgCollisionCompoundBreakable@@@@QEBAPEAV12@XZ 00000001800109f0 f i Newton.obj
 0001:0000fa10       ?GetInfo@dgListNode@?$dgList@UdgProxy@dgCollisionScene@@@@QEAAAEAUdgProxy@dgCollisionScene@@XZ 0000000180010a10 f i Newton.obj
 0001:0000fa20       ?GetInfo@dgListNode@?$dgList@VdgContactMaterial@@@@QEAAAEAVdgContactMaterial@@XZ 0000000180010a20 f i Newton.obj
 0001:0000fa30       ?GetNext@dgListNode@?$dgList@VdgContactMaterial@@@@QEBAPEAV12@XZ 0000000180010a30 f i Newton.obj
 0001:0000fa50       ?GetFirst@?$dgList@VdgBodyMasterListCell@@@@QEBAPEAVdgListNode@1@XZ 0000000180010a50 f i Newton.obj
 0001:0000fa70       ?GetFirst@?$dgList@VdgBodyMasterListRow@@@@QEBAPEAVdgListNode@1@XZ 0000000180010a70 f i Newton.obj
 0001:0000fa90       ??0?$dgTree@PEAVdgConstraint@@PEAV1@@@QEAA@QEAVdgMemoryAllocator@@@Z 0000000180010a90 f i Newton.obj
 0001:0000fae0       ??1?$dgTree@PEAVdgConstraint@@PEAV1@@@QEAA@XZ 0000000180010ae0 f i Newton.obj
 0001:0000fb00       ?Find@?$dgTree@PEAVdgConstraint@@PEAV1@@@QEBAPEAVdgTreeNode@1@PEAVdgConstraint@@@Z 0000000180010b00 f i Newton.obj
 0001:0000fcd0       ?IsType@dgCollision@@QEBAHW4RTTI@1@@Z 0000000180010cd0 f i Newton.obj
 0001:0000fd00       ?Insert@?$dgTree@PEAVdgConstraint@@PEAV1@@@QEAAPEAVdgTreeNode@1@AEBQEAVdgConstraint@@PEAV3@@Z 0000000180010d00 f i Newton.obj
 0001:0000fd60       ?GetOffsetMatrix@dgCollision@@QEBAAEBVdgMatrix@@XZ 0000000180010d60 f i Newton.obj
 0001:0000fd80       ?GetFirst@?$dgList@VdgSubMesh@dgCollisionCompoundBreakable@@@@QEBAPEAVdgListNode@1@XZ 0000000180010d80 f i Newton.obj
 0001:0000fda0       ?GetCount@?$dgList@VdgContactMaterial@@@@QEBAHXZ 0000000180010da0 f i Newton.obj
 0001:0000fdb0       ?GetFirst@?$dgList@VdgContactMaterial@@@@QEBAPEAVdgListNode@1@XZ 0000000180010db0 f i Newton.obj
 0001:0000fdd0       ?Remove@?$dgList@VdgContactMaterial@@@@QEAAXQEAVdgListNode@1@@Z 0000000180010dd0 f i Newton.obj
 0001:0000fe50       ?SetUserDataID@dgCollision@@QEBAIXZ 0000000180010e50 f i Newton.obj
 0001:0000fe70       ?SetUserDataID@dgCollision@@QEAAXI@Z 0000000180010e70 f i Newton.obj
 0001:0000fe90       ?GetAllocator@?$dgTree@VdgEdge@@_J@@QEBAPEAVdgMemoryAllocator@@XZ 0000000180010e90 f i Newton.obj
 0001:0000feb0       ??_GdgListNode@?$dgList@VdgContactMaterial@@@@AEAAPEAXI@Z 0000000180010eb0 f i Newton.obj
 0001:0000ff00       ?AddRef@dgCollision@@QEAAPEAV1@XZ 0000000180010f00 f i Newton.obj
 0001:0000ff30       ??3dgListNode@?$dgList@VdgContactMaterial@@@@CAXPEAX@Z 0000000180010f30 f i Newton.obj
 0001:0000ff50       ??1dgListNode@?$dgList@VdgContactMaterial@@@@AEAA@XZ 0000000180010f50 f i Newton.obj
 0001:0000ff60       ?GetLeft@dgTreeNode@?$dgTree@PEAVdgConstraint@@PEAV1@@@AEBAPEAV12@XZ 0000000180010f60 f i Newton.obj
 0001:0000ff80       ?GetRefCount@dgCollision@@QEBAHXZ 0000000180010f80 f i Newton.obj
 0001:0000ffa0       ?GetRight@dgTreeNode@?$dgTree@PEAVdgConstraint@@PEAV1@@@AEBAPEAV12@XZ 0000000180010fa0 f i Newton.obj
 0001:0000ffc0       ?Insert@?$dgTree@PEAVdgConstraint@@PEAV1@@@QEAAPEAVdgTreeNode@1@AEBQEAVdgConstraint@@PEAV3@AEA_N@Z 0000000180010fc0 f i Newton.obj
 0001:00010330       ??2dgRedBackNode@@SAPEAX_KQEAVdgMemoryAllocator@@@Z 0000000180011330 f i Newton.obj
 0001:00010360       ?GetAllocator@dgCollision@@QEBAPEAVdgMemoryAllocator@@XZ 0000000180011360 f i Newton.obj
 0001:00010380       ?RemoveAll@?$dgTree@PEAVdgConstraint@@PEAV1@@@QEAAXXZ 0000000180011380 f i Newton.obj
 0001:000103d0       ?CompareKeys@?$dgTree@PEAVdgConstraint@@PEAV1@@@AEBAHAEBQEAVdgConstraint@@0@Z 00000001800113d0 f i Newton.obj
 0001:00010430       ?Unlink@?$dgList@VdgContactMaterial@@@@QEAAXQEAVdgListNode@1@@Z 0000000180011430 f i Newton.obj
 0001:00010560       ?Unlink@dgListNode@?$dgList@VdgContactMaterial@@@@AEAAXXZ 0000000180011560 f i Newton.obj
 0001:00010610       ?GetPrev@dgListNode@?$dgList@VdgContactMaterial@@@@QEBAPEAV12@XZ 0000000180011610 f i Newton.obj
 0001:00010630       ??0dgTreeNode@?$dgTree@PEAVdgConstraint@@PEAV1@@@AEAA@AEBQEAVdgConstraint@@0PEAV01@@Z 0000000180011630 f i Newton.obj
 0001:000106f0       ??0dgRedBackNode@@QEAA@QEAV0@@Z 00000001800116f0 f i Newton.obj
 0001:00010720       ?Initdata@dgRedBackNode@@QEAAXQEAV1@@Z 0000000180011720 f i Newton.obj
 0001:00010790       ?SetColor@dgRedBackNode@@QEAAXW4REDBLACK_COLOR@1@@Z 0000000180011790 f i Newton.obj
 0001:000107c0       ?SetInTreeFlag@dgRedBackNode@@QEAAXI@Z 00000001800117c0 f i Newton.obj
 0001:00010800       ?dgGetUserLock@dgWorld@@QEBAXXZ 0000000180011800 f i Newton.obj
 0001:00010840       ?dgReleasedUserLock@dgWorld@@QEBAXXZ 0000000180011840 f i Newton.obj
 0001:00010880       ?GetAllocator@dgWorld@@QEBAPEAVdgMemoryAllocator@@XZ 0000000180011880 f i Newton.obj
 0001:000108a0       ?GetVertexStrideInByte@dgMeshEffect@@QEBAHXZ 00000001800118a0 f i Newton.obj
 0001:000108b0       ?GetVertexPool@dgMeshEffect@@QEBAPEANXZ 00000001800118b0 f i Newton.obj
 0001:000108d0       ?GetPropertiesStrideInByte@dgMeshEffect@@QEBAHXZ 00000001800118d0 f i Newton.obj
 0001:000108e0       ?GetAttributePool@dgMeshEffect@@QEBAPEANXZ 00000001800118e0 f i Newton.obj
 0001:00010900       ?GetNormalPool@dgMeshEffect@@QEBAPEANXZ 0000000180011900 f i Newton.obj
 0001:00010920       ?GetUV0Pool@dgMeshEffect@@QEBAPEANXZ 0000000180011920 f i Newton.obj
 0001:00010940       ?GetUV1Pool@dgMeshEffect@@QEBAPEANXZ 0000000180011940 f i Newton.obj
 0001:00010960       ?GetVertexCount@dgMeshEffect@@QEBAHXZ 0000000180011960 f i Newton.obj
 0001:00010980       ?GetPropertiesCount@dgMeshEffect@@QEBAHXZ 0000000180011980 f i Newton.obj
 0001:000109a0       ?GetMaterialID@dgMeshEffect@@QEAAHPEAUdgIndexArray@1@H@Z 00000001800119a0 f i Newton.obj
 0001:000109d0       ?GetMaterialIndexCount@dgMeshEffect@@QEAAHPEAUdgIndexArray@1@H@Z 00000001800119d0 f i Newton.obj
 0001:00010a00       ?GetMainMesh@dgCollisionCompoundBreakable@@QEBAPEAVdgListNode@?$dgList@V?$dgGraphNode@VdgDebriNodeInfo@dgCollisionCompoundBreakable@@VdgSharedNodeMesh@2@@@@@XZ 0000000180011a00 f i Newton.obj
 0001:00010a30       ?GetFirstComponentMesh@dgCollisionCompoundBreakable@@QEBAPEAVdgListNode@?$dgList@V?$dgGraphNode@VdgDebriNodeInfo@dgCollisionCompoundBreakable@@VdgSharedNodeMesh@2@@@@@XZ 0000000180011a30 f i Newton.obj
 0001:00010aa0       ?GetVertecCount@dgCollisionCompoundBreakable@@QEBAHXZ 0000000180011aa0 f i Newton.obj
 0001:00010ac0       ?GetVertexStreams@dgCollisionCompoundBreakable@@QEBAXHPEANH0H0@Z 0000000180011ac0 f i Newton.obj
 0001:00010b30       ?GetNext@dgListNode@?$dgList@V?$dgGraphNode@VdgDebriNodeInfo@dgCollisionCompoundBreakable@@VdgSharedNodeMesh@2@@@@@QEBAPEAV12@XZ 0000000180011b30 f i Newton.obj
 0001:00010b50       ??0?$dgTemplateVector@N@@QEAA@NNNN@Z 0000000180011b50 f i Newton.obj
 0001:00010bd0       ??0?$dgTemplateVector@N@@QEAA@PEBN@Z 0000000180011bd0 f i Newton.obj
 0001:00010c40       ??0?$dgTemplateVector@N@@QEAA@XZ 0000000180011c40 f i Newton.obj
 0001:00010c50       ?Scale@?$dgTemplateVector@N@@QEBA?AV1@N@Z 0000000180011c50 f i Newton.obj
 0001:00010cd0       ??A?$dgTemplateVector@N@@QEAAAEANH@Z 0000000180011cd0 f i Newton.obj
 0001:00010d80       ??H?$dgTemplateVector@N@@QEBA?AV0@AEBV0@@Z 0000000180011d80 f i Newton.obj
 0001:00010e10       ??G?$dgTemplateVector@N@@QEBA?AV0@AEBV0@@Z 0000000180011e10 f i Newton.obj
 0001:00010ea0       ??L?$dgTemplateVector@N@@QEBANAEBV0@@Z 0000000180011ea0 f i Newton.obj
 0001:00010f00       ??D?$dgTemplateVector@N@@QEBA?AV0@AEBV0@@Z 0000000180011f00 f i Newton.obj
 0001:00010ff0       ??$ClampValue@N@@YANNNN@Z  0000000180011ff0 f i Newton.obj
 0001:00011050       ??$GetMin@N@@YANNN@Z       0000000180012050 f i Newton.obj
 0001:00011090       ??$GetMax@N@@YANNN@Z       0000000180012090 f i Newton.obj
 0001:000110d0       ?GetCount@?$dgList@V?$dgGraphNode@VdgDebriNodeInfo@dgCollisionCompoundBreakable@@VdgSharedNodeMesh@2@@@@@QEBAHXZ 00000001800120d0 f i Newton.obj
 0001:000110e0       ?GetLast@?$dgList@V?$dgGraphNode@VdgDebriNodeInfo@dgCollisionCompoundBreakable@@VdgSharedNodeMesh@2@@@@@QEBAPEAVdgListNode@1@XZ 00000001800120e0 f i Newton.obj
 0001:00011100       ?GetFirst@?$dgList@V?$dgGraphNode@VdgDebriNodeInfo@dgCollisionCompoundBreakable@@VdgSharedNodeMesh@2@@@@@QEBAPEAVdgListNode@1@XZ 0000000180012100 f i Newton.obj
 0001:00011120       ??0NewtonDeadBodies@@QEAA@QEAVdgMemoryAllocator@@@Z 0000000180012120 f   NewtonClass.obj
 0001:00011170       ?DestroyBodies@NewtonDeadBodies@@QEAAXAEAVNewton@@@Z 0000000180012170 f   NewtonClass.obj
 0001:00011210       ??0NewtonDeadJoints@@QEAA@QEAVdgMemoryAllocator@@@Z 0000000180012210 f   NewtonClass.obj
 0001:00011260       ?DestroyJoints@NewtonDeadJoints@@QEAAXAEAVNewton@@@Z 0000000180012260 f   NewtonClass.obj
 0001:00011300       ?DefaultAllocMemory@Newton@@SAPEAXH@Z 0000000180012300 f   NewtonClass.obj
 0001:00011320       ?DefaultFreeMemory@Newton@@SAXPEAXH@Z 0000000180012320 f   NewtonClass.obj
 0001:00011350       ??0Newton@@QEAA@NQEAVdgMemoryAllocator@@@Z 0000000180012350 f   NewtonClass.obj
 0001:000113f0       ??1Newton@@QEAA@XZ         00000001800123f0 f   NewtonClass.obj
 0001:00011450       ?UpdatePhysics@Newton@@QEAAXN@Z 0000000180012450 f   NewtonClass.obj
 0001:00011510       ?DestroyJoint@Newton@@QEAAXPEAVdgConstraint@@@Z 0000000180012510 f   NewtonClass.obj
 0001:00011590       ?DestroyBody@Newton@@QEAAXPEAVdgBody@@@Z 0000000180012590 f   NewtonClass.obj
 0001:00011610       ??0NewtonUserJoint@@QEAA@PEAVdgWorld@@HP6AXPEBUNewtonJoint@@NH@ZP6AX1PEAUNewtonJointRecord@@@ZPEAVdgBody@@5@Z 0000000180012610 f   NewtonClass.obj
 0001:000117e0       ??1NewtonUserJoint@@UEAA@XZ 00000001800127e0 f   NewtonClass.obj
 0001:00011860       ?JacobianDerivative@NewtonUserJoint@@UEAAIAEAVdgContraintDescritor@@@Z 0000000180012860 f   NewtonClass.obj
 0001:000118d0       ?AddLinearRowJacobian@NewtonUserJoint@@QEAAXAEBVdgVector@@00@Z 00000001800128d0 f   NewtonClass.obj
 0001:00011a90       ?AddAngularRowJacobian@NewtonUserJoint@@QEAAXAEBVdgVector@@N@Z 0000000180012a90 f   NewtonClass.obj
 0001:00011c60       ?AddGeneralRowJacobian@NewtonUserJoint@@QEAAXPEBN0@Z 0000000180012c60 f   NewtonClass.obj
 0001:00011e10       ?SetAcceleration@NewtonUserJoint@@QEAAXN@Z 0000000180012e10 f   NewtonClass.obj
 0001:00011e80       ?SetSpringDamperAcceleration@NewtonUserJoint@@QEAAXNN@Z 0000000180012e80 f   NewtonClass.obj
 0001:00011f90       ?SetHighFriction@NewtonUserJoint@@QEAAXN@Z 0000000180012f90 f   NewtonClass.obj
 0001:00012030       ?SetLowerFriction@NewtonUserJoint@@QEAAXN@Z 0000000180013030 f   NewtonClass.obj
 0001:000120d0       ?SetRowStiffness@NewtonUserJoint@@QEAAXN@Z 00000001800130d0 f   NewtonClass.obj
 0001:00012180       ?GetRowForce@NewtonUserJoint@@QEBANH@Z 0000000180013180 f   NewtonClass.obj
 0001:000121e0       ?GetInfo@NewtonUserJoint@@UEBAXQEAVdgConstraintInfo@@@Z 00000001800131e0 f   NewtonClass.obj
 0001:00012240       ?SetUpdateFeedbackFunction@NewtonUserJoint@@QEAAXP6AXPEBUNewtonJoint@@NH@Z@Z 0000000180013240 f   NewtonClass.obj
 0001:000126c0       ??1NewtonDeadBodies@@QEAA@XZ 00000001800136c0 f i NewtonClass.obj
 0001:000126e0       ??1NewtonDeadJoints@@QEAA@XZ 00000001800136e0 f i NewtonClass.obj
 0001:00012700       ??_ENewtonUserJoint@@UEAAPEAXI@Z 0000000180013700 f i NewtonClass.obj
 0001:00012700       ??_GNewtonUserJoint@@UEAAPEAXI@Z 0000000180013700 f i NewtonClass.obj
 0001:00012750       ??0dgPointParam@dgConstraint@@QEAA@XZ 0000000180013750 f i NewtonClass.obj
 0001:00012800       ??0Iterator@?$dgTree@PEAVdgBody@@PEAX@@QEAA@AEBV1@@Z 0000000180013800 f i NewtonClass.obj
 0001:00012840       ??1Iterator@?$dgTree@PEAVdgBody@@PEAX@@QEAA@XZ 0000000180013840 f i NewtonClass.obj
 0001:00012850       ?Begin@Iterator@?$dgTree@PEAVdgBody@@PEAX@@QEAAXXZ 0000000180013850 f i NewtonClass.obj
 0001:00012880       ??BIterator@?$dgTree@PEAVdgBody@@PEAX@@QEBAHXZ 0000000180013880 f i NewtonClass.obj
 0001:000128c0       ??EIterator@?$dgTree@PEAVdgBody@@PEAX@@QEAAXH@Z 00000001800138c0 f i NewtonClass.obj
 0001:00012940       ?GetNode@Iterator@?$dgTree@PEAVdgBody@@PEAX@@QEBAPEAVdgTreeNode@2@XZ 0000000180013940 f i NewtonClass.obj
 0001:00012960       ?GetInfo@dgTreeNode@?$dgTree@PEAVdgBody@@PEAX@@QEAAAEAPEAVdgBody@@XZ 0000000180013960 f i NewtonClass.obj
 0001:00012980       ??0Iterator@?$dgTree@PEAVdgConstraint@@PEAX@@QEAA@AEBV1@@Z 0000000180013980 f i NewtonClass.obj
 0001:000129c0       ??1Iterator@?$dgTree@PEAVdgConstraint@@PEAX@@QEAA@XZ 00000001800139c0 f i NewtonClass.obj
 0001:000129d0       ?Begin@Iterator@?$dgTree@PEAVdgConstraint@@PEAX@@QEAAXXZ 00000001800139d0 f i NewtonClass.obj
 0001:00012a00       ??BIterator@?$dgTree@PEAVdgConstraint@@PEAX@@QEBAHXZ 0000000180013a00 f i NewtonClass.obj
 0001:00012a40       ??EIterator@?$dgTree@PEAVdgConstraint@@PEAX@@QEAAXH@Z 0000000180013a40 f i NewtonClass.obj
 0001:00012ac0       ?GetNode@Iterator@?$dgTree@PEAVdgConstraint@@PEAX@@QEBAPEAVdgTreeNode@2@XZ 0000000180013ac0 f i NewtonClass.obj
 0001:00012ae0       ?GetInfo@dgTreeNode@?$dgTree@PEAVdgConstraint@@PEAX@@QEAAAEAPEAVdgConstraint@@XZ 0000000180013ae0 f i NewtonClass.obj
 0001:00012b00       ??0?$dgTree@PEAVdgBody@@PEAX@@QEAA@QEAVdgMemoryAllocator@@@Z 0000000180013b00 f i NewtonClass.obj
 0001:00012b50       ??1?$dgTree@PEAVdgBody@@PEAX@@QEAA@XZ 0000000180013b50 f i NewtonClass.obj
 0001:00012b70       ?Minimum@?$dgTree@PEAVdgBody@@PEAX@@QEBAPEAVdgTreeNode@1@XZ 0000000180013b70 f i NewtonClass.obj
 0001:00012bc0       ?Insert@?$dgTree@PEAVdgBody@@PEAX@@QEAAPEAVdgTreeNode@1@AEBQEAVdgBody@@PEAX@Z 0000000180013bc0 f i NewtonClass.obj
 0001:00012c20       ?Remove@?$dgTree@PEAVdgBody@@PEAX@@QEAAXQEAVdgTreeNode@1@@Z 0000000180013c20 f i NewtonClass.obj
 0001:00012c80       ??0?$dgTree@PEAVdgConstraint@@PEAX@@QEAA@QEAVdgMemoryAllocator@@@Z 0000000180013c80 f i NewtonClass.obj
 0001:00012cd0       ??1?$dgTree@PEAVdgConstraint@@PEAX@@QEAA@XZ 0000000180013cd0 f i NewtonClass.obj
 0001:00012cf0       ?Minimum@?$dgTree@PEAVdgConstraint@@PEAX@@QEBAPEAVdgTreeNode@1@XZ 0000000180013cf0 f i NewtonClass.obj
 0001:00012d40       ?Insert@?$dgTree@PEAVdgConstraint@@PEAX@@QEAAPEAVdgTreeNode@1@AEBQEAVdgConstraint@@PEAX@Z 0000000180013d40 f i NewtonClass.obj
 0001:00012da0       ?Remove@?$dgTree@PEAVdgConstraint@@PEAX@@QEAAXQEAVdgTreeNode@1@@Z 0000000180013da0 f i NewtonClass.obj
 0001:00012e00       ?Insert@?$dgTree@PEAVdgBody@@PEAX@@QEAAPEAVdgTreeNode@1@AEBQEAVdgBody@@PEAXAEA_N@Z 0000000180013e00 f i NewtonClass.obj
 0001:00013170       ?RemoveAll@?$dgTree@PEAVdgBody@@PEAX@@QEAAXXZ 0000000180014170 f i NewtonClass.obj
 0001:000131c0       ?Insert@?$dgTree@PEAVdgConstraint@@PEAX@@QEAAPEAVdgTreeNode@1@AEBQEAVdgConstraint@@PEAXAEA_N@Z 00000001800141c0 f i NewtonClass.obj
 0001:00013530       ?RemoveAll@?$dgTree@PEAVdgConstraint@@PEAX@@QEAAXXZ 0000000180014530 f i NewtonClass.obj
 0001:00013580       ??0dgTreeNode@?$dgTree@PEAVdgBody@@PEAX@@AEAA@AEBQEAVdgBody@@AEBQEAXPEAV01@@Z 0000000180014580 f i NewtonClass.obj
 0001:00013640       ?GetLeft@dgTreeNode@?$dgTree@PEAVdgBody@@PEAX@@AEBAPEAV12@XZ 0000000180014640 f i NewtonClass.obj
 0001:00013660       ?GetRight@dgTreeNode@?$dgTree@PEAVdgBody@@PEAX@@AEBAPEAV12@XZ 0000000180014660 f i NewtonClass.obj
 0001:00013680       ??0dgTreeNode@?$dgTree@PEAVdgConstraint@@PEAX@@AEAA@AEBQEAVdgConstraint@@AEBQEAXPEAV01@@Z 0000000180014680 f i NewtonClass.obj
 0001:00013740       ?GetLeft@dgTreeNode@?$dgTree@PEAVdgConstraint@@PEAX@@AEBAPEAV12@XZ 0000000180014740 f i NewtonClass.obj
 0001:00013760       ?GetRight@dgTreeNode@?$dgTree@PEAVdgConstraint@@PEAX@@AEBAPEAV12@XZ 0000000180014760 f i NewtonClass.obj
 0001:00013780       ?CompareKeys@?$dgTree@PEAVdgBody@@PEAX@@AEBAHAEBQEAX0@Z 0000000180014780 f i NewtonClass.obj
 0001:000137e0       ?CompareKeys@?$dgTree@PEAVdgConstraint@@PEAX@@AEBAHAEBQEAX0@Z 00000001800147e0 f i NewtonClass.obj
 0001:00013840       ??3dgConstraint@@SAXPEAX@Z 0000000180014840 f i NewtonClass.obj
 0001:00013860       ?SetUpdateFeedbackFunction@dgConstraint@@IEAAXP6AXAEBV1@NH@Z@Z 0000000180014860 f i NewtonClass.obj
 0001:00013880       ??_H@YAXPEAX_KHP6APEAX0@Z@Z 0000000180014880 f i NewtonClass.obj
 0001:000138e0       ?Init@dgBilateralConstraint@@MEAAXXZ 00000001800148e0 f i NewtonClass.obj
 0001:00013940       ?Remove@dgBilateralConstraint@@MEAAXPEAVdgWorld@@@Z 0000000180014940 f i NewtonClass.obj
 0001:000139a0       ??0dgWorld@@QEAA@QEAVdgMemoryAllocator@@@Z 00000001800149a0 f   physics:dgWorld.obj
 0001:000140f0       ??1dgWorld@@QEAA@XZ        00000001800150f0 f   physics:dgWorld.obj
 0001:000142e0       ?GetPerformanceCount@dgWorld@@CAIXZ 00000001800152e0 f   physics:dgWorld.obj
 0001:000142f0       ?AddSentinelBody@dgWorld@@AEAAXXZ 00000001800152f0 f   physics:dgWorld.obj
 0001:000143b0       ?GetSentinelBody@dgWorld@@QEBAPEAVdgBody@@XZ 00000001800153b0 f   physics:dgWorld.obj
 0001:000143d0       ?SetSolverMode@dgWorld@@QEAAXH@Z 00000001800153d0 f   physics:dgWorld.obj
 0001:00014410       ?SetFrictionMode@dgWorld@@QEAAXH@Z 0000000180015410 f   physics:dgWorld.obj
 0001:00014430       ?SetHardwareMode@dgWorld@@QEAAXH@Z 0000000180015430 f   physics:dgWorld.obj
 0001:00014480       ?GetHardwareMode@dgWorld@@QEAAHPEAD@Z 0000000180015480 f   physics:dgWorld.obj
 0001:000144f0       ?SetThreadsCount@dgWorld@@QEAAXH@Z 00000001800154f0 f   physics:dgWorld.obj
 0001:00014540       ?GetThreadsCount@dgWorld@@QEBAHXZ 0000000180015540 f   physics:dgWorld.obj
 0001:00014560       ?GetMaxThreadsCount@dgWorld@@QEBAHXZ 0000000180015560 f   physics:dgWorld.obj
 0001:00014580       ?EnableThreadOnSingleIsland@dgWorld@@QEAAXH@Z 0000000180015580 f   physics:dgWorld.obj
 0001:000145c0       ?GetThreadOnSingleIsland@dgWorld@@QEBAHXZ 00000001800155c0 f   physics:dgWorld.obj
 0001:00014600       ?SetFrictionThreshold@dgWorld@@QEAAXN@Z 0000000180015600 f   physics:dgWorld.obj
 0001:00014640       ?RemoveAllGroupID@dgWorld@@QEAAXXZ 0000000180015640 f   physics:dgWorld.obj
 0001:000146c0       ?DestroyAllBodies@dgWorld@@QEAAXXZ 00000001800156c0 f   physics:dgWorld.obj
 0001:00014820       ?CreateBody@dgWorld@@QEAAPEAVdgBody@@QEAVdgCollision@@AEBVdgMatrix@@@Z 0000000180015820 f   physics:dgWorld.obj
 0001:00014bd0       ?DestroyBody@dgWorld@@QEAAXQEAVdgBody@@@Z 0000000180015bd0 f   physics:dgWorld.obj
 0001:00014cc0       ?DestroyConstraint@dgWorld@@QEAAXPEAVdgConstraint@@@Z 0000000180015cc0 f   physics:dgWorld.obj
 0001:00014d30       ?UpdateCollision@dgWorld@@QEAAXXZ 0000000180015d30 f   physics:dgWorld.obj
 0001:00014e80       ?Update@dgWorld@@QEAAXN@Z  0000000180015e80 f   physics:dgWorld.obj
 0001:00015060       ?GetPerformaceFuntion@dgWorld@@QEBAP6AIXZXZ 0000000180016060 f   physics:dgWorld.obj
 0001:00015080       ?SetPerfomanceCounter@dgWorld@@QEAAXP6AIXZ@Z 0000000180016080 f   physics:dgWorld.obj
 0001:000150f0       ?GetPerfomanceTicks@dgWorld@@QEBAII@Z 00000001800160f0 f   physics:dgWorld.obj
 0001:00015130       ?GetThreadPerfomanceTicks@dgWorld@@QEBAII@Z 0000000180016130 f   physics:dgWorld.obj
 0001:00015160       ?SetUserData@dgWorld@@QEAAXQEAX@Z 0000000180016160 f   physics:dgWorld.obj
 0001:00015190       ?GetUserData@dgWorld@@QEBAPEAXXZ 0000000180016190 f   physics:dgWorld.obj
 0001:000151b0       ?SetIslandUpdateCallback@dgWorld@@QEAAXP6AIQEBV1@PEAXH@Z@Z 00000001800161b0 f   physics:dgWorld.obj
 0001:000151e0       ?SetDestroyCollisionCallback@dgWorld@@QEAAXP6AXQEBV1@PEAVdgCollision@@@Z@Z 00000001800161e0 f   physics:dgWorld.obj
 0001:00015210       ?SetLeavingWorldCallback@dgWorld@@QEAAXP6AXPEAVdgBody@@H@Z@Z 0000000180016210 f   physics:dgWorld.obj
 0001:00015240       ?SetBodyDestructionByExeciveForce@dgWorld@@QEAAXP6AXQEBVdgBody@@PEBVdgContact@@@Z@Z 0000000180016240 f   physics:dgWorld.obj
 0001:00015270       ?CreateBallConstraint@dgWorld@@QEAAPEAVdgBallConstraint@@AEBVdgVector@@QEAVdgBody@@PEAV4@@Z 0000000180016270 f   physics:dgWorld.obj
 0001:00015380       ?CreateHingeConstraint@dgWorld@@QEAAPEAVdgHingeConstraint@@AEBVdgVector@@0QEAVdgBody@@PEAV4@@Z 0000000180016380 f   physics:dgWorld.obj
 0001:000154a0       ?CreateUpVectorConstraint@dgWorld@@QEAAPEAVdgUpVectorConstraint@@AEBVdgVector@@PEAVdgBody@@@Z 00000001800164a0 f   physics:dgWorld.obj
 0001:00015570       ?CreateSlidingConstraint@dgWorld@@QEAAPEAVdgSlidingConstraint@@AEBVdgVector@@0QEAVdgBody@@PEAV4@@Z 0000000180016570 f   physics:dgWorld.obj
 0001:00015690       ?CreateCorkscrewConstraint@dgWorld@@QEAAPEAVdgCorkscrewConstraint@@AEBVdgVector@@0QEAVdgBody@@PEAV4@@Z 0000000180016690 f   physics:dgWorld.obj
 0001:000157b0       ?CreateUniversalConstraint@dgWorld@@QEAAPEAVdgUniversalConstraint@@AEBVdgVector@@00QEAVdgBody@@PEAV4@@Z 00000001800167b0 f   physics:dgWorld.obj
 0001:000158d0       ?GetBodiesCount@dgWorld@@QEBAHXZ 00000001800168d0 f   physics:dgWorld.obj
 0001:00015900       ?GetConstraintsCount@dgWorld@@QEBAHXZ 0000000180016900 f   physics:dgWorld.obj
 0001:00015930       ?BodySetMatrix@dgWorld@@QEAAXPEAVdgBody@@AEBVdgMatrix@@@Z 0000000180016930 f   physics:dgWorld.obj
 0001:00015cc0       ?AddBodyImpulse@dgWorld@@QEAAXPEAVdgBody@@AEBVdgVector@@1@Z 0000000180016cc0 f   physics:dgWorld.obj
 0001:00015d10       ?AreBodyConnectedByJoints@dgWorld@@AEAA_NQEAVdgBody@@0@Z 0000000180016d10 f   physics:dgWorld.obj
 0001:00015f60       ?FlushCache@dgWorld@@QEAAXXZ 0000000180016f60 f   physics:dgWorld.obj
 0001:00016000       ??0dgActiveContacts@@QEAA@QEAVdgMemoryAllocator@@@Z 0000000180017000 f i physics:dgWorld.obj
 0001:00016030       ??2dgCollision@@SAPEAX_KQEAVdgMemoryAllocator@@@Z 0000000180017030 f i physics:dgWorld.obj
 0001:00016060       ??0dgBodyCollisionList@@QEAA@QEAVdgMemoryAllocator@@@Z 0000000180017060 f i physics:dgWorld.obj
 0001:00016090       ??0dgBodyMaterialList@@QEAA@QEAVdgMemoryAllocator@@@Z 0000000180017090 f i physics:dgWorld.obj
 0001:000160c0       ??0dgDetroyBodyByForce@dgWorld@@QEAA@XZ 00000001800170c0 f i physics:dgWorld.obj
 0001:000160e0       ??0dgCollisionPoint@@QEAA@QEAVdgMemoryAllocator@@@Z 00000001800170e0 f i physics:dgWorld.obj
 0001:00016130       ?ModifierGetMatrix@dgCollision@@UEBA?AVdgMatrix@@XZ 0000000180017130 f i physics:dgWorld.obj
 0001:00016180       ?ModifierSetMatrix@dgCollision@@UEAAXAEBVdgMatrix@@@Z 0000000180017180 f i physics:dgWorld.obj
 0001:00016190       ?Release@dgCollision@@UEAAHXZ 0000000180017190 f i physics:dgWorld.obj
 0001:00016220       ?SetBreakImpulse@dgCollision@@UEAAXN@Z 0000000180017220 f i physics:dgWorld.obj
 0001:00016230       ?GetBreakImpulse@dgCollision@@UEBANXZ 0000000180017230 f i physics:dgWorld.obj
 0001:00016240       ??_GdgCollisionPoint@@UEAAPEAXI@Z 0000000180017240 f i physics:dgWorld.obj
 0001:00016240       ??_EdgCollisionPoint@@UEAAPEAXI@Z 0000000180017240 f i physics:dgWorld.obj
 0001:00016280       ??3dgCollision@@SAXPEAX@Z  0000000180017280 f i physics:dgWorld.obj
 0001:000162a0       ??1dgCollisionPoint@@UEAA@XZ 00000001800172a0 f i physics:dgWorld.obj
 0001:000162c0       ??_I@YAXPEAX_KHP6AX0@Z@Z   00000001800172c0 f i physics:dgWorld.obj
 0001:00016330       ??1dgBodyMaterialList@@QEAA@XZ 0000000180017330 f i physics:dgWorld.obj
 0001:00016350       ??1dgBodyCollisionList@@QEAA@XZ 0000000180017350 f i physics:dgWorld.obj
 0001:00016370       ??1dgActiveContacts@@QEAA@XZ 0000000180017370 f i physics:dgWorld.obj
 0001:00016390       ??1dgWorldDynamicUpdate@@QEAA@XZ 0000000180017390 f i physics:dgWorld.obj
 0001:00016520       ??1dgSolverWorlkerThreads@@UEAA@XZ 0000000180017520 f i physics:dgWorld.obj
 0001:00016540       ??1dgParallelSolverClear@@UEAA@XZ 0000000180017540 f i physics:dgWorld.obj
 0001:00016560       ??1dgParallelSolverBodyInertia@@UEAA@XZ 0000000180017560 f i physics:dgWorld.obj
 0001:00016580       ??1dgParallelSolverUpdateVeloc@@UEAA@XZ 0000000180017580 f i physics:dgWorld.obj
 0001:000165a0       ??1dgParallelSolverUpdateForce@@UEAA@XZ 00000001800175a0 f i physics:dgWorld.obj
 0001:000165c0       ??1dgParallelSolverCalculateForces@@UEAA@XZ 00000001800175c0 f i physics:dgWorld.obj
 0001:000165e0       ??1dgParallelSolverInitInternalForces@@UEAA@XZ 00000001800175e0 f i physics:dgWorld.obj
 0001:00016600       ??1dgParallelSolverBuildJacobianRows@@UEAA@XZ 0000000180017600 f i physics:dgWorld.obj
 0001:00016620       ??1dgParallelSolverJointAcceleration@@UEAA@XZ 0000000180017620 f i physics:dgWorld.obj
 0001:00016640       ??1dgParallelSolverInitFeedbackUpdate@@UEAA@XZ 0000000180017640 f i physics:dgWorld.obj
 0001:00016660       ??1dgParallelSolverBuildJacobianMatrix@@UEAA@XZ 0000000180017660 f i physics:dgWorld.obj
 0001:00016680       ??2dgBody@@SAPEAX_KQEAVdgMemoryAllocator@@@Z 0000000180017680 f i physics:dgWorld.obj
 0001:000166b0       ??_GdgBody@@QEAAPEAXI@Z    00000001800176b0 f i physics:dgWorld.obj
 0001:000166f0       ??3dgBody@@SAXPEAX@Z       00000001800176f0 f i physics:dgWorld.obj
 0001:00016710       ?GetInfo@dgListNode@?$dgList@PEAVdgContact@@@@QEAAAEAPEAVdgContact@@XZ 0000000180017710 f i physics:dgWorld.obj
 0001:00016720       ?Inverse@dgMatrix@@QEBA?AV1@XZ 0000000180017720 f i physics:dgWorld.obj
 0001:000168e0       ?GetNext@dgListNode@?$dgList@PEAVdgContact@@@@QEBAPEAV12@XZ 00000001800178e0 f i physics:dgWorld.obj
 0001:000168f0       ?GetCount@?$dgList@VdgBodyMasterListCell@@@@QEBAHXZ 00000001800178f0 f i physics:dgWorld.obj
 0001:00016900       ?GetCount@?$dgList@VdgBodyMasterListRow@@@@QEBAHXZ 0000000180017900 f i physics:dgWorld.obj
 0001:00016910       ??0?$dgList@PEAVdgContact@@@@QEAA@QEAVdgMemoryAllocator@@@Z 0000000180017910 f i physics:dgWorld.obj
 0001:00016960       ??1?$dgList@PEAVdgContact@@@@QEAA@XZ 0000000180017960 f i physics:dgWorld.obj
 0001:00016980       ?GetFirst@?$dgList@PEAVdgContact@@@@QEBAPEAVdgListNode@1@XZ 0000000180017980 f i physics:dgWorld.obj
 0001:00016990       ??0?$dgTree@PEAVdgCollision@@I@@QEAA@QEAVdgMemoryAllocator@@@Z 0000000180017990 f i physics:dgWorld.obj
 0001:000169d0       ??1?$dgTree@PEAVdgCollision@@I@@QEAA@XZ 00000001800179d0 f i physics:dgWorld.obj
 0001:000169f0       ?GetCount@?$dgTree@PEAVdgCollision@@I@@QEBAHXZ 00000001800179f0 f i physics:dgWorld.obj
 0001:00016a00       ??0?$dgTree@VdgContactMaterial@@I@@QEAA@QEAVdgMemoryAllocator@@@Z 0000000180017a00 f i physics:dgWorld.obj
 0001:00016a40       ??1?$dgTree@VdgContactMaterial@@I@@QEAA@XZ 0000000180017a40 f i physics:dgWorld.obj
 0001:00016a60       ?GetCount@?$dgTree@VdgContactMaterial@@I@@QEBAHXZ 0000000180017a60 f i physics:dgWorld.obj
 0001:00016a70       ?GetRoot@?$dgTree@VdgContactMaterial@@I@@QEBAPEAVdgTreeNode@1@XZ 0000000180017a70 f i physics:dgWorld.obj
 0001:00016a80       ?Remove@?$dgTree@VdgContactMaterial@@I@@QEAAXQEAVdgTreeNode@1@@Z 0000000180017a80 f i physics:dgWorld.obj
 0001:00016ad0       ??0?$dgTree@PEAXI@@QEAA@QEAVdgMemoryAllocator@@@Z 0000000180017ad0 f i physics:dgWorld.obj
 0001:00016b10       ??1?$dgTree@PEAXI@@QEAA@XZ 0000000180017b10 f i physics:dgWorld.obj
 0001:00016b30       ??$GetMax@H@@YAHHH@Z       0000000180017b30 f i physics:dgWorld.obj
 0001:00016b50       ??$ClampValue@I@@YAIIII@Z  0000000180017b50 f i physics:dgWorld.obj
 0001:00016b90       ??$Swap@PEAVdgBody@@@@YAXAEAPEAVdgBody@@0@Z 0000000180017b90 f i physics:dgWorld.obj
 0001:00016bd0       ??1dgWorkerThread@@UEAA@XZ 0000000180017bd0 f i physics:dgWorld.obj
 0001:00016bf0       ?RemoveAll@?$dgList@PEAVdgContact@@@@QEAAXXZ 0000000180017bf0 f i physics:dgWorld.obj
 0001:00016cf0       ??_GdgWorkerThread@@UEAAPEAXI@Z 0000000180017cf0 f i physics:dgWorld.obj
 0001:00016cf0       ??_EdgWorkerThread@@UEAAPEAXI@Z 0000000180017cf0 f i physics:dgWorld.obj
 0001:00016d30       ?RemoveAll@?$dgTree@PEAVdgCollision@@I@@QEAAXXZ 0000000180017d30 f i physics:dgWorld.obj
 0001:00016d70       ?RemoveAll@?$dgTree@VdgContactMaterial@@I@@QEAAXXZ 0000000180017d70 f i physics:dgWorld.obj
 0001:00016db0       ?RemoveAll@?$dgTree@PEAXI@@QEAAXXZ 0000000180017db0 f i physics:dgWorld.obj
 0001:00016df0       ??_GdgListNode@?$dgList@PEAVdgContact@@@@AEAAPEAXI@Z 0000000180017df0 f i physics:dgWorld.obj
 0001:00016e30       ??3dgListNode@?$dgList@PEAVdgContact@@@@CAXPEAX@Z 0000000180017e30 f i physics:dgWorld.obj
 0001:00016e50       ??1dgListNode@?$dgList@PEAVdgContact@@@@AEAA@XZ 0000000180017e50 f i physics:dgWorld.obj
 0001:00016e60       ?Unlink@dgListNode@?$dgList@PEAVdgContact@@@@AEAAXXZ 0000000180017e60 f i physics:dgWorld.obj
 0001:00016ed0       ??0dgSortArray@@QEAA@XZ    0000000180017ed0 f   physics:dgBroadPhaseCollision.obj
 0001:00016f10       ??1dgSortArray@@QEAA@XZ    0000000180017f10 f   physics:dgBroadPhaseCollision.obj
 0001:00016f70       ?Add@dgSortArray@@QEAAXQEAVdgBody@@@Z 0000000180017f70 f   physics:dgBroadPhaseCollision.obj
 0001:00017010       ?Remove@dgSortArray@@QEAAXQEAVdgBody@@@Z 0000000180018010 f   physics:dgBroadPhaseCollision.obj
 0001:000170b0       ?Sort@dgSortArray@@QEAANXZ 00000001800180b0 f   physics:dgBroadPhaseCollision.obj
 0001:00017290       ?RayCast@dgSortArray@@QEBANNAEBUdgLineBox@@P6ANQEBVdgBody@@AEBVdgVector@@HQEAXN@ZP6AI1QEBVdgCollision@@3@Z3@Z 0000000180018290 f   physics:dgBroadPhaseCollision.obj
 0001:00017440       ?InvalidateCache@dgSortArray@@QEAAXXZ 0000000180018440 f   physics:dgBroadPhaseCollision.obj
 0001:00017520       ?SanityCheck@dgSortArray@@QEAA_NXZ 0000000180018520 f   physics:dgBroadPhaseCollision.obj
 0001:000175c0       ??0dgBroadPhaseCell@@QEAA@XZ 00000001800185c0 f   physics:dgBroadPhaseCollision.obj
 0001:00017600       ??1dgBroadPhaseCell@@QEAA@XZ 0000000180018600 f   physics:dgBroadPhaseCollision.obj
 0001:00017670       ?Init@dgBroadPhaseCell@@AEAAXHPEAVdgMemoryAllocator@@@Z 0000000180018670 f   physics:dgBroadPhaseCollision.obj
 0001:00017720       ?Add@dgBroadPhaseCell@@AEAAXQEAVdgBody@@@Z 0000000180018720 f   physics:dgBroadPhaseCollision.obj
 0001:000177f0       ?Remove@dgBroadPhaseCell@@AEAAXQEAVdgBody@@@Z 00000001800187f0 f   physics:dgBroadPhaseCollision.obj
 0001:000178f0       ?Sort@dgBroadPhaseCell@@AEAAXXZ 00000001800188f0 f   physics:dgBroadPhaseCollision.obj
 0001:000179c0       ?UpdateAutoPair@dgBroadPhaseCell@@AEAAXQEAVdgWorld@@H@Z 00000001800189c0 f   physics:dgBroadPhaseCollision.obj
 0001:00017bc0       ??0dgBroadPhaseLayer@@QEAA@XZ 0000000180018bc0 f   physics:dgBroadPhaseCollision.obj
 0001:00017c10       ??1dgBroadPhaseLayer@@QEAA@XZ 0000000180018c10 f   physics:dgBroadPhaseCollision.obj
 0001:00017c70       ?Init@dgBroadPhaseLayer@@AEAAXQEAVdgWorld@@NH@Z 0000000180018c70 f   physics:dgBroadPhaseCollision.obj
 0001:00017d20       ?FindCreate@dgBroadPhaseLayer@@AEAAPEAVdgBroadPhaseCell@@HH@Z 0000000180018d20 f   physics:dgBroadPhaseCollision.obj
 0001:00017e10       ??0dgBroadPhaseCollision@@AEAA@PEAVdgMemoryAllocator@@@Z 0000000180018e10 f   physics:dgBroadPhaseCollision.obj
 0001:00018020       ??1dgBroadPhaseCollision@@AEAA@XZ 0000000180019020 f   physics:dgBroadPhaseCollision.obj
 0001:00018100       ?Init@dgBroadPhaseCollision@@AEAAXXZ 0000000180019100 f   physics:dgBroadPhaseCollision.obj
 0001:000181a0       ?GetWorldSize@dgBroadPhaseCollision@@QEBAXAEAVdgVector@@0@Z 00000001800191a0 f   physics:dgBroadPhaseCollision.obj
 0001:00018210       ?SetWorldSize@dgBroadPhaseCollision@@QEAAXAEBVdgVector@@0@Z 0000000180019210 f   physics:dgBroadPhaseCollision.obj
 0001:00018840       ?InvalidateCache@dgBroadPhaseCollision@@AEAAXXZ 0000000180019840 f   physics:dgBroadPhaseCollision.obj
 0001:00018900       ?Add@dgBroadPhaseCollision@@AEAAXQEAVdgBody@@@Z 0000000180019900 f   physics:dgBroadPhaseCollision.obj
 0001:00018980       ?Remove@dgBroadPhaseCollision@@AEAAXQEAVdgBody@@@Z 0000000180019980 f   physics:dgBroadPhaseCollision.obj
 0001:00018ab0       ?UpdatePairs@dgBroadPhaseCollision@@AEBAXQEAVdgBody@@QEAVdgListNode@?$dgList@VdgSortArrayEntry@@@@HH@Z 0000000180019ab0 f   physics:dgBroadPhaseCollision.obj
 0001:00018c70       ?UpdatePairs@dgBroadPhaseCollision@@AEBAXAEAVdgBroadPhaseCell@@0H@Z 0000000180019c70 f   physics:dgBroadPhaseCollision.obj
 0001:00018dc0       ?ForEachBodyInAABB@dgBroadPhaseCollision@@QEBAXAEBVdgVector@@0P6AXPEAVdgBody@@QEAX@Z2@Z 0000000180019dc0 f   physics:dgBroadPhaseCollision.obj
 0001:00019120       ?ConvexCast@dgBroadPhaseCollision@@QEBAHQEAVdgCollision@@AEBVdgMatrix@@AEBVdgVector@@AEANP6AIQEBVdgBody@@QEBV2@QEAX@Z6QEAVdgConvexCastReturnInfo@@HH@Z 000000018001a120 f   physics:dgBroadPhaseCollision.obj
 0001:0001a020       ?Realloc@dgBroadPhaseCalculateContactsWorkerThread@@QEAAXHHH@Z 000000018001b020 f   physics:dgBroadPhaseCollision.obj
 0001:0001a250       ?ThreadExecute@dgBroadPhaseCellPairsWorkerThread@@UEAAXXZ 000000018001b250 f   physics:dgBroadPhaseCollision.obj
 0001:0001a370       ?ThreadExecute@dgBroadPhaseApplyExternalForce@@UEAAXXZ 000000018001b370 f   physics:dgBroadPhaseCollision.obj
 0001:0001aa10       ?ThreadExecute@dgBroadPhaseCalculateContactsWorkerThread@@UEAAXXZ 000000018001ba10 f   physics:dgBroadPhaseCollision.obj
 0001:0001ada0       ?ThreadExecute@dgBroadPhaseMaterialCallbackWorkerThread@@UEAAXXZ 000000018001bda0 f   physics:dgBroadPhaseCollision.obj
 0001:0001af40       ?RayCast@dgBroadPhaseCollision@@QEBAXAEBVdgVector@@0P6ANQEBVdgBody@@0HQEAXN@ZP6AI1QEBVdgCollision@@2@Z2@Z 000000018001bf40 f   physics:dgBroadPhaseCollision.obj
 0001:0001bc10       ?UpdateBodyBroadphase@dgBroadPhaseCollision@@AEAAXQEAVdgBody@@H@Z 000000018001cc10 f   physics:dgBroadPhaseCollision.obj
 0001:0001c500       ?UpdateContactsBroadPhaseBegin@dgBroadPhaseCollision@@AEAAIN_NI@Z 000000018001d500 f   physics:dgBroadPhaseCollision.obj
 0001:0001d900       ?UpdateContactsBroadPhaseEnd@dgBroadPhaseCollision@@AEAAXN@Z 000000018001e900 f   physics:dgBroadPhaseCollision.obj
 0001:0001db20       ?UpdateContactsSimd@dgBroadPhaseCollision@@AEAAXN_N@Z 000000018001eb20 f   physics:dgBroadPhaseCollision.obj
 0001:0001db40       ?UpdateContacts@dgBroadPhaseCollision@@AEAAXN_N@Z 000000018001eb40 f   physics:dgBroadPhaseCollision.obj
 0001:0001e050       ?GetKey@dgBroadPhaseLayer@@AEBAIHH@Z 000000018001f050 f i physics:dgBroadPhaseCollision.obj
 0001:0001e080       ??0dgBroadPhaseApplyExternalForce@@QEAA@XZ 000000018001f080 f i physics:dgBroadPhaseCollision.obj
 0001:0001e0b0       ??0dgBroadPhaseCellPairsWorkerThread@@QEAA@XZ 000000018001f0b0 f i physics:dgBroadPhaseCollision.obj
 0001:0001e0e0       ??0dgBroadPhaseMaterialCallbackWorkerThread@@QEAA@XZ 000000018001f0e0 f i physics:dgBroadPhaseCollision.obj
 0001:0001e110       ??0dgBroadPhaseCalculateContactsWorkerThread@@QEAA@XZ 000000018001f110 f i physics:dgBroadPhaseCollision.obj
 0001:0001e140       ??_GdgBroadPhaseApplyExternalForce@@UEAAPEAXI@Z 000000018001f140 f i physics:dgBroadPhaseCollision.obj
 0001:0001e140       ??_EdgBroadPhaseApplyExternalForce@@UEAAPEAXI@Z 000000018001f140 f i physics:dgBroadPhaseCollision.obj
 0001:0001e180       ??1dgBroadPhaseApplyExternalForce@@UEAA@XZ 000000018001f180 f i physics:dgBroadPhaseCollision.obj
 0001:0001e1a0       ??_EdgBroadPhaseCellPairsWorkerThread@@UEAAPEAXI@Z 000000018001f1a0 f i physics:dgBroadPhaseCollision.obj
 0001:0001e1a0       ??_GdgBroadPhaseCellPairsWorkerThread@@UEAAPEAXI@Z 000000018001f1a0 f i physics:dgBroadPhaseCollision.obj
 0001:0001e1e0       ??1dgBroadPhaseCellPairsWorkerThread@@UEAA@XZ 000000018001f1e0 f i physics:dgBroadPhaseCollision.obj
 0001:0001e200       ??_EdgBroadPhaseMaterialCallbackWorkerThread@@UEAAPEAXI@Z 000000018001f200 f i physics:dgBroadPhaseCollision.obj
 0001:0001e200       ??_GdgBroadPhaseMaterialCallbackWorkerThread@@UEAAPEAXI@Z 000000018001f200 f i physics:dgBroadPhaseCollision.obj
 0001:0001e240       ??1dgBroadPhaseMaterialCallbackWorkerThread@@UEAA@XZ 000000018001f240 f i physics:dgBroadPhaseCollision.obj
 0001:0001e260       ??_GdgBroadPhaseCalculateContactsWorkerThread@@UEAAPEAXI@Z 000000018001f260 f i physics:dgBroadPhaseCollision.obj
 0001:0001e260       ??_EdgBroadPhaseCalculateContactsWorkerThread@@UEAAPEAXI@Z 000000018001f260 f i physics:dgBroadPhaseCollision.obj
 0001:0001e2a0       ??1dgBroadPhaseCalculateContactsWorkerThread@@UEAA@XZ 000000018001f2a0 f i physics:dgBroadPhaseCollision.obj
 0001:0001e2c0       ?Find@dgBroadPhaseLayer@@AEBAPEAVdgBroadPhaseCell@@HH@Z 000000018001f2c0 f i physics:dgBroadPhaseCollision.obj
 0001:0001e330       ?ApplyExtenalForces@dgBody@@AEAAXNH@Z 000000018001f330 f i physics:dgBroadPhaseCollision.obj
 0001:0001e430       ?IsInEquelibrium@dgBody@@QEBA_NXZ 000000018001f430 f i physics:dgBroadPhaseCollision.obj
 0001:0001e6d0       ??0dgWorkerThread@@QEAA@XZ 000000018001f6d0 f i physics:dgBroadPhaseCollision.obj
 0001:0001e700       ?dgOverlapTest@@YAHAEBVdgVector@@000@Z 000000018001f700 f i physics:dgBroadPhaseCollision.obj
 0001:0001e7b0       ??0dgLineBox@@QEAA@XZ      000000018001f7b0 f i physics:dgBroadPhaseCollision.obj
 0001:0001e800       ?GetCollisionPrimityType@dgCollision@@QEBA?AW4dgCollisionID@@XZ 000000018001f800 f i physics:dgBroadPhaseCollision.obj
 0001:0001e820       ?KeyToIndex@dgBroadPhaseLayer@@AEBAXHAEAH0@Z 000000018001f820 f i physics:dgBroadPhaseCollision.obj
 0001:0001e850       ?GetKey@dgTreeNode@?$dgTree@VdgBroadPhaseCell@@I@@QEBAAEBIXZ 000000018001f850 f i physics:dgBroadPhaseCollision.obj
 0001:0001e870       ?GetInfo@dgTreeNode@?$dgTree@VdgBroadPhaseCell@@I@@QEAAAEAVdgBroadPhaseCell@@XZ 000000018001f870 f i physics:dgBroadPhaseCollision.obj
 0001:0001e880       ?GetInfo@dgListNode@?$dgList@VdgSortArrayEntry@@@@QEAAAEAVdgSortArrayEntry@@XZ 000000018001f880 f i physics:dgBroadPhaseCollision.obj
 0001:0001e890       ?GetNext@dgListNode@?$dgList@VdgSortArrayEntry@@@@QEBAPEAV12@XZ 000000018001f890 f i physics:dgBroadPhaseCollision.obj
 0001:0001e8a0       ?GetPrev@dgListNode@?$dgList@VdgSortArrayEntry@@@@QEBAPEAV12@XZ 000000018001f8a0 f i physics:dgBroadPhaseCollision.obj
 0001:0001e8b0       ??0Iterator@?$dgTree@VdgBroadPhaseCell@@I@@QEAA@AEBV1@@Z 000000018001f8b0 f i physics:dgBroadPhaseCollision.obj
 0001:0001e8e0       ??1Iterator@?$dgTree@VdgBroadPhaseCell@@I@@QEAA@XZ 000000018001f8e0 f i physics:dgBroadPhaseCollision.obj
 0001:0001e8f0       ?Begin@Iterator@?$dgTree@VdgBroadPhaseCell@@I@@QEAAXXZ 000000018001f8f0 f i physics:dgBroadPhaseCollision.obj
 0001:0001e920       ??BIterator@?$dgTree@VdgBroadPhaseCell@@I@@QEBAHXZ 000000018001f920 f i physics:dgBroadPhaseCollision.obj
 0001:0001e950       ??EIterator@?$dgTree@VdgBroadPhaseCell@@I@@QEAAXH@Z 000000018001f950 f i physics:dgBroadPhaseCollision.obj
 0001:0001e9c0       ?GetNode@Iterator@?$dgTree@VdgBroadPhaseCell@@I@@QEBAPEAVdgTreeNode@2@XZ 000000018001f9c0 f i physics:dgBroadPhaseCollision.obj
 0001:0001e9d0       ??A?$dgTemplateVector@N@@QEBAAEBNH@Z 000000018001f9d0 f i physics:dgBroadPhaseCollision.obj
 0001:0001ea60       ??Z?$dgTemplateVector@N@@QEAAAEAV0@AEBV0@@Z 000000018001fa60 f i physics:dgBroadPhaseCollision.obj
 0001:0001eb70       ??0?$dgList@VdgSortArrayEntry@@@@QEAA@QEAVdgMemoryAllocator@@@Z 000000018001fb70 f i physics:dgBroadPhaseCollision.obj
 0001:0001ebc0       ??1?$dgList@VdgSortArrayEntry@@@@QEAA@XZ 000000018001fbc0 f i physics:dgBroadPhaseCollision.obj
 0001:0001ebe0       ?SetAllocator@?$dgList@VdgSortArrayEntry@@@@QEAAXQEAVdgMemoryAllocator@@@Z 000000018001fbe0 f i physics:dgBroadPhaseCollision.obj
 0001:0001ec10       ?GetCount@?$dgList@VdgSortArrayEntry@@@@QEBAHXZ 000000018001fc10 f i physics:dgBroadPhaseCollision.obj
 0001:0001ec20       ?GetFirst@?$dgList@VdgSortArrayEntry@@@@QEBAPEAVdgListNode@1@XZ 000000018001fc20 f i physics:dgBroadPhaseCollision.obj
 0001:0001ec30       ?Append@?$dgList@VdgSortArrayEntry@@@@QEAAPEAVdgListNode@1@XZ 000000018001fc30 f i physics:dgBroadPhaseCollision.obj
 0001:0001ed20       ?RotateToBegin@?$dgList@VdgSortArrayEntry@@@@QEAAXQEAVdgListNode@1@@Z 000000018001fd20 f i physics:dgBroadPhaseCollision.obj
 0001:0001edb0       ?InsertAfter@?$dgList@VdgSortArrayEntry@@@@QEAAXQEAVdgListNode@1@0@Z 000000018001fdb0 f i physics:dgBroadPhaseCollision.obj
 0001:0001f030       ?Remove@?$dgList@VdgSortArrayEntry@@@@QEAAXQEAVdgListNode@1@@Z 0000000180020030 f i physics:dgBroadPhaseCollision.obj
 0001:0001f090       ??0?$dgTree@VdgBroadPhaseCell@@I@@QEAA@QEAVdgMemoryAllocator@@@Z 0000000180020090 f i physics:dgBroadPhaseCollision.obj
 0001:0001f0d0       ??1?$dgTree@VdgBroadPhaseCell@@I@@QEAA@XZ 00000001800200d0 f i physics:dgBroadPhaseCollision.obj
 0001:0001f0f0       ?SetAllocator@?$dgTree@VdgBroadPhaseCell@@I@@QEAAXQEAVdgMemoryAllocator@@@Z 00000001800200f0 f i physics:dgBroadPhaseCollision.obj
 0001:0001f120       ?GetCount@?$dgTree@VdgBroadPhaseCell@@I@@QEBAHXZ 0000000180020120 f i physics:dgBroadPhaseCollision.obj
 0001:0001f130       ?Minimum@?$dgTree@VdgBroadPhaseCell@@I@@QEBAPEAVdgTreeNode@1@XZ 0000000180020130 f i physics:dgBroadPhaseCollision.obj
 0001:0001f170       ?Find@?$dgTree@VdgBroadPhaseCell@@I@@QEBAPEAVdgTreeNode@1@I@Z 0000000180020170 f i physics:dgBroadPhaseCollision.obj
 0001:0001f2f0       ?GetNodeFromInfo@?$dgTree@VdgBroadPhaseCell@@I@@QEBAPEAVdgTreeNode@1@AEAVdgBroadPhaseCell@@@Z 00000001800202f0 f i physics:dgBroadPhaseCollision.obj
 0001:0001f3e0       ?IsInTree@dgRedBackNode@@QEBAIXZ 00000001800203e0 f i physics:dgBroadPhaseCollision.obj
 0001:0001f400       ?Insert@?$dgTree@VdgBroadPhaseCell@@I@@QEAAPEAVdgTreeNode@1@AEBVdgBroadPhaseCell@@I@Z 0000000180020400 f i physics:dgBroadPhaseCollision.obj
 0001:0001f450       ?Remove@?$dgTree@VdgBroadPhaseCell@@I@@QEAAXQEAVdgTreeNode@1@@Z 0000000180020450 f i physics:dgBroadPhaseCollision.obj
 0001:0001f4a0       ??_GdgListNode@?$dgList@VdgSortArrayEntry@@@@AEAAPEAXI@Z 00000001800204a0 f i physics:dgBroadPhaseCollision.obj
 0001:0001f4e0       ?GetLeft@dgTreeNode@?$dgTree@VdgBroadPhaseCell@@I@@AEBAPEAV12@XZ 00000001800204e0 f i physics:dgBroadPhaseCollision.obj
 0001:0001f4f0       ?GetRight@dgTreeNode@?$dgTree@VdgBroadPhaseCell@@I@@AEBAPEAV12@XZ 00000001800204f0 f i physics:dgBroadPhaseCollision.obj
 0001:0001f500       ??2dgListNode@?$dgList@VdgSortArrayEntry@@@@CAPEAX_KQEAVdgMemoryAllocator@@@Z 0000000180020500 f i physics:dgBroadPhaseCollision.obj
 0001:0001f530       ??3dgListNode@?$dgList@VdgSortArrayEntry@@@@CAXPEAX@Z 0000000180020530 f i physics:dgBroadPhaseCollision.obj
 0001:0001f550       ??0dgListNode@?$dgList@VdgSortArrayEntry@@@@AEAA@QEAV01@0@Z 0000000180020550 f i physics:dgBroadPhaseCollision.obj
 0001:0001f620       ??1dgListNode@?$dgList@VdgSortArrayEntry@@@@AEAA@XZ 0000000180020620 f i physics:dgBroadPhaseCollision.obj
 0001:0001f630       ?Unlink@dgListNode@?$dgList@VdgSortArrayEntry@@@@AEAAXXZ 0000000180020630 f i physics:dgBroadPhaseCollision.obj
 0001:0001f6a0       ?AddFirst@dgListNode@?$dgList@VdgSortArrayEntry@@@@AEAAXQEAV12@@Z 00000001800206a0 f i physics:dgBroadPhaseCollision.obj
 0001:0001f6d0       ?RemoveAll@?$dgList@VdgSortArrayEntry@@@@QEAAXXZ 00000001800206d0 f i physics:dgBroadPhaseCollision.obj
 0001:0001f7d0       ?Unlink@?$dgList@VdgSortArrayEntry@@@@QEAAXQEAVdgListNode@1@@Z 00000001800207d0 f i physics:dgBroadPhaseCollision.obj
 0001:0001f8c0       ?SanityCheck@?$dgList@VdgSortArrayEntry@@@@QEBA_NXZ 00000001800208c0 f i physics:dgBroadPhaseCollision.obj
 0001:0001fac0       ?Insert@?$dgTree@VdgBroadPhaseCell@@I@@QEAAPEAVdgTreeNode@1@AEBVdgBroadPhaseCell@@IAEA_N@Z 0000000180020ac0 f i physics:dgBroadPhaseCollision.obj
 0001:0001fd90       ?RemoveAll@?$dgTree@VdgBroadPhaseCell@@I@@QEAAXXZ 0000000180020d90 f i physics:dgBroadPhaseCollision.obj
 0001:0001fdd0       ?CompareKeys@?$dgTree@VdgBroadPhaseCell@@I@@AEBAHAEBI0@Z 0000000180020dd0 f i physics:dgBroadPhaseCollision.obj
 0001:0001fe20       ??0dgTreeNode@?$dgTree@VdgBroadPhaseCell@@I@@AEAA@AEBVdgBroadPhaseCell@@AEBIPEAV01@@Z 0000000180020e20 f i physics:dgBroadPhaseCollision.obj
 0001:0001fef0       ?GetIslandBody@dgWorld@@QEBAPEAVdgBody@@QEBXH@Z 0000000180020ef0 f   physics:dgWorldDynamicUpdate.obj
 0001:0001ff90       ??0dgWorldDynamicUpdate@@AEAA@XZ 0000000180020f90 f   physics:dgWorldDynamicUpdate.obj
 0001:00020180       ?UpdateDynamics@dgWorldDynamicUpdate@@AEAAXQEAVdgWorld@@HN@Z 0000000180021180 f   physics:dgWorldDynamicUpdate.obj
 0001:00020b80       ?ThreadExecute@dgSolverWorlkerThreads@@UEAAXXZ 0000000180021b80 f   physics:dgWorldDynamicUpdate.obj
 0001:00021e20       ?ReallocBodyMemory@dgWorldDynamicUpdate@@AEAAXH@Z 0000000180022e20 f   physics:dgWorldDynamicUpdate.obj
 0001:00021fd0       ?ReallocIslandMemory@dgWorldDynamicUpdate@@AEAAXH@Z 0000000180022fd0 f   physics:dgWorldDynamicUpdate.obj
 0001:00022180       ?ReallocJointsMemory@dgWorldDynamicUpdate@@AEAAXH@Z 0000000180023180 f   physics:dgWorldDynamicUpdate.obj
 0001:00022330       ?ReallocJacobiansMemory@dgWorldDynamicUpdate@@AEAAXHH@Z 0000000180023330 f   physics:dgWorldDynamicUpdate.obj
 0001:00022f10       ?ReallocIntenalForcesMemory@dgWorldDynamicUpdate@@AEAAXHH@Z 0000000180023f10 f   physics:dgWorldDynamicUpdate.obj
 0001:000232a0       ?BuildIsland@dgWorldDynamicUpdate@@AEAAXAEAV?$dgQueue@PEAVdgBody@@@@HHH@Z 00000001800242a0 f   physics:dgWorldDynamicUpdate.obj
 0001:00023a70       ?SpanningTree@dgWorldDynamicUpdate@@AEAAXQEAVdgBody@@@Z 0000000180024a70 f   physics:dgWorldDynamicUpdate.obj
 0001:00024970       ?IntegrateArray@dgWorldDynamicUpdate@@AEBAXPEBVdgBodyInfo@@HNNH_N@Z 0000000180025970 f   physics:dgWorldDynamicUpdate.obj
 0001:00025390       ?GetJacobialDerivatives@dgWorldDynamicUpdate@@AEAAHAEBVdgIsland@@H_NHN@Z 0000000180026390 f   physics:dgWorldDynamicUpdate.obj
 0001:00025e10       ?BuildJacobianMatrixSimd@dgWorldDynamicUpdate@@AEAAXAEBVdgIsland@@HN@Z 0000000180026e10 f   physics:dgWorldDynamicUpdate.obj
 0001:00025e30       ?BuildJacobianMatrix@dgWorldDynamicUpdate@@AEAAXAEBVdgIsland@@HN@Z 0000000180026e30 f   physics:dgWorldDynamicUpdate.obj
 0001:00026d20       ?CalculateReactionsForcesSimd@dgJacobianMemory@@QEBAXHN@Z 0000000180027d20 f   physics:dgWorldDynamicUpdate.obj
 0001:00026d40       ?CalculateReactionsForces@dgJacobianMemory@@QEBAXHN@Z 0000000180027d40 f   physics:dgWorldDynamicUpdate.obj
 0001:00026de0       ?ApplyExternalForcesAndAccelerationSimd@dgJacobianMemory@@QEBAXN@Z 0000000180027de0 f   physics:dgWorldDynamicUpdate.obj
 0001:00026e00       ?ApplyExternalForcesAndAcceleration@dgJacobianMemory@@QEBAXN@Z 0000000180027e00 f   physics:dgWorldDynamicUpdate.obj
 0001:00027650       ?SwapRowsSimd@dgJacobianMemory@@QEBAXHH@Z 0000000180028650 f   physics:dgWorldDynamicUpdate.obj
 0001:00027670       ?SwapRows@dgJacobianMemory@@QEBAXHH@Z 0000000180028670 f   physics:dgWorldDynamicUpdate.obj
 0001:00027910       ?CalculateSimpleBodyReactionsForcesSimd@dgJacobianMemory@@QEBAXN@Z 0000000180028910 f   physics:dgWorldDynamicUpdate.obj
 0001:00027930       ?CalculateSimpleBodyReactionsForces@dgJacobianMemory@@QEBAXN@Z 0000000180028930 f   physics:dgWorldDynamicUpdate.obj
 0001:00029140       ?CalculateForcesSimulationModeSimd@dgJacobianMemory@@QEBAXN@Z 000000018002a140 f   physics:dgWorldDynamicUpdate.obj
 0001:00029160       ?CalculateForcesSimulationMode@dgJacobianMemory@@QEBAXN@Z 000000018002a160 f   physics:dgWorldDynamicUpdate.obj
 0001:0002c4e0       ?CalculateJointForcesSimd@dgJacobianMemory@@QEBANHPEANN@Z 000000018002d4e0 f   physics:dgWorldDynamicUpdate.obj
 0001:0002c500       ?CalculateJointForces@dgJacobianMemory@@QEBANHPEANN@Z 000000018002d500 f   physics:dgWorldDynamicUpdate.obj
 0001:0002dc10       ?CalculateForcesGameModeSimd@dgJacobianMemory@@QEBAXHN@Z 000000018002ec10 f   physics:dgWorldDynamicUpdate.obj
 0001:0002dc30       ?CalculateForcesGameMode@dgJacobianMemory@@QEBAXHN@Z 000000018002ec30 f   physics:dgWorldDynamicUpdate.obj
 0001:0002f5c0       ?ThreadExecute@dgParallelSolverBodyInertia@@UEAAXXZ 00000001800305c0 f   physics:dgWorldDynamicUpdate.obj
 0001:0002f710       ?ThreadExecute@dgParallelSolverBuildJacobianRows@@UEAAXXZ 0000000180030710 f   physics:dgWorldDynamicUpdate.obj
 0001:00030110       ?ThreadExecute@dgParallelSolverBuildJacobianMatrix@@UEAAXXZ 0000000180031110 f   physics:dgWorldDynamicUpdate.obj
 0001:00030b60       ?GetJacobialDerivativesParallel@dgWorldDynamicUpdate@@AEAAHAEBVdgIsland@@_NHN@Z 0000000180031b60 f   physics:dgWorldDynamicUpdate.obj
 0001:00030db0       ?BuildJacobianMatrixParallel@dgWorldDynamicUpdate@@AEAAXAEBVdgIsland@@NH@Z 0000000180031db0 f   physics:dgWorldDynamicUpdate.obj
 0001:000316e0       ?ThreadExecute@dgParallelSolverClear@@UEAAXXZ 00000001800326e0 f   physics:dgWorldDynamicUpdate.obj
 0001:00031880       ?ThreadExecute@dgParallelSolverInitInternalForces@@UEAAXXZ 0000000180032880 f   physics:dgWorldDynamicUpdate.obj
 0001:00031ce0       ?ThreadExecute@dgParallelSolverJointAcceleration@@UEAAXXZ 0000000180032ce0 f   physics:dgWorldDynamicUpdate.obj
 0001:00032160       ?ThreadExecute@dgParallelSolverUpdateVeloc@@UEAAXXZ 0000000180033160 f   physics:dgWorldDynamicUpdate.obj
 0001:00032370       ?ThreadExecute@dgParallelSolverUpdateForce@@UEAAXXZ 0000000180033370 f   physics:dgWorldDynamicUpdate.obj
 0001:00032760       ?ThreadExecute@dgParallelSolverInitFeedbackUpdate@@UEAAXXZ 0000000180033760 f   physics:dgWorldDynamicUpdate.obj
 0001:000328d0       ?ThreadExecute@dgParallelSolverCalculateForces@@UEAAXXZ 00000001800338d0 f   physics:dgWorldDynamicUpdate.obj
 0001:00033120       ?CalculateForcesGameModeParallel@dgJacobianMemory@@QEBAXHNH@Z 0000000180034120 f   physics:dgWorldDynamicUpdate.obj
 0001:00034730       ?CalculateReactionsForcesParallel@dgJacobianMemory@@QEBAXHNH@Z 0000000180035730 f   physics:dgWorldDynamicUpdate.obj
 0001:000347a0       ??0dgSolverWorlkerThreads@@QEAA@XZ 00000001800357a0 f i physics:dgWorldDynamicUpdate.obj
 0001:000347d0       ??0dgParallelSolverClear@@QEAA@XZ 00000001800357d0 f i physics:dgWorldDynamicUpdate.obj
 0001:00034800       ??0dgParallelSolverBodyInertia@@QEAA@XZ 0000000180035800 f i physics:dgWorldDynamicUpdate.obj
 0001:00034830       ??0dgParallelSolverUpdateVeloc@@QEAA@XZ 0000000180035830 f i physics:dgWorldDynamicUpdate.obj
 0001:00034860       ??0dgParallelSolverUpdateForce@@QEAA@XZ 0000000180035860 f i physics:dgWorldDynamicUpdate.obj
 0001:00034890       ??0dgParallelSolverCalculateForces@@QEAA@XZ 0000000180035890 f i physics:dgWorldDynamicUpdate.obj
 0001:000348c0       ??0dgParallelSolverInitInternalForces@@QEAA@XZ 00000001800358c0 f i physics:dgWorldDynamicUpdate.obj
 0001:000348f0       ??0dgParallelSolverBuildJacobianRows@@QEAA@XZ 00000001800358f0 f i physics:dgWorldDynamicUpdate.obj
 0001:00034920       ??0dgParallelSolverJointAcceleration@@QEAA@XZ 0000000180035920 f i physics:dgWorldDynamicUpdate.obj
 0001:00034950       ??0dgParallelSolverInitFeedbackUpdate@@QEAA@XZ 0000000180035950 f i physics:dgWorldDynamicUpdate.obj
 0001:00034980       ??0dgParallelSolverBuildJacobianMatrix@@QEAA@XZ 0000000180035980 f i physics:dgWorldDynamicUpdate.obj
 0001:000349b0       ??_GdgSolverWorlkerThreads@@UEAAPEAXI@Z 00000001800359b0 f i physics:dgWorldDynamicUpdate.obj
 0001:000349b0       ??_EdgSolverWorlkerThreads@@UEAAPEAXI@Z 00000001800359b0 f i physics:dgWorldDynamicUpdate.obj
 0001:000349f0       ??_EdgParallelSolverClear@@UEAAPEAXI@Z 00000001800359f0 f i physics:dgWorldDynamicUpdate.obj
 0001:000349f0       ??_GdgParallelSolverClear@@UEAAPEAXI@Z 00000001800359f0 f i physics:dgWorldDynamicUpdate.obj
 0001:00034a30       ??_GdgParallelSolverBodyInertia@@UEAAPEAXI@Z 0000000180035a30 f i physics:dgWorldDynamicUpdate.obj
 0001:00034a30       ??_EdgParallelSolverBodyInertia@@UEAAPEAXI@Z 0000000180035a30 f i physics:dgWorldDynamicUpdate.obj
 0001:00034a70       ??_EdgParallelSolverUpdateVeloc@@UEAAPEAXI@Z 0000000180035a70 f i physics:dgWorldDynamicUpdate.obj
 0001:00034a70       ??_GdgParallelSolverUpdateVeloc@@UEAAPEAXI@Z 0000000180035a70 f i physics:dgWorldDynamicUpdate.obj
 0001:00034ab0       ??_EdgParallelSolverUpdateForce@@UEAAPEAXI@Z 0000000180035ab0 f i physics:dgWorldDynamicUpdate.obj
 0001:00034ab0       ??_GdgParallelSolverUpdateForce@@UEAAPEAXI@Z 0000000180035ab0 f i physics:dgWorldDynamicUpdate.obj
 0001:00034af0       ??_GdgParallelSolverCalculateForces@@UEAAPEAXI@Z 0000000180035af0 f i physics:dgWorldDynamicUpdate.obj
 0001:00034af0       ??_EdgParallelSolverCalculateForces@@UEAAPEAXI@Z 0000000180035af0 f i physics:dgWorldDynamicUpdate.obj
 0001:00034b30       ??_EdgParallelSolverInitInternalForces@@UEAAPEAXI@Z 0000000180035b30 f i physics:dgWorldDynamicUpdate.obj
 0001:00034b30       ??_GdgParallelSolverInitInternalForces@@UEAAPEAXI@Z 0000000180035b30 f i physics:dgWorldDynamicUpdate.obj
 0001:00034b70       ??_EdgParallelSolverBuildJacobianRows@@UEAAPEAXI@Z 0000000180035b70 f i physics:dgWorldDynamicUpdate.obj
 0001:00034b70       ??_GdgParallelSolverBuildJacobianRows@@UEAAPEAXI@Z 0000000180035b70 f i physics:dgWorldDynamicUpdate.obj
 0001:00034bb0       ??_GdgParallelSolverJointAcceleration@@UEAAPEAXI@Z 0000000180035bb0 f i physics:dgWorldDynamicUpdate.obj
 0001:00034bb0       ??_EdgParallelSolverJointAcceleration@@UEAAPEAXI@Z 0000000180035bb0 f i physics:dgWorldDynamicUpdate.obj
 0001:00034bf0       ??_GdgParallelSolverInitFeedbackUpdate@@UEAAPEAXI@Z 0000000180035bf0 f i physics:dgWorldDynamicUpdate.obj
 0001:00034bf0       ??_EdgParallelSolverInitFeedbackUpdate@@UEAAPEAXI@Z 0000000180035bf0 f i physics:dgWorldDynamicUpdate.obj
 0001:00034c30       ??_EdgParallelSolverBuildJacobianMatrix@@UEAAPEAXI@Z 0000000180035c30 f i physics:dgWorldDynamicUpdate.obj
 0001:00034c30       ??_GdgParallelSolverBuildJacobianMatrix@@UEAAPEAXI@Z 0000000180035c30 f i physics:dgWorldDynamicUpdate.obj
 0001:00034c70       ??0dgContraintDescritor@@QEAA@XZ 0000000180035c70 f i physics:dgWorldDynamicUpdate.obj
 0001:00034ca0       ??0dgJacobianPair@@QEAA@XZ 0000000180035ca0 f i physics:dgWorldDynamicUpdate.obj
 0001:00034cd0       ??0dgJacobian@@QEAA@XZ     0000000180035cd0 f i physics:dgWorldDynamicUpdate.obj
 0001:00034d00       ?AddDamingAcceleration@dgBody@@AEAAXXZ 0000000180035d00 f i physics:dgWorldDynamicUpdate.obj
 0001:00034df0       ?dgGetIndirectLock@dgWorld@@QEAAXPEAH@Z 0000000180035df0 f i physics:dgWorldDynamicUpdate.obj
 0001:00034e20       ?dgReleaseIndirectLock@dgWorld@@QEAAXPEAH@Z 0000000180035e20 f i physics:dgWorldDynamicUpdate.obj
 0001:00034e50       ?GetPrev@dgListNode@?$dgList@VdgBodyMasterListRow@@@@QEBAPEAV12@XZ 0000000180035e50 f i physics:dgWorldDynamicUpdate.obj
 0001:00034e60       ??0?$dgQueue@PEAVdgBody@@@@QEAA@PEAPEAVdgBody@@H@Z 0000000180035e60 f i physics:dgWorldDynamicUpdate.obj
 0001:00034eb0       ?Insert@?$dgQueue@PEAVdgBody@@@@QEAAXPEAVdgBody@@@Z 0000000180035eb0 f i physics:dgWorldDynamicUpdate.obj
 0001:00034f50       ?Reset@?$dgQueue@PEAVdgBody@@@@QEAAXXZ 0000000180035f50 f i physics:dgWorldDynamicUpdate.obj
 0001:00034f70       ?IsEmpty@?$dgQueue@PEAVdgBody@@@@QEBA_NXZ 0000000180035f70 f i physics:dgWorldDynamicUpdate.obj
 0001:00034fb0       ?GetLast@?$dgList@VdgBodyMasterListRow@@@@QEBAPEAVdgListNode@1@XZ 0000000180035fb0 f i physics:dgWorldDynamicUpdate.obj
 0001:00034fc0       ??Y?$dgTemplateVector@N@@QEAAAEAV0@AEBV0@@Z 0000000180035fc0 f i physics:dgWorldDynamicUpdate.obj
 0001:000350d0       ?CompProduct@?$dgTemplateVector@N@@QEBA?AV1@AEBV1@@Z 00000001800360d0 f i physics:dgWorldDynamicUpdate.obj
 0001:00035150       ??$dgSort@VdgIsland@@@@YAXQEAVdgIsland@@HP6AHQEBV0@1QEAX@Z2@Z 0000000180036150 f i physics:dgWorldDynamicUpdate.obj
 0001:000356c0       ??$GetMin@H@@YAHHH@Z       00000001800366c0 f i physics:dgWorldDynamicUpdate.obj
 0001:000356e0       ??$Swap@VdgJacobianPair@@@@YAXAEAVdgJacobianPair@@0@Z 00000001800366e0 f i physics:dgWorldDynamicUpdate.obj
 0001:00035770       ??$Swap@N@@YAXAEAN0@Z      0000000180036770 f i physics:dgWorldDynamicUpdate.obj
 0001:000357c0       ??$Swap@H@@YAXAEAH0@Z      00000001800367c0 f i physics:dgWorldDynamicUpdate.obj
 0001:00035800       ??$Swap@PEAN@@YAXAEAPEAN0@Z 0000000180036800 f i physics:dgWorldDynamicUpdate.obj
 0001:00035840       ?CreateNull@dgWorld@@QEAAPEAVdgCollision@@XZ 0000000180036840 f   physics:dgNarrowPhaseCollision.obj
 0001:00035920       ?CreateBox@dgWorld@@QEAAPEAVdgCollision@@NNNHAEBVdgMatrix@@@Z 0000000180036920 f   physics:dgNarrowPhaseCollision.obj
 0001:00035b70       ?CreateSphere@dgWorld@@QEAAPEAVdgCollision@@NHAEBVdgMatrix@@@Z 0000000180036b70 f   physics:dgNarrowPhaseCollision.obj
 0001:00035d30       ?CreateEllipse@dgWorld@@QEAAPEAVdgCollision@@NNNHAEBVdgMatrix@@@Z 0000000180036d30 f   physics:dgNarrowPhaseCollision.obj
 0001:00035f60       ?CreateCapsule@dgWorld@@QEAAPEAVdgCollision@@NNHAEBVdgMatrix@@@Z 0000000180036f60 f   physics:dgNarrowPhaseCollision.obj
 0001:00036160       ?CreateCone@dgWorld@@QEAAPEAVdgCollision@@NNHAEBVdgMatrix@@@Z 0000000180037160 f   physics:dgNarrowPhaseCollision.obj
 0001:00036360       ?CreateCylinder@dgWorld@@QEAAPEAVdgCollision@@NNHAEBVdgMatrix@@@Z 0000000180037360 f   physics:dgNarrowPhaseCollision.obj
 0001:00036560       ?CreateChamferCylinder@dgWorld@@QEAAPEAVdgCollision@@NNHAEBVdgMatrix@@@Z 0000000180037560 f   physics:dgNarrowPhaseCollision.obj
 0001:00036760       ?CreateConvexHull@dgWorld@@QEAAPEAVdgCollision@@HPEBNHNHAEBVdgMatrix@@@Z 0000000180037760 f   physics:dgNarrowPhaseCollision.obj
 0001:00036af0       ?CreateConvexModifier@dgWorld@@QEAAPEAVdgCollision@@PEAV2@@Z 0000000180037af0 f   physics:dgNarrowPhaseCollision.obj
 0001:00036b90       ?CreateCollisionCompound@dgWorld@@QEAAPEAVdgCollision@@HQEBQEAV2@@Z 0000000180037b90 f   physics:dgNarrowPhaseCollision.obj
 0001:00036c00       ?CreateCollisionCompoundBreakable@dgWorld@@QEAAPEAVdgCollision@@HQEBQEBVdgMeshEffect@@QEBHQEBN1HN@Z 0000000180037c00 f   physics:dgNarrowPhaseCollision.obj
 0001:00036cc0       ?CreateBVH@dgWorld@@QEAAPEAVdgCollision@@XZ 0000000180037cc0 f   physics:dgNarrowPhaseCollision.obj
 0001:00036d30       ?CreateStaticUserMesh@dgWorld@@QEAAPEAVdgCollision@@AEBVdgVector@@0AEBVdgUserMeshCreation@@@Z 0000000180037d30 f   physics:dgNarrowPhaseCollision.obj
 0001:00036dc0       ?CreateBVHFieldCollision@dgWorld@@QEAAPEAVdgCollision@@HHHQEBGQEBDNN@Z 0000000180037dc0 f   physics:dgNarrowPhaseCollision.obj
 0001:00036e80       ?CreateScene@dgWorld@@QEAAPEAVdgCollision@@XZ 0000000180037e80 f   physics:dgNarrowPhaseCollision.obj
 0001:00036ee0       ?Serialize@dgWorld@@QEBAXPEAVdgCollision@@P6AXPEAXPEBX_K@ZQEAX@Z 0000000180037ee0 f   physics:dgNarrowPhaseCollision.obj
 0001:00036f80       ?CreateFromSerialization@dgWorld@@QEAAPEAVdgCollision@@P6AXPEAX0_K@ZQEAX@Z 0000000180037f80 f   physics:dgNarrowPhaseCollision.obj
 0001:00037a30       ?GetMaterial@dgWorld@@QEBAPEAVdgContactMaterial@@II@Z 0000000180038a30 f   physics:dgNarrowPhaseCollision.obj
 0001:00037ac0       ?GetFirstMaterial@dgWorld@@QEBAPEAVdgContactMaterial@@XZ 0000000180038ac0 f   physics:dgNarrowPhaseCollision.obj
 0001:00037b30       ?GetNextMaterial@dgWorld@@QEBAPEAVdgContactMaterial@@PEAV2@@Z 0000000180038b30 f   physics:dgNarrowPhaseCollision.obj
 0001:00037bc0       ?GetDefualtBodyGroupID@dgWorld@@QEBAIXZ 0000000180038bc0 f   physics:dgNarrowPhaseCollision.obj
 0001:00037be0       ?CreateBodyGroupID@dgWorld@@QEAAIXZ 0000000180038be0 f   physics:dgNarrowPhaseCollision.obj
 0001:00037cd0       ?RemoveFromCache@dgWorld@@QEAAXQEAVdgCollision@@@Z 0000000180038cd0 f   physics:dgNarrowPhaseCollision.obj
 0001:00037d90       ?ReleaseCollision@dgWorld@@QEAAXQEAVdgCollision@@@Z 0000000180038d90 f   physics:dgNarrowPhaseCollision.obj
 0001:00037ec0       ?ClosestPoint@dgWorld@@QEBAHAEAVdgTriplex@@QEAVdgCollision@@AEBVdgMatrix@@00H@Z 0000000180038ec0 f   physics:dgNarrowPhaseCollision.obj
 0001:00037ff0       ?ClosestPoint@dgWorld@@QEBAHQEAVdgCollision@@AEBVdgMatrix@@01AEAVdgTriplex@@22H@Z 0000000180038ff0 f   physics:dgNarrowPhaseCollision.obj
 0001:00038550       ?ClosestCompoundPoint@dgWorld@@AEBAHQEAVdgBody@@0AEAVdgTriplex@@11H@Z 0000000180039550 f   physics:dgNarrowPhaseCollision.obj
 0001:00038600       ?SortContacts@dgWorld@@AEBAXQEAVdgContactPoint@@H@Z 0000000180039600 f   physics:dgNarrowPhaseCollision.obj
 0001:000386c0       ?ReduceContacts@dgWorld@@AEBAHHQEAVdgContactPoint@@HNH@Z 00000001800396c0 f   physics:dgNarrowPhaseCollision.obj
 0001:00038ac0       ?PruneContacts@dgWorld@@AEBAHHQEAVdgContactPoint@@H@Z 0000000180039ac0 f   physics:dgNarrowPhaseCollision.obj
 0001:00038e10       ?ProcessCachedContacts@dgWorld@@AEBAXQEAVdgContact@@QEBVdgContactMaterial@@NH@Z 0000000180039e10 f   physics:dgNarrowPhaseCollision.obj
 0001:000393d0       ?ProcessTriggers@dgWorld@@AEAAXQEAUdgPair@dgCollidingPairCollector@@NH@Z 000000018003a3d0 f   physics:dgNarrowPhaseCollision.obj
 0001:00039780       ?ProcessContacts@dgWorld@@AEAAXQEAUdgPair@dgCollidingPairCollector@@NH@Z 000000018003a780 f   physics:dgNarrowPhaseCollision.obj
 0001:0003b520       ?ValidateContactCache@dgWorld@@AEBAHQEAVdgBody@@0QEAVdgContact@@@Z 000000018003c520 f   physics:dgNarrowPhaseCollision.obj
 0001:0003ba10       ?CompoundContactsSimd@dgWorld@@AEBAXQEAUdgPair@dgCollidingPairCollector@@AEAVdgCollisionParamProxi@@@Z 000000018003ca10 f   physics:dgNarrowPhaseCollision.obj
 0001:0003bb60       ?CompoundContacts@dgWorld@@AEBAXQEAUdgPair@dgCollidingPairCollector@@AEAVdgCollisionParamProxi@@@Z 000000018003cb60 f   physics:dgNarrowPhaseCollision.obj
 0001:0003bcb0       ?ConvexContactsSimd@dgWorld@@AEBAXQEAUdgPair@dgCollidingPairCollector@@AEAVdgCollisionParamProxi@@@Z 000000018003ccb0 f   physics:dgNarrowPhaseCollision.obj
 0001:0003c1c0       ?ConvexContacts@dgWorld@@AEBAXQEAUdgPair@dgCollidingPairCollector@@AEAVdgCollisionParamProxi@@@Z 000000018003d1c0 f   physics:dgNarrowPhaseCollision.obj
 0001:0003c6d0       ?SceneContactsSimd@dgWorld@@AEBAXAEBUdgProxy@dgCollisionScene@@QEAUdgPair@dgCollidingPairCollector@@AEAVdgCollisionParamProxi@@@Z 000000018003d6d0 f   physics:dgNarrowPhaseCollision.obj
 0001:0003ca30       ?SceneContacts@dgWorld@@AEBAXAEBUdgProxy@dgCollisionScene@@QEAUdgPair@dgCollidingPairCollector@@AEAVdgCollisionParamProxi@@@Z 000000018003da30 f   physics:dgNarrowPhaseCollision.obj
 0001:0003cd90       ?SceneContacts@dgWorld@@AEBAXQEAUdgPair@dgCollidingPairCollector@@AEAVdgCollisionParamProxi@@@Z 000000018003dd90 f   physics:dgNarrowPhaseCollision.obj
 0001:0003d040       ?SceneContactsSimd@dgWorld@@AEBAXQEAUdgPair@dgCollidingPairCollector@@AEAVdgCollisionParamProxi@@@Z 000000018003e040 f   physics:dgNarrowPhaseCollision.obj
 0001:0003d2f0       ?CalculateContactsSimd@dgWorld@@AEAAXQEAUdgPair@dgCollidingPairCollector@@NH@Z 000000018003e2f0 f   physics:dgNarrowPhaseCollision.obj
 0001:0003d640       ?CalculateContacts@dgWorld@@AEAAXQEAUdgPair@dgCollidingPairCollector@@NH@Z 000000018003e640 f   physics:dgNarrowPhaseCollision.obj
 0001:0003d990       ?CollideContinueSimd@dgWorld@@QEAAHPEAVdgCollision@@AEBVdgMatrix@@AEBVdgVector@@20122AEANPEAVdgTriplex@@4PEANHH@Z 000000018003e990 f   physics:dgNarrowPhaseCollision.obj
 0001:0003e4c0       ?CollideContinue@dgWorld@@QEAAHPEAVdgCollision@@AEBVdgMatrix@@AEBVdgVector@@20122AEANPEAVdgTriplex@@4PEANHH@Z 000000018003f4c0 f   physics:dgNarrowPhaseCollision.obj
 0001:0003efe0       ?Collide@dgWorld@@QEAAHPEAVdgCollision@@AEBVdgMatrix@@01PEAVdgTriplex@@2PEANHH@Z 000000018003ffe0 f   physics:dgNarrowPhaseCollision.obj
 0001:0003f640       ?GetVertexCount@dgConvexCollision@@QEBAHXZ 0000000180040640 f i physics:dgNarrowPhaseCollision.obj
 0001:0003f660       ?GetSignature@dgCollision@@QEBAIXZ 0000000180040660 f i physics:dgNarrowPhaseCollision.obj
 0001:0003f680       ??0dgCollisionParamProxi@@QEAA@H@Z 0000000180040680 f i physics:dgNarrowPhaseCollision.obj
 0001:0003f6f0       ??0dgMatrix@@QEAA@XZ       00000001800406f0 f i physics:dgNarrowPhaseCollision.obj
 0001:0003f740       ??2dgContact@@CAPEAX_KQEAVdgMemoryAllocator@@@Z 0000000180040740 f i physics:dgNarrowPhaseCollision.obj
 0001:0003f770       ?AddToBreakQueue@dgWorld@@QEAAXQEBVdgContact@@QEAVdgBody@@N@Z 0000000180040770 f i physics:dgNarrowPhaseCollision.obj
 0001:0003f8d0       ?DotProduct@dgQuaternion@@QEBANAEBV1@@Z 00000001800408d0 f i physics:dgNarrowPhaseCollision.obj
 0001:0003f940       ??GdgQuaternion@@QEBA?AV0@AEBV0@@Z 0000000180040940 f i physics:dgNarrowPhaseCollision.obj
 0001:0003f9c0       ??0dgQuaternion@@QEAA@NNNN@Z 00000001800409c0 f i physics:dgNarrowPhaseCollision.obj
 0001:0003fa20       ?GetInfo@dgTreeNode@?$dgTree@PEAVdgCollision@@I@@QEAAAEAPEAVdgCollision@@XZ 0000000180040a20 f i physics:dgNarrowPhaseCollision.obj
 0001:0003fa30       ?GetInfo@dgTreeNode@?$dgTree@VdgContactMaterial@@I@@QEAAAEAVdgContactMaterial@@XZ 0000000180040a30 f i physics:dgNarrowPhaseCollision.obj
 0001:0003fa40       ?Append@?$dgList@VdgContactMaterial@@@@QEAAPEAVdgListNode@1@XZ 0000000180040a40 f i physics:dgNarrowPhaseCollision.obj
 0001:0003fb30       ?Find@?$dgTree@PEAVdgCollision@@I@@QEBAPEAVdgTreeNode@1@I@Z 0000000180040b30 f i physics:dgNarrowPhaseCollision.obj
 0001:0003fca0       ?Insert@?$dgTree@PEAVdgCollision@@I@@QEAAPEAVdgTreeNode@1@AEBQEAVdgCollision@@I@Z 0000000180040ca0 f i physics:dgNarrowPhaseCollision.obj
 0001:0003fcf0       ?Remove@?$dgTree@PEAVdgCollision@@I@@QEAAXQEAVdgTreeNode@1@@Z 0000000180040cf0 f i physics:dgNarrowPhaseCollision.obj
 0001:0003fd40       ?Minimum@?$dgTree@VdgContactMaterial@@I@@QEBAPEAVdgTreeNode@1@XZ 0000000180040d40 f i physics:dgNarrowPhaseCollision.obj
 0001:0003fd80       ?Find@?$dgTree@VdgContactMaterial@@I@@QEBAPEAVdgTreeNode@1@I@Z 0000000180040d80 f i physics:dgNarrowPhaseCollision.obj
 0001:0003ff00       ?GetNodeFromInfo@?$dgTree@VdgContactMaterial@@I@@QEBAPEAVdgTreeNode@1@AEAVdgContactMaterial@@@Z 0000000180040f00 f i physics:dgNarrowPhaseCollision.obj
 0001:0003fff0       ?Insert@?$dgTree@VdgContactMaterial@@I@@QEAAPEAVdgTreeNode@1@AEBVdgContactMaterial@@I@Z 0000000180040ff0 f i physics:dgNarrowPhaseCollision.obj
 0001:00040040       ??0?$dgStack@I@@QEAA@H@Z   0000000180041040 f i physics:dgNarrowPhaseCollision.obj
 0001:00040080       ??0dgStackBase@@IEAA@H@Z   0000000180041080 f i physics:dgNarrowPhaseCollision.obj
 0001:000400b0       ??1?$dgStack@I@@QEAA@XZ    00000001800410b0 f i physics:dgNarrowPhaseCollision.obj
 0001:000400d0       ??1dgStackBase@@IEAA@XZ    00000001800410d0 f i physics:dgNarrowPhaseCollision.obj
 0001:000400f0       ?GetSizeInBytes@?$dgStack@I@@QEBAHXZ 00000001800410f0 f i physics:dgNarrowPhaseCollision.obj
 0001:00040110       ??A?$dgStack@I@@QEAAAEAIH@Z 0000000180041110 f i physics:dgNarrowPhaseCollision.obj
 0001:000401c0       ??$Swap@I@@YAXAEAI0@Z      00000001800411c0 f i physics:dgNarrowPhaseCollision.obj
 0001:00040200       ??$dgSort@VdgContactPoint@@@@YAXQEAVdgContactPoint@@HP6AHQEBV0@1QEAX@Z2@Z 0000000180041200 f i physics:dgNarrowPhaseCollision.obj
 0001:00040770       ??$Swap@PEAVdgListNode@?$dgList@VdgBodyMasterListCell@@@@@@YAXAEAPEAVdgListNode@?$dgList@VdgBodyMasterListCell@@@@0@Z 0000000180041770 f i physics:dgNarrowPhaseCollision.obj
 0001:000407b0       ?GetLeft@dgTreeNode@?$dgTree@PEAVdgCollision@@I@@AEBAPEAV12@XZ 00000001800417b0 f i physics:dgNarrowPhaseCollision.obj
 0001:000407c0       ?GetRight@dgTreeNode@?$dgTree@PEAVdgCollision@@I@@AEBAPEAV12@XZ 00000001800417c0 f i physics:dgNarrowPhaseCollision.obj
 0001:000407d0       ?GetLeft@dgTreeNode@?$dgTree@VdgContactMaterial@@I@@AEBAPEAV12@XZ 00000001800417d0 f i physics:dgNarrowPhaseCollision.obj
 0001:000407e0       ?GetRight@dgTreeNode@?$dgTree@VdgContactMaterial@@I@@AEBAPEAV12@XZ 00000001800417e0 f i physics:dgNarrowPhaseCollision.obj
 0001:000407f0       ??2dgListNode@?$dgList@VdgContactMaterial@@@@CAPEAX_KQEAVdgMemoryAllocator@@@Z 00000001800417f0 f i physics:dgNarrowPhaseCollision.obj
 0001:00040820       ??0dgListNode@?$dgList@VdgContactMaterial@@@@AEAA@QEAV01@0@Z 0000000180041820 f i physics:dgNarrowPhaseCollision.obj
 0001:00040900       ?Insert@?$dgTree@PEAVdgCollision@@I@@QEAAPEAVdgTreeNode@1@AEBQEAVdgCollision@@IAEA_N@Z 0000000180041900 f i physics:dgNarrowPhaseCollision.obj
 0001:00040bc0       ?CompareKeys@?$dgTree@PEAVdgCollision@@I@@AEBAHAEBI0@Z 0000000180041bc0 f i physics:dgNarrowPhaseCollision.obj
 0001:00040c10       ?Insert@?$dgTree@VdgContactMaterial@@I@@QEAAPEAVdgTreeNode@1@AEBVdgContactMaterial@@IAEA_N@Z 0000000180041c10 f i physics:dgNarrowPhaseCollision.obj
 0001:00040ee0       ?CompareKeys@?$dgTree@VdgContactMaterial@@I@@AEBAHAEBI0@Z 0000000180041ee0 f i physics:dgNarrowPhaseCollision.obj
 0001:00040f30       ??0dgTreeNode@?$dgTree@PEAVdgCollision@@I@@AEAA@AEBQEAVdgCollision@@AEBIPEAV01@@Z 0000000180041f30 f i physics:dgNarrowPhaseCollision.obj
 0001:00040fd0       ??0dgTreeNode@?$dgTree@VdgContactMaterial@@I@@AEAA@AEBVdgContactMaterial@@AEBIPEAV01@@Z 0000000180041fd0 f i physics:dgNarrowPhaseCollision.obj
 0001:000410a0       ??0dgMeshEffect@@QEAA@QEAVdgMemoryAllocator@@_N@Z 00000001800420a0 f   physics:dgMeshEffect.obj
 0001:00041110       ??0dgMeshEffect@@QEAA@QEAVdgMemoryAllocator@@AEBVdgMatrix@@NNH11@Z 0000000180042110 f   physics:dgMeshEffect.obj
 0001:000411b0       ??0dgMeshEffect@@QEAA@AEAVdgPolyhedra@@AEBV0@@Z 00000001800421b0 f   physics:dgMeshEffect.obj
 0001:00041320       ??0dgMeshEffect@@QEAA@AEBV0@@Z 0000000180042320 f   physics:dgMeshEffect.obj
 0001:00041490       ??0dgMeshEffect@@QEAA@QEAVdgCollision@@@Z 0000000180042490 f   physics:dgMeshEffect.obj
 0001:000418c0       ??1dgMeshEffect@@UEAA@XZ   00000001800428c0 f   physics:dgMeshEffect.obj
 0001:00041950       ?Init@dgMeshEffect@@AEAAX_N@Z 0000000180042950 f   physics:dgMeshEffect.obj
 0001:00041a40       ?Triangulate@dgMeshEffect@@QEAAXXZ 0000000180042a40 f   physics:dgMeshEffect.obj
 0001:00041ec0       ?ConvertToPolygons@dgMeshEffect@@QEAAXXZ 0000000180042ec0 f   physics:dgMeshEffect.obj
 0001:00042340       ?RemoveUnusedVertices@dgMeshEffect@@QEAAXQEAH@Z 0000000180043340 f   physics:dgMeshEffect.obj
 0001:000429a0       ?CalculateOOBB@dgMeshEffect@@QEBA?AVdgMatrix@@AEAVdgVector@@@Z 00000001800439a0 f   physics:dgMeshEffect.obj
 0001:00042c00       ?CalculateAABB@dgMeshEffect@@QEBAXAEAVdgVector@@0@Z 0000000180043c00 f   physics:dgMeshEffect.obj
 0001:00042e20       ?EnumerateAttributeArray@dgMeshEffect@@AEAAXPEAUdgVertexAtribute@1@@Z 0000000180043e20 f   physics:dgMeshEffect.obj
 0001:00042f40       ?ApplyAttributeArray@dgMeshEffect@@AEAAXPEAUdgVertexAtribute@1@@Z 0000000180043f40 f   physics:dgMeshEffect.obj
 0001:000431b0       ?GetOrigin@dgMeshEffect@@AEBA?AVdgVector@@XZ 00000001800441b0 f   physics:dgMeshEffect.obj
 0001:00043210       ?FixCylindricalMapping@dgMeshEffect@@AEBAXPEAUdgVertexAtribute@1@@Z 0000000180044210 f   physics:dgMeshEffect.obj
 0001:000434c0       ?SphericalMapping@dgMeshEffect@@QEAAXH@Z 00000001800444c0 f   physics:dgMeshEffect.obj
 0001:000438d0       ?CylindricalMapping@dgMeshEffect@@QEAAXHH@Z 00000001800448d0 f   physics:dgMeshEffect.obj
 0001:00044150       ?BoxMapping@dgMeshEffect@@QEAAXHHH@Z 0000000180045150 f   physics:dgMeshEffect.obj
 0001:00044770       ?CalculateNormals@dgMeshEffect@@QEAAXN@Z 0000000180045770 f   physics:dgMeshEffect.obj
 0001:00044db0       ?BeginPolygon@dgMeshEffect@@QEAAXXZ 0000000180045db0 f   physics:dgMeshEffect.obj
 0001:00044e00       ?AddAtribute@dgMeshEffect@@AEAAXAEBUdgVertexAtribute@1@@Z 0000000180045e00 f   physics:dgMeshEffect.obj
 0001:00045010       ?AddVertex@dgMeshEffect@@AEAAXAEBVdgVector@@@Z 0000000180046010 f   physics:dgMeshEffect.obj
 0001:000451a0       ?AddPoint@dgMeshEffect@@AEAAXPEBNH@Z 00000001800461a0 f   physics:dgMeshEffect.obj
 0001:00045390       ?PackVertexArrays@dgMeshEffect@@QEAAXXZ 0000000180046390 f   physics:dgMeshEffect.obj
 0001:000454f0       ?AddPolygon@dgMeshEffect@@QEAAXHPEBNHH@Z 00000001800464f0 f   physics:dgMeshEffect.obj
 0001:00045730       ?EndPolygon@dgMeshEffect@@QEAAXXZ 0000000180046730 f   physics:dgMeshEffect.obj
 0001:00046110       ?BuildFromVertexListIndexList@dgMeshEffect@@QEAAXHQEBH0QEBNH01H01H01H0@Z 0000000180047110 f   physics:dgMeshEffect.obj
 0001:00046b40       ?GetTotalFaceCount@dgMeshEffect@@QEBAHXZ 0000000180047b40 f   physics:dgMeshEffect.obj
 0001:00046b60       ?GetTotalIndexCount@dgMeshEffect@@QEBAHXZ 0000000180047b60 f   physics:dgMeshEffect.obj
 0001:00046c70       ?GetFaces@dgMeshEffect@@QEBAXQEAH0QEAPEAX@Z 0000000180047c70 f   physics:dgMeshEffect.obj
 0001:00046e10       ?GetFirstVertex@dgMeshEffect@@QEAAPEAXXZ 0000000180047e10 f   physics:dgMeshEffect.obj
 0001:00046ef0       ?GetNextVertex@dgMeshEffect@@QEAAPEAXPEBX@Z 0000000180047ef0 f   physics:dgMeshEffect.obj
 0001:00047040       ?GetVertexIndex@dgMeshEffect@@QEBAHPEBX@Z 0000000180048040 f   physics:dgMeshEffect.obj
 0001:00047080       ?GetFirstPoint@dgMeshEffect@@QEAAPEAXXZ 0000000180048080 f   physics:dgMeshEffect.obj
 0001:00047190       ?GetNextPoint@dgMeshEffect@@QEAAPEAXPEBX@Z 0000000180048190 f   physics:dgMeshEffect.obj
 0001:000472f0       ?GetPointIndex@dgMeshEffect@@QEBAHPEBX@Z 00000001800482f0 f   physics:dgMeshEffect.obj
 0001:00047330       ?GetVertexIndexFromPoint@dgMeshEffect@@QEBAHPEBX@Z 0000000180048330 f   physics:dgMeshEffect.obj
 0001:00047360       ?ConectVertex@dgMeshEffect@@QEAAPEAVdgEdge@@QEAV2@0@Z 0000000180048360 f   physics:dgMeshEffect.obj
 0001:00047500       ?GetFirstEdge@dgMeshEffect@@QEAAPEAXXZ 0000000180048500 f   physics:dgMeshEffect.obj
 0001:000475d0       ?GetNextEdge@dgMeshEffect@@QEAAPEAXPEBX@Z 00000001800485d0 f   physics:dgMeshEffect.obj
 0001:00047700       ?GetEdgeIndex@dgMeshEffect@@QEBAXPEBXAEAH1@Z 0000000180048700 f   physics:dgMeshEffect.obj
 0001:00047760       ?GetFirstFace@dgMeshEffect@@QEAAPEAXXZ 0000000180048760 f   physics:dgMeshEffect.obj
 0001:00047840       ?GetNextFace@dgMeshEffect@@QEAAPEAXPEBX@Z 0000000180048840 f   physics:dgMeshEffect.obj
 0001:00047990       ?IsFaceOpen@dgMeshEffect@@QEBAHPEBX@Z 0000000180048990 f   physics:dgMeshEffect.obj
 0001:000479f0       ?GetFaceMaterial@dgMeshEffect@@QEBAHPEBX@Z 00000001800489f0 f   physics:dgMeshEffect.obj
 0001:00047a40       ?GetFaceIndexCount@dgMeshEffect@@QEBAHPEBX@Z 0000000180048a40 f   physics:dgMeshEffect.obj
 0001:00047ab0       ?GetFaceIndex@dgMeshEffect@@QEBAXPEBXPEAH@Z 0000000180048ab0 f   physics:dgMeshEffect.obj
 0001:00047b40       ?GetFaceAttributeIndex@dgMeshEffect@@QEBAXPEBXPEAH@Z 0000000180048b40 f   physics:dgMeshEffect.obj
 0001:00047bd0       ?GetVertexStreams@dgMeshEffect@@QEAAXHPEANH0H0H0@Z 0000000180048bd0 f   physics:dgMeshEffect.obj
 0001:00047e40       ?GetIndirectVertexStreams@dgMeshEffect@@QEAAXHPEANPEAH1H011H011H011@Z 0000000180048e40 f   physics:dgMeshEffect.obj
 0001:000482e0       ?MaterialGeomteryBegin@dgMeshEffect@@QEAAPEAUdgIndexArray@1@XZ 00000001800492e0 f   physics:dgMeshEffect.obj
 0001:00048730       ?MaterialGeomteryEnd@dgMeshEffect@@QEAAXPEAUdgIndexArray@1@@Z 0000000180049730 f   physics:dgMeshEffect.obj
 0001:00048770       ?GetFirstMaterial@dgMeshEffect@@QEAAHPEAUdgIndexArray@1@@Z 0000000180049770 f   physics:dgMeshEffect.obj
 0001:000487a0       ?GetNextMaterial@dgMeshEffect@@QEAAHPEAUdgIndexArray@1@H@Z 00000001800497a0 f   physics:dgMeshEffect.obj
 0001:000487e0       ?GetMaterialGetIndexStream@dgMeshEffect@@QEAAXPEAUdgIndexArray@1@HPEAH@Z 00000001800497e0 f   physics:dgMeshEffect.obj
 0001:00048900       ?GetMaterialGetIndexStreamShort@dgMeshEffect@@QEAAXPEAUdgIndexArray@1@HPEAF@Z 0000000180049900 f   physics:dgMeshEffect.obj
 0001:00048a30       ?CreateConvexCollision@dgMeshEffect@@QEBAPEAVdgCollision@@NHAEBVdgMatrix@@@Z 0000000180049a30 f   physics:dgMeshEffect.obj
 0001:00049020       ?TransformMesh@dgMeshEffect@@QEAAXAEBVdgMatrix@@@Z 000000018004a020 f   physics:dgMeshEffect.obj
 0001:00049070       ?InterpolateEdge@dgMeshEffect@@AEBA?AUdgVertexAtribute@1@QEAVdgEdge@@N@Z 000000018004a070 f   physics:dgMeshEffect.obj
 0001:00049370       ?Sanity@dgMeshEffect@@QEBA_NXZ 000000018004a370 f   physics:dgMeshEffect.obj
 0001:00049650       ?InsertEdgeVertex@dgMeshEffect@@QEAAPEAVdgEdge@@QEAV2@N@Z 000000018004a650 f   physics:dgMeshEffect.obj
 0001:00049840       ?InterpolateVertex@dgMeshEffect@@AEBA?AUdgVertexAtribute@1@AEBVdgVector@@QEAVdgEdge@@@Z 000000018004a840 f   physics:dgMeshEffect.obj
 0001:0004a490       ?MergeFaces@dgMeshEffect@@AEAAXPEAV1@@Z 000000018004b490 f   physics:dgMeshEffect.obj
 0001:0004a4e0       ?ReverseMergeFaces@dgMeshEffect@@AEAAXPEAV1@@Z 000000018004b4e0 f   physics:dgMeshEffect.obj
 0001:0004a530       ?ClipFace@dgMeshEffect@@AEBAXAEBVdgBigPlane@@PEAVdgMeshTreeCSGFace@@PEAPEAV3@2AEAVdgMeshTreeCSGPointsPool@@@Z 000000018004b530 f   physics:dgMeshEffect.obj
 0001:0004adf0       ?CopyCGSFace@dgMeshEffect@@AEAAXAEBV1@QEAVdgEdge@@@Z 000000018004bdf0 f   physics:dgMeshEffect.obj
 0001:0004ae50       ?Union@dgMeshEffect@@QEBAPEAV1@AEBVdgMatrix@@PEBV1@@Z 000000018004be50 f   physics:dgMeshEffect.obj
 0001:0004b180       ?Difference@dgMeshEffect@@QEBAPEAV1@AEBVdgMatrix@@PEBV1@@Z 000000018004c180 f   physics:dgMeshEffect.obj
 0001:0004b4b0       ?Intersection@dgMeshEffect@@QEBAPEAV1@AEBVdgMatrix@@PEBV1@@Z 000000018004c4b0 f   physics:dgMeshEffect.obj
 0001:0004b7e0       ?ClipMesh@dgMeshEffect@@QEBAXAEBVdgMatrix@@PEBV1@PEAPEAV1@2@Z 000000018004c7e0 f   physics:dgMeshEffect.obj
 0001:0004bc80       ?AddCGSFace@dgMeshEffect@@AEAAXAEBV1@QEAVdgEdge@@HQEAPEAVdgMeshTreeCSGFace@@AEBVdgMeshTreeCSGPointsPool@@@Z 000000018004cc80 f   physics:dgMeshEffect.obj
 0001:0004bce0       ?CreateSolidTree@dgMeshEffect@@QEBAPEAVdgMeshEffectSolidTree@@XZ 000000018004cce0 f   physics:dgMeshEffect.obj
 0001:0004bd30       ?DestroySolidTree@dgMeshEffect@@SAXPEAVdgMeshEffectSolidTree@@@Z 000000018004cd30 f   physics:dgMeshEffect.obj
 0001:0004bd80       ?ClipMesh@dgMeshEffect@@AEBAXPEBV1@PEAPEAV1@1@Z 000000018004cd80 f   physics:dgMeshEffect.obj
 0001:0004bde0       ?CheckIntersection@dgMeshEffect@@SA_NQEBV1@QEBVdgMeshEffectSolidTree@@01N@Z 000000018004cde0 f   physics:dgMeshEffect.obj
 0001:0004be60       ?CheckIntersection@dgMeshEffect@@QEBA_NQEBVdgMeshEffectSolidTree@@N@Z 000000018004ce60 f   physics:dgMeshEffect.obj
 0001:0004bec0       ?PlaneClipMesh@dgMeshEffect@@AEBAXPEBV1@PEAPEAV1@1@Z 000000018004cec0 f   physics:dgMeshEffect.obj
 0001:0004bf20       ?PlaneClipMesh@dgMeshEffect@@QEAAXAEBVdgPlane@@PEAPEAV1@1@Z 000000018004cf20 f   physics:dgMeshEffect.obj
 0001:0004bf80       ?CheckSingleMesh@dgMeshEffect@@AEBA_NXZ 000000018004cf80 f   physics:dgMeshEffect.obj
 0001:0004bfd0       ?PlaneApplyCap@dgMeshEffect@@AEAAHPEBV1@AEBVdgPlane@@@Z 000000018004cfd0 f   physics:dgMeshEffect.obj
 0001:0004c030       ?HasOpenEdges@dgMeshEffect@@QEBA_NXZ 000000018004d030 f   physics:dgMeshEffect.obj
 0001:0004c0e0       ?SeparateDuplicateLoops@dgMeshEffect@@QEAA_NQEAVdgEdge@@@Z 000000018004d0e0 f   physics:dgMeshEffect.obj
 0001:0004c1c0       ?WeldTJoints@dgMeshEffect@@QEAAXXZ 000000018004d1c0 f   physics:dgMeshEffect.obj
 0001:0004cbf0       ?CalculateVolume@dgMeshEffect@@QEBANXZ 000000018004dbf0 f   physics:dgMeshEffect.obj
 0001:0004ce60       ??_GdgMeshEffect@@UEAAPEAXI@Z 000000018004de60 f i physics:dgMeshEffect.obj
 0001:0004ce60       ??_EdgMeshEffect@@UEAAPEAXI@Z 000000018004de60 f i physics:dgMeshEffect.obj
 0001:0004cea0       ??0dgMeshEffectBuilder@@QEAA@XZ 000000018004dea0 f i physics:dgMeshEffect.obj
 0001:0004cf30       ??1dgMeshEffectBuilder@@QEAA@XZ 000000018004df30 f i physics:dgMeshEffect.obj
 0001:0004cf60       ?GetShapeFromCollision@dgMeshEffectBuilder@@SAXPEAXHPEBNH@Z 000000018004df60 f i physics:dgMeshEffect.obj
 0001:0004d1a0       ??0dgCollisionInfo@@QEAA@XZ 000000018004e1a0 f i physics:dgMeshEffect.obj
 0001:0004d1c0       ??4dgSphere@@QEAAAEAV0@AEBVdgMatrix@@@Z 000000018004e1c0 f i physics:dgMeshEffect.obj
 0001:0004d2a0       ?SetLRU@dgPolyhedra@@QEBAXH@Z 000000018004e2a0 f i physics:dgMeshEffect.obj
 0001:0004d2d0       ?AddFace@dgPolyhedra@@QEAAPEAVdgEdge@@HQEBH@Z 000000018004e2d0 f i physics:dgMeshEffect.obj
 0001:0004d300       ??0dgRefCounter@@QEAA@XZ   000000018004e300 f i physics:dgMeshEffect.obj
 0001:0004d330       ??_EdgRefCounter@@MEAAPEAXI@Z 000000018004e330 f i physics:dgMeshEffect.obj
 0001:0004d330       ??_GdgRefCounter@@MEAAPEAXI@Z 000000018004e330 f i physics:dgMeshEffect.obj
 0001:0004d370       ??1dgRefCounter@@MEAA@XZ   000000018004e370 f i physics:dgMeshEffect.obj
 0001:0004d3d0       ??0dgVertexAtribute@dgMeshEffect@@QEAA@XZ 000000018004e3d0 f i physics:dgMeshEffect.obj
 0001:0004d3f0       ?AddPoint@dgMeshTreeCSGPointsPool@@QEAAHAEBVdgBigVector@@@Z 000000018004e3f0 f i physics:dgMeshEffect.obj
 0001:0004d490       ??2dgMeshTreeCSGFace@@SAPEAX_KQEAVdgMemoryAllocator@@@Z 000000018004e490 f i physics:dgMeshEffect.obj
 0001:0004d4c0       ??0dgMeshTreeCSGFace@@QEAA@QEAVdgMemoryAllocator@@@Z 000000018004e4c0 f i physics:dgMeshEffect.obj
 0001:0004d520       ?AddPoint@dgMeshTreeCSGFace@@QEAAXH@Z 000000018004e520 f i physics:dgMeshEffect.obj
 0001:0004d610       ??2CSGLinearEdge@dgMeshTreeCSGFace@@SAPEAX_KQEAVdgMemoryAllocator@@@Z 000000018004e610 f i physics:dgMeshEffect.obj
 0001:0004d640       ??0CSGLinearEdge@dgMeshTreeCSGFace@@QEAA@H@Z 000000018004e640 f i physics:dgMeshEffect.obj
 0001:0004d670       ??0CSGLinearEdge@dgMeshTreeCSGFace@@QEAA@HPEAV01@@Z 000000018004e670 f i physics:dgMeshEffect.obj
 0001:0004d6a0       ??_GdgMeshTreeCSGFace@@UEAAPEAXI@Z 000000018004e6a0 f i physics:dgMeshEffect.obj
 0001:0004d6a0       ??_EdgMeshTreeCSGFace@@UEAAPEAXI@Z 000000018004e6a0 f i physics:dgMeshEffect.obj
 0001:0004d6e0       ??3dgMeshTreeCSGFace@@SAXPEAX@Z 000000018004e6e0 f i physics:dgMeshEffect.obj
 0001:0004d700       ??1dgMeshTreeCSGFace@@UEAA@XZ 000000018004e700 f i physics:dgMeshEffect.obj
 0001:0004d780       ??3CSGLinearEdge@dgMeshTreeCSGFace@@SAXPEAX@Z 000000018004e780 f i physics:dgMeshEffect.obj
 0001:0004d7a0       ??0dgBigVector@@QEAA@AEBV?$dgTemplateVector@N@@@Z 000000018004e7a0 f i physics:dgMeshEffect.obj
 0001:0004d880       ?Evalue@dgBigPlane@@QEBANAEBVdgBigVector@@@Z 000000018004e880 f i physics:dgMeshEffect.obj
 0001:0004d8e0       ?AddRef@dgRefCounter@@QEAAXXZ 000000018004e8e0 f i physics:dgMeshEffect.obj
 0001:0004d900       ??_GdgMeshEffectSolidTree@@QEAAPEAXI@Z 000000018004e900 f i physics:dgMeshEffect.obj
 0001:0004d940       ??3dgMeshEffectSolidTree@@SAXPEAX@Z 000000018004e940 f i physics:dgMeshEffect.obj
 0001:0004d960       ??1dgMeshEffectSolidTree@@QEAA@XZ 000000018004e960 f i physics:dgMeshEffect.obj
 0001:0004da10       ??0dgBigVector@@QEAA@AEBVdgVector@@@Z 000000018004ea10 f i physics:dgMeshEffect.obj
 0001:0004db00       ??3?$dgTree@VdgEdge@@_J@@SAXPEAX@Z 000000018004eb00 f i physics:dgMeshEffect.obj
 0001:0004db20       ??0Iterator@?$dgTree@VdgEdge@@_J@@QEAA@AEBV1@@Z 000000018004eb20 f i physics:dgMeshEffect.obj
 0001:0004db50       ??1Iterator@?$dgTree@VdgEdge@@_J@@QEAA@XZ 000000018004eb50 f i physics:dgMeshEffect.obj
 0001:0004db60       ?Begin@Iterator@?$dgTree@VdgEdge@@_J@@QEAAXXZ 000000018004eb60 f i physics:dgMeshEffect.obj
 0001:0004db90       ?Set@Iterator@?$dgTree@VdgEdge@@_J@@QEAAXQEAVdgTreeNode@2@@Z 000000018004eb90 f i physics:dgMeshEffect.obj
 0001:0004dbb0       ??BIterator@?$dgTree@VdgEdge@@_J@@QEBAHXZ 000000018004ebb0 f i physics:dgMeshEffect.obj
 0001:0004dbe0       ??EIterator@?$dgTree@VdgEdge@@_J@@QEAAXH@Z 000000018004ebe0 f i physics:dgMeshEffect.obj
 0001:0004dc50       ??DIterator@?$dgTree@VdgEdge@@_J@@QEBAAEAVdgEdge@@XZ 000000018004ec50 f i physics:dgMeshEffect.obj
 0001:0004dc70       ?GetNode@Iterator@?$dgTree@VdgEdge@@_J@@QEBAPEAVdgTreeNode@2@XZ 000000018004ec70 f i physics:dgMeshEffect.obj
 0001:0004dc80       ?GetInfo@dgTreeNode@?$dgTree@VdgEdge@@_J@@QEAAAEAVdgEdge@@XZ 000000018004ec80 f i physics:dgMeshEffect.obj
 0001:0004dc90       ?GetCount@?$dgTree@VdgEdge@@_J@@QEBAHXZ 000000018004ec90 f i physics:dgMeshEffect.obj
 0001:0004dca0       ?Minimum@?$dgTree@VdgEdge@@_J@@QEBAPEAVdgTreeNode@1@XZ 000000018004eca0 f i physics:dgMeshEffect.obj
 0001:0004dce0       ?GetNodeFromInfo@?$dgTree@VdgEdge@@_J@@QEBAPEAVdgTreeNode@1@AEAVdgEdge@@@Z 000000018004ece0 f i physics:dgMeshEffect.obj
 0001:0004ddd0       ?RemoveAll@?$dgTree@VdgEdge@@_J@@QEAAXXZ 000000018004edd0 f i physics:dgMeshEffect.obj
 0001:0004de10       ??0?$dgStack@H@@QEAA@H@Z   000000018004ee10 f i physics:dgMeshEffect.obj
 0001:0004de50       ??1?$dgStack@H@@QEAA@XZ    000000018004ee50 f i physics:dgMeshEffect.obj
 0001:0004de70       ?GetSizeInBytes@?$dgStack@H@@QEBAHXZ 000000018004ee70 f i physics:dgMeshEffect.obj
 0001:0004de90       ??A?$dgStack@H@@QEAAAEAHH@Z 000000018004ee90 f i physics:dgMeshEffect.obj
 0001:0004df40       ??0?$dgStack@VdgVector@@@@QEAA@H@Z 000000018004ef40 f i physics:dgMeshEffect.obj
 0001:0004df80       ??1?$dgStack@VdgVector@@@@QEAA@XZ 000000018004ef80 f i physics:dgMeshEffect.obj
 0001:0004dfa0       ?GetElementsCount@?$dgStack@VdgVector@@@@QEBAHXZ 000000018004efa0 f i physics:dgMeshEffect.obj
 0001:0004dfb0       ??A?$dgStack@VdgVector@@@@QEAAAEAVdgVector@@H@Z 000000018004efb0 f i physics:dgMeshEffect.obj
 0001:0004e070       ??0?$dgStack@UdgVertexAtribute@dgMeshEffect@@@@QEAA@H@Z 000000018004f070 f i physics:dgMeshEffect.obj
 0001:0004e0b0       ??1?$dgStack@UdgVertexAtribute@dgMeshEffect@@@@QEAA@XZ 000000018004f0b0 f i physics:dgMeshEffect.obj
 0001:0004e0d0       ??A?$dgStack@UdgVertexAtribute@dgMeshEffect@@@@QEAAAEAUdgVertexAtribute@dgMeshEffect@@H@Z 000000018004f0d0 f i physics:dgMeshEffect.obj
 0001:0004e190       ??0?$dgStack@D@@QEAA@H@Z   000000018004f190 f i physics:dgMeshEffect.obj
 0001:0004e1d0       ??1?$dgStack@D@@QEAA@XZ    000000018004f1d0 f i physics:dgMeshEffect.obj
 0001:0004e1f0       ?GetSizeInBytes@?$dgStack@D@@QEBAHXZ 000000018004f1f0 f i physics:dgMeshEffect.obj
 0001:0004e200       ??A?$dgStack@D@@QEAAAEADH@Z 000000018004f200 f i physics:dgMeshEffect.obj
 0001:0004e2b0       ??_EdgMeshEffect@@WDA@EAAPEAXI@Z 000000018004f2b0 f i physics:dgMeshEffect.obj
 0001:0004e2c0       ??0dgMeshEffect@@QEAA@QEAVdgMemoryAllocator@@QEBNHHN@Z 000000018004f2c0 f   physics:dgMeshEffect2.obj
 0001:0004e7d0       ?CreateConvexApproximationCollision@dgMeshEffect@@QEBAPEAVdgCollision@@QEAVdgWorld@@HHH@Z 000000018004f7d0 f   physics:dgMeshEffect2.obj
 0001:0004f0a0       ??0Tetrahedralization@@QEAA@AEAVdgMeshEffect@@@Z 00000001800500a0 f i physics:dgMeshEffect2.obj
 0001:0004f1e0       ??0dgMissingEdges@Tetrahedralization@@QEAA@QEAVdgMemoryAllocator@@@Z 00000001800501e0 f i physics:dgMeshEffect2.obj
 0001:0004f210       ??0dgEdgeMap@Tetrahedralization@@QEAA@QEAVdgMemoryAllocator@@@Z 0000000180050210 f i physics:dgMeshEffect2.obj
 0001:0004f240       ??1Tetrahedralization@@UEAA@XZ 0000000180050240 f i physics:dgMeshEffect2.obj
 0001:0004f2a0       ??1dgMissingEdges@Tetrahedralization@@QEAA@XZ 00000001800502a0 f i physics:dgMeshEffect2.obj
 0001:0004f2c0       ??1dgEdgeMap@Tetrahedralization@@QEAA@XZ 00000001800502c0 f i physics:dgMeshEffect2.obj
 0001:0004f330       ?BuildTetrahedraEdgeList@Tetrahedralization@@QEAAXXZ 0000000180050330 f i physics:dgMeshEffect2.obj
 0001:0004f380       ?RecoverEdges@Tetrahedralization@@QEAAXXZ 0000000180050380 f i physics:dgMeshEffect2.obj
 0001:0004fa30       ?CreateIndexMap@Tetrahedralization@@QEAAXXZ 0000000180050a30 f i physics:dgMeshEffect2.obj
 0001:0004fb00       ?ConvexCompareIndex@Tetrahedralization@@SAHQEBVdgIndexMapPair@1@0QEAX@Z 0000000180050b00 f i physics:dgMeshEffect2.obj
 0001:0004fb50       ?GetKey@Tetrahedralization@@QEBA_KHH@Z 0000000180050b50 f i physics:dgMeshEffect2.obj
 0001:0004fbb0       ?AddEdges@Tetrahedralization@@QEAAXQEAVdgListNode@?$dgList@VdgConvexHull4dTetraherum@@@@@Z 0000000180050bb0 f i physics:dgMeshEffect2.obj
 0001:0004fcc0       ?InsertNewNode@Tetrahedralization@@QEAAXHHQEAVdgListNode@?$dgList@VdgConvexHull4dTetraherum@@@@@Z 0000000180050cc0 f i physics:dgMeshEffect2.obj
 0001:0004fe00       ??0dgEdgeSharedTetras@Tetrahedralization@@QEAA@QEAVdgMemoryAllocator@@@Z 0000000180050e00 f i physics:dgMeshEffect2.obj
 0001:0004fe30       ??1dgEdgeSharedTetras@Tetrahedralization@@QEAA@XZ 0000000180050e30 f i physics:dgMeshEffect2.obj
 0001:0004fe50       ?AddFace@Tetrahedralization@@UEAAPEAVdgListNode@?$dgList@VdgConvexHull4dTetraherum@@@@HHHH@Z 0000000180050e50 f i physics:dgMeshEffect2.obj
 0001:0004feb0       ?DeleteFace@Tetrahedralization@@UEAAXQEAVdgListNode@?$dgList@VdgConvexHull4dTetraherum@@@@@Z 0000000180050eb0 f i physics:dgMeshEffect2.obj
 0001:0004ffa0       ?RemoveEdges@Tetrahedralization@@QEAAXQEAVdgListNode@?$dgList@VdgConvexHull4dTetraherum@@@@@Z 0000000180050fa0 f i physics:dgMeshEffect2.obj
 0001:00050080       ?RemoveNode@Tetrahedralization@@QEAAXHHQEAVdgListNode@?$dgList@VdgConvexHull4dTetraherum@@@@@Z 0000000180051080 f i physics:dgMeshEffect2.obj
 0001:000501d0       ?RecoverFaces@Tetrahedralization@@QEAAXXZ 00000001800511d0 f i physics:dgMeshEffect2.obj
 0001:00050d50       ??0dgEdgeFaceKey@Tetrahedralization@@QEAA@HHH@Z 0000000180051d50 f i physics:dgMeshEffect2.obj
 0001:00050df0       ??0dgFaceKeyMap@Tetrahedralization@@QEAA@QEAVdgMemoryAllocator@@@Z 0000000180051df0 f i physics:dgMeshEffect2.obj
 0001:00050e20       ?RemoveDegeneratedTetras@Tetrahedralization@@QEAAXXZ 0000000180051e20 f i physics:dgMeshEffect2.obj
 0001:000511c0       ?RecoverFace@Tetrahedralization@@QEBAXAEAVdgMeshEffect@@QEAVdgEdge@@HHAEAV?$dgTree@PEAVdgEdge@@PEAV1@@@@Z 00000001800521c0 f i physics:dgMeshEffect2.obj
 0001:00051c50       ?MatchFace@Tetrahedralization@@QEBA_NAEAVdgMeshEffect@@QEAVdgEdge@@H@Z 0000000180052c50 f i physics:dgMeshEffect2.obj
 0001:00052380       ??_ETetrahedralization@@UEAAPEAXI@Z 0000000180053380 f i physics:dgMeshEffect2.obj
 0001:00052380       ??_GTetrahedralization@@UEAAPEAXI@Z 0000000180053380 f i physics:dgMeshEffect2.obj
 0001:000523c0       ??1dgFaceKeyMap@Tetrahedralization@@QEAA@XZ 00000001800533c0 f i physics:dgMeshEffect2.obj
 0001:000523e0       ??3?$dgList@VdgConvexHull4dTetraherum@@@@SAXPEAX@Z 00000001800533e0 f i physics:dgMeshEffect2.obj
 0001:00052400       ?GetInfo@dgListNode@?$dgList@VdgConvexHull3DFace@@@@QEAAAEAVdgConvexHull3DFace@@XZ 0000000180053400 f i physics:dgMeshEffect2.obj
 0001:00052410       ?GetNext@dgListNode@?$dgList@VdgConvexHull3DFace@@@@QEBAPEAV12@XZ 0000000180053410 f i physics:dgMeshEffect2.obj
 0001:00052420       ?GetInfo@dgTreeNode@?$dgTree@VdgEdgeSharedTetras@Tetrahedralization@@_K@@QEAAAEAVdgEdgeSharedTetras@Tetrahedralization@@XZ 0000000180053420 f i physics:dgMeshEffect2.obj
 0001:00052430       ?GetInfo@dgListNode@?$dgList@VdgConvexHull4dTetraherum@@@@QEAAAEAVdgConvexHull4dTetraherum@@XZ 0000000180053430 f i physics:dgMeshEffect2.obj
 0001:00052440       ?GetNext@dgListNode@?$dgList@VdgConvexHull4dTetraherum@@@@QEBAPEAV12@XZ 0000000180053440 f i physics:dgMeshEffect2.obj
 0001:00052450       ?GetVertexCount@dgConvexHull3d@@QEBAHXZ 0000000180053450 f i physics:dgMeshEffect2.obj
 0001:00052460       ?GetVertex@dgConvexHull3d@@QEBAAEBVdgVector@@H@Z 0000000180053460 f i physics:dgMeshEffect2.obj
 0001:00052490       ?GetMark@dgConvexHull4dTetraherum@@QEBAHXZ 0000000180053490 f i physics:dgMeshEffect2.obj
 0001:000524a0       ?SetMark@dgConvexHull4dTetraherum@@QEAAXH@Z 00000001800534a0 f i physics:dgMeshEffect2.obj
 0001:000524c0       ?GetInfo@dgListNode@?$dgList@PEAVdgTreeNode@?$dgTree@VdgEdge@@_J@@@@QEAAAEAPEAVdgTreeNode@?$dgTree@VdgEdge@@_J@@XZ 00000001800534c0 f i physics:dgMeshEffect2.obj
 0001:000524d0       ?IncMark@dgConvexHull4d@@QEAAHXZ 00000001800534d0 f i physics:dgMeshEffect2.obj
 0001:00052500       ?GetInfo@dgListNode@?$dgList@PEAVdgListNode@?$dgList@VdgConvexHull4dTetraherum@@@@@@QEAAAEAPEAV1?$dgList@VdgConvexHull4dTetraherum@@@@XZ 0000000180053500 f i physics:dgMeshEffect2.obj
 0001:00052510       ?GetVertexCount@dgConvexHull4d@@QEBAHXZ 0000000180053510 f i physics:dgMeshEffect2.obj
 0001:00052520       ?GetNext@dgListNode@?$dgList@PEAVdgListNode@?$dgList@VdgConvexHull4dTetraherum@@@@@@QEBAPEAV12@XZ 0000000180053520 f i physics:dgMeshEffect2.obj
 0001:00052530       ??0Iterator@?$dgTree@PEAVdgEdge@@PEAV1@@@QEAA@AEBV1@@Z 0000000180053530 f i physics:dgMeshEffect2.obj
 0001:00052560       ?GetVertexIndex@dgConvexHull4d@@QEBAHH@Z 0000000180053560 f i physics:dgMeshEffect2.obj
 0001:00052600       ??1Iterator@?$dgTree@PEAVdgEdge@@PEAV1@@@QEAA@XZ 0000000180053600 f i physics:dgMeshEffect2.obj
 0001:00052610       ?Begin@Iterator@?$dgTree@PEAVdgEdge@@PEAV1@@@QEAAXXZ 0000000180053610 f i physics:dgMeshEffect2.obj
 0001:00052640       ?GetVertex@dgConvexHull4d@@QEBAAEBVdgBigVector@@H@Z 0000000180053640 f i physics:dgMeshEffect2.obj
 0001:000526e0       ??BIterator@?$dgTree@PEAVdgEdge@@PEAV1@@@QEBAHXZ 00000001800536e0 f i physics:dgMeshEffect2.obj
 0001:00052710       ??EIterator@?$dgTree@PEAVdgEdge@@PEAV1@@@QEAAXH@Z 0000000180053710 f i physics:dgMeshEffect2.obj
 0001:00052780       ?GetNode@Iterator@?$dgTree@PEAVdgEdge@@PEAV1@@@QEBAPEAVdgTreeNode@2@XZ 0000000180053780 f i physics:dgMeshEffect2.obj
 0001:00052790       ?GetInfo@dgTreeNode@?$dgTree@PEAVdgEdge@@PEAV1@@@QEAAAEAPEAVdgEdge@@XZ 0000000180053790 f i physics:dgMeshEffect2.obj
 0001:000527a0       ?Scale4@?$dgTemplateVector@N@@QEBA?AV1@N@Z 00000001800537a0 f i physics:dgMeshEffect2.obj
 0001:00052810       ?Add4@?$dgTemplateVector@N@@QEBA?AV1@AEBV1@@Z 0000000180053810 f i physics:dgMeshEffect2.obj
 0001:00052890       ?GetCount@?$dgList@VdgConvexHull3DFace@@@@QEBAHXZ 0000000180053890 f i physics:dgMeshEffect2.obj
 0001:000528a0       ?GetFirst@?$dgList@VdgConvexHull3DFace@@@@QEBAPEAVdgListNode@1@XZ 00000001800538a0 f i physics:dgMeshEffect2.obj
 0001:000528b0       ??0?$dgList@PEAVdgTreeNode@?$dgTree@VdgEdge@@_J@@@@QEAA@QEAVdgMemoryAllocator@@@Z 00000001800538b0 f i physics:dgMeshEffect2.obj
 0001:00052900       ??1?$dgList@PEAVdgTreeNode@?$dgTree@VdgEdge@@_J@@@@QEAA@XZ 0000000180053900 f i physics:dgMeshEffect2.obj
 0001:00052920       ?GetCount@?$dgList@PEAVdgTreeNode@?$dgTree@VdgEdge@@_J@@@@QEBAHXZ 0000000180053920 f i physics:dgMeshEffect2.obj
 0001:00052930       ?GetFirst@?$dgList@PEAVdgTreeNode@?$dgTree@VdgEdge@@_J@@@@QEBAPEAVdgListNode@1@XZ 0000000180053930 f i physics:dgMeshEffect2.obj
 0001:00052940       ?Append@?$dgList@PEAVdgTreeNode@?$dgTree@VdgEdge@@_J@@@@QEAAPEAVdgListNode@1@AEBQEAVdgTreeNode@?$dgTree@VdgEdge@@_J@@@Z 0000000180053940 f i physics:dgMeshEffect2.obj
 0001:00052a40       ?Remove@?$dgList@PEAVdgTreeNode@?$dgTree@VdgEdge@@_J@@@@QEAAXQEAVdgListNode@1@@Z 0000000180053a40 f i physics:dgMeshEffect2.obj
 0001:00052aa0       ??0?$dgList@PEAVdgListNode@?$dgList@VdgConvexHull4dTetraherum@@@@@@QEAA@QEAVdgMemoryAllocator@@@Z 0000000180053aa0 f i physics:dgMeshEffect2.obj
 0001:00052af0       ??1?$dgList@PEAVdgListNode@?$dgList@VdgConvexHull4dTetraherum@@@@@@QEAA@XZ 0000000180053af0 f i physics:dgMeshEffect2.obj
 0001:00052b10       ??A?$dgArray@VdgVector@@@@QEBAAEBVdgVector@@H@Z 0000000180053b10 f i physics:dgMeshEffect2.obj
 0001:00052b90       ?GetCount@?$dgList@PEAVdgListNode@?$dgList@VdgConvexHull4dTetraherum@@@@@@QEBAHXZ 0000000180053b90 f i physics:dgMeshEffect2.obj
 0001:00052ba0       ?GetFirst@?$dgList@PEAVdgListNode@?$dgList@VdgConvexHull4dTetraherum@@@@@@QEBAPEAVdgListNode@1@XZ 0000000180053ba0 f i physics:dgMeshEffect2.obj
 0001:00052bb0       ??A?$dgArray@VdgHullVector@@@@QEBAAEBVdgHullVector@@H@Z 0000000180053bb0 f i physics:dgMeshEffect2.obj
 0001:00052c30       ?Append@?$dgList@PEAVdgListNode@?$dgList@VdgConvexHull4dTetraherum@@@@@@QEAAPEAVdgListNode@1@AEBQEAV2?$dgList@VdgConvexHull4dTetraherum@@@@@Z 0000000180053c30 f i physics:dgMeshEffect2.obj
 0001:00052d30       ?Remove@?$dgList@PEAVdgListNode@?$dgList@VdgConvexHull4dTetraherum@@@@@@QEAAXQEAVdgListNode@1@@Z 0000000180053d30 f i physics:dgMeshEffect2.obj
 0001:00052d90       ?RemoveAll@?$dgList@PEAVdgListNode@?$dgList@VdgConvexHull4dTetraherum@@@@@@QEAAXXZ 0000000180053d90 f i physics:dgMeshEffect2.obj
 0001:00052e90       ?Resize@?$dgArray@VdgVector@@@@QEBAXH@Z 0000000180053e90 f i physics:dgMeshEffect2.obj
 0001:00053130       ??0?$dgTree@VdgEdgeSharedTetras@Tetrahedralization@@_K@@QEAA@QEAVdgMemoryAllocator@@@Z 0000000180054130 f i physics:dgMeshEffect2.obj
 0001:00053170       ??1?$dgTree@VdgEdgeSharedTetras@Tetrahedralization@@_K@@QEAA@XZ 0000000180054170 f i physics:dgMeshEffect2.obj
 0001:00053190       ?GetRoot@?$dgTree@VdgEdgeSharedTetras@Tetrahedralization@@_K@@QEBAPEAVdgTreeNode@1@XZ 0000000180054190 f i physics:dgMeshEffect2.obj
 0001:000531a0       ?Find@?$dgTree@VdgEdgeSharedTetras@Tetrahedralization@@_K@@QEBAPEAVdgTreeNode@1@_K@Z 00000001800541a0 f i physics:dgMeshEffect2.obj
 0001:00053320       ?Resize@?$dgArray@VdgHullVector@@@@QEBAXH@Z 0000000180054320 f i physics:dgMeshEffect2.obj
 0001:000535c0       ?Insert@?$dgTree@VdgEdgeSharedTetras@Tetrahedralization@@_K@@QEAAPEAVdgTreeNode@1@AEBVdgEdgeSharedTetras@Tetrahedralization@@_K@Z 00000001800545c0 f i physics:dgMeshEffect2.obj
 0001:00053610       ?Remove@?$dgTree@VdgEdgeSharedTetras@Tetrahedralization@@_K@@QEAAXQEAVdgTreeNode@1@@Z 0000000180054610 f i physics:dgMeshEffect2.obj
 0001:00053660       ??0?$dgTree@PEAVdgListNode@?$dgList@VdgConvexHull4dTetraherum@@@@VdgEdgeFaceKey@Tetrahedralization@@@@QEAA@QEAVdgMemoryAllocator@@@Z 0000000180054660 f i physics:dgMeshEffect2.obj
 0001:000536a0       ??1?$dgTree@PEAVdgListNode@?$dgList@VdgConvexHull4dTetraherum@@@@VdgEdgeFaceKey@Tetrahedralization@@@@QEAA@XZ 00000001800546a0 f i physics:dgMeshEffect2.obj
 0001:000536c0       ?Find@?$dgTree@PEAVdgListNode@?$dgList@VdgConvexHull4dTetraherum@@@@VdgEdgeFaceKey@Tetrahedralization@@@@QEBAPEAVdgTreeNode@1@VdgEdgeFaceKey@Tetrahedralization@@@Z 00000001800546c0 f i physics:dgMeshEffect2.obj
 0001:00053850       ??MdgEdgeFaceKey@Tetrahedralization@@QEBA_NAEBV01@@Z 0000000180054850 f i physics:dgMeshEffect2.obj
 0001:00053890       ?Compared@dgEdgeFaceKey@Tetrahedralization@@QEBAHAEBV12@@Z 0000000180054890 f i physics:dgMeshEffect2.obj
 0001:00053910       ??OdgEdgeFaceKey@Tetrahedralization@@QEBA_NAEBV01@@Z 0000000180054910 f i physics:dgMeshEffect2.obj
 0001:00053950       ?Insert@?$dgTree@PEAVdgListNode@?$dgList@VdgConvexHull4dTetraherum@@@@VdgEdgeFaceKey@Tetrahedralization@@@@QEAAPEAVdgTreeNode@1@AEBQEAVdgListNode@?$dgList@VdgConvexHull4dTetraherum@@@@VdgEdgeFaceKey@Tetrahedralization@@@Z 0000000180054950 f i physics:dgMeshEffect2.obj
 0001:000539b0       ??0?$dgArray@VdgIndexMapPair@Tetrahedralization@@@@QEAA@HQEAVdgMemoryAllocator@@@Z 00000001800549b0 f i physics:dgMeshEffect2.obj
 0001:00053a00       ??1?$dgArray@VdgIndexMapPair@Tetrahedralization@@@@QEAA@XZ 0000000180054a00 f i physics:dgMeshEffect2.obj
 0001:00053a40       ??A?$dgArray@VdgIndexMapPair@Tetrahedralization@@@@QEBAAEBVdgIndexMapPair@Tetrahedralization@@H@Z 0000000180054a40 f i physics:dgMeshEffect2.obj
 0001:00053ac0       ??A?$dgArray@VdgIndexMapPair@Tetrahedralization@@@@QEAAAEAVdgIndexMapPair@Tetrahedralization@@H@Z 0000000180054ac0 f i physics:dgMeshEffect2.obj
 0001:00053b40       ?GetAllocator@?$dgList@VdgConvexHull4dTetraherum@@@@QEBAPEAVdgMemoryAllocator@@XZ 0000000180054b40 f i physics:dgMeshEffect2.obj
 0001:00053b50       ?GetCount@?$dgList@VdgConvexHull4dTetraherum@@@@QEBAHXZ 0000000180054b50 f i physics:dgMeshEffect2.obj
 0001:00053b60       ?GetFirst@?$dgList@VdgConvexHull4dTetraherum@@@@QEBAPEAVdgListNode@1@XZ 0000000180054b60 f i physics:dgMeshEffect2.obj
 0001:00053b70       ??0?$dgTree@PEAVdgEdge@@PEAV1@@@QEAA@QEAVdgMemoryAllocator@@@Z 0000000180054b70 f i physics:dgMeshEffect2.obj
 0001:00053bb0       ??1?$dgTree@PEAVdgEdge@@PEAV1@@@QEAA@XZ 0000000180054bb0 f i physics:dgMeshEffect2.obj
 0001:00053bd0       ?GetCount@?$dgTree@PEAVdgEdge@@PEAV1@@@QEBAHXZ 0000000180054bd0 f i physics:dgMeshEffect2.obj
 0001:00053be0       ?Minimum@?$dgTree@PEAVdgEdge@@PEAV1@@@QEBAPEAVdgTreeNode@1@XZ 0000000180054be0 f i physics:dgMeshEffect2.obj
 0001:00053c20       ?Find@?$dgTree@PEAVdgEdge@@PEAV1@@@QEBAPEAVdgTreeNode@1@PEAVdgEdge@@@Z 0000000180054c20 f i physics:dgMeshEffect2.obj
 0001:00053da0       ?Insert@?$dgTree@PEAVdgEdge@@PEAV1@@@QEAAPEAVdgTreeNode@1@AEBQEAVdgEdge@@PEAV3@@Z 0000000180054da0 f i physics:dgMeshEffect2.obj
 0001:00053df0       ??$dgSort@VdgIndexMapPair@Tetrahedralization@@@@YAXQEAVdgIndexMapPair@Tetrahedralization@@HP6AHQEBV01@1QEAX@Z2@Z 0000000180054df0 f i physics:dgMeshEffect2.obj
 0001:00054280       ??0?$dgStack@PEAVdgCollision@@@@QEAA@H@Z 0000000180055280 f i physics:dgMeshEffect2.obj
 0001:000542c0       ??1?$dgStack@PEAVdgCollision@@@@QEAA@XZ 00000001800552c0 f i physics:dgMeshEffect2.obj
 0001:000542e0       ??A?$dgStack@PEAVdgCollision@@@@QEAAAEAPEAVdgCollision@@H@Z 00000001800552e0 f i physics:dgMeshEffect2.obj
 0001:00054390       ??_GdgListNode@?$dgList@PEAVdgTreeNode@?$dgTree@VdgEdge@@_J@@@@AEAAPEAXI@Z 0000000180055390 f i physics:dgMeshEffect2.obj
 0001:000543d0       ??_GdgListNode@?$dgList@PEAVdgListNode@?$dgList@VdgConvexHull4dTetraherum@@@@@@AEAAPEAXI@Z 00000001800553d0 f i physics:dgMeshEffect2.obj
 0001:00054410       ?GetLeft@dgTreeNode@?$dgTree@VdgEdgeSharedTetras@Tetrahedralization@@_K@@AEBAPEAV12@XZ 0000000180055410 f i physics:dgMeshEffect2.obj
 0001:00054420       ?GetRight@dgTreeNode@?$dgTree@VdgEdgeSharedTetras@Tetrahedralization@@_K@@AEBAPEAV12@XZ 0000000180055420 f i physics:dgMeshEffect2.obj
 0001:00054430       ??2dgListNode@?$dgList@PEAVdgTreeNode@?$dgTree@VdgEdge@@_J@@@@CAPEAX_KQEAVdgMemoryAllocator@@@Z 0000000180055430 f i physics:dgMeshEffect2.obj
 0001:00054460       ??3dgListNode@?$dgList@PEAVdgTreeNode@?$dgTree@VdgEdge@@_J@@@@CAXPEAX@Z 0000000180055460 f i physics:dgMeshEffect2.obj
 0001:00054480       ??0dgListNode@?$dgList@PEAVdgTreeNode@?$dgTree@VdgEdge@@_J@@@@AEAA@AEBQEAVdgTreeNode@?$dgTree@VdgEdge@@_J@@QEAV01@1@Z 0000000180055480 f i physics:dgMeshEffect2.obj
 0001:00054550       ??1dgListNode@?$dgList@PEAVdgTreeNode@?$dgTree@VdgEdge@@_J@@@@AEAA@XZ 0000000180055550 f i physics:dgMeshEffect2.obj
 0001:00054560       ??2dgListNode@?$dgList@PEAVdgListNode@?$dgList@VdgConvexHull4dTetraherum@@@@@@CAPEAX_KQEAVdgMemoryAllocator@@@Z 0000000180055560 f i physics:dgMeshEffect2.obj
 0001:00054590       ??3dgListNode@?$dgList@PEAVdgListNode@?$dgList@VdgConvexHull4dTetraherum@@@@@@CAXPEAX@Z 0000000180055590 f i physics:dgMeshEffect2.obj
 0001:000545b0       ??0dgListNode@?$dgList@PEAVdgListNode@?$dgList@VdgConvexHull4dTetraherum@@@@@@AEAA@AEBQEAV0?$dgList@VdgConvexHull4dTetraherum@@@@QEAV01@1@Z 00000001800555b0 f i physics:dgMeshEffect2.obj
 0001:00054680       ??1dgListNode@?$dgList@PEAVdgListNode@?$dgList@VdgConvexHull4dTetraherum@@@@@@AEAA@XZ 0000000180055680 f i physics:dgMeshEffect2.obj
 0001:00054690       ?Unlink@dgListNode@?$dgList@PEAVdgListNode@?$dgList@VdgConvexHull4dTetraherum@@@@@@AEAAXXZ 0000000180055690 f i physics:dgMeshEffect2.obj
 0001:00054700       ?GetLeft@dgTreeNode@?$dgTree@PEAVdgEdge@@PEAV1@@@AEBAPEAV12@XZ 0000000180055700 f i physics:dgMeshEffect2.obj
 0001:00054710       ?GetRight@dgTreeNode@?$dgTree@PEAVdgEdge@@PEAV1@@@AEBAPEAV12@XZ 0000000180055710 f i physics:dgMeshEffect2.obj
 0001:00054720       ?GetLeft@dgTreeNode@?$dgTree@PEAVdgListNode@?$dgList@VdgConvexHull4dTetraherum@@@@VdgEdgeFaceKey@Tetrahedralization@@@@AEBAPEAV12@XZ 0000000180055720 f i physics:dgMeshEffect2.obj
 0001:00054730       ?GetRight@dgTreeNode@?$dgTree@PEAVdgListNode@?$dgList@VdgConvexHull4dTetraherum@@@@VdgEdgeFaceKey@Tetrahedralization@@@@AEBAPEAV12@XZ 0000000180055730 f i physics:dgMeshEffect2.obj
 0001:00054740       ?RemoveAll@?$dgList@PEAVdgTreeNode@?$dgTree@VdgEdge@@_J@@@@QEAAXXZ 0000000180055740 f i physics:dgMeshEffect2.obj
 0001:00054840       ?Unlink@?$dgList@PEAVdgTreeNode@?$dgTree@VdgEdge@@_J@@@@QEAAXQEAVdgListNode@1@@Z 0000000180055840 f i physics:dgMeshEffect2.obj
 0001:00054930       ?Unlink@?$dgList@PEAVdgListNode@?$dgList@VdgConvexHull4dTetraherum@@@@@@QEAAXQEAVdgListNode@1@@Z 0000000180055930 f i physics:dgMeshEffect2.obj
 0001:00054a20       ?Insert@?$dgTree@VdgEdgeSharedTetras@Tetrahedralization@@_K@@QEAAPEAVdgTreeNode@1@AEBVdgEdgeSharedTetras@Tetrahedralization@@_KAEA_N@Z 0000000180055a20 f i physics:dgMeshEffect2.obj
 0001:00054ce0       ?RemoveAll@?$dgTree@VdgEdgeSharedTetras@Tetrahedralization@@_K@@QEAAXXZ 0000000180055ce0 f i physics:dgMeshEffect2.obj
 0001:00054d20       ?CompareKeys@?$dgTree@VdgEdgeSharedTetras@Tetrahedralization@@_K@@AEBAHAEB_K0@Z 0000000180055d20 f i physics:dgMeshEffect2.obj
 0001:00054d70       ?Insert@?$dgTree@PEAVdgListNode@?$dgList@VdgConvexHull4dTetraherum@@@@VdgEdgeFaceKey@Tetrahedralization@@@@QEAAPEAVdgTreeNode@1@AEBQEAVdgListNode@?$dgList@VdgConvexHull4dTetraherum@@@@VdgEdgeFaceKey@Tetrahedralization@@AEA_N@Z 0000000180055d70 f i physics:dgMeshEffect2.obj
 0001:00055040       ?RemoveAll@?$dgTree@PEAVdgListNode@?$dgList@VdgConvexHull4dTetraherum@@@@VdgEdgeFaceKey@Tetrahedralization@@@@QEAAXXZ 0000000180056040 f i physics:dgMeshEffect2.obj
 0001:00055080       ?CompareKeys@?$dgTree@PEAVdgListNode@?$dgList@VdgConvexHull4dTetraherum@@@@VdgEdgeFaceKey@Tetrahedralization@@@@AEBAHAEBVdgEdgeFaceKey@Tetrahedralization@@0@Z 0000000180056080 f i physics:dgMeshEffect2.obj
 0001:000550e0       ?Resize@?$dgArray@VdgIndexMapPair@Tetrahedralization@@@@QEBAXH@Z 00000001800560e0 f i physics:dgMeshEffect2.obj
 0001:000552c0       ?Insert@?$dgTree@PEAVdgEdge@@PEAV1@@@QEAAPEAVdgTreeNode@1@AEBQEAVdgEdge@@PEAV3@AEA_N@Z 00000001800562c0 f i physics:dgMeshEffect2.obj
 0001:00055580       ?RemoveAll@?$dgTree@PEAVdgEdge@@PEAV1@@@QEAAXXZ 0000000180056580 f i physics:dgMeshEffect2.obj
 0001:000555c0       ?CompareKeys@?$dgTree@PEAVdgEdge@@PEAV1@@@AEBAHAEBQEAVdgEdge@@0@Z 00000001800565c0 f i physics:dgMeshEffect2.obj
 0001:00055610       ??0dgTreeNode@?$dgTree@VdgEdgeSharedTetras@Tetrahedralization@@_K@@AEAA@AEBVdgEdgeSharedTetras@Tetrahedralization@@AEB_KPEAV01@@Z 0000000180056610 f i physics:dgMeshEffect2.obj
 0001:000556b0       ??0dgEdgeSharedTetras@Tetrahedralization@@QEAA@AEBV01@@Z 00000001800566b0 f i physics:dgMeshEffect2.obj
 0001:000556e0       ?GetAllocator@?$dgList@PEAVdgListNode@?$dgList@VdgConvexHull4dTetraherum@@@@@@QEBAPEAVdgMemoryAllocator@@XZ 00000001800566e0 f i physics:dgMeshEffect2.obj
 0001:000556f0       ?Unlink@dgListNode@?$dgList@PEAVdgTreeNode@?$dgTree@VdgEdge@@_J@@@@AEAAXXZ 00000001800566f0 f i physics:dgMeshEffect2.obj
 0001:00055760       ?GetNext@dgListNode@?$dgList@PEAVdgTreeNode@?$dgTree@VdgEdge@@_J@@@@QEBAPEAV12@XZ 0000000180056760 f i physics:dgMeshEffect2.obj
 0001:00055770       ?GetPrev@dgListNode@?$dgList@PEAVdgTreeNode@?$dgTree@VdgEdge@@_J@@@@QEBAPEAV12@XZ 0000000180056770 f i physics:dgMeshEffect2.obj
 0001:00055780       ?GetPrev@dgListNode@?$dgList@PEAVdgListNode@?$dgList@VdgConvexHull4dTetraherum@@@@@@QEBAPEAV12@XZ 0000000180056780 f i physics:dgMeshEffect2.obj
 0001:00055790       ??0dgTreeNode@?$dgTree@PEAVdgEdge@@PEAV1@@@AEAA@AEBQEAVdgEdge@@0PEAV01@@Z 0000000180056790 f i physics:dgMeshEffect2.obj
 0001:00055830       ??0dgTreeNode@?$dgTree@PEAVdgListNode@?$dgList@VdgConvexHull4dTetraherum@@@@VdgEdgeFaceKey@Tetrahedralization@@@@AEAA@AEBQEAVdgListNode@?$dgList@VdgConvexHull4dTetraherum@@@@AEBVdgEdgeFaceKey@Tetrahedralization@@PEAV01@@Z 0000000180056830 f i physics:dgMeshEffect2.obj
 0001:000558e0       ??0dgCollisionConvexIntance@dgCollisionCompoundBreakable@@QEAA@PEAVdgConvexCollision@@PEAVdgListNode@?$dgList@V?$dgGraphNode@VdgDebriNodeInfo@dgCollisionCompoundBreakable@@VdgSharedNodeMesh@2@@@@@N@Z 00000001800568e0 f   physics:dgCollisionCompoundBreakable.obj
 0001:00055af0       ??0dgCollisionConvexIntance@dgCollisionCompoundBreakable@@QEAA@AEBV01@PEAVdgListNode@?$dgList@V?$dgGraphNode@VdgDebriNodeInfo@dgCollisionCompoundBreakable@@VdgSharedNodeMesh@2@@@@@@Z 0000000180056af0 f   physics:dgCollisionCompoundBreakable.obj
 0001:00055c60       ??0dgCollisionConvexIntance@dgCollisionCompoundBreakable@@QEAA@QEAVdgWorld@@P6AXPEAX1_K@ZQEAX@Z 0000000180056c60 f   physics:dgCollisionCompoundBreakable.obj
 0001:00055db0       ??1dgCollisionConvexIntance@dgCollisionCompoundBreakable@@UEAA@XZ 0000000180056db0 f   physics:dgCollisionCompoundBreakable.obj
 0001:00055e00       ?GetVolume@dgCollisionConvexIntance@dgCollisionCompoundBreakable@@MEBANXZ 0000000180056e00 f   physics:dgCollisionCompoundBreakable.obj
 0001:00055e40       ?OOBBTest@dgCollisionConvexIntance@dgCollisionCompoundBreakable@@MEBA_NAEBVdgMatrix@@QEBVdgConvexCollision@@QEAX@Z 0000000180056e40 f   physics:dgCollisionCompoundBreakable.obj
 0001:00055e90       ?SupportVertex@dgCollisionConvexIntance@dgCollisionCompoundBreakable@@MEBA?AVdgVector@@AEBV3@@Z 0000000180056e90 f   physics:dgCollisionCompoundBreakable.obj
 0001:00055ee0       ?SupportVertexSimd@dgCollisionConvexIntance@dgCollisionCompoundBreakable@@MEBA?AVdgVector@@AEBV3@@Z 0000000180056ee0 f   physics:dgCollisionCompoundBreakable.obj
 0001:00055f30       ?CalcAABB@dgCollisionConvexIntance@dgCollisionCompoundBreakable@@MEBAXAEBVdgMatrix@@AEAVdgVector@@1@Z 0000000180056f30 f   physics:dgCollisionCompoundBreakable.obj
 0001:00055f80       ?CalcAABBSimd@dgCollisionConvexIntance@dgCollisionCompoundBreakable@@MEBAXAEBVdgMatrix@@AEAVdgVector@@1@Z 0000000180056f80 f   physics:dgCollisionCompoundBreakable.obj
 0001:00055fd0       ?DebugCollision@dgCollisionConvexIntance@dgCollisionCompoundBreakable@@MEBAXAEBVdgMatrix@@P6AXPEAXHPEBNH@ZQEAX@Z 0000000180056fd0 f   physics:dgCollisionCompoundBreakable.obj
 0001:00056020       ?RayCast@dgCollisionConvexIntance@dgCollisionCompoundBreakable@@MEBANAEBVdgVector@@0AEAVdgContactPoint@@P6AIQEBVdgBody@@QEBVdgCollision@@QEAX@Z24@Z 0000000180057020 f   physics:dgCollisionCompoundBreakable.obj
 0001:000560a0       ?RayCastSimd@dgCollisionConvexIntance@dgCollisionCompoundBreakable@@MEBANAEBVdgVector@@0AEAVdgContactPoint@@P6AIQEBVdgBody@@QEBVdgCollision@@QEAX@Z24@Z 00000001800570a0 f   physics:dgCollisionCompoundBreakable.obj
 0001:00056120       ?CalculateVolumeIntegral@dgCollisionConvexIntance@dgCollisionCompoundBreakable@@MEBA?AVdgVector@@AEBVdgMatrix@@P6AIPEAX10AEAVdgPlane@@@ZQEAX@Z 0000000180057120 f   physics:dgCollisionCompoundBreakable.obj
 0001:00056180       ?CalculateSignature@dgCollisionConvexIntance@dgCollisionCompoundBreakable@@EEBAHXZ 0000000180057180 f   physics:dgCollisionCompoundBreakable.obj
 0001:00056190       ?SetCollisionBBox@dgCollisionConvexIntance@dgCollisionCompoundBreakable@@EEAAXAEBVdgVector@@0@Z 0000000180057190 f   physics:dgCollisionCompoundBreakable.obj
 0001:000561e0       ?GetBoxMinRadius@dgCollisionConvexIntance@dgCollisionCompoundBreakable@@EEBANXZ 00000001800571e0 f   physics:dgCollisionCompoundBreakable.obj
 0001:00056220       ?GetBoxMaxRadius@dgCollisionConvexIntance@dgCollisionCompoundBreakable@@EEBANXZ 0000000180057220 f   physics:dgCollisionCompoundBreakable.obj
 0001:00056260       ?CalculatePlaneIntersection@dgCollisionConvexIntance@dgCollisionCompoundBreakable@@EEBAHAEBVdgVector@@0QEAV3@@Z 0000000180057260 f   physics:dgCollisionCompoundBreakable.obj
 0001:000562c0       ?CalculatePlaneIntersectionSimd@dgCollisionConvexIntance@dgCollisionCompoundBreakable@@EEBAHAEBVdgVector@@0QEAV3@@Z 00000001800572c0 f   physics:dgCollisionCompoundBreakable.obj
 0001:00056320       ?GetCollisionInfo@dgCollisionConvexIntance@dgCollisionCompoundBreakable@@EEBAXPEAVdgCollisionInfo@@@Z 0000000180057320 f   physics:dgCollisionCompoundBreakable.obj
 0001:00056360       ?Serialize@dgCollisionConvexIntance@dgCollisionCompoundBreakable@@EEBAXP6AXPEAXPEBX_K@ZQEAX@Z 0000000180057360 f   physics:dgCollisionCompoundBreakable.obj
 0001:00056420       ?SetBreakImpulse@dgCollisionConvexIntance@dgCollisionCompoundBreakable@@EEAAXN@Z 0000000180057420 f   physics:dgCollisionCompoundBreakable.obj
 0001:00056450       ?GetBreakImpulse@dgCollisionConvexIntance@dgCollisionCompoundBreakable@@EEBANXZ 0000000180057450 f   physics:dgCollisionCompoundBreakable.obj
 0001:00056470       ??0dgVertexBuffer@dgCollisionCompoundBreakable@@QEAA@HPEAVdgMemoryAllocator@@@Z 0000000180057470 f   physics:dgCollisionCompoundBreakable.obj
 0001:00056530       ??1dgVertexBuffer@dgCollisionCompoundBreakable@@UEAA@XZ 0000000180057530 f   physics:dgCollisionCompoundBreakable.obj
 0001:000565b0       ??0dgVertexBuffer@dgCollisionCompoundBreakable@@QEAA@QEAVdgMemoryAllocator@@P6AXPEAX1_K@ZQEAX@Z 00000001800575b0 f   physics:dgCollisionCompoundBreakable.obj
 0001:00056700       ?Serialize@dgVertexBuffer@dgCollisionCompoundBreakable@@QEBAXP6AXPEAXPEBX_K@ZQEAX@Z 0000000180057700 f   physics:dgCollisionCompoundBreakable.obj
 0001:000567b0       ?GetVertexStreams@dgVertexBuffer@dgCollisionCompoundBreakable@@QEBAXHPEANH0H0@Z 00000001800577b0 f   physics:dgCollisionCompoundBreakable.obj
 0001:000569b0       ??0dgSubMesh@dgCollisionCompoundBreakable@@QEAA@QEAVdgMemoryAllocator@@@Z 00000001800579b0 f   physics:dgCollisionCompoundBreakable.obj
 0001:00056a10       ??1dgSubMesh@dgCollisionCompoundBreakable@@QEAA@XZ 0000000180057a10 f   physics:dgCollisionCompoundBreakable.obj
 0001:00056a50       ?Serialize@dgSubMesh@dgCollisionCompoundBreakable@@QEBAXP6AXPEAXPEBX_K@ZQEAX@Z 0000000180057a50 f   physics:dgCollisionCompoundBreakable.obj
 0001:00056af0       ??0dgMesh@dgCollisionCompoundBreakable@@QEAA@QEAVdgMemoryAllocator@@@Z 0000000180057af0 f   physics:dgCollisionCompoundBreakable.obj
 0001:00056b50       ??1dgMesh@dgCollisionCompoundBreakable@@UEAA@XZ 0000000180057b50 f   physics:dgCollisionCompoundBreakable.obj
 0001:00056b90       ??0dgMesh@dgCollisionCompoundBreakable@@QEAA@QEAVdgMemoryAllocator@@P6AXPEAX1_K@ZQEAX@Z 0000000180057b90 f   physics:dgCollisionCompoundBreakable.obj
 0001:00056ce0       ?Serialize@dgMesh@dgCollisionCompoundBreakable@@QEBAXP6AXPEAXPEBX_K@ZQEAX@Z 0000000180057ce0 f   physics:dgCollisionCompoundBreakable.obj
 0001:00056d90       ?AddgSubMesh@dgMesh@dgCollisionCompoundBreakable@@QEAAPEAVdgSubMesh@2@HH@Z 0000000180057d90 f   physics:dgCollisionCompoundBreakable.obj
 0001:00056e60       ??0dgDebriNodeInfo@dgCollisionCompoundBreakable@@QEAA@XZ 0000000180057e60 f   physics:dgCollisionCompoundBreakable.obj
 0001:00056eb0       ??1dgDebriNodeInfo@dgCollisionCompoundBreakable@@QEAA@XZ 0000000180057eb0 f   physics:dgCollisionCompoundBreakable.obj
 0001:00056f10       ??0dgSharedNodeMesh@dgCollisionCompoundBreakable@@QEAA@XZ 0000000180057f10 f   physics:dgCollisionCompoundBreakable.obj
 0001:00056f30       ??1dgSharedNodeMesh@dgCollisionCompoundBreakable@@QEAA@XZ 0000000180057f30 f   physics:dgCollisionCompoundBreakable.obj
 0001:00056f40       ??0dgDebriGraph@dgCollisionCompoundBreakable@@QEAA@QEAVdgMemoryAllocator@@@Z 0000000180057f40 f   physics:dgCollisionCompoundBreakable.obj
 0001:00056f70       ??0dgDebriGraph@dgCollisionCompoundBreakable@@QEAA@QEAVdgMemoryAllocator@@P6AXPEAX1_K@ZQEAX@Z 0000000180057f70 f   physics:dgCollisionCompoundBreakable.obj
 0001:00057240       ??0dgDebriGraph@dgCollisionCompoundBreakable@@QEAA@AEBV01@@Z 0000000180058240 f   physics:dgCollisionCompoundBreakable.obj
 0001:000574d0       ??1dgDebriGraph@dgCollisionCompoundBreakable@@QEAA@XZ 00000001800584d0 f   physics:dgCollisionCompoundBreakable.obj
 0001:000574f0       ?Serialize@dgDebriGraph@dgCollisionCompoundBreakable@@QEBAXP6AXPEAXPEBX_K@ZQEAX@Z 00000001800584f0 f   physics:dgCollisionCompoundBreakable.obj
 0001:00057850       ?AddNode@dgDebriGraph@dgCollisionCompoundBreakable@@QEAAXAEAVdgFlatVertexArray@2@PEAVdgMeshEffect@@HHNN@Z 0000000180058850 f   physics:dgCollisionCompoundBreakable.obj
 0001:000578b0       ?AddMeshes@dgDebriGraph@dgCollisionCompoundBreakable@@QEAAXAEAVdgFlatVertexArray@2@HQEBQEBVdgMeshEffect@@QEBHQEBN2N@Z 00000001800588b0 f   physics:dgCollisionCompoundBreakable.obj
 0001:00057980       ??0dgCollisionCompoundBreakable@@QEAA@HQEBQEBVdgMeshEffect@@QEBHQEBN1HNPEAVdgWorld@@@Z 0000000180058980 f   physics:dgCollisionCompoundBreakable.obj
 0001:00058be0       ??0dgCollisionCompoundBreakable@@QEAA@AEBV0@@Z 0000000180059be0 f   physics:dgCollisionCompoundBreakable.obj
 0001:000592e0       ??0dgCollisionCompoundBreakable@@QEAA@QEAVdgWorld@@P6AXPEAX1_K@ZQEAX@Z 000000018005a2e0 f   physics:dgCollisionCompoundBreakable.obj
 0001:000595b0       ??1dgCollisionCompoundBreakable@@UEAA@XZ 000000018005a5b0 f   physics:dgCollisionCompoundBreakable.obj
 0001:00059670       ?LinkNodes@dgCollisionCompoundBreakable@@AEAAXXZ 000000018005a670 f   physics:dgCollisionCompoundBreakable.obj
 0001:000597d0       ?Serialize@dgCollisionCompoundBreakable@@EEBAXP6AXPEAXPEBX_K@ZQEAX@Z 000000018005a7d0 f   physics:dgCollisionCompoundBreakable.obj
 0001:000598e0       ?GetCollisionInfo@dgCollisionCompoundBreakable@@EEBAXPEAVdgCollisionInfo@@@Z 000000018005a8e0 f   physics:dgCollisionCompoundBreakable.obj
 0001:00059920       ?GetSegmentIndexStreamShort@dgCollisionCompoundBreakable@@QEBAHQEAVdgListNode@?$dgList@V?$dgGraphNode@VdgDebriNodeInfo@dgCollisionCompoundBreakable@@VdgSharedNodeMesh@2@@@@@PEAV2?$dgList@VdgSubMesh@dgCollisionCompoundBreakable@@@@QEAF@Z 000000018005a920 f   physics:dgCollisionCompoundBreakable.obj
 0001:00059af0       ?GetSegmentIndexStream@dgCollisionCompoundBreakable@@QEBAHQEAVdgListNode@?$dgList@V?$dgGraphNode@VdgDebriNodeInfo@dgCollisionCompoundBreakable@@VdgSharedNodeMesh@2@@@@@PEAV2?$dgList@VdgSubMesh@dgCollisionCompoundBreakable@@@@QEAH@Z 000000018005aaf0 f   physics:dgCollisionCompoundBreakable.obj
 0001:00059cc0       ?GetSegmentsInRadius@dgCollisionCompoundBreakable@@QEAAHAEBVdgVector@@NPEAPEAVdgListNode@?$dgList@V?$dgGraphNode@VdgDebriNodeInfo@dgCollisionCompoundBreakable@@VdgSharedNodeMesh@2@@@@@H@Z 000000018005acc0 f   physics:dgCollisionCompoundBreakable.obj
 0001:0005a120       ?EnumerateIslands@dgCollisionCompoundBreakable@@QEAAXXZ 000000018005b120 f   physics:dgCollisionCompoundBreakable.obj
 0001:0005a390       ?ResetAnchor@dgCollisionCompoundBreakable@@QEAAXXZ 000000018005b390 f   physics:dgCollisionCompoundBreakable.obj
 0001:0005a420       ?SetAnchoredParts@dgCollisionCompoundBreakable@@QEAAXHQEBVdgMatrix@@PEAPEBVdgCollision@@@Z 000000018005b420 f   physics:dgCollisionCompoundBreakable.obj
 0001:0005a870       ?DeleteComponent@dgCollisionCompoundBreakable@@QEAAXPEAVdgListNode@?$dgList@V?$dgGraphNode@VdgDebriNodeInfo@dgCollisionCompoundBreakable@@VdgSharedNodeMesh@2@@@@@@Z 000000018005b870 f   physics:dgCollisionCompoundBreakable.obj
 0001:0005ac30       ?CreateComponentBody@dgCollisionCompoundBreakable@@QEBAPEAVdgBody@@PEAVdgListNode@?$dgList@V?$dgGraphNode@VdgDebriNodeInfo@dgCollisionCompoundBreakable@@VdgSharedNodeMesh@2@@@@@@Z 000000018005bc30 f   physics:dgCollisionCompoundBreakable.obj
 0001:0005ac80       ?DeleteComponentBegin@dgCollisionCompoundBreakable@@QEAAXXZ 000000018005bc80 f   physics:dgCollisionCompoundBreakable.obj
 0001:0005acc0       ?DeleteComponentEnd@dgCollisionCompoundBreakable@@QEAAXXZ 000000018005bcc0 f   physics:dgCollisionCompoundBreakable.obj
 0001:0005b270       ??_GdgCollisionConvexIntance@dgCollisionCompoundBreakable@@UEAAPEAXI@Z 000000018005c270 f i physics:dgCollisionCompoundBreakable.obj
 0001:0005b270       ??_EdgCollisionConvexIntance@dgCollisionCompoundBreakable@@UEAAPEAXI@Z 000000018005c270 f i physics:dgCollisionCompoundBreakable.obj
 0001:0005b2b0       ??_GdgVertexBuffer@dgCollisionCompoundBreakable@@UEAAPEAXI@Z 000000018005c2b0 f i physics:dgCollisionCompoundBreakable.obj
 0001:0005b2b0       ??_EdgVertexBuffer@dgCollisionCompoundBreakable@@UEAAPEAXI@Z 000000018005c2b0 f i physics:dgCollisionCompoundBreakable.obj
 0001:0005b2f0       ??3dgVertexBuffer@dgCollisionCompoundBreakable@@SAXPEAX@Z 000000018005c2f0 f i physics:dgCollisionCompoundBreakable.obj
 0001:0005b310       ??_GdgMesh@dgCollisionCompoundBreakable@@UEAAPEAXI@Z 000000018005c310 f i physics:dgCollisionCompoundBreakable.obj
 0001:0005b310       ??_EdgMesh@dgCollisionCompoundBreakable@@UEAAPEAXI@Z 000000018005c310 f i physics:dgCollisionCompoundBreakable.obj
 0001:0005b350       ?SetAsTriggerVolume@dgCollision@@UEAAX_N@Z 000000018005c350 f i physics:dgCollisionCompoundBreakable.obj
 0001:0005b360       ?IsTriggerVolume@dgCollision@@UEBA_NXZ 000000018005c360 f i physics:dgCollisionCompoundBreakable.obj
 0001:0005b370       ??0dgFlatVertexArray@dgCollisionCompoundBreakable@@QEAA@QEAVdgMemoryAllocator@@@Z 000000018005c370 f i physics:dgCollisionCompoundBreakable.obj
 0001:0005b3b0       ??2dgVertexBuffer@dgCollisionCompoundBreakable@@SAPEAX_KQEAVdgMemoryAllocator@@@Z 000000018005c3b0 f i physics:dgCollisionCompoundBreakable.obj
 0001:0005b3e0       ??0dgIsland@dgCollisionCompoundBreakable@@QEAA@QEAVdgMemoryAllocator@@@Z 000000018005c3e0 f i physics:dgCollisionCompoundBreakable.obj
 0001:0005b410       ??_GdgCollisionCompoundBreakable@@UEAAPEAXI@Z 000000018005c410 f i physics:dgCollisionCompoundBreakable.obj
 0001:0005b410       ??_EdgCollisionCompoundBreakable@@UEAAPEAXI@Z 000000018005c410 f i physics:dgCollisionCompoundBreakable.obj
 0001:0005b450       ??1dgFlatVertexArray@dgCollisionCompoundBreakable@@QEAA@XZ 000000018005c450 f i physics:dgCollisionCompoundBreakable.obj
 0001:0005b470       ?Release@dgRefCounter@@QEAAHXZ 000000018005c470 f i physics:dgCollisionCompoundBreakable.obj
 0001:0005b4f0       ??1dgIsland@dgCollisionCompoundBreakable@@QEAA@XZ 000000018005c4f0 f i physics:dgCollisionCompoundBreakable.obj
 0001:0005b510       ??2?$dgList@VdgSubMesh@dgCollisionCompoundBreakable@@@@SAPEAX_KQEAVdgMemoryAllocator@@@Z 000000018005c510 f i physics:dgCollisionCompoundBreakable.obj
 0001:0005b540       ??3?$dgList@VdgSubMesh@dgCollisionCompoundBreakable@@@@SAXPEAX@Z 000000018005c540 f i physics:dgCollisionCompoundBreakable.obj
 0001:0005b560       ?GetInfo@dgTreeNode@?$dgTree@PEAVdgListNode@?$dgList@V?$dgGraphNode@VdgDebriNodeInfo@dgCollisionCompoundBreakable@@VdgSharedNodeMesh@2@@@@@PEAV12@@@QEAAAEAPEAVdgListNode@?$dgList@V?$dgGraphNode@VdgDebriNodeInfo@dgCollisionCompoundBreakable@@VdgSharedNodeMesh@2@@@@@XZ 000000018005c560 f i physics:dgCollisionCompoundBreakable.obj
 0001:0005b570       ?GetInfo@dgListNode@?$dgList@V?$dgGraphEdge@VdgDebriNodeInfo@dgCollisionCompoundBreakable@@VdgSharedNodeMesh@2@@@@@QEAAAEAV?$dgGraphEdge@VdgDebriNodeInfo@dgCollisionCompoundBreakable@@VdgSharedNodeMesh@2@@@XZ 000000018005c570 f i physics:dgCollisionCompoundBreakable.obj
 0001:0005b580       ?GetNext@dgListNode@?$dgList@V?$dgGraphEdge@VdgDebriNodeInfo@dgCollisionCompoundBreakable@@VdgSharedNodeMesh@2@@@@@QEBAPEAV12@XZ 000000018005c580 f i physics:dgCollisionCompoundBreakable.obj
 0001:0005b590       ?GetInfo@dgTreeNode@?$dgTree@HPEAVdgListNode@?$dgList@V?$dgGraphNode@VdgDebriNodeInfo@dgCollisionCompoundBreakable@@VdgSharedNodeMesh@2@@@@@@@QEAAAEAHXZ 000000018005c590 f i physics:dgCollisionCompoundBreakable.obj
 0001:0005b5a0       ?GetInfo@dgTreeNode@?$dgTree@VdgCompoundBreakableFilterData@dgCollisionCompoundBreakable@@PEAVdgConvexCollision@@@@QEAAAEAVdgCompoundBreakableFilterData@dgCollisionCompoundBreakable@@XZ 000000018005c5a0 f i physics:dgCollisionCompoundBreakable.obj
 0001:0005b5b0       ?GetInfo@dgListNode@?$dgList@PEAVdgListNode@?$dgList@V?$dgGraphNode@VdgDebriNodeInfo@dgCollisionCompoundBreakable@@VdgSharedNodeMesh@2@@@@@@@QEAAAEAPEAV1?$dgList@V?$dgGraphNode@VdgDebriNodeInfo@dgCollisionCompoundBreakable@@VdgSharedNodeMesh@2@@@@@XZ 000000018005c5b0 f i physics:dgCollisionCompoundBreakable.obj
 0001:0005b5c0       ?GetNext@dgListNode@?$dgList@PEAVdgListNode@?$dgList@V?$dgGraphNode@VdgDebriNodeInfo@dgCollisionCompoundBreakable@@VdgSharedNodeMesh@2@@@@@@@QEBAPEAV12@XZ 000000018005c5c0 f i physics:dgCollisionCompoundBreakable.obj
 0001:0005b5d0       ??0?$dgArray@VdgFlatVertex@dgCollisionCompoundBreakable@@@@QEAA@HQEAVdgMemoryAllocator@@@Z 000000018005c5d0 f i physics:dgCollisionCompoundBreakable.obj
 0001:0005b620       ??1?$dgArray@VdgFlatVertex@dgCollisionCompoundBreakable@@@@QEAA@XZ 000000018005c620 f i physics:dgCollisionCompoundBreakable.obj
 0001:0005b660       ??A?$dgArray@VdgFlatVertex@dgCollisionCompoundBreakable@@@@QEAAAEAVdgFlatVertex@dgCollisionCompoundBreakable@@H@Z 000000018005c660 f i physics:dgCollisionCompoundBreakable.obj
 0001:0005b6e0       ??0?$dgList@VdgSubMesh@dgCollisionCompoundBreakable@@@@QEAA@QEAVdgMemoryAllocator@@@Z 000000018005c6e0 f i physics:dgCollisionCompoundBreakable.obj
 0001:0005b730       ??1?$dgList@VdgSubMesh@dgCollisionCompoundBreakable@@@@QEAA@XZ 000000018005c730 f i physics:dgCollisionCompoundBreakable.obj
 0001:0005b750       ?GetAllocator@?$dgList@VdgSubMesh@dgCollisionCompoundBreakable@@@@QEBAPEAVdgMemoryAllocator@@XZ 000000018005c750 f i physics:dgCollisionCompoundBreakable.obj
 0001:0005b760       ?GetCount@?$dgList@VdgSubMesh@dgCollisionCompoundBreakable@@@@QEBAHXZ 000000018005c760 f i physics:dgCollisionCompoundBreakable.obj
 0001:0005b770       ?Append@?$dgList@VdgSubMesh@dgCollisionCompoundBreakable@@@@QEAAPEAVdgListNode@1@AEBVdgSubMesh@dgCollisionCompoundBreakable@@@Z 000000018005c770 f i physics:dgCollisionCompoundBreakable.obj
 0001:0005b870       ?GetAllocator@?$dgList@V?$dgGraphNode@VdgDebriNodeInfo@dgCollisionCompoundBreakable@@VdgSharedNodeMesh@2@@@@@QEBAPEAVdgMemoryAllocator@@XZ 000000018005c870 f i physics:dgCollisionCompoundBreakable.obj
 0001:0005b880       ??0?$dgGraph@VdgDebriNodeInfo@dgCollisionCompoundBreakable@@VdgSharedNodeMesh@2@@@QEAA@QEAVdgMemoryAllocator@@@Z 000000018005c880 f i physics:dgCollisionCompoundBreakable.obj
 0001:0005b8c0       ??1?$dgGraph@VdgDebriNodeInfo@dgCollisionCompoundBreakable@@VdgSharedNodeMesh@2@@@QEAA@XZ 000000018005c8c0 f i physics:dgCollisionCompoundBreakable.obj
 0001:0005b8e0       ?AddNode@?$dgGraph@VdgDebriNodeInfo@dgCollisionCompoundBreakable@@VdgSharedNodeMesh@2@@@QEAAPEAVdgListNode@?$dgList@V?$dgGraphNode@VdgDebriNodeInfo@dgCollisionCompoundBreakable@@VdgSharedNodeMesh@2@@@@@XZ 000000018005c8e0 f i physics:dgCollisionCompoundBreakable.obj
 0001:0005b960       ?DeleteNode@?$dgGraph@VdgDebriNodeInfo@dgCollisionCompoundBreakable@@VdgSharedNodeMesh@2@@@QEAAXQEAVdgListNode@?$dgList@V?$dgGraphNode@VdgDebriNodeInfo@dgCollisionCompoundBreakable@@VdgSharedNodeMesh@2@@@@@@Z 000000018005c960 f i physics:dgCollisionCompoundBreakable.obj
 0001:0005ba30       ??0?$dgList@PEAVdgListNode@?$dgList@V?$dgGraphNode@VdgDebriNodeInfo@dgCollisionCompoundBreakable@@VdgSharedNodeMesh@2@@@@@@@QEAA@QEAVdgMemoryAllocator@@@Z 000000018005ca30 f i physics:dgCollisionCompoundBreakable.obj
 0001:0005ba80       ??1?$dgList@PEAVdgListNode@?$dgList@V?$dgGraphNode@VdgDebriNodeInfo@dgCollisionCompoundBreakable@@VdgSharedNodeMesh@2@@@@@@@QEAA@XZ 000000018005ca80 f i physics:dgCollisionCompoundBreakable.obj
 0001:0005baa0       ?GetFirst@?$dgList@PEAVdgListNode@?$dgList@V?$dgGraphNode@VdgDebriNodeInfo@dgCollisionCompoundBreakable@@VdgSharedNodeMesh@2@@@@@@@QEBAPEAVdgListNode@1@XZ 000000018005caa0 f i physics:dgCollisionCompoundBreakable.obj
 0001:0005bab0       ?Append@?$dgList@PEAVdgListNode@?$dgList@V?$dgGraphNode@VdgDebriNodeInfo@dgCollisionCompoundBreakable@@VdgSharedNodeMesh@2@@@@@@@QEAAPEAVdgListNode@1@AEBQEAV2?$dgList@V?$dgGraphNode@VdgDebriNodeInfo@dgCollisionCompoundBreakable@@VdgSharedNodeMesh@2@@@@@@Z 000000018005cab0 f i physics:dgCollisionCompoundBreakable.obj
 0001:0005bbb0       ?Remove@?$dgList@PEAVdgListNode@?$dgList@V?$dgGraphNode@VdgDebriNodeInfo@dgCollisionCompoundBreakable@@VdgSharedNodeMesh@2@@@@@@@QEAAXAEBQEAVdgListNode@?$dgList@V?$dgGraphNode@VdgDebriNodeInfo@dgCollisionCompoundBreakable@@VdgSharedNodeMesh@2@@@@@@Z 000000018005cbb0 f i physics:dgCollisionCompoundBreakable.obj
 0001:0005bbf0       ?Remove@?$dgList@PEAVdgListNode@?$dgList@V?$dgGraphNode@VdgDebriNodeInfo@dgCollisionCompoundBreakable@@VdgSharedNodeMesh@2@@@@@@@QEAAXQEAVdgListNode@1@@Z 000000018005cbf0 f i physics:dgCollisionCompoundBreakable.obj
 0001:0005bc50       ?RemoveAll@?$dgList@PEAVdgListNode@?$dgList@V?$dgGraphNode@VdgDebriNodeInfo@dgCollisionCompoundBreakable@@VdgSharedNodeMesh@2@@@@@@@QEAAXXZ 000000018005cc50 f i physics:dgCollisionCompoundBreakable.obj
 0001:0005bd50       ?GetCount@?$dgList@V?$dgGraphEdge@VdgDebriNodeInfo@dgCollisionCompoundBreakable@@VdgSharedNodeMesh@2@@@@@QEBAHXZ 000000018005cd50 f i physics:dgCollisionCompoundBreakable.obj
 0001:0005bd60       ?GetFirst@?$dgList@V?$dgGraphEdge@VdgDebriNodeInfo@dgCollisionCompoundBreakable@@VdgSharedNodeMesh@2@@@@@QEBAPEAVdgListNode@1@XZ 000000018005cd60 f i physics:dgCollisionCompoundBreakable.obj
 0001:0005bd70       ?AddEdge@?$dgGraphNode@VdgDebriNodeInfo@dgCollisionCompoundBreakable@@VdgSharedNodeMesh@2@@@QEAAPEAVdgListNode@?$dgList@V?$dgGraphEdge@VdgDebriNodeInfo@dgCollisionCompoundBreakable@@VdgSharedNodeMesh@2@@@@@QEAV2?$dgList@V?$dgGraphNode@VdgDebriNodeInfo@dgCollisionCompoundBreakable@@VdgSharedNodeMesh@2@@@@@@Z 000000018005cd70 f i physics:dgCollisionCompoundBreakable.obj
 0001:0005bdb0       ?DeleteEdge@?$dgGraphNode@VdgDebriNodeInfo@dgCollisionCompoundBreakable@@VdgSharedNodeMesh@2@@@QEAAXQEAVdgListNode@?$dgList@V?$dgGraphEdge@VdgDebriNodeInfo@dgCollisionCompoundBreakable@@VdgSharedNodeMesh@2@@@@@@Z 000000018005cdb0 f i physics:dgCollisionCompoundBreakable.obj
 0001:0005be50       ??0?$dgStack@PEAVdgListNode@?$dgList@V?$dgGraphNode@VdgDebriNodeInfo@dgCollisionCompoundBreakable@@VdgSharedNodeMesh@2@@@@@@@QEAA@H@Z 000000018005ce50 f i physics:dgCollisionCompoundBreakable.obj
 0001:0005be90       ??1?$dgStack@PEAVdgListNode@?$dgList@V?$dgGraphNode@VdgDebriNodeInfo@dgCollisionCompoundBreakable@@VdgSharedNodeMesh@2@@@@@@@QEAA@XZ 000000018005ce90 f i physics:dgCollisionCompoundBreakable.obj
 0001:0005beb0       ??A?$dgStack@PEAVdgListNode@?$dgList@V?$dgGraphNode@VdgDebriNodeInfo@dgCollisionCompoundBreakable@@VdgSharedNodeMesh@2@@@@@@@QEAAAEAPEAVdgListNode@?$dgList@V?$dgGraphNode@VdgDebriNodeInfo@dgCollisionCompoundBreakable@@VdgSharedNodeMesh@2@@@@@H@Z 000000018005ceb0 f i physics:dgCollisionCompoundBreakable.obj
 0001:0005bf60       ??0?$dgTree@PEAVdgListNode@?$dgList@V?$dgGraphNode@VdgDebriNodeInfo@dgCollisionCompoundBreakable@@VdgSharedNodeMesh@2@@@@@PEAV12@@@QEAA@QEAVdgMemoryAllocator@@@Z 000000018005cf60 f i physics:dgCollisionCompoundBreakable.obj
 0001:0005bfa0       ??1?$dgTree@PEAVdgListNode@?$dgList@V?$dgGraphNode@VdgDebriNodeInfo@dgCollisionCompoundBreakable@@VdgSharedNodeMesh@2@@@@@PEAV12@@@QEAA@XZ 000000018005cfa0 f i physics:dgCollisionCompoundBreakable.obj
 0001:0005bfc0       ?Find@?$dgTree@PEAVdgListNode@?$dgList@V?$dgGraphNode@VdgDebriNodeInfo@dgCollisionCompoundBreakable@@VdgSharedNodeMesh@2@@@@@PEAV12@@@QEBAPEAVdgTreeNode@1@PEAVdgListNode@?$dgList@V?$dgGraphNode@VdgDebriNodeInfo@dgCollisionCompoundBreakable@@VdgSharedNodeMesh@2@@@@@@Z 000000018005cfc0 f i physics:dgCollisionCompoundBreakable.obj
 0001:0005c140       ?Insert@?$dgTree@PEAVdgListNode@?$dgList@V?$dgGraphNode@VdgDebriNodeInfo@dgCollisionCompoundBreakable@@VdgSharedNodeMesh@2@@@@@PEAV12@@@QEAAPEAVdgTreeNode@1@AEBQEAVdgListNode@?$dgList@V?$dgGraphNode@VdgDebriNodeInfo@dgCollisionCompoundBreakable@@VdgSharedNodeMesh@2@@@@@PEAV34@@Z 000000018005d140 f i physics:dgCollisionCompoundBreakable.obj
 0001:0005c190       ??0?$dgTree@HPEAVdgListNode@?$dgList@V?$dgGraphNode@VdgDebriNodeInfo@dgCollisionCompoundBreakable@@VdgSharedNodeMesh@2@@@@@@@QEAA@QEAVdgMemoryAllocator@@@Z 000000018005d190 f i physics:dgCollisionCompoundBreakable.obj
 0001:0005c1d0       ??1?$dgTree@HPEAVdgListNode@?$dgList@V?$dgGraphNode@VdgDebriNodeInfo@dgCollisionCompoundBreakable@@VdgSharedNodeMesh@2@@@@@@@QEAA@XZ 000000018005d1d0 f i physics:dgCollisionCompoundBreakable.obj
 0001:0005c1f0       ?Find@?$dgTree@HPEAVdgListNode@?$dgList@V?$dgGraphNode@VdgDebriNodeInfo@dgCollisionCompoundBreakable@@VdgSharedNodeMesh@2@@@@@@@QEBAPEAVdgTreeNode@1@PEAVdgListNode@?$dgList@V?$dgGraphNode@VdgDebriNodeInfo@dgCollisionCompoundBreakable@@VdgSharedNodeMesh@2@@@@@@Z 000000018005d1f0 f i physics:dgCollisionCompoundBreakable.obj
 0001:0005c370       ?Insert@?$dgTree@HPEAVdgListNode@?$dgList@V?$dgGraphNode@VdgDebriNodeInfo@dgCollisionCompoundBreakable@@VdgSharedNodeMesh@2@@@@@@@QEAAPEAVdgTreeNode@1@AEBHPEAVdgListNode@?$dgList@V?$dgGraphNode@VdgDebriNodeInfo@dgCollisionCompoundBreakable@@VdgSharedNodeMesh@2@@@@@@Z 000000018005d370 f i physics:dgCollisionCompoundBreakable.obj
 0001:0005c3c0       ??0?$dgStack@PEAVdgConvexCollision@@@@QEAA@H@Z 000000018005d3c0 f i physics:dgCollisionCompoundBreakable.obj
 0001:0005c400       ??1?$dgStack@PEAVdgConvexCollision@@@@QEAA@XZ 000000018005d400 f i physics:dgCollisionCompoundBreakable.obj
 0001:0005c420       ??A?$dgStack@PEAVdgConvexCollision@@@@QEAAAEAPEAVdgConvexCollision@@H@Z 000000018005d420 f i physics:dgCollisionCompoundBreakable.obj
 0001:0005c4d0       ??0?$dgTree@VdgCompoundBreakableFilterData@dgCollisionCompoundBreakable@@PEAVdgConvexCollision@@@@QEAA@QEAVdgMemoryAllocator@@@Z 000000018005d4d0 f i physics:dgCollisionCompoundBreakable.obj
 0001:0005c510       ??1?$dgTree@VdgCompoundBreakableFilterData@dgCollisionCompoundBreakable@@PEAVdgConvexCollision@@@@QEAA@XZ 000000018005d510 f i physics:dgCollisionCompoundBreakable.obj
 0001:0005c530       ?Find@?$dgTree@VdgCompoundBreakableFilterData@dgCollisionCompoundBreakable@@PEAVdgConvexCollision@@@@QEBAPEAVdgTreeNode@1@PEAVdgConvexCollision@@@Z 000000018005d530 f i physics:dgCollisionCompoundBreakable.obj
 0001:0005c6b0       ?Insert@?$dgTree@VdgCompoundBreakableFilterData@dgCollisionCompoundBreakable@@PEAVdgConvexCollision@@@@QEAAPEAVdgTreeNode@1@AEBVdgCompoundBreakableFilterData@dgCollisionCompoundBreakable@@PEAVdgConvexCollision@@@Z 000000018005d6b0 f i physics:dgCollisionCompoundBreakable.obj
 0001:0005c700       ??_GdgListNode@?$dgList@PEAVdgListNode@?$dgList@V?$dgGraphNode@VdgDebriNodeInfo@dgCollisionCompoundBreakable@@VdgSharedNodeMesh@2@@@@@@@AEAAPEAXI@Z 000000018005d700 f i physics:dgCollisionCompoundBreakable.obj
 0001:0005c740       ??2dgListNode@?$dgList@VdgSubMesh@dgCollisionCompoundBreakable@@@@CAPEAX_KQEAVdgMemoryAllocator@@@Z 000000018005d740 f i physics:dgCollisionCompoundBreakable.obj
 0001:0005c770       ??0dgListNode@?$dgList@VdgSubMesh@dgCollisionCompoundBreakable@@@@AEAA@AEBVdgSubMesh@dgCollisionCompoundBreakable@@QEAV01@1@Z 000000018005d770 f i physics:dgCollisionCompoundBreakable.obj
 0001:0005c860       ?GetLeft@dgTreeNode@?$dgTree@PEAVdgListNode@?$dgList@V?$dgGraphNode@VdgDebriNodeInfo@dgCollisionCompoundBreakable@@VdgSharedNodeMesh@2@@@@@PEAV12@@@AEBAPEAV12@XZ 000000018005d860 f i physics:dgCollisionCompoundBreakable.obj
 0001:0005c870       ?GetRight@dgTreeNode@?$dgTree@PEAVdgListNode@?$dgList@V?$dgGraphNode@VdgDebriNodeInfo@dgCollisionCompoundBreakable@@VdgSharedNodeMesh@2@@@@@PEAV12@@@AEBAPEAV12@XZ 000000018005d870 f i physics:dgCollisionCompoundBreakable.obj
 0001:0005c880       ?GetLeft@dgTreeNode@?$dgTree@HPEAVdgListNode@?$dgList@V?$dgGraphNode@VdgDebriNodeInfo@dgCollisionCompoundBreakable@@VdgSharedNodeMesh@2@@@@@@@AEBAPEAV12@XZ 000000018005d880 f i physics:dgCollisionCompoundBreakable.obj
 0001:0005c890       ?GetRight@dgTreeNode@?$dgTree@HPEAVdgListNode@?$dgList@V?$dgGraphNode@VdgDebriNodeInfo@dgCollisionCompoundBreakable@@VdgSharedNodeMesh@2@@@@@@@AEBAPEAV12@XZ 000000018005d890 f i physics:dgCollisionCompoundBreakable.obj
 0001:0005c8a0       ?GetLeft@dgTreeNode@?$dgTree@VdgCompoundBreakableFilterData@dgCollisionCompoundBreakable@@PEAVdgConvexCollision@@@@AEBAPEAV12@XZ 000000018005d8a0 f i physics:dgCollisionCompoundBreakable.obj
 0001:0005c8b0       ?GetRight@dgTreeNode@?$dgTree@VdgCompoundBreakableFilterData@dgCollisionCompoundBreakable@@PEAVdgConvexCollision@@@@AEBAPEAV12@XZ 000000018005d8b0 f i physics:dgCollisionCompoundBreakable.obj
 0001:0005c8c0       ??2dgListNode@?$dgList@PEAVdgListNode@?$dgList@V?$dgGraphNode@VdgDebriNodeInfo@dgCollisionCompoundBreakable@@VdgSharedNodeMesh@2@@@@@@@CAPEAX_KQEAVdgMemoryAllocator@@@Z 000000018005d8c0 f i physics:dgCollisionCompoundBreakable.obj
 0001:0005c8f0       ??3dgListNode@?$dgList@PEAVdgListNode@?$dgList@V?$dgGraphNode@VdgDebriNodeInfo@dgCollisionCompoundBreakable@@VdgSharedNodeMesh@2@@@@@@@CAXPEAX@Z 000000018005d8f0 f i physics:dgCollisionCompoundBreakable.obj
 0001:0005c910       ??0dgListNode@?$dgList@PEAVdgListNode@?$dgList@V?$dgGraphNode@VdgDebriNodeInfo@dgCollisionCompoundBreakable@@VdgSharedNodeMesh@2@@@@@@@AEAA@AEBQEAV0?$dgList@V?$dgGraphNode@VdgDebriNodeInfo@dgCollisionCompoundBreakable@@VdgSharedNodeMesh@2@@@@@QEAV01@1@Z 000000018005d910 f i physics:dgCollisionCompoundBreakable.obj
 0001:0005c9e0       ??1dgListNode@?$dgList@PEAVdgListNode@?$dgList@V?$dgGraphNode@VdgDebriNodeInfo@dgCollisionCompoundBreakable@@VdgSharedNodeMesh@2@@@@@@@AEAA@XZ 000000018005d9e0 f i physics:dgCollisionCompoundBreakable.obj
 0001:0005c9f0       ?Unlink@dgListNode@?$dgList@PEAVdgListNode@?$dgList@V?$dgGraphNode@VdgDebriNodeInfo@dgCollisionCompoundBreakable@@VdgSharedNodeMesh@2@@@@@@@AEAAXXZ 000000018005d9f0 f i physics:dgCollisionCompoundBreakable.obj
 0001:0005ca60       ?Resize@?$dgArray@VdgFlatVertex@dgCollisionCompoundBreakable@@@@QEBAXH@Z 000000018005da60 f i physics:dgCollisionCompoundBreakable.obj
 0001:0005cd00       ?RemoveAll@?$dgList@VdgSubMesh@dgCollisionCompoundBreakable@@@@QEAAXXZ 000000018005dd00 f i physics:dgCollisionCompoundBreakable.obj
 0001:0005ce00       ??0?$dgList@V?$dgGraphNode@VdgDebriNodeInfo@dgCollisionCompoundBreakable@@VdgSharedNodeMesh@2@@@@@QEAA@QEAVdgMemoryAllocator@@@Z 000000018005de00 f i physics:dgCollisionCompoundBreakable.obj
 0001:0005ce50       ??1?$dgList@V?$dgGraphNode@VdgDebriNodeInfo@dgCollisionCompoundBreakable@@VdgSharedNodeMesh@2@@@@@QEAA@XZ 000000018005de50 f i physics:dgCollisionCompoundBreakable.obj
 0001:0005ce70       ?Append@?$dgList@V?$dgGraphNode@VdgDebriNodeInfo@dgCollisionCompoundBreakable@@VdgSharedNodeMesh@2@@@@@QEAAPEAVdgListNode@1@XZ 000000018005de70 f i physics:dgCollisionCompoundBreakable.obj
 0001:0005cf60       ?Remove@?$dgList@V?$dgGraphNode@VdgDebriNodeInfo@dgCollisionCompoundBreakable@@VdgSharedNodeMesh@2@@@@@QEAAXQEAVdgListNode@1@@Z 000000018005df60 f i physics:dgCollisionCompoundBreakable.obj
 0001:0005cfc0       ?SetAllocator@?$dgList@V?$dgGraphEdge@VdgDebriNodeInfo@dgCollisionCompoundBreakable@@VdgSharedNodeMesh@2@@@@@QEAAXQEAVdgMemoryAllocator@@@Z 000000018005dfc0 f i physics:dgCollisionCompoundBreakable.obj
 0001:0005cff0       ?Append@?$dgList@V?$dgGraphEdge@VdgDebriNodeInfo@dgCollisionCompoundBreakable@@VdgSharedNodeMesh@2@@@@@QEAAPEAVdgListNode@1@XZ 000000018005dff0 f i physics:dgCollisionCompoundBreakable.obj
 0001:0005d0e0       ?Remove@?$dgList@V?$dgGraphEdge@VdgDebriNodeInfo@dgCollisionCompoundBreakable@@VdgSharedNodeMesh@2@@@@@QEAAXQEAVdgListNode@1@@Z 000000018005e0e0 f i physics:dgCollisionCompoundBreakable.obj
 0001:0005d140       ?Find@?$dgList@PEAVdgListNode@?$dgList@V?$dgGraphNode@VdgDebriNodeInfo@dgCollisionCompoundBreakable@@VdgSharedNodeMesh@2@@@@@@@QEBAPEAVdgListNode@1@AEBQEAV2?$dgList@V?$dgGraphNode@VdgDebriNodeInfo@dgCollisionCompoundBreakable@@VdgSharedNodeMesh@2@@@@@@Z 000000018005e140 f i physics:dgCollisionCompoundBreakable.obj
 0001:0005d1a0       ?Unlink@?$dgList@PEAVdgListNode@?$dgList@V?$dgGraphNode@VdgDebriNodeInfo@dgCollisionCompoundBreakable@@VdgSharedNodeMesh@2@@@@@@@QEAAXQEAVdgListNode@1@@Z 000000018005e1a0 f i physics:dgCollisionCompoundBreakable.obj
 0001:0005d290       ?DeleteHalfEdge@?$dgGraphNode@VdgDebriNodeInfo@dgCollisionCompoundBreakable@@VdgSharedNodeMesh@2@@@QEAAXQEAVdgListNode@?$dgList@V?$dgGraphEdge@VdgDebriNodeInfo@dgCollisionCompoundBreakable@@VdgSharedNodeMesh@2@@@@@@Z 000000018005e290 f i physics:dgCollisionCompoundBreakable.obj
 0001:0005d2c0       ?Insert@?$dgTree@PEAVdgListNode@?$dgList@V?$dgGraphNode@VdgDebriNodeInfo@dgCollisionCompoundBreakable@@VdgSharedNodeMesh@2@@@@@PEAV12@@@QEAAPEAVdgTreeNode@1@AEBQEAVdgListNode@?$dgList@V?$dgGraphNode@VdgDebriNodeInfo@dgCollisionCompoundBreakable@@VdgSharedNodeMesh@2@@@@@PEAV34@AEA_N@Z 000000018005e2c0 f i physics:dgCollisionCompoundBreakable.obj
 0001:0005d580       ?RemoveAll@?$dgTree@PEAVdgListNode@?$dgList@V?$dgGraphNode@VdgDebriNodeInfo@dgCollisionCompoundBreakable@@VdgSharedNodeMesh@2@@@@@PEAV12@@@QEAAXXZ 000000018005e580 f i physics:dgCollisionCompoundBreakable.obj
 0001:0005d5c0       ?CompareKeys@?$dgTree@PEAVdgListNode@?$dgList@V?$dgGraphNode@VdgDebriNodeInfo@dgCollisionCompoundBreakable@@VdgSharedNodeMesh@2@@@@@PEAV12@@@AEBAHAEBQEAVdgListNode@?$dgList@V?$dgGraphNode@VdgDebriNodeInfo@dgCollisionCompoundBreakable@@VdgSharedNodeMesh@2@@@@@0@Z 000000018005e5c0 f i physics:dgCollisionCompoundBreakable.obj
 0001:0005d610       ?Insert@?$dgTree@HPEAVdgListNode@?$dgList@V?$dgGraphNode@VdgDebriNodeInfo@dgCollisionCompoundBreakable@@VdgSharedNodeMesh@2@@@@@@@QEAAPEAVdgTreeNode@1@AEBHPEAVdgListNode@?$dgList@V?$dgGraphNode@VdgDebriNodeInfo@dgCollisionCompoundBreakable@@VdgSharedNodeMesh@2@@@@@AEA_N@Z 000000018005e610 f i physics:dgCollisionCompoundBreakable.obj
 0001:0005d8d0       ?RemoveAll@?$dgTree@HPEAVdgListNode@?$dgList@V?$dgGraphNode@VdgDebriNodeInfo@dgCollisionCompoundBreakable@@VdgSharedNodeMesh@2@@@@@@@QEAAXXZ 000000018005e8d0 f i physics:dgCollisionCompoundBreakable.obj
 0001:0005d910       ?CompareKeys@?$dgTree@HPEAVdgListNode@?$dgList@V?$dgGraphNode@VdgDebriNodeInfo@dgCollisionCompoundBreakable@@VdgSharedNodeMesh@2@@@@@@@AEBAHAEBQEAVdgListNode@?$dgList@V?$dgGraphNode@VdgDebriNodeInfo@dgCollisionCompoundBreakable@@VdgSharedNodeMesh@2@@@@@0@Z 000000018005e910 f i physics:dgCollisionCompoundBreakable.obj
 0001:0005d960       ?Insert@?$dgTree@VdgCompoundBreakableFilterData@dgCollisionCompoundBreakable@@PEAVdgConvexCollision@@@@QEAAPEAVdgTreeNode@1@AEBVdgCompoundBreakableFilterData@dgCollisionCompoundBreakable@@PEAVdgConvexCollision@@AEA_N@Z 000000018005e960 f i physics:dgCollisionCompoundBreakable.obj
 0001:0005dc20       ?RemoveAll@?$dgTree@VdgCompoundBreakableFilterData@dgCollisionCompoundBreakable@@PEAVdgConvexCollision@@@@QEAAXXZ 000000018005ec20 f i physics:dgCollisionCompoundBreakable.obj
 0001:0005dc60       ?CompareKeys@?$dgTree@VdgCompoundBreakableFilterData@dgCollisionCompoundBreakable@@PEAVdgConvexCollision@@@@AEBAHAEBQEAVdgConvexCollision@@0@Z 000000018005ec60 f i physics:dgCollisionCompoundBreakable.obj
 0001:0005dcb0       ??_GdgListNode@?$dgList@VdgSubMesh@dgCollisionCompoundBreakable@@@@AEAAPEAXI@Z 000000018005ecb0 f i physics:dgCollisionCompoundBreakable.obj
 0001:0005dcf0       ??_GdgListNode@?$dgList@V?$dgGraphNode@VdgDebriNodeInfo@dgCollisionCompoundBreakable@@VdgSharedNodeMesh@2@@@@@AEAAPEAXI@Z 000000018005ecf0 f i physics:dgCollisionCompoundBreakable.obj
 0001:0005dd30       ??_GdgListNode@?$dgList@V?$dgGraphEdge@VdgDebriNodeInfo@dgCollisionCompoundBreakable@@VdgSharedNodeMesh@2@@@@@AEAAPEAXI@Z 000000018005ed30 f i physics:dgCollisionCompoundBreakable.obj
 0001:0005dd70       ??2dgListNode@?$dgList@V?$dgGraphNode@VdgDebriNodeInfo@dgCollisionCompoundBreakable@@VdgSharedNodeMesh@2@@@@@CAPEAX_KQEAVdgMemoryAllocator@@@Z 000000018005ed70 f i physics:dgCollisionCompoundBreakable.obj
 0001:0005dda0       ??3dgListNode@?$dgList@V?$dgGraphNode@VdgDebriNodeInfo@dgCollisionCompoundBreakable@@VdgSharedNodeMesh@2@@@@@CAXPEAX@Z 000000018005eda0 f i physics:dgCollisionCompoundBreakable.obj
 0001:0005ddc0       ??0dgListNode@?$dgList@V?$dgGraphNode@VdgDebriNodeInfo@dgCollisionCompoundBreakable@@VdgSharedNodeMesh@2@@@@@AEAA@QEAV01@0@Z 000000018005edc0 f i physics:dgCollisionCompoundBreakable.obj
 0001:0005de80       ??1dgListNode@?$dgList@V?$dgGraphNode@VdgDebriNodeInfo@dgCollisionCompoundBreakable@@VdgSharedNodeMesh@2@@@@@AEAA@XZ 000000018005ee80 f i physics:dgCollisionCompoundBreakable.obj
 0001:0005dea0       ??3dgListNode@?$dgList@VdgSubMesh@dgCollisionCompoundBreakable@@@@CAXPEAX@Z 000000018005eea0 f i physics:dgCollisionCompoundBreakable.obj
 0001:0005dec0       ??1dgListNode@?$dgList@VdgSubMesh@dgCollisionCompoundBreakable@@@@AEAA@XZ 000000018005eec0 f i physics:dgCollisionCompoundBreakable.obj
 0001:0005dee0       ?Unlink@dgListNode@?$dgList@VdgSubMesh@dgCollisionCompoundBreakable@@@@AEAAXXZ 000000018005eee0 f i physics:dgCollisionCompoundBreakable.obj
 0001:0005df50       ??0dgTreeNode@?$dgTree@PEAVdgListNode@?$dgList@V?$dgGraphNode@VdgDebriNodeInfo@dgCollisionCompoundBreakable@@VdgSharedNodeMesh@2@@@@@PEAV12@@@AEAA@AEBQEAVdgListNode@?$dgList@V?$dgGraphNode@VdgDebriNodeInfo@dgCollisionCompoundBreakable@@VdgSharedNodeMesh@2@@@@@0PEAV01@@Z 000000018005ef50 f i physics:dgCollisionCompoundBreakable.obj
 0001:0005dff0       ??2dgListNode@?$dgList@V?$dgGraphEdge@VdgDebriNodeInfo@dgCollisionCompoundBreakable@@VdgSharedNodeMesh@2@@@@@CAPEAX_KQEAVdgMemoryAllocator@@@Z 000000018005eff0 f i physics:dgCollisionCompoundBreakable.obj
 0001:0005e020       ??3dgListNode@?$dgList@V?$dgGraphEdge@VdgDebriNodeInfo@dgCollisionCompoundBreakable@@VdgSharedNodeMesh@2@@@@@CAXPEAX@Z 000000018005f020 f i physics:dgCollisionCompoundBreakable.obj
 0001:0005e040       ??0dgListNode@?$dgList@V?$dgGraphEdge@VdgDebriNodeInfo@dgCollisionCompoundBreakable@@VdgSharedNodeMesh@2@@@@@AEAA@QEAV01@0@Z 000000018005f040 f i physics:dgCollisionCompoundBreakable.obj
 0001:0005e100       ??1dgListNode@?$dgList@V?$dgGraphEdge@VdgDebriNodeInfo@dgCollisionCompoundBreakable@@VdgSharedNodeMesh@2@@@@@AEAA@XZ 000000018005f100 f i physics:dgCollisionCompoundBreakable.obj
 0001:0005e120       ??0dgTreeNode@?$dgTree@HPEAVdgListNode@?$dgList@V?$dgGraphNode@VdgDebriNodeInfo@dgCollisionCompoundBreakable@@VdgSharedNodeMesh@2@@@@@@@AEAA@AEBHAEBQEAVdgListNode@?$dgList@V?$dgGraphNode@VdgDebriNodeInfo@dgCollisionCompoundBreakable@@VdgSharedNodeMesh@2@@@@@PEAV01@@Z 000000018005f120 f i physics:dgCollisionCompoundBreakable.obj
 0001:0005e1c0       ??0dgTreeNode@?$dgTree@VdgCompoundBreakableFilterData@dgCollisionCompoundBreakable@@PEAVdgConvexCollision@@@@AEAA@AEBVdgCompoundBreakableFilterData@dgCollisionCompoundBreakable@@AEBQEAVdgConvexCollision@@PEAV01@@Z 000000018005f1c0 f i physics:dgCollisionCompoundBreakable.obj
 0001:0005e270       ?GetPrev@dgListNode@?$dgList@PEAVdgListNode@?$dgList@V?$dgGraphNode@VdgDebriNodeInfo@dgCollisionCompoundBreakable@@VdgSharedNodeMesh@2@@@@@@@QEBAPEAV12@XZ 000000018005f270 f i physics:dgCollisionCompoundBreakable.obj
 0001:0005e280       ?RemoveAll@?$dgList@V?$dgGraphNode@VdgDebriNodeInfo@dgCollisionCompoundBreakable@@VdgSharedNodeMesh@2@@@@@QEAAXXZ 000000018005f280 f i physics:dgCollisionCompoundBreakable.obj
 0001:0005e380       ?Unlink@?$dgList@V?$dgGraphNode@VdgDebriNodeInfo@dgCollisionCompoundBreakable@@VdgSharedNodeMesh@2@@@@@QEAAXQEAVdgListNode@1@@Z 000000018005f380 f i physics:dgCollisionCompoundBreakable.obj
 0001:0005e470       ?Unlink@?$dgList@V?$dgGraphEdge@VdgDebriNodeInfo@dgCollisionCompoundBreakable@@VdgSharedNodeMesh@2@@@@@QEAAXQEAVdgListNode@1@@Z 000000018005f470 f i physics:dgCollisionCompoundBreakable.obj
 0001:0005e560       ??0?$dgGraphNode@VdgDebriNodeInfo@dgCollisionCompoundBreakable@@VdgSharedNodeMesh@2@@@QEAA@XZ 000000018005f560 f i physics:dgCollisionCompoundBreakable.obj
 0001:0005e590       ??1?$dgGraphNode@VdgDebriNodeInfo@dgCollisionCompoundBreakable@@VdgSharedNodeMesh@2@@@QEAA@XZ 000000018005f590 f i physics:dgCollisionCompoundBreakable.obj
 0001:0005e5c0       ??0?$dgGraphEdge@VdgDebriNodeInfo@dgCollisionCompoundBreakable@@VdgSharedNodeMesh@2@@@QEAA@XZ 000000018005f5c0 f i physics:dgCollisionCompoundBreakable.obj
 0001:0005e5f0       ??1?$dgGraphEdge@VdgDebriNodeInfo@dgCollisionCompoundBreakable@@VdgSharedNodeMesh@2@@@QEAA@XZ 000000018005f5f0 f i physics:dgCollisionCompoundBreakable.obj
 0001:0005e610       ?Unlink@dgListNode@?$dgList@V?$dgGraphNode@VdgDebriNodeInfo@dgCollisionCompoundBreakable@@VdgSharedNodeMesh@2@@@@@AEAAXXZ 000000018005f610 f i physics:dgCollisionCompoundBreakable.obj
 0001:0005e680       ?GetPrev@dgListNode@?$dgList@V?$dgGraphNode@VdgDebriNodeInfo@dgCollisionCompoundBreakable@@VdgSharedNodeMesh@2@@@@@QEBAPEAV12@XZ 000000018005f680 f i physics:dgCollisionCompoundBreakable.obj
 0001:0005e690       ?Unlink@dgListNode@?$dgList@V?$dgGraphEdge@VdgDebriNodeInfo@dgCollisionCompoundBreakable@@VdgSharedNodeMesh@2@@@@@AEAAXXZ 000000018005f690 f i physics:dgCollisionCompoundBreakable.obj
 0001:0005e700       ?GetPrev@dgListNode@?$dgList@V?$dgGraphEdge@VdgDebriNodeInfo@dgCollisionCompoundBreakable@@VdgSharedNodeMesh@2@@@@@QEBAPEAV12@XZ 000000018005f700 f i physics:dgCollisionCompoundBreakable.obj
 0001:0005e710       ??0?$dgList@V?$dgGraphEdge@VdgDebriNodeInfo@dgCollisionCompoundBreakable@@VdgSharedNodeMesh@2@@@@@QEAA@QEAVdgMemoryAllocator@@@Z 000000018005f710 f i physics:dgCollisionCompoundBreakable.obj
 0001:0005e760       ??1?$dgList@V?$dgGraphEdge@VdgDebriNodeInfo@dgCollisionCompoundBreakable@@VdgSharedNodeMesh@2@@@@@QEAA@XZ 000000018005f760 f i physics:dgCollisionCompoundBreakable.obj
 0001:0005e780       ?RemoveAll@?$dgList@V?$dgGraphEdge@VdgDebriNodeInfo@dgCollisionCompoundBreakable@@VdgSharedNodeMesh@2@@@@@QEAAXXZ 000000018005f780 f i physics:dgCollisionCompoundBreakable.obj
 0001:0005e880       ??0dgCollisionConvexHull@@QEAA@QEAVdgMemoryAllocator@@IHHNPEBNAEBVdgMatrix@@@Z 000000018005f880 f   physics:dgCollisionConvexHull.obj
 0001:0005efc0       ??0dgCollisionConvexHull@@QEAA@QEAVdgWorld@@P6AXPEAX1_K@ZQEAX@Z 000000018005ffc0 f   physics:dgCollisionConvexHull.obj
 0001:0005f2f0       ??1dgCollisionConvexHull@@UEAA@XZ 00000001800602f0 f   physics:dgCollisionConvexHull.obj
 0001:0005f350       ?GetFaceIndices@dgCollisionConvexHull@@QEBAHHPEAH@Z 0000000180060350 f   physics:dgCollisionConvexHull.obj
 0001:0005f3e0       ?FaceNormal@dgCollisionConvexHull@@AEBA?AVdgBigVector@@PEBVdgEdge@@QEBVdgVector@@@Z 00000001800603e0 f   physics:dgCollisionConvexHull.obj
 0001:0005f830       ?RemoveCoplanarEdge@dgCollisionConvexHull@@AEBA_NAEAVdgPolyhedra@@QEAVdgVector@@@Z 0000000180060830 f   physics:dgCollisionConvexHull.obj
 0001:00060130       ?CheckConvex@dgCollisionConvexHull@@AEBA_NAEAVdgPolyhedra@@PEBVdgVector@@@Z 0000000180061130 f   physics:dgCollisionConvexHull.obj
 0001:00060560       ?Create@dgCollisionConvexHull@@AEAA_NHHQEBNN@Z 0000000180061560 f   physics:dgCollisionConvexHull.obj
 0001:00060fe0       ?CalculateSignature@dgCollisionConvexHull@@EEBAHXZ 0000000180061fe0 f   physics:dgCollisionConvexHull.obj
 0001:00061040       ?SetBreakImpulse@dgCollisionConvexHull@@EEAAXN@Z 0000000180062040 f   physics:dgCollisionConvexHull.obj
 0001:00061070       ?GetBreakImpulse@dgCollisionConvexHull@@EEBANXZ 0000000180062070 f   physics:dgCollisionConvexHull.obj
 0001:00061090       ?SetCollisionBBox@dgCollisionConvexHull@@EEAAXAEBVdgVector@@0@Z 0000000180062090 f   physics:dgCollisionConvexHull.obj
 0001:000610f0       ?DebugCollision@dgCollisionConvexHull@@EEBAXAEBVdgMatrix@@P6AXPEAXHPEBNH@ZQEAX@Z 00000001800620f0 f   physics:dgCollisionConvexHull.obj
 0001:000612a0       ?GetCollisionInfo@dgCollisionConvexHull@@EEBAXPEAVdgCollisionInfo@@@Z 00000001800622a0 f   physics:dgCollisionConvexHull.obj
 0001:00061390       ?Serialize@dgCollisionConvexHull@@EEBAXP6AXPEAXPEBX_K@ZQEAX@Z 0000000180062390 f   physics:dgCollisionConvexHull.obj
 0001:000615f0       ?OOBBTest@dgCollisionConvexHull@@EEBA_NAEBVdgMatrix@@QEBVdgConvexCollision@@QEAX@Z 00000001800625f0 f   physics:dgCollisionConvexHull.obj
 0001:00061b40       ??_EdgCollisionConvexHull@@UEAAPEAXI@Z 0000000180062b40 f i physics:dgCollisionConvexHull.obj
 0001:00061b40       ??_GdgCollisionConvexHull@@UEAAPEAXI@Z 0000000180062b40 f i physics:dgCollisionConvexHull.obj
 0001:00061b80       ??0dgPlaneLocation@@QEAA@XZ 0000000180062b80 f i physics:dgCollisionConvexHull.obj
 0001:00061ba0       ??0dgBigVector@@QEAA@PEBN@Z 0000000180062ba0 f i physics:dgCollisionConvexHull.obj
 0001:00061c90       ??0dgBigVector@@QEAA@NNNN@Z 0000000180062c90 f i physics:dgCollisionConvexHull.obj
 0001:00061d80       ??0dgPlane@@QEAA@XZ        0000000180062d80 f i physics:dgCollisionConvexHull.obj
 0001:00061da0       ??0dgPlane@@QEAA@AEBVdgVector@@N@Z 0000000180062da0 f i physics:dgCollisionConvexHull.obj
 0001:00061e00       ??0dgBigPlane@@QEAA@AEBVdgBigVector@@N@Z 0000000180062e00 f i physics:dgCollisionConvexHull.obj
 0001:00061e60       ?Evalue@dgBigPlane@@QEBANAEBVdgVector@@@Z 0000000180062e60 f i physics:dgCollisionConvexHull.obj
 0001:00061ec0       ?Scale@dgPlane@@QEBA?AV1@N@Z 0000000180062ec0 f i physics:dgCollisionConvexHull.obj
 0001:00061f30       ??0dgPlane@@QEAA@NNNN@Z    0000000180062f30 f i physics:dgCollisionConvexHull.obj
 0001:00061f80       ?Evalue@dgPlane@@QEBANAEBVdgVector@@@Z 0000000180062f80 f i physics:dgCollisionConvexHull.obj
 0001:00061fe0       ??$Swap@PEAVdgConvexSimplexEdge@@@@YAXAEAPEAVdgConvexSimplexEdge@@0@Z 0000000180062fe0 f i physics:dgCollisionConvexHull.obj
 0001:00062020       ?GetRoot@?$dgTree@VdgEdge@@_J@@QEBAPEAVdgTreeNode@1@XZ 0000000180063020 f i physics:dgCollisionConvexHull.obj
 0001:00062030       ??0?$dgStack@PEAVdgEdge@@@@QEAA@H@Z 0000000180063030 f i physics:dgCollisionConvexHull.obj
 0001:00062070       ??1?$dgStack@PEAVdgEdge@@@@QEAA@XZ 0000000180063070 f i physics:dgCollisionConvexHull.obj
 0001:00062090       ??A?$dgStack@PEAVdgEdge@@@@QEAAAEAPEAVdgEdge@@H@Z 0000000180063090 f i physics:dgCollisionConvexHull.obj
 0001:00062140       ??0?$dgStack@PEAVdgConvexSimplexEdge@@@@QEAA@H@Z 0000000180063140 f i physics:dgCollisionConvexHull.obj
 0001:00062180       ??1?$dgStack@PEAVdgConvexSimplexEdge@@@@QEAA@XZ 0000000180063180 f i physics:dgCollisionConvexHull.obj
 0001:000621a0       ??A?$dgStack@PEAVdgConvexSimplexEdge@@@@QEAAAEAPEAVdgConvexSimplexEdge@@H@Z 00000001800631a0 f i physics:dgCollisionConvexHull.obj
 0001:00062250       ??0?$dgStack@VdgTriplex@@@@QEAA@H@Z 0000000180063250 f i physics:dgCollisionConvexHull.obj
 0001:00062290       ??1?$dgStack@VdgTriplex@@@@QEAA@XZ 0000000180063290 f i physics:dgCollisionConvexHull.obj
 0001:000622b0       ??A?$dgStack@VdgTriplex@@@@QEAAAEAVdgTriplex@@H@Z 00000001800632b0 f i physics:dgCollisionConvexHull.obj
 0001:00062370       ?GetVertexPool@dgConvexHull3d@@QEBAPEBVdgVector@@XZ 0000000180063370 f i physics:dgCollisionConvexHull.obj
 0001:00062390       ??0dgCollisionScene@@QEAA@PEAVdgWorld@@@Z 0000000180063390 f   physics:dgCollisionScene.obj
 0001:000624f0       ??0dgCollisionScene@@QEAA@QEAVdgWorld@@P6AXPEAX1_K@ZQEAX@Z 00000001800634f0 f   physics:dgCollisionScene.obj
 0001:00062c70       ??1dgCollisionScene@@UEAA@XZ 0000000180063c70 f   physics:dgCollisionScene.obj
 0001:00062d60       ?Serialize@dgCollisionScene@@EEBAXP6AXPEAXPEBX_K@ZQEAX@Z 0000000180063d60 f   physics:dgCollisionScene.obj
 0001:00063500       ?AddProxy@dgCollisionScene@@QEAAPEAXPEAVdgCollision@@@Z 0000000180064500 f   physics:dgCollisionScene.obj
 0001:000635d0       ?RemoveProxy@dgCollisionScene@@QEAAXPEAX@Z 00000001800645d0 f   physics:dgCollisionScene.obj
 0001:00063630       ?SetProxyMatrix@dgCollisionScene@@QEAAXPEAXAEBVdgMatrix@@@Z 0000000180064630 f   physics:dgCollisionScene.obj
 0001:00063750       ?SetCollisionCallback@dgCollisionScene@@QEAAXP6AXPEBVdgBody@@QEBV2@HHPEBNH@Z@Z 0000000180064750 f   physics:dgCollisionScene.obj
 0001:000637f0       ?GetProxyMatrix@dgCollisionScene@@QEAA?AVdgMatrix@@PEAX@Z 00000001800647f0 f   physics:dgCollisionScene.obj
 0001:00063870       ?CalcAABB@dgCollisionScene@@EEBAXAEBVdgMatrix@@AEAVdgVector@@1@Z 0000000180064870 f   physics:dgCollisionScene.obj
 0001:00063bf0       ?CalcAABBSimd@dgCollisionScene@@EEBAXAEBVdgMatrix@@AEAVdgVector@@1@Z 0000000180064bf0 f   physics:dgCollisionScene.obj
 0001:00063c40       ?GetFirstProxy@dgCollisionScene@@QEBAPEAXXZ 0000000180064c40 f   physics:dgCollisionScene.obj
 0001:00063c70       ?GetNextProxy@dgCollisionScene@@QEBAPEAXPEAX@Z 0000000180064c70 f   physics:dgCollisionScene.obj
 0001:00063ca0       ?DebugCollision@dgCollisionScene@@EEBAXAEBVdgMatrix@@P6AXPEAXHPEBNH@ZQEAX@Z 0000000180064ca0 f   physics:dgCollisionScene.obj
 0001:00063db0       ?GetVolume@dgCollisionScene@@EEBANXZ 0000000180064db0 f   physics:dgCollisionScene.obj
 0001:00063e00       ?CalculateSignature@dgCollisionScene@@EEBAHXZ 0000000180064e00 f   physics:dgCollisionScene.obj
 0001:00063e50       ?GetBoxMinRadius@dgCollisionScene@@EEBANXZ 0000000180064e50 f   physics:dgCollisionScene.obj
 0001:00063e60       ?GetBoxMaxRadius@dgCollisionScene@@EEBANXZ 0000000180064e60 f   physics:dgCollisionScene.obj
 0001:00063e70       ?SetCollisionBBox@dgCollisionScene@@EEAAXAEBVdgVector@@0@Z 0000000180064e70 f   physics:dgCollisionScene.obj
 0001:00064030       ?CalculateInertia@dgCollisionScene@@EEBAXAEAVdgVector@@0@Z 0000000180065030 f   physics:dgCollisionScene.obj
 0001:000640a0       ?CalculateVolumeIntegral@dgCollisionScene@@EEBA?AVdgVector@@AEBVdgMatrix@@P6AIPEAX10AEAVdgPlane@@@ZQEAX@Z 00000001800650a0 f   physics:dgCollisionScene.obj
 0001:00064120       ?GetCollisionInfo@dgCollisionScene@@EEBAXPEAVdgCollisionInfo@@@Z 0000000180065120 f   physics:dgCollisionScene.obj
 0001:000641b0       ?OOBBTest@dgCollisionScene@@EEBA_NAEBVdgMatrix@@QEBVdgConvexCollision@@QEAX@Z 00000001800651b0 f   physics:dgCollisionScene.obj
 0001:00064210       ?BuildAABB@dgCollisionScene@@AEBAXQEAPEAVdgListNode@?$dgList@UdgProxy@dgCollisionScene@@@@HAEAVdgVector@@1@Z 0000000180065210 f   physics:dgCollisionScene.obj
 0001:000643c0       ?GetAxis@dgCollisionScene@@AEBAHQEAPEAVdgListNode@?$dgList@UdgProxy@dgCollisionScene@@@@H@Z 00000001800653c0 f   physics:dgCollisionScene.obj
 0001:00064640       ?RayCastSimd@dgCollisionScene@@EEBANAEBVdgVector@@0AEAVdgContactPoint@@P6AIQEBVdgBody@@QEBVdgCollision@@QEAX@Z24@Z 0000000180065640 f   physics:dgCollisionScene.obj
 0001:00064c50       ?SupportVertex@dgCollisionScene@@EEBA?AVdgVector@@AEBV2@@Z 0000000180065c50 f   physics:dgCollisionScene.obj
 0001:00064cd0       ?RayCast@dgCollisionScene@@EEBANAEBVdgVector@@0AEAVdgContactPoint@@P6AIQEBVdgBody@@QEBVdgCollision@@QEAX@Z24@Z 0000000180065cd0 f   physics:dgCollisionScene.obj
 0001:000652e0       ?CollidePairSimd@dgCollisionScene@@QEBAXQEAUdgPair@dgCollidingPairCollector@@AEAVdgCollisionParamProxi@@@Z 00000001800662e0 f   physics:dgCollisionScene.obj
 0001:00065950       ?CollidePair@dgCollisionScene@@QEBAXQEAUdgPair@dgCollidingPairCollector@@AEAVdgCollisionParamProxi@@@Z 0000000180066950 f   physics:dgCollisionScene.obj
 0001:00065fc0       ?CompareProxy@dgCollisionScene@@CAHQEBVdgListNode@?$dgList@UdgProxy@dgCollisionScene@@@@0PEAX@Z 0000000180066fc0 f   physics:dgCollisionScene.obj
 0001:00066090       ?SortAABBBoxes@dgCollisionScene@@AEBAHQEAPEAVdgListNode@?$dgList@UdgProxy@dgCollisionScene@@@@H@Z 0000000180067090 f   physics:dgCollisionScene.obj
 0001:000661a0       ?SortAndSpliteSplite@dgCollisionScene@@AEBAHQEAPEAVdgListNode@?$dgList@UdgProxy@dgCollisionScene@@@@H@Z 00000001800671a0 f   physics:dgCollisionScene.obj
 0001:00066740       ?BuildTree@dgCollisionScene@@AEAAPEAUdgNode@1@PEAU21@QEAPEAVdgListNode@?$dgList@UdgProxy@dgCollisionScene@@@@HH@Z 0000000180067740 f   physics:dgCollisionScene.obj
 0001:00066b50       ?BuildTree@dgCollisionScene@@QEAAXXZ 0000000180067b50 f   physics:dgCollisionScene.obj
 0001:00066dc0       ??_EdgCollisionScene@@UEAAPEAXI@Z 0000000180067dc0 f i physics:dgCollisionScene.obj
 0001:00066dc0       ??_GdgCollisionScene@@UEAAPEAXI@Z 0000000180067dc0 f i physics:dgCollisionScene.obj
 0001:00066e00       ??2dgNode@dgCollisionScene@@SAPEAX_KQEAVdgMemoryAllocator@@@Z 0000000180067e00 f i physics:dgCollisionScene.obj
 0001:00066e30       ??0dgNode@dgCollisionScene@@QEAA@XZ 0000000180067e30 f i physics:dgCollisionScene.obj
 0001:00066e60       ??_GdgNode@dgCollisionScene@@QEAAPEAXI@Z 0000000180067e60 f i physics:dgCollisionScene.obj
 0001:00066ea0       ??3dgNode@dgCollisionScene@@SAXPEAX@Z 0000000180067ea0 f i physics:dgCollisionScene.obj
 0001:00066ec0       ??1dgNode@dgCollisionScene@@QEAA@XZ 0000000180067ec0 f i physics:dgCollisionScene.obj
 0001:00066f70       ??AdgMatrix@@QEBAAEBVdgVector@@H@Z 0000000180067f70 f i physics:dgCollisionScene.obj
 0001:00067000       ?UpdateAABB@dgNode@dgCollisionScene@@QEAAXAEBVdgVector@@0@Z 0000000180068000 f i physics:dgCollisionScene.obj
 0001:000670f0       ?GetNext@dgListNode@?$dgList@UdgProxy@dgCollisionScene@@@@QEBAPEAV12@XZ 00000001800680f0 f i physics:dgCollisionScene.obj
 0001:00067110       ??0?$dgList@UdgProxy@dgCollisionScene@@@@QEAA@QEAVdgMemoryAllocator@@@Z 0000000180068110 f i physics:dgCollisionScene.obj
 0001:00067160       ??1?$dgList@UdgProxy@dgCollisionScene@@@@QEAA@XZ 0000000180068160 f i physics:dgCollisionScene.obj
 0001:00067180       ?GetCount@?$dgList@UdgProxy@dgCollisionScene@@@@QEBAHXZ 0000000180068180 f i physics:dgCollisionScene.obj
 0001:00067190       ?Reset@FastRayTest@@QEAAXN@Z 0000000180068190 f i physics:dgCollisionScene.obj
 0001:00067200       ?GetFirst@?$dgList@UdgProxy@dgCollisionScene@@@@QEBAPEAVdgListNode@1@XZ 0000000180068200 f i physics:dgCollisionScene.obj
 0001:00067210       ?Append@?$dgList@UdgProxy@dgCollisionScene@@@@QEAAPEAVdgListNode@1@XZ 0000000180068210 f i physics:dgCollisionScene.obj
 0001:00067300       ?Remove@?$dgList@UdgProxy@dgCollisionScene@@@@QEAAXQEAVdgListNode@1@@Z 0000000180068300 f i physics:dgCollisionScene.obj
 0001:00067360       ?dgOverlapTestSimd@@YAHAEBVdgVector@@000@Z 0000000180068360 f i physics:dgCollisionScene.obj
 0001:00067380       ??0?$dgStack@PEAVdgListNode@?$dgList@UdgProxy@dgCollisionScene@@@@@@QEAA@H@Z 0000000180068380 f i physics:dgCollisionScene.obj
 0001:000673c0       ??1?$dgStack@PEAVdgListNode@?$dgList@UdgProxy@dgCollisionScene@@@@@@QEAA@XZ 00000001800683c0 f i physics:dgCollisionScene.obj
 0001:000673e0       ??A?$dgStack@PEAVdgListNode@?$dgList@UdgProxy@dgCollisionScene@@@@@@QEAAAEAPEAVdgListNode@?$dgList@UdgProxy@dgCollisionScene@@@@H@Z 00000001800683e0 f i physics:dgCollisionScene.obj
 0001:00067490       ??$dgSortIndirect@VdgListNode@?$dgList@UdgProxy@dgCollisionScene@@@@@@YAXQEAPEAVdgListNode@?$dgList@UdgProxy@dgCollisionScene@@@@HP6AHQEBV01@1QEAX@Z2@Z 0000000180068490 f i physics:dgCollisionScene.obj
 0001:00067920       ??$Swap@PEAVdgListNode@?$dgList@UdgProxy@dgCollisionScene@@@@@@YAXAEAPEAVdgListNode@?$dgList@UdgProxy@dgCollisionScene@@@@0@Z 0000000180068920 f i physics:dgCollisionScene.obj
 0001:00067960       ??_GdgListNode@?$dgList@UdgProxy@dgCollisionScene@@@@AEAAPEAXI@Z 0000000180068960 f i physics:dgCollisionScene.obj
 0001:000679a0       ??2dgListNode@?$dgList@UdgProxy@dgCollisionScene@@@@CAPEAX_KQEAVdgMemoryAllocator@@@Z 00000001800689a0 f i physics:dgCollisionScene.obj
 0001:000679d0       ??3dgListNode@?$dgList@UdgProxy@dgCollisionScene@@@@CAXPEAX@Z 00000001800689d0 f i physics:dgCollisionScene.obj
 0001:000679f0       ??0dgListNode@?$dgList@UdgProxy@dgCollisionScene@@@@AEAA@QEAV01@0@Z 00000001800689f0 f i physics:dgCollisionScene.obj
 0001:00067ae0       ??1dgListNode@?$dgList@UdgProxy@dgCollisionScene@@@@AEAA@XZ 0000000180068ae0 f i physics:dgCollisionScene.obj
 0001:00067af0       ??0dgProxy@dgCollisionScene@@QEAA@XZ 0000000180068af0 f i physics:dgCollisionScene.obj
 0001:00067b30       ?RemoveAll@?$dgList@UdgProxy@dgCollisionScene@@@@QEAAXXZ 0000000180068b30 f i physics:dgCollisionScene.obj
 0001:00067c30       ?Unlink@?$dgList@UdgProxy@dgCollisionScene@@@@QEAAXQEAVdgListNode@1@@Z 0000000180068c30 f i physics:dgCollisionScene.obj
 0001:00067d20       ?Unlink@dgListNode@?$dgList@UdgProxy@dgCollisionScene@@@@AEAAXXZ 0000000180068d20 f i physics:dgCollisionScene.obj
 0001:00067db0       ?GetPrev@dgListNode@?$dgList@UdgProxy@dgCollisionScene@@@@QEBAPEAV12@XZ 0000000180068db0 f i physics:dgCollisionScene.obj
 0001:00067dd0       ??0dgCollisionConvexPolygon@dgCollisionMesh@@QEAA@QEAVdgMemoryAllocator@@@Z 0000000180068dd0 f   physics:dgCollisionMesh.obj
 0001:00067f80       ??1dgCollisionConvexPolygon@dgCollisionMesh@@UEAA@XZ 0000000180068f80 f   physics:dgCollisionMesh.obj
 0001:00067fb0       ?CalculateSignature@dgCollisionConvexPolygon@dgCollisionMesh@@UEBAHXZ 0000000180068fb0 f   physics:dgCollisionMesh.obj
 0001:00067fd0       ?SetCollisionBBox@dgCollisionConvexPolygon@dgCollisionMesh@@UEAAXAEBVdgVector@@0@Z 0000000180068fd0 f   physics:dgCollisionMesh.obj
 0001:00068030       ?Serialize@dgCollisionConvexPolygon@dgCollisionMesh@@UEBAXP6AXPEAXPEBX_K@ZQEAX@Z 0000000180069030 f   physics:dgCollisionMesh.obj
 0001:00068090       ?RayCast@dgCollisionConvexPolygon@dgCollisionMesh@@UEBANAEBVdgVector@@0AEAVdgContactPoint@@P6AIQEBVdgBody@@QEBVdgCollision@@QEAX@Z24@Z 0000000180069090 f   physics:dgCollisionMesh.obj
 0001:000680f0       ?GetVolume@dgCollisionConvexPolygon@dgCollisionMesh@@UEBANXZ 00000001800690f0 f   physics:dgCollisionMesh.obj
 0001:00068140       ?GetBoxMinRadius@dgCollisionConvexPolygon@dgCollisionMesh@@UEBANXZ 0000000180069140 f   physics:dgCollisionMesh.obj
 0001:00068190       ?GetBoxMaxRadius@dgCollisionConvexPolygon@dgCollisionMesh@@UEBANXZ 0000000180069190 f   physics:dgCollisionMesh.obj
 0001:000681e0       ?OOBBTest@dgCollisionConvexPolygon@dgCollisionMesh@@UEBA_NAEBVdgMatrix@@QEBVdgConvexCollision@@QEAX@Z 00000001800691e0 f   physics:dgCollisionMesh.obj
 0001:00068240       ?CalculateInertia@dgCollisionConvexPolygon@dgCollisionMesh@@UEBAXAEAVdgVector@@0@Z 0000000180069240 f   physics:dgCollisionMesh.obj
 0001:000682b0       ?SupportVertex@dgCollisionConvexPolygon@dgCollisionMesh@@UEBA?AVdgVector@@AEBV3@@Z 00000001800692b0 f   physics:dgCollisionMesh.obj
 0001:00068410       ?SupportVertexSimd@dgCollisionConvexPolygon@dgCollisionMesh@@UEBA?AVdgVector@@AEBV3@@Z 0000000180069410 f   physics:dgCollisionMesh.obj
 0001:00068460       ?CalculateNormalSimd@dgCollisionConvexPolygon@dgCollisionMesh@@QEAAXXZ 0000000180069460 f   physics:dgCollisionMesh.obj
 0001:00068470       ?CalculateNormal@dgCollisionConvexPolygon@dgCollisionMesh@@QEAAXXZ 0000000180069470 f   physics:dgCollisionMesh.obj
 0001:00068670       ?QuickTestContinueSimd@dgCollisionConvexPolygon@dgCollisionMesh@@QEAAHPEBVdgConvexCollision@@AEBVdgMatrix@@@Z 0000000180069670 f   physics:dgCollisionMesh.obj
 0001:00068690       ?QuickTestContinue@dgCollisionConvexPolygon@dgCollisionMesh@@QEAAHPEBVdgConvexCollision@@AEBVdgMatrix@@@Z 0000000180069690 f   physics:dgCollisionMesh.obj
 0001:00068a20       ?QuickTestSimd@dgCollisionConvexPolygon@dgCollisionMesh@@QEAAHPEBVdgConvexCollision@@AEBVdgMatrix@@@Z 0000000180069a20 f   physics:dgCollisionMesh.obj
 0001:00068a40       ?QuickTest@dgCollisionConvexPolygon@dgCollisionMesh@@QEAAHPEBVdgConvexCollision@@AEBVdgMatrix@@@Z 0000000180069a40 f   physics:dgCollisionMesh.obj
 0001:00068e90       ?ClipContacts@dgCollisionConvexPolygon@dgCollisionMesh@@QEBAHHQEAVdgContactPoint@@AEBVdgMatrix@@@Z 0000000180069e90 f   physics:dgCollisionMesh.obj
 0001:00069570       ?BeamClippingSimd@dgCollisionConvexPolygon@dgCollisionMesh@@QEAAXPEBVdgConvexCollision@@AEBVdgMatrix@@N@Z 000000018006a570 f   physics:dgCollisionMesh.obj
 0001:00069950       ?BeamClipping@dgCollisionConvexPolygon@dgCollisionMesh@@QEAAXPEBVdgConvexCollision@@AEBVdgMatrix@@N@Z 000000018006a950 f   physics:dgCollisionMesh.obj
 0001:0006a990       ?ClosestDistanceToTriangle@dgCollisionConvexPolygon@dgCollisionMesh@@QEBA?AVdgVector@@AEBV3@000@Z 000000018006b990 f   physics:dgCollisionMesh.obj
 0001:0006b2d0       ?PointToPolygonDistance@dgCollisionConvexPolygon@dgCollisionMesh@@QEAA_NAEBVdgVector@@NAEAV3@@Z 000000018006c2d0 f   physics:dgCollisionMesh.obj
 0001:0006b620       ?DistanceToOrigen@dgCollisionConvexPolygon@dgCollisionMesh@@QEAA_NAEBVdgMatrix@@AEBVdgVector@@NAEAV4@@Z 000000018006c620 f   physics:dgCollisionMesh.obj
 0001:0006bcd0       ?MovingPointToPolygonContact@dgCollisionConvexPolygon@dgCollisionMesh@@QEAANAEBVdgVector@@0NAEAVdgContactPoint@@@Z 000000018006ccd0 f   physics:dgCollisionMesh.obj
 0001:0006c940       ?CalculatePlaneIntersection@dgCollisionConvexPolygon@dgCollisionMesh@@UEBAHAEBVdgVector@@0QEAV3@@Z 000000018006d940 f   physics:dgCollisionMesh.obj
 0001:0006d890       ?CalculatePlaneIntersectionSimd@dgCollisionConvexPolygon@dgCollisionMesh@@UEBAHAEBVdgVector@@0QEAV3@@Z 000000018006e890 f   physics:dgCollisionMesh.obj
 0001:0006d8b0       ??0dgCollisionMesh@@QEAA@QEAVdgMemoryAllocator@@W4dgCollisionID@@@Z 000000018006e8b0 f   physics:dgCollisionMesh.obj
 0001:0006da70       ??0dgCollisionMesh@@QEAA@QEAVdgWorld@@P6AXPEAX1_K@ZQEAX@Z 000000018006ea70 f   physics:dgCollisionMesh.obj
 0001:0006dc30       ??1dgCollisionMesh@@UEAA@XZ 000000018006ec30 f   physics:dgCollisionMesh.obj
 0001:0006dcb0       ?SetCollisionBBox@dgCollisionMesh@@MEAAXAEBVdgVector@@0@Z 000000018006ecb0 f   physics:dgCollisionMesh.obj
 0001:0006de70       ?CalculateSignature@dgCollisionMesh@@EEBAHXZ 000000018006ee70 f   physics:dgCollisionMesh.obj
 0001:0006dec0       ?GetUserData@dgCollisionMesh@@UEBAPEAXXZ 000000018006eec0 f   physics:dgCollisionMesh.obj
 0001:0006ded0       ?SetCollisionCallback@dgCollisionMesh@@QEAAXP6AXPEBVdgBody@@QEBV2@HHPEBNH@Z@Z 000000018006eed0 f   physics:dgCollisionMesh.obj
 0001:0006df00       ?CalcAABB@dgCollisionMesh@@EEBAXAEBVdgMatrix@@AEAVdgVector@@1@Z 000000018006ef00 f   physics:dgCollisionMesh.obj
 0001:0006e280       ?CalcAABBSimd@dgCollisionMesh@@EEBAXAEBVdgMatrix@@AEAVdgVector@@1@Z 000000018006f280 f   physics:dgCollisionMesh.obj
 0001:0006e2d0       ?CalculatePlaneIntersection@dgCollisionMesh@@AEBAHPEBNPEBHHHAEBVdgPlane@@QEAVdgVector@@@Z 000000018006f2d0 f   physics:dgCollisionMesh.obj
 0001:0006e760       ?CalculateVolumeIntegral@dgCollisionMesh@@EEBA?AVdgVector@@AEBVdgMatrix@@P6AIPEAX10AEAVdgPlane@@@ZQEAX@Z 000000018006f760 f   physics:dgCollisionMesh.obj
 0001:0006e7b0       ?DebugCollision@dgCollisionMesh@@EEBAXAEBVdgMatrix@@P6AXPEAXHPEBNH@ZQEAX@Z 000000018006f7b0 f   physics:dgCollisionMesh.obj
 0001:0006e810       ?GetVolume@dgCollisionMesh@@UEBANXZ 000000018006f810 f   physics:dgCollisionMesh.obj
 0001:0006e820       ?GetBoxMinRadius@dgCollisionMesh@@UEBANXZ 000000018006f820 f   physics:dgCollisionMesh.obj
 0001:0006e830       ?GetBoxMaxRadius@dgCollisionMesh@@UEBANXZ 000000018006f830 f   physics:dgCollisionMesh.obj
 0001:0006e840       ?CalculateInertia@dgCollisionMesh@@UEBAXAEAVdgVector@@0@Z 000000018006f840 f   physics:dgCollisionMesh.obj
 0001:0006e8b0       ?GetCollisionInfo@dgCollisionMesh@@EEBAXPEAVdgCollisionInfo@@@Z 000000018006f8b0 f   physics:dgCollisionMesh.obj
 0001:0006e900       ?Serialize@dgCollisionMesh@@EEBAXP6AXPEAXPEBX_K@ZQEAX@Z 000000018006f900 f   physics:dgCollisionMesh.obj
 0001:0006e960       ?SupportVertex@dgCollisionMesh@@EEBA?AVdgVector@@AEBV2@@Z 000000018006f960 f   physics:dgCollisionMesh.obj
 0001:0006e9e0       ?OOBBTest@dgCollisionMesh@@EEBA_NAEBVdgMatrix@@QEBVdgConvexCollision@@QEAX@Z 000000018006f9e0 f   physics:dgCollisionMesh.obj
 0001:0006ea40       ??_EdgCollisionConvexPolygon@dgCollisionMesh@@UEAAPEAXI@Z 000000018006fa40 f i physics:dgCollisionMesh.obj
 0001:0006ea40       ??_GdgCollisionConvexPolygon@dgCollisionMesh@@UEAAPEAXI@Z 000000018006fa40 f i physics:dgCollisionMesh.obj
 0001:0006ea80       ??_GdgCollisionMesh@@UEAAPEAXI@Z 000000018006fa80 f i physics:dgCollisionMesh.obj
 0001:0006ea80       ??_EdgCollisionMesh@@UEAAPEAXI@Z 000000018006fa80 f i physics:dgCollisionMesh.obj
 0001:0006eac0       ??$GetSign@N@@YANN@Z       000000018006fac0 f i physics:dgCollisionMesh.obj
 0001:0006eb00       ??0dgCollisionBVH@@QEAA@QEAVdgMemoryAllocator@@@Z 000000018006fb00 f   physics:dgCollisionBVH.obj
 0001:0006ebb0       ??0dgCollisionBVH@@QEAA@QEAVdgWorld@@P6AXPEAX1_K@ZQEAX@Z 000000018006fbb0 f   physics:dgCollisionBVH.obj
 0001:0006ecd0       ??1dgCollisionBVH@@UEAA@XZ 000000018006fcd0 f   physics:dgCollisionBVH.obj
 0001:0006ed30       ?Serialize@dgCollisionBVH@@EEBAXP6AXPEAXPEBX_K@ZQEAX@Z 000000018006fd30 f   physics:dgCollisionBVH.obj
 0001:0006ed90       ?BeginBuild@dgCollisionBVH@@QEAAXXZ 000000018006fd90 f   physics:dgCollisionBVH.obj
 0001:0006ee10       ?AddFace@dgCollisionBVH@@QEAAXHQEBNHH@Z 000000018006fe10 f   physics:dgCollisionBVH.obj
 0001:0006ef30       ?SetCollisionRayCastCallback@dgCollisionBVH@@QEAAXP6ANQEBVdgBody@@QEBV1@NPEANHPEAX@Z@Z 000000018006ff30 f   physics:dgCollisionBVH.obj
 0001:0006ef60       ?EndBuild@dgCollisionBVH@@QEAAXH@Z 000000018006ff60 f   physics:dgCollisionBVH.obj
 0001:0006f0a0       ?GetCollisionInfo@dgCollisionBVH@@EEBAXPEAVdgCollisionInfo@@@Z 00000001800700a0 f   physics:dgCollisionBVH.obj
 0001:0006f230       ?CollectVertexListIndexList@dgCollisionBVH@@CA?AW4dgIntersectStatus@@PEAXQEBNHQEBHH@Z 0000000180070230 f   physics:dgCollisionBVH.obj
 0001:0006f420       ?GetTriangleCount@dgCollisionBVH@@CA?AW4dgIntersectStatus@@PEAXQEBNHQEBHH@Z 0000000180070420 f   physics:dgCollisionBVH.obj
 0001:0006f4d0       ?GetVertexListIndexList@dgCollisionBVH@@UEBAXAEBVdgVector@@0AEAVdgGetVertexListIndexList@dgCollisionMesh@@@Z 00000001800704d0 f   physics:dgCollisionBVH.obj
 0001:0006f590       ?RayHitSimd@dgCollisionBVH@@CANPEAXQEBNHQEBHH@Z 0000000180070590 f   physics:dgCollisionBVH.obj
 0001:0006f7c0       ?RayHit@dgCollisionBVH@@CANPEAXQEBNHQEBHH@Z 00000001800707c0 f   physics:dgCollisionBVH.obj
 0001:0006f9f0       ?RayHitUserSimd@dgCollisionBVH@@CANPEAXQEBNHQEBHH@Z 00000001800709f0 f   physics:dgCollisionBVH.obj
 0001:0006fc10       ?RayHitUser@dgCollisionBVH@@CANPEAXQEBNHQEBHH@Z 0000000180070c10 f   physics:dgCollisionBVH.obj
 0001:0006fe30       ?RayCastSimd@dgCollisionBVH@@EEBANAEBVdgVector@@0AEAVdgContactPoint@@P6AIQEBVdgBody@@QEBVdgCollision@@QEAX@Z24@Z 0000000180070e30 f   physics:dgCollisionBVH.obj
 0001:00070110       ?RayCast@dgCollisionBVH@@EEBANAEBVdgVector@@0AEAVdgContactPoint@@P6AIQEBVdgBody@@QEBVdgCollision@@QEAX@Z24@Z 0000000180071110 f   physics:dgCollisionBVH.obj
 0001:000703f0       ?GetPolygon@dgCollisionBVH@@CA?AW4dgIntersectStatus@@PEAXQEBNHQEBHH@Z 00000001800713f0 f   physics:dgCollisionBVH.obj
 0001:00070820       ?GetCollidingFacesSimd@dgCollisionBVH@@EEBAXQEAVdgPolygonMeshDesc@@@Z 0000000180071820 f   physics:dgCollisionBVH.obj
 0001:00070970       ?GetCollidingFaces@dgCollisionBVH@@EEBAXQEAVdgPolygonMeshDesc@@@Z 0000000180071970 f   physics:dgCollisionBVH.obj
 0001:00070ac0       ?SupportVertex@dgCollisionBVH@@EEBA?AVdgVector@@AEBV2@@Z 0000000180071ac0 f   physics:dgCollisionBVH.obj
 0001:00070b10       ?ShowDebugPolygon@dgCollisionBVH@@CA?AW4dgIntersectStatus@@PEAXQEBNHQEBHH@Z 0000000180071b10 f   physics:dgCollisionBVH.obj
 0001:00070cb0       ?DebugCollision@dgCollisionBVH@@EEBAXAEBVdgMatrix@@P6AXPEAXHPEBNH@ZQEAX@Z 0000000180071cb0 f   physics:dgCollisionBVH.obj
 0001:00070dc0       ??_EdgCollisionBVH@@UEAAPEAXI@Z 0000000180071dc0 f i physics:dgCollisionBVH.obj
 0001:00070dc0       ??_GdgCollisionBVH@@UEAAPEAXI@Z 0000000180071dc0 f i physics:dgCollisionBVH.obj
 0001:00070e00       ??_GdgPolygonSoupDatabaseBuilder@@QEAAPEAXI@Z 0000000180071e00 f i physics:dgCollisionBVH.obj
 0001:00070e40       ?GetDebugRayCastCallback@dgCollisionBVH@@QEBAP6ANQEBVdgBody@@QEBV1@NPEANHPEAX@ZXZ 0000000180071e40 f i physics:dgCollisionBVH.obj
 0001:00070e60       ??0dgBVHRay@dgCollisionBVH@@QEAA@AEBVdgVector@@0@Z 0000000180071e60 f i physics:dgCollisionBVH.obj
 0001:00070ec0       ?GetCollisionMatrix@dgBody@@QEBAAEBVdgMatrix@@XZ 0000000180071ec0 f i physics:dgCollisionBVH.obj
 0001:00070ee0       ?GetDebugCollisionCallback@dgCollisionMesh@@QEBAP6AXPEBVdgBody@@QEBV2@HHPEBNH@ZXZ 0000000180071ee0 f i physics:dgCollisionBVH.obj
 0001:00070f00       ??0dgCollisionBVHShowPolyContext@@QEAA@XZ 0000000180071f00 f i physics:dgCollisionBVH.obj
 0001:00070f20       ??_EdgCollisionBVH@@WBEA@EAAPEAXI@Z 0000000180071f20 f i physics:dgCollisionBVH.obj
 0001:00070f30       ?Serialize@dgCollisionBVH@@GBEA@EBAXP6AXPEAXPEBX_K@ZQEAX@Z 0000000180071f30 f i physics:dgCollisionBVH.obj
 0001:00070f40       ?RotateVectorSimd@dgMatrix@@QEBA?AVdgVector@@AEBV2@@Z 0000000180071f40 f i physics:dgCollisionBVH.obj
 0001:00070f80       ?GetVertexCount@dgPolygonSoupDatabase@@QEBAHXZ 0000000180071f80 f i physics:dgCollisionBVH.obj
 0001:00070f90       ?GetLocalVertexPool@dgPolygonSoupDatabase@@QEBAPEANXZ 0000000180071f90 f i physics:dgCollisionBVH.obj
 0001:00070fa0       ?GetStrideInBytes@dgPolygonSoupDatabase@@QEBAHXZ 0000000180071fa0 f i physics:dgCollisionBVH.obj
 0001:00070fb0       ??2dgPolygonSoupDatabaseBuilder@@SAPEAX_KQEAVdgMemoryAllocator@@@Z 0000000180071fb0 f i physics:dgCollisionBVH.obj
 0001:00070fe0       ??3dgPolygonSoupDatabaseBuilder@@SAXPEAX@Z 0000000180071fe0 f i physics:dgCollisionBVH.obj
 0001:00071000       ??0dgCollisionHeightField@@QEAA@QEAVdgWorld@@HHHQEBGQEBDNN@Z 0000000180072000 f   physics:dgCollisionHeightField.obj
 0001:000715b0       ??0dgCollisionHeightField@@QEAA@QEAVdgWorld@@P6AXPEAX1_K@ZQEAX@Z 00000001800725b0 f   physics:dgCollisionHeightField.obj
 0001:00071950       ??1dgCollisionHeightField@@UEAA@XZ 0000000180072950 f   physics:dgCollisionHeightField.obj
 0001:00071a50       ?Serialize@dgCollisionHeightField@@EEBAXP6AXPEAXPEBX_K@ZQEAX@Z 0000000180072a50 f   physics:dgCollisionHeightField.obj
 0001:00071bb0       ?SetCollisionRayCastCallback@dgCollisionHeightField@@QEAAXP6ANQEBVdgBody@@QEBV1@NHHQEAVdgVector@@HQEAX@Z@Z 0000000180072bb0 f   physics:dgCollisionHeightField.obj
 0001:00071be0       ?AllocateVertex@dgCollisionHeightField@@AEBAXQEAVdgWorld@@H@Z 0000000180072be0 f   physics:dgCollisionHeightField.obj
 0001:00071ce0       ?GetCollisionInfo@dgCollisionHeightField@@EEBAXPEAVdgCollisionInfo@@@Z 0000000180072ce0 f   physics:dgCollisionHeightField.obj
 0001:00071e20       ?CalculateMinExtend2d@dgCollisionHeightField@@AEBAXAEBVdgVector@@0AEAV2@1@Z 0000000180072e20 f   physics:dgCollisionHeightField.obj
 0001:00072090       ?CalculateMinExtend3d@dgCollisionHeightField@@AEBAXAEBVdgVector@@0AEAV2@1@Z 0000000180073090 f   physics:dgCollisionHeightField.obj
 0001:00072380       ?RayCastCellSimd@dgCollisionHeightField@@AEBANAEBVFastRayTest@@HHAEAVdgVector@@@Z 0000000180073380 f   physics:dgCollisionHeightField.obj
 0001:00072bc0       ?RayCastCell@dgCollisionHeightField@@AEBANAEBVFastRayTest@@HHAEAVdgVector@@@Z 0000000180073bc0 f   physics:dgCollisionHeightField.obj
 0001:00073400       ?RayCastSimd@dgCollisionHeightField@@EEBANAEBVdgVector@@0AEAVdgContactPoint@@P6AIQEBVdgBody@@QEBVdgCollision@@QEAX@Z24@Z 0000000180074400 f   physics:dgCollisionHeightField.obj
 0001:00073bd0       ?RayCast@dgCollisionHeightField@@EEBANAEBVdgVector@@0AEAVdgContactPoint@@P6AIQEBVdgBody@@QEBVdgCollision@@QEAX@Z24@Z 0000000180074bd0 f   physics:dgCollisionHeightField.obj
 0001:000742f0       ?GetVertexListIndexList@dgCollisionHeightField@@EEBAXAEBVdgVector@@0AEAVdgGetVertexListIndexList@dgCollisionMesh@@@Z 00000001800752f0 f   physics:dgCollisionHeightField.obj
 0001:00074360       ?DebugCollision@dgCollisionHeightField@@EEBAXAEBVdgMatrix@@P6AXPEAXHPEBNH@ZQEAX@Z 0000000180075360 f   physics:dgCollisionHeightField.obj
 0001:00074b50       ?GetLocalAABB@dgCollisionHeightField@@AEBAXAEBVdgVector@@0AEAV2@1@Z 0000000180075b50 f   physics:dgCollisionHeightField.obj
 0001:00074d60       ?GetCollidingFacesSimd@dgCollisionHeightField@@EEBAXQEAVdgPolygonMeshDesc@@@Z 0000000180075d60 f   physics:dgCollisionHeightField.obj
 0001:00074da0       ?GetCollidingFaces@dgCollisionHeightField@@EEBAXQEAVdgPolygonMeshDesc@@@Z 0000000180075da0 f   physics:dgCollisionHeightField.obj
 0001:00076e90       ??_GdgCollisionHeightField@@UEAAPEAXI@Z 0000000180077e90 f i physics:dgCollisionHeightField.obj
 0001:00076e90       ??_EdgCollisionHeightField@@UEAAPEAXI@Z 0000000180077e90 f i physics:dgCollisionHeightField.obj
 0001:00076ed0       ?GetInfo@dgTreeNode@?$dgTree@PEAXI@@QEAAAEAPEAXXZ 0000000180077ed0 f i physics:dgCollisionHeightField.obj
 0001:00076ee0       ?Find@?$dgTree@PEAXI@@QEBAPEAVdgTreeNode@1@I@Z 0000000180077ee0 f i physics:dgCollisionHeightField.obj
 0001:00077050       ?Insert@?$dgTree@PEAXI@@QEAAPEAVdgTreeNode@1@AEBQEAXI@Z 0000000180078050 f i physics:dgCollisionHeightField.obj
 0001:000770a0       ?Remove@?$dgTree@PEAXI@@QEAAXI@Z 00000001800780a0 f i physics:dgCollisionHeightField.obj
 0001:000770e0       ?GetLeft@dgTreeNode@?$dgTree@PEAXI@@AEBAPEAV12@XZ 00000001800780e0 f i physics:dgCollisionHeightField.obj
 0001:000770f0       ?GetRight@dgTreeNode@?$dgTree@PEAXI@@AEBAPEAV12@XZ 00000001800780f0 f i physics:dgCollisionHeightField.obj
 0001:00077100       ?Insert@?$dgTree@PEAXI@@QEAAPEAVdgTreeNode@1@AEBQEAXIAEA_N@Z 0000000180078100 f i physics:dgCollisionHeightField.obj
 0001:000773c0       ?Remove@?$dgTree@PEAXI@@QEAAXQEAVdgTreeNode@1@@Z 00000001800783c0 f i physics:dgCollisionHeightField.obj
 0001:00077410       ?CompareKeys@?$dgTree@PEAXI@@AEBAHAEBI0@Z 0000000180078410 f i physics:dgCollisionHeightField.obj
 0001:00077460       ??0dgTreeNode@?$dgTree@PEAXI@@AEAA@AEBQEAXAEBIPEAV01@@Z 0000000180078460 f i physics:dgCollisionHeightField.obj
 0001:00077500       ??0dgBody@@QEAA@XZ         0000000180078500 f   physics:dgBody.obj
 0001:00077670       ??1dgBody@@QEAA@XZ         0000000180078670 f   physics:dgBody.obj
 0001:00077680       ?SetAparentMassMatrix@dgBody@@QEAAXAEBVdgVector@@@Z 0000000180078680 f   physics:dgBody.obj
 0001:00077760       ?SetMassMatrix@dgBody@@QEAAXNNNN@Z 0000000180078760 f   physics:dgBody.obj
 0001:00077b50       ?AttachCollision@dgBody@@QEAAXPEAVdgCollision@@@Z 0000000180078b50 f   physics:dgBody.obj
 0001:00077dc0       ?SetMatrix@dgBody@@QEAAXAEBVdgMatrix@@@Z 0000000180078dc0 f   physics:dgBody.obj
 0001:00077e40       ?SetMatrixIgnoreSleep@dgBody@@QEAAXAEBVdgMatrix@@@Z 0000000180078e40 f   physics:dgBody.obj
 0001:00077f50       ?UpdateCollisionMatrixSimd@dgBody@@AEAAXNH@Z 0000000180078f50 f   physics:dgBody.obj
 0001:00077f70       ?UpdateCollisionMatrix@dgBody@@AEAAXNH@Z 0000000180078f70 f   physics:dgBody.obj
 0001:00078890       ?RayCast@dgBody@@QEBANAEBUdgLineBox@@P6ANQEBV1@AEBVdgVector@@HQEAXN@ZP6AI1QEBVdgCollision@@3@Z3N@Z 0000000180079890 f   physics:dgBody.obj
 0001:00078d70       ?AddBuoyancyForce@dgBody@@QEAAXNNNAEBVdgVector@@P6AIPEAX1AEBVdgMatrix@@AEAVdgPlane@@@ZQEAX@Z 0000000180079d70 f   physics:dgBody.obj
 0001:00079060       ?CalcInvInertiaMatrix@dgBody@@QEAAXXZ 000000018007a060 f   physics:dgBody.obj
 0001:00079800       ?CalcInvInertiaMatrixSimd@dgBody@@QEAAXXZ 000000018007a800 f   physics:dgBody.obj
 0001:00079810       ?UpdateMatrix@dgBody@@AEAAXNH@Z 000000018007a810 f   physics:dgBody.obj
 0001:00079870       ?IntegrateVelocity@dgBody@@AEAAXN@Z 000000018007a870 f   physics:dgBody.obj
 0001:00079e70       ?CalculateContinueVelocity@dgBody@@AEBAXNAEAVdgVector@@0@Z 000000018007ae70 f   physics:dgBody.obj
 0001:00079fe0       ?CalculateContinueVelocitySimd@dgBody@@AEBAXNAEAVdgVector@@0@Z 000000018007afe0 f   physics:dgBody.obj
 0001:0007a000       ?GetTrajectory@dgBody@@AEBA?AVdgVector@@AEBV2@0@Z 000000018007b000 f   physics:dgBody.obj
 0001:0007a080       ?CalculateInverseDynamicForce@dgBody@@QEBA?AVdgVector@@AEBV2@N@Z 000000018007b080 f   physics:dgBody.obj
 0001:0007a160       ?GetFirstJoint@dgBody@@QEBAPEAVdgConstraint@@XZ 000000018007b160 f   physics:dgBody.obj
 0001:0007a1e0       ?GetNextJoint@dgBody@@QEBAPEAVdgConstraint@@PEAV2@@Z 000000018007b1e0 f   physics:dgBody.obj
 0001:0007a2a0       ?GetFirstContact@dgBody@@QEBAPEAVdgConstraint@@XZ 000000018007b2a0 f   physics:dgBody.obj
 0001:0007a320       ?GetNextContact@dgBody@@QEBAPEAVdgConstraint@@PEAV2@@Z 000000018007b320 f   physics:dgBody.obj
 0001:0007a3e0       ?SetFreeze@dgBody@@QEAAX_N@Z 000000018007b3e0 f   physics:dgBody.obj
 0001:0007a420       ?Freeze@dgBody@@QEAAXXZ    000000018007b420 f   physics:dgBody.obj
 0001:0007a4d0       ?Unfreeze@dgBody@@QEAAXXZ  000000018007b4d0 f   physics:dgBody.obj
 0001:0007a580       ?AddImpulse@dgBody@@AEAAXAEBVdgVector@@0@Z 000000018007b580 f   physics:dgBody.obj
 0001:0007b0a0       ?InvalidateCache@dgBody@@QEAAXXZ 000000018007c0a0 f   physics:dgBody.obj
 0001:0007b200       ?SetMatrixOriginAndRotation@dgBody@@AEAAXAEBVdgMatrix@@@Z 000000018007c200 f i physics:dgBody.obj
 0001:0007b580       ?GetLink0@dgConstraint@@QEBAPEAVdgListNode@?$dgList@VdgBodyMasterListCell@@@@XZ 000000018007c580 f i physics:dgBody.obj
 0001:0007b590       ?GetLink1@dgConstraint@@QEBAPEAVdgListNode@?$dgList@VdgBodyMasterListCell@@@@XZ 000000018007c590 f i physics:dgBody.obj
 0001:0007b5a0       ??0dgQuaternion@@QEAA@XZ   000000018007c5a0 f i physics:dgBody.obj
 0001:0007b5f0       ?Scale@dgQuaternion@@QEAAXN@Z 000000018007c5f0 f i physics:dgBody.obj
 0001:0007b670       ??DdgQuaternion@@QEBA?AV0@AEBV0@@Z 000000018007c670 f i physics:dgBody.obj
 0001:0007b810       ?RotateToEnd@?$dgList@VdgBodyMasterListRow@@@@QEAAXQEAVdgListNode@1@@Z 000000018007c810 f i physics:dgBody.obj
 0001:0007b8a0       ?InsertAfter@?$dgList@VdgBodyMasterListRow@@@@QEAAXQEAVdgListNode@1@0@Z 000000018007c8a0 f i physics:dgBody.obj
 0001:0007bb20       ?Unlink@dgListNode@?$dgList@VdgBodyMasterListRow@@@@AEAAXXZ 000000018007cb20 f i physics:dgBody.obj
 0001:0007bb90       ?AddLast@dgListNode@?$dgList@VdgBodyMasterListRow@@@@AEAAXQEAV12@@Z 000000018007cb90 f i physics:dgBody.obj
 0001:0007bbc0       ?SanityCheck@?$dgList@VdgBodyMasterListRow@@@@QEBA_NXZ 000000018007cbc0 f i physics:dgBody.obj
 0001:0007bdc0       ??0dgBallConstraint@@AEAA@XZ 000000018007cdc0 f   physics:dgBallConstraint.obj
 0001:0007bf10       ??1dgBallConstraint@@EEAA@XZ 000000018007cf10 f   physics:dgBallConstraint.obj
 0001:0007bf40       ?SetJointParameterCallBack@dgBallConstraint@@QEAAXP6AIAEBV1@N@Z@Z 000000018007cf40 f   physics:dgBallConstraint.obj
 0001:0007bf70       ?GetJointAngle@dgBallConstraint@@QEBA?AVdgVector@@XZ 000000018007cf70 f   physics:dgBallConstraint.obj
 0001:0007bfc0       ?GetJointOmega@dgBallConstraint@@QEBA?AVdgVector@@XZ 000000018007cfc0 f   physics:dgBallConstraint.obj
 0001:0007c1d0       ?GetJointForce@dgBallConstraint@@QEBA?AVdgVector@@XZ 000000018007d1d0 f   physics:dgBallConstraint.obj
 0001:0007c2e0       ?GetTwistLimitState@dgBallConstraint@@QEBA_NXZ 000000018007d2e0 f   physics:dgBallConstraint.obj
 0001:0007c300       ?GetConeLimitState@dgBallConstraint@@QEBA_NXZ 000000018007d300 f   physics:dgBallConstraint.obj
 0001:0007c320       ?GetLatealLimitState@dgBallConstraint@@QEBA_NXZ 000000018007d320 f   physics:dgBallConstraint.obj
 0001:0007c340       ?SetTwistLimitState@dgBallConstraint@@QEAAX_N@Z 000000018007d340 f   physics:dgBallConstraint.obj
 0001:0007c380       ?SetConeLimitState@dgBallConstraint@@QEAAX_N@Z 000000018007d380 f   physics:dgBallConstraint.obj
 0001:0007c3c0       ?SetLatealLimitState@dgBallConstraint@@QEAAX_N@Z 000000018007d3c0 f   physics:dgBallConstraint.obj
 0001:0007c400       ?SetPivotPoint@dgBallConstraint@@AEAAXAEBVdgVector@@@Z 000000018007d400 f   physics:dgBallConstraint.obj
 0001:0007c5e0       ?SetLimits@dgBallConstraint@@QEAAXAEBVdgVector@@NNN0NN@Z 000000018007d5e0 f   physics:dgBallConstraint.obj
 0001:0007cb60       ?JacobianDerivative@dgBallConstraint@@EEAAIAEAVdgContraintDescritor@@@Z 000000018007db60 f   physics:dgBallConstraint.obj
 0001:0007d740       ??_EdgBallConstraint@@EEAAPEAXI@Z 000000018007e740 f i physics:dgBallConstraint.obj
 0001:0007d740       ??_GdgBallConstraint@@EEAAPEAXI@Z 000000018007e740 f i physics:dgBallConstraint.obj
 0001:0007d780       ??0dgHingeConstraint@@AEAA@XZ 000000018007e780 f   physics:dgHingeConstraint.obj
 0001:0007d850       ??1dgHingeConstraint@@EEAA@XZ 000000018007e850 f   physics:dgHingeConstraint.obj
 0001:0007d880       ?SetJointParameterCallBack@dgHingeConstraint@@QEAAXP6AIAEBV1@PEAVdgJointCallBackParam@@@Z@Z 000000018007e880 f   physics:dgHingeConstraint.obj
 0001:0007d8b0       ?GetJointAngle@dgHingeConstraint@@QEBANXZ 000000018007e8b0 f   physics:dgHingeConstraint.obj
 0001:0007d8d0       ?GetJointOmega@dgHingeConstraint@@QEBANXZ 000000018007e8d0 f   physics:dgHingeConstraint.obj
 0001:0007d9f0       ?CalculateStopAlpha@dgHingeConstraint@@QEBANNPEBVdgJointCallBackParam@@@Z 000000018007e9f0 f   physics:dgHingeConstraint.obj
 0001:0007db40       ?GetJointForce@dgHingeConstraint@@QEBA?AVdgVector@@XZ 000000018007eb40 f   physics:dgHingeConstraint.obj
 0001:0007dcd0       ?JacobianDerivative@dgHingeConstraint@@EEAAIAEAVdgContraintDescritor@@@Z 000000018007ecd0 f   physics:dgHingeConstraint.obj
 0001:0007e290       ??_GdgHingeConstraint@@EEAAPEAXI@Z 000000018007f290 f i physics:dgHingeConstraint.obj
 0001:0007e290       ??_EdgHingeConstraint@@EEAAPEAXI@Z 000000018007f290 f i physics:dgHingeConstraint.obj
 0001:0007e2d0       ??0dgSlidingConstraint@@AEAA@XZ 000000018007f2d0 f   physics:dgSlidingConstraint.obj
 0001:0007e3a0       ??1dgSlidingConstraint@@EEAA@XZ 000000018007f3a0 f   physics:dgSlidingConstraint.obj
 0001:0007e3d0       ?SetJointParameterCallBack@dgSlidingConstraint@@QEAAXP6AIAEBV1@PEAVdgJointCallBackParam@@@Z@Z 000000018007f3d0 f   physics:dgSlidingConstraint.obj
 0001:0007e400       ?GetJointPosit@dgSlidingConstraint@@QEBANXZ 000000018007f400 f   physics:dgSlidingConstraint.obj
 0001:0007e420       ?GetJointVeloc@dgSlidingConstraint@@QEBANXZ 000000018007f420 f   physics:dgSlidingConstraint.obj
 0001:0007e540       ?CalculateStopAccel@dgSlidingConstraint@@QEBANNPEBVdgJointCallBackParam@@@Z 000000018007f540 f   physics:dgSlidingConstraint.obj
 0001:0007e6d0       ?GetJointForce@dgSlidingConstraint@@QEBA?AVdgVector@@XZ 000000018007f6d0 f   physics:dgSlidingConstraint.obj
 0001:0007e860       ?JacobianDerivative@dgSlidingConstraint@@EEAAIAEAVdgContraintDescritor@@@Z 000000018007f860 f   physics:dgSlidingConstraint.obj
 0001:0007ef90       ??_EdgSlidingConstraint@@EEAAPEAXI@Z 000000018007ff90 f i physics:dgSlidingConstraint.obj
 0001:0007ef90       ??_GdgSlidingConstraint@@EEAAPEAXI@Z 000000018007ff90 f i physics:dgSlidingConstraint.obj
 0001:0007efd0       ??0dgCorkscrewConstraint@@AEAA@XZ 000000018007ffd0 f   physics:dgCorkscrewConstraint.obj
 0001:0007f0b0       ??1dgCorkscrewConstraint@@EEAA@XZ 00000001800800b0 f   physics:dgCorkscrewConstraint.obj
 0001:0007f0e0       ?SetJointParameterCallBack@dgCorkscrewConstraint@@QEAAXP6AIAEBV1@PEAVdgJointCallBackParam@@@Z@Z 00000001800800e0 f   physics:dgCorkscrewConstraint.obj
 0001:0007f110       ?GetJointAngle@dgCorkscrewConstraint@@QEBANXZ 0000000180080110 f   physics:dgCorkscrewConstraint.obj
 0001:0007f130       ?GetJointPosit@dgCorkscrewConstraint@@QEBANXZ 0000000180080130 f   physics:dgCorkscrewConstraint.obj
 0001:0007f150       ?GetJointOmega@dgCorkscrewConstraint@@QEBANXZ 0000000180080150 f   physics:dgCorkscrewConstraint.obj
 0001:0007f270       ?GetJointVeloc@dgCorkscrewConstraint@@QEBANXZ 0000000180080270 f   physics:dgCorkscrewConstraint.obj
 0001:0007f390       ?CalculateStopAlpha@dgCorkscrewConstraint@@QEBANNPEBVdgJointCallBackParam@@@Z 0000000180080390 f   physics:dgCorkscrewConstraint.obj
 0001:0007f4e0       ?CalculateStopAccel@dgCorkscrewConstraint@@QEBANNPEBVdgJointCallBackParam@@@Z 00000001800804e0 f   physics:dgCorkscrewConstraint.obj
 0001:0007f670       ?GetJointForce@dgCorkscrewConstraint@@QEBA?AVdgVector@@XZ 0000000180080670 f   physics:dgCorkscrewConstraint.obj
 0001:0007f7c0       ?JacobianDerivative@dgCorkscrewConstraint@@EEAAIAEAVdgContraintDescritor@@@Z 00000001800807c0 f   physics:dgCorkscrewConstraint.obj
 0001:0007ffc0       ??_GdgCorkscrewConstraint@@EEAAPEAXI@Z 0000000180080fc0 f i physics:dgCorkscrewConstraint.obj
 0001:0007ffc0       ??_EdgCorkscrewConstraint@@EEAAPEAXI@Z 0000000180080fc0 f i physics:dgCorkscrewConstraint.obj
 0001:00080000       ??0dgUniversalConstraint@@AEAA@XZ 0000000180081000 f   physics:dgUniversalConstraint.obj
 0001:000800e0       ??1dgUniversalConstraint@@EEAA@XZ 00000001800810e0 f   physics:dgUniversalConstraint.obj
 0001:00080110       ?SetJointParameterCallBack@dgUniversalConstraint@@QEAAXP6AIAEBV1@PEAVdgJointCallBackParam@@@Z@Z 0000000180081110 f   physics:dgUniversalConstraint.obj
 0001:00080140       ?GetJointAngle0@dgUniversalConstraint@@QEBANXZ 0000000180081140 f   physics:dgUniversalConstraint.obj
 0001:00080160       ?GetJointAngle1@dgUniversalConstraint@@QEBANXZ 0000000180081160 f   physics:dgUniversalConstraint.obj
 0001:00080180       ?GetJointOmega0@dgUniversalConstraint@@QEBANXZ 0000000180081180 f   physics:dgUniversalConstraint.obj
 0001:000802a0       ?GetJointOmega1@dgUniversalConstraint@@QEBANXZ 00000001800812a0 f   physics:dgUniversalConstraint.obj
 0001:000803c0       ?CalculateStopAlpha0@dgUniversalConstraint@@QEBANNPEBVdgJointCallBackParam@@@Z 00000001800813c0 f   physics:dgUniversalConstraint.obj
 0001:00080510       ?CalculateStopAlpha1@dgUniversalConstraint@@QEBANNPEBVdgJointCallBackParam@@@Z 0000000180081510 f   physics:dgUniversalConstraint.obj
 0001:00080660       ?GetJointForce@dgUniversalConstraint@@QEBA?AVdgVector@@XZ 0000000180081660 f   physics:dgUniversalConstraint.obj
 0001:000807b0       ?JacobianDerivative@dgUniversalConstraint@@EEAAIAEAVdgContraintDescritor@@@Z 00000001800817b0 f   physics:dgUniversalConstraint.obj
 0001:00080f70       ??_GdgUniversalConstraint@@EEAAPEAXI@Z 0000000180081f70 f i physics:dgUniversalConstraint.obj
 0001:00080f70       ??_EdgUniversalConstraint@@EEAAPEAXI@Z 0000000180081f70 f i physics:dgUniversalConstraint.obj
 0001:00080fb0       ??0dgUpVectorConstraint@@AEAA@XZ 0000000180081fb0 f   physics:dgUpVectorConstraint.obj
 0001:00081080       ??1dgUpVectorConstraint@@EEAA@XZ 0000000180082080 f   physics:dgUpVectorConstraint.obj
 0001:000810b0       ?IsBilateral@dgUpVectorConstraint@@UEBA_NXZ 00000001800820b0 f   physics:dgUpVectorConstraint.obj
 0001:000810c0       ?InitPinDir@dgUpVectorConstraint@@QEAAXAEBVdgVector@@@Z 00000001800820c0 f   physics:dgUpVectorConstraint.obj
 0001:00081140       ?SetPinDir@dgUpVectorConstraint@@QEAAXAEBVdgVector@@@Z 0000000180082140 f   physics:dgUpVectorConstraint.obj
 0001:000811b0       ?GetPinDir@dgUpVectorConstraint@@QEBA?AVdgVector@@XZ 00000001800821b0 f   physics:dgUpVectorConstraint.obj
 0001:00081200       ?SetJointParameterCallBack@dgUpVectorConstraint@@QEAAXP6AIAEBV1@@Z@Z 0000000180082200 f   physics:dgUpVectorConstraint.obj
 0001:00081230       ?JacobianDerivative@dgUpVectorConstraint@@EEAAIAEAVdgContraintDescritor@@@Z 0000000180082230 f   physics:dgUpVectorConstraint.obj
 0001:00081510       ??_GdgUpVectorConstraint@@EEAAPEAXI@Z 0000000180082510 f i physics:dgUpVectorConstraint.obj
 0001:00081510       ??_EdgUpVectorConstraint@@EEAAPEAXI@Z 0000000180082510 f i physics:dgUpVectorConstraint.obj
 0001:00081550       ?GetUserData@dgConstraint@@QEBAPEAXXZ 0000000180082550 f   physics:dgConstraint.obj
 0001:00081570       ?SetUserData@dgConstraint@@QEAAXPEAX@Z 0000000180082570 f   physics:dgConstraint.obj
 0001:00081590       ?IsBilateral@dgConstraint@@MEBA_NXZ 0000000180082590 f   physics:dgConstraint.obj
 0001:000815a0       ?InitPointParam@dgConstraint@@IEBAXAEAVdgPointParam@1@NAEBVdgVector@@1@Z 00000001800825a0 f   physics:dgConstraint.obj
 0001:00081910       ?InitInfo@dgConstraint@@IEBAXPEAVdgConstraintInfo@@@Z 0000000180082910 f   physics:dgConstraint.obj
 0001:00081aa0       ?GetInfo@dgConstraint@@UEBAXQEAVdgConstraintInfo@@@Z 0000000180082aa0 f   physics:dgConstraint.obj
 0001:00081af0       ??0dgUserConstraint@@IEAA@QEAVdgWorld@@QEAVdgBody@@1H@Z 0000000180082af0 f   physics:dgUserConstraint.obj
 0001:00081be0       ??1dgUserConstraint@@MEAA@XZ 0000000180082be0 f   physics:dgUserConstraint.obj
 0001:00081c10       ?GetInfo@dgUserConstraint@@MEBAXQEAVdgConstraintInfo@@@Z 0000000180082c10 f   physics:dgUserConstraint.obj
 0001:00081c40       ??_GdgUserConstraint@@MEAAPEAXI@Z 0000000180082c40 f i physics:dgUserConstraint.obj
 0001:00081c40       ??_EdgUserConstraint@@MEAAPEAXI@Z 0000000180082c40 f i physics:dgUserConstraint.obj
 0001:00081c80       ??0dgBilateralConstraint@@IEAA@XZ 0000000180082c80 f   physics:dgBilateralConstraint.obj
 0001:00081e30       ??1dgBilateralConstraint@@MEAA@XZ 0000000180082e30 f   physics:dgBilateralConstraint.obj
 0001:00081e80       ?IsBilateral@dgBilateralConstraint@@MEBA_NXZ 0000000180082e80 f   physics:dgBilateralConstraint.obj
 0001:00081e90       ?GetStiffness@dgBilateralConstraint@@MEBANXZ 0000000180082e90 f   physics:dgBilateralConstraint.obj
 0001:00081ec0       ?SetStiffness@dgBilateralConstraint@@MEAAXN@Z 0000000180082ec0 f   physics:dgBilateralConstraint.obj
 0001:00081f20       ?SetDestructorCallback@dgBilateralConstraint@@UEAAXP6AXAEAVdgConstraint@@@Z@Z 0000000180082f20 f   physics:dgBilateralConstraint.obj
 0001:00081f50       ?CalculateMatrixOffset@dgBilateralConstraint@@IEAAXAEBVdgVector@@0AEAVdgMatrix@@1@Z 0000000180082f50 f   physics:dgBilateralConstraint.obj
 0001:00082230       ?SetPivotAndPinDir@dgBilateralConstraint@@IEAAXAEBVdgVector@@0@Z 0000000180083230 f   physics:dgBilateralConstraint.obj
 0001:00082280       ?SetPivotAndPinDir@dgBilateralConstraint@@IEAAXAEBVdgVector@@00@Z 0000000180083280 f   physics:dgBilateralConstraint.obj
 0001:00082660       ?CalculateGlobalMatrixAndAngle@dgBilateralConstraint@@IEBA?AVdgVector@@AEAVdgMatrix@@0@Z 0000000180083660 f   physics:dgBilateralConstraint.obj
 0001:00082940       ?SetMotorAcceleration@dgBilateralConstraint@@IEAAXHNAEAVdgContraintDescritor@@@Z 0000000180083940 f   physics:dgBilateralConstraint.obj
 0001:000829c0       ?SetJacobianDerivative@dgBilateralConstraint@@IEAAXHAEAVdgContraintDescritor@@PEBN1PEAN@Z 00000001800839c0 f   physics:dgBilateralConstraint.obj
 0001:00082cd0       ?CalculateSpringDamperAcceleration@dgBilateralConstraint@@IEAANHAEBVdgContraintDescritor@@NAEBVdgVector@@1NN@Z 0000000180083cd0 f   physics:dgBilateralConstraint.obj
 0001:00083020       ?CalculateAngularDerivative@dgBilateralConstraint@@IEAAXHAEAVdgContraintDescritor@@AEBVdgVector@@NNPEAN@Z 0000000180084020 f   physics:dgBilateralConstraint.obj
 0001:00083600       ?CalculatePointDerivative@dgBilateralConstraint@@IEAAXHAEAVdgContraintDescritor@@AEBVdgVector@@AEBVdgPointParam@dgConstraint@@PEAN@Z 0000000180084600 f   physics:dgBilateralConstraint.obj
 0001:00083cf0       ?JointAccelerationsSimd@dgBilateralConstraint@@MEAAXAEBVdgJointAccelerationDecriptor@@@Z 0000000180084cf0 f   physics:dgBilateralConstraint.obj
 0001:00083d10       ?JointAccelerations@dgBilateralConstraint@@MEAAXAEBVdgJointAccelerationDecriptor@@@Z 0000000180084d10 f   physics:dgBilateralConstraint.obj
 0001:000840b0       ?JointVelocityCorrection@dgBilateralConstraint@@MEAAXAEBVdgJointAccelerationDecriptor@@@Z 00000001800850b0 f   physics:dgBilateralConstraint.obj
 0001:000840c0       ??0dgConstraint@@IEAA@XZ   00000001800850c0 f i physics:dgBilateralConstraint.obj
 0001:000841e0       ??_EdgConstraint@@MEAAPEAXI@Z 00000001800851e0 f i physics:dgBilateralConstraint.obj
 0001:000841e0       ??_GdgConstraint@@MEAAPEAXI@Z 00000001800851e0 f i physics:dgBilateralConstraint.obj
 0001:00084220       ??1dgConstraint@@MEAA@XZ   0000000180085220 f i physics:dgBilateralConstraint.obj
 0001:00084240       ?GetStiffness@dgConstraint@@UEBANXZ 0000000180085240 f i physics:dgBilateralConstraint.obj
 0001:00084250       ?SetStiffness@dgConstraint@@UEAAXN@Z 0000000180085250 f i physics:dgBilateralConstraint.obj
 0001:00084260       ??_GdgBilateralConstraint@@MEAAPEAXI@Z 0000000180085260 f i physics:dgBilateralConstraint.obj
 0001:00084260       ??_EdgBilateralConstraint@@MEAAPEAXI@Z 0000000180085260 f i physics:dgBilateralConstraint.obj
 0001:000842a0       ??0dgContactMaterial@@QEAA@XZ 00000001800852a0 f   physics:dgContact.obj
 0001:00084420       ??0dgContact@@AEAA@PEAVdgWorld@@@Z 0000000180085420 f   physics:dgContact.obj
 0001:000845d0       ?GetInfo@dgContact@@EEBAXQEAVdgConstraintInfo@@@Z 00000001800855d0 f   physics:dgContact.obj
 0001:00084640       ?CalculatePointDerivative@dgContact@@AEBAXHAEAVdgContraintDescritor@@AEBVdgVector@@AEBVdgPointParam@dgConstraint@@@Z 0000000180085640 f   physics:dgContact.obj
 0001:00084980       ?JacobianDerivative@dgContact@@EEAAIAEAVdgContraintDescritor@@@Z 0000000180085980 f   physics:dgContact.obj
 0001:00084a40       ?JacobianContactDerivative@dgContact@@AEAAXAEAVdgContraintDescritor@@AEBVdgContactMaterial@@HAEAH@Z 0000000180085a40 f   physics:dgContact.obj
 0001:00085410       ?JointAccelerationsSimd@dgContact@@EEAAXAEBVdgJointAccelerationDecriptor@@@Z 0000000180086410 f   physics:dgContact.obj
 0001:00085430       ?JointAccelerations@dgContact@@EEAAXAEBVdgJointAccelerationDecriptor@@@Z 0000000180086430 f   physics:dgContact.obj
 0001:00085820       ?JointVelocityCorrection@dgContact@@EEAAXAEBVdgJointAccelerationDecriptor@@@Z 0000000180086820 f   physics:dgContact.obj
 0001:00085870       ??0dgCollidingPairCollector@@QEAA@XZ 0000000180086870 f   physics:dgContact.obj
 0001:000858c0       ??1dgCollidingPairCollector@@QEAA@XZ 00000001800868c0 f   physics:dgContact.obj
 0001:000858d0       ?Init@dgCollidingPairCollector@@QEAAXXZ 00000001800868d0 f   physics:dgContact.obj
 0001:00085950       ?SetCaches@dgCollidingPairCollector@@QEAAXQEAUdgThreadPairCache@1@@Z 0000000180086950 f   physics:dgContact.obj
 0001:000859c0       ?FlushChache@dgCollidingPairCollector@@QEAAXQEAUdgThreadPairCache@1@@Z 00000001800869c0 f   physics:dgContact.obj
 0001:00085b40       ?AddPair@dgCollidingPairCollector@@QEAAXQEAVdgBody@@0H@Z 0000000180086b40 f   physics:dgContact.obj
 0001:00086470       ?SetDestructorCallback@dgContact@@EEAAXP6AXAEAVdgConstraint@@@Z@Z 0000000180087470 f i physics:dgContact.obj
 0001:00086480       ??_EdgContact@@EEAAPEAXI@Z 0000000180087480 f i physics:dgContact.obj
 0001:00086480       ??_GdgContact@@EEAAPEAXI@Z 0000000180087480 f i physics:dgContact.obj
 0001:000864c0       ??3dgContact@@CAXPEAX@Z    00000001800874c0 f i physics:dgContact.obj
 0001:000864e0       ??1dgContact@@EEAA@XZ      00000001800874e0 f i physics:dgContact.obj
 0001:00086580       ?Append@?$dgList@PEAVdgContact@@@@QEAAPEAVdgListNode@1@AEBQEAVdgContact@@@Z 0000000180087580 f i physics:dgContact.obj
 0001:00086680       ?Remove@?$dgList@PEAVdgContact@@@@QEAAXQEAVdgListNode@1@@Z 0000000180087680 f i physics:dgContact.obj
 0001:000866e0       ??0?$dgList@VdgContactMaterial@@@@QEAA@QEAVdgMemoryAllocator@@@Z 00000001800876e0 f i physics:dgContact.obj
 0001:00086730       ??1?$dgList@VdgContactMaterial@@@@QEAA@XZ 0000000180087730 f i physics:dgContact.obj
 0001:00086750       ?RemoveAll@?$dgList@VdgContactMaterial@@@@QEAAXXZ 0000000180087750 f i physics:dgContact.obj
 0001:00086850       ??2dgListNode@?$dgList@PEAVdgContact@@@@CAPEAX_KQEAVdgMemoryAllocator@@@Z 0000000180087850 f i physics:dgContact.obj
 0001:00086880       ??0dgListNode@?$dgList@PEAVdgContact@@@@AEAA@AEBQEAVdgContact@@QEAV01@1@Z 0000000180087880 f i physics:dgContact.obj
 0001:00086950       ?Unlink@?$dgList@PEAVdgContact@@@@QEAAXQEAVdgListNode@1@@Z 0000000180087950 f i physics:dgContact.obj
 0001:00086a40       ?GetPrev@dgListNode@?$dgList@PEAVdgContact@@@@QEBAPEAV12@XZ 0000000180087a40 f i physics:dgContact.obj
 0001:00086a50       ??0dgBodyMasterListRow@@QEAA@XZ 0000000180087a50 f   physics:dgBodyMasterList.obj
 0001:00086a90       ??1dgBodyMasterListRow@@QEAA@XZ 0000000180087a90 f   physics:dgBodyMasterList.obj
 0001:00086af0       ?AddJoint@dgBodyMasterListRow@@QEAAPEAVdgListNode@?$dgList@VdgBodyMasterListCell@@@@QEAVdgConstraint@@QEAVdgBody@@@Z 0000000180087af0 f   physics:dgBodyMasterList.obj
 0001:00086b50       ?RemoveAllJoints@dgBodyMasterListRow@@QEAAXXZ 0000000180087b50 f   physics:dgBodyMasterList.obj
 0001:00086bc0       ?SortList@dgBodyMasterListRow@@QEAAXXZ 0000000180087bc0 f   physics:dgBodyMasterList.obj
 0001:00086c80       ??0dgBodyMasterList@@QEAA@QEAVdgMemoryAllocator@@@Z 0000000180087c80 f   physics:dgBodyMasterList.obj
 0001:00086cc0       ??1dgBodyMasterList@@QEAA@XZ 0000000180087cc0 f   physics:dgBodyMasterList.obj
 0001:00086ce0       ?AddBody@dgBodyMasterList@@QEAAXQEAVdgBody@@@Z 0000000180087ce0 f   physics:dgBodyMasterList.obj
 0001:00086d90       ?RemoveBody@dgBodyMasterList@@QEAAXQEAVdgBody@@@Z 0000000180087d90 f   physics:dgBodyMasterList.obj
 0001:00086e70       ?FindConstraintLink@dgBodyMasterList@@QEBAPEAVdgListNode@?$dgList@VdgBodyMasterListCell@@@@QEBVdgBody@@0@Z 0000000180087e70 f   physics:dgBodyMasterList.obj
 0001:00086fa0       ?FindConstraintLinkNext@dgBodyMasterList@@QEBAPEAVdgListNode@?$dgList@VdgBodyMasterListCell@@@@QEBV23@QEBVdgBody@@@Z 0000000180087fa0 f   physics:dgBodyMasterList.obj
 0001:00087080       ?AttachConstraint@dgBodyMasterList@@QEAAXQEAVdgConstraint@@QEAVdgBody@@1@Z 0000000180088080 f   physics:dgBodyMasterList.obj
 0001:000871f0       ?RemoveConstraint@dgBodyMasterList@@QEAAXQEAVdgConstraint@@@Z 00000001800881f0 f   physics:dgBodyMasterList.obj
 0001:00087450       ?SortMasterList@dgBodyMasterList@@QEAAXXZ 0000000180088450 f   physics:dgBodyMasterList.obj
 0001:00087680       ?GetPrev@dgListNode@?$dgList@VdgBodyMasterListCell@@@@QEBAPEAV12@XZ 0000000180088680 f i physics:dgBodyMasterList.obj
 0001:00087690       ??0?$dgList@VdgBodyMasterListCell@@@@QEAA@QEAVdgMemoryAllocator@@@Z 0000000180088690 f i physics:dgBodyMasterList.obj
 0001:000876e0       ??1?$dgList@VdgBodyMasterListCell@@@@QEAA@XZ 00000001800886e0 f i physics:dgBodyMasterList.obj
 0001:00087700       ?SetAllocator@?$dgList@VdgBodyMasterListCell@@@@QEAAXQEAVdgMemoryAllocator@@@Z 0000000180088700 f i physics:dgBodyMasterList.obj
 0001:00087730       ?Addtop@?$dgList@VdgBodyMasterListCell@@@@QEAAPEAVdgListNode@1@XZ 0000000180088730 f i physics:dgBodyMasterList.obj
 0001:00087820       ?RotateToBegin@?$dgList@VdgBodyMasterListCell@@@@QEAAXQEAVdgListNode@1@@Z 0000000180088820 f i physics:dgBodyMasterList.obj
 0001:000878b0       ?InsertAfter@?$dgList@VdgBodyMasterListCell@@@@QEAAXQEAVdgListNode@1@0@Z 00000001800888b0 f i physics:dgBodyMasterList.obj
 0001:00087b30       ?Remove@?$dgList@VdgBodyMasterListCell@@@@QEAAXQEAVdgListNode@1@@Z 0000000180088b30 f i physics:dgBodyMasterList.obj
 0001:00087b90       ??0?$dgList@VdgBodyMasterListRow@@@@QEAA@QEAVdgMemoryAllocator@@@Z 0000000180088b90 f i physics:dgBodyMasterList.obj
 0001:00087be0       ??1?$dgList@VdgBodyMasterListRow@@@@QEAA@XZ 0000000180088be0 f i physics:dgBodyMasterList.obj
 0001:00087c00       ?Append@?$dgList@VdgBodyMasterListRow@@@@QEAAPEAVdgListNode@1@XZ 0000000180088c00 f i physics:dgBodyMasterList.obj
 0001:00087cf0       ?RotateToBegin@?$dgList@VdgBodyMasterListRow@@@@QEAAXQEAVdgListNode@1@@Z 0000000180088cf0 f i physics:dgBodyMasterList.obj
 0001:00087d80       ?Remove@?$dgList@VdgBodyMasterListRow@@@@QEAAXQEAVdgListNode@1@@Z 0000000180088d80 f i physics:dgBodyMasterList.obj
 0001:00087de0       ??_GdgListNode@?$dgList@VdgBodyMasterListCell@@@@AEAAPEAXI@Z 0000000180088de0 f i physics:dgBodyMasterList.obj
 0001:00087e20       ??_GdgListNode@?$dgList@VdgBodyMasterListRow@@@@AEAAPEAXI@Z 0000000180088e20 f i physics:dgBodyMasterList.obj
 0001:00087e60       ??2dgListNode@?$dgList@VdgBodyMasterListCell@@@@CAPEAX_KQEAVdgMemoryAllocator@@@Z 0000000180088e60 f i physics:dgBodyMasterList.obj
 0001:00087e90       ??3dgListNode@?$dgList@VdgBodyMasterListCell@@@@CAXPEAX@Z 0000000180088e90 f i physics:dgBodyMasterList.obj
 0001:00087eb0       ??0dgListNode@?$dgList@VdgBodyMasterListCell@@@@AEAA@QEAV01@0@Z 0000000180088eb0 f i physics:dgBodyMasterList.obj
 0001:00087f80       ??1dgListNode@?$dgList@VdgBodyMasterListCell@@@@AEAA@XZ 0000000180088f80 f i physics:dgBodyMasterList.obj
 0001:00087f90       ?Unlink@dgListNode@?$dgList@VdgBodyMasterListCell@@@@AEAAXXZ 0000000180088f90 f i physics:dgBodyMasterList.obj
 0001:00088000       ?AddFirst@dgListNode@?$dgList@VdgBodyMasterListCell@@@@AEAAXQEAV12@@Z 0000000180089000 f i physics:dgBodyMasterList.obj
 0001:00088030       ??2dgListNode@?$dgList@VdgBodyMasterListRow@@@@CAPEAX_KQEAVdgMemoryAllocator@@@Z 0000000180089030 f i physics:dgBodyMasterList.obj
 0001:00088060       ??3dgListNode@?$dgList@VdgBodyMasterListRow@@@@CAXPEAX@Z 0000000180089060 f i physics:dgBodyMasterList.obj
 0001:00088080       ??0dgListNode@?$dgList@VdgBodyMasterListRow@@@@AEAA@QEAV01@0@Z 0000000180089080 f i physics:dgBodyMasterList.obj
 0001:00088140       ??1dgListNode@?$dgList@VdgBodyMasterListRow@@@@AEAA@XZ 0000000180089140 f i physics:dgBodyMasterList.obj
 0001:00088160       ?AddFirst@dgListNode@?$dgList@VdgBodyMasterListRow@@@@AEAAXQEAV12@@Z 0000000180089160 f i physics:dgBodyMasterList.obj
 0001:00088190       ?RemoveAll@?$dgList@VdgBodyMasterListCell@@@@QEAAXXZ 0000000180089190 f i physics:dgBodyMasterList.obj
 0001:00088290       ?Unlink@?$dgList@VdgBodyMasterListCell@@@@QEAAXQEAVdgListNode@1@@Z 0000000180089290 f i physics:dgBodyMasterList.obj
 0001:00088380       ?SanityCheck@?$dgList@VdgBodyMasterListCell@@@@QEBA_NXZ 0000000180089380 f i physics:dgBodyMasterList.obj
 0001:00088580       ?RemoveAll@?$dgList@VdgBodyMasterListRow@@@@QEAAXXZ 0000000180089580 f i physics:dgBodyMasterList.obj
 0001:00088680       ?Unlink@?$dgList@VdgBodyMasterListRow@@@@QEAAXQEAVdgListNode@1@@Z 0000000180089680 f i physics:dgBodyMasterList.obj
 0001:00088770       ??0dgCollisionSphere@@QEAA@PEAVdgMemoryAllocator@@INAEBVdgMatrix@@@Z 0000000180089770 f   physics:dgCollisionSphere.obj
 0001:00088810       ??0dgCollisionSphere@@QEAA@QEAVdgWorld@@P6AXPEAX1_K@ZQEAX@Z 0000000180089810 f   physics:dgCollisionSphere.obj
 0001:000888c0       ??1dgCollisionSphere@@UEAA@XZ 00000001800898c0 f   physics:dgCollisionSphere.obj
 0001:00088960       ?Init@dgCollisionSphere@@IEAAXNPEAVdgMemoryAllocator@@@Z 0000000180089960 f   physics:dgCollisionSphere.obj
 0001:00089280       ?SupportVertexSimd@dgCollisionSphere@@MEBA?AVdgVector@@AEBV2@@Z 000000018008a280 f   physics:dgCollisionSphere.obj
 0001:00089320       ?SupportVertex@dgCollisionSphere@@MEBA?AVdgVector@@AEBV2@@Z 000000018008a320 f   physics:dgCollisionSphere.obj
 0001:000893c0       ?TesselateTriangle@dgCollisionSphere@@IEBAXHAEBVdgVector@@00AEAHPEAV2@@Z 000000018008a3c0 f   physics:dgCollisionSphere.obj
 0001:00089a00       ?SetCollisionBBox@dgCollisionSphere@@MEAAXAEBVdgVector@@0@Z 000000018008aa00 f   physics:dgCollisionSphere.obj
 0001:00089a60       ?CalculateSignature@dgCollisionSphere@@MEBAHXZ 000000018008aa60 f   physics:dgCollisionSphere.obj
 0001:00089ae0       ?CalcAABB@dgCollisionSphere@@MEBAXAEBVdgMatrix@@AEAVdgVector@@1@Z 000000018008aae0 f   physics:dgCollisionSphere.obj
 0001:00089c60       ?CalculatePlaneIntersection@dgCollisionSphere@@MEBAHAEBVdgVector@@0QEAV2@@Z 000000018008ac60 f   physics:dgCollisionSphere.obj
 0001:00089d30       ?CalculatePlaneIntersectionSimd@dgCollisionSphere@@MEBAHAEBVdgVector@@0QEAV2@@Z 000000018008ad30 f   physics:dgCollisionSphere.obj
 0001:00089d50       ?DebugCollision@dgCollisionSphere@@MEBAXAEBVdgMatrix@@P6AXPEAXHPEBNH@ZQEAX@Z 000000018008ad50 f   physics:dgCollisionSphere.obj
 0001:0008a210       ?GetVolume@dgCollisionPoint@@UEBANXZ 000000018008b210 f   physics:dgCollisionSphere.obj
 0001:0008a260       ?CalculateInertia@dgCollisionPoint@@UEBAXAEAVdgVector@@0@Z 000000018008b260 f   physics:dgCollisionSphere.obj
 0001:0008a310       ?SupportVertex@dgCollisionPoint@@UEBA?AVdgVector@@AEBV2@@Z 000000018008b310 f   physics:dgCollisionSphere.obj
 0001:0008a360       ?SupportVertexSimd@dgCollisionPoint@@UEBA?AVdgVector@@AEBV2@@Z 000000018008b360 f   physics:dgCollisionSphere.obj
 0001:0008a3e0       ?RayCast@dgCollisionSphere@@MEBANAEBVdgVector@@0AEAVdgContactPoint@@P6AIQEBVdgBody@@QEBVdgCollision@@QEAX@Z24@Z 000000018008b3e0 f   physics:dgCollisionSphere.obj
 0001:0008a6c0       ?RayCastSimd@dgCollisionSphere@@MEBANAEBVdgVector@@0AEAVdgContactPoint@@P6AIQEBVdgBody@@QEBVdgCollision@@QEAX@Z24@Z 000000018008b6c0 f   physics:dgCollisionSphere.obj
 0001:0008a730       ?CalculateMassProperties@dgCollisionSphere@@MEBANAEAVdgVector@@00@Z 000000018008b730 f   physics:dgCollisionSphere.obj
 0001:0008a9a0       ?GetCollisionInfo@dgCollisionSphere@@MEBAXPEAVdgCollisionInfo@@@Z 000000018008b9a0 f   physics:dgCollisionSphere.obj
 0001:0008aa90       ?Serialize@dgCollisionSphere@@MEBAXP6AXPEAXPEBX_K@ZQEAX@Z 000000018008ba90 f   physics:dgCollisionSphere.obj
 0001:0008ab20       ??_GdgCollisionSphere@@UEAAPEAXI@Z 000000018008bb20 f i physics:dgCollisionSphere.obj
 0001:0008ab20       ??_EdgCollisionSphere@@UEAAPEAXI@Z 000000018008bb20 f i physics:dgCollisionSphere.obj
 0001:0008ab60       ??0dgConvexCollision@@IEAA@QEAVdgMemoryAllocator@@IAEBVdgMatrix@@W4dgCollisionID@@@Z 000000018008bb60 f   physics:dgConvexCollision.obj
 0001:0008ad70       ??0dgConvexCollision@@IEAA@QEAVdgWorld@@P6AXPEAX1_K@ZQEAX@Z 000000018008bd70 f   physics:dgConvexCollision.obj
 0001:0008af80       ??1dgConvexCollision@@MEAA@XZ 000000018008bf80 f   physics:dgConvexCollision.obj
 0001:0008b010       ?SerializeLow@dgConvexCollision@@MEBAXP6AXPEAXPEBX_K@ZQEAX@Z 000000018008c010 f   physics:dgConvexCollision.obj
 0001:0008b090       ?GetUserData@dgConvexCollision@@MEBAPEAXXZ 000000018008c090 f   physics:dgConvexCollision.obj
 0001:0008b0b0       ?SetUserData@dgConvexCollision@@MEAAXQEAX@Z 000000018008c0b0 f   physics:dgConvexCollision.obj
 0001:0008b0e0       ?SetVolumeAndCG@dgConvexCollision@@IEAAXXZ 000000018008c0e0 f   physics:dgConvexCollision.obj
 0001:0008bb30       ?GetDiscretedAngleStep@dgConvexCollision@@IEBANN@Z 000000018008cb30 f   physics:dgConvexCollision.obj
 0001:0008bb90       ?SanityCheck@dgConvexCollision@@IEBA_NAEAVdgPolyhedra@@@Z 000000018008cb90 f   physics:dgConvexCollision.obj
 0001:0008be10       ?DebugCollision@dgConvexCollision@@MEBAXAEBVdgMatrix@@P6AXPEAXHPEBNH@ZQEAX@Z 000000018008ce10 f   physics:dgConvexCollision.obj
 0001:0008c070       ?CalcAABB@dgConvexCollision@@UEBAXAEBVdgMatrix@@AEAVdgVector@@1@Z 000000018008d070 f   physics:dgConvexCollision.obj
 0001:0008c3f0       ?CalcAABBSimd@dgConvexCollision@@UEBAXAEBVdgMatrix@@AEAVdgVector@@1@Z 000000018008d3f0 f   physics:dgConvexCollision.obj
 0001:0008c410       ?GetSupportEdge@dgConvexCollision@@IEBAPEAVdgConvexSimplexEdge@@AEBVdgVector@@@Z 000000018008d410 f   physics:dgConvexCollision.obj
 0001:0008c550       ?CalculateInertia@dgConvexCollision@@CAXPEAXHPEBNH@Z 000000018008d550 f   physics:dgConvexCollision.obj
 0001:0008c590       ?CalculateMassProperties@dgConvexCollision@@MEBANAEAVdgVector@@00@Z 000000018008d590 f   physics:dgConvexCollision.obj
 0001:0008c620       ?CalculateInertia@dgConvexCollision@@EEBAXAEAVdgVector@@0@Z 000000018008d620 f   physics:dgConvexCollision.obj
 0001:0008caa0       ?GetVolume@dgConvexCollision@@EEBANXZ 000000018008daa0 f   physics:dgConvexCollision.obj
 0001:0008cb70       ?GetBoxMinRadius@dgConvexCollision@@EEBANXZ 000000018008db70 f   physics:dgConvexCollision.obj
 0001:0008cb90       ?GetBoxMaxRadius@dgConvexCollision@@EEBANXZ 000000018008db90 f   physics:dgConvexCollision.obj
 0001:0008cbb0       ?RayCastClosestFace@dgConvexCollision@@AEBAHPEAVdgVector@@AEBV2@AEAN@Z 000000018008dbb0 f   physics:dgConvexCollision.obj
 0001:0008d3d0       ?RayHitBox@dgConvexCollision@@AEBA_NAEBVdgVector@@0@Z 000000018008e3d0 f   physics:dgConvexCollision.obj
 0001:0008d6c0       ?CalculateVolumeIntegral@dgConvexCollision@@EEBA?AVdgVector@@AEBVdgMatrix@@P6AIPEAX10AEAVdgPlane@@@ZQEAX@Z 000000018008e6c0 f   physics:dgConvexCollision.obj
 0001:0008d870       ?CalculateVolumeIntegral@dgConvexCollision@@IEBA?AVdgVector@@AEBVdgPlane@@@Z 000000018008e870 f   physics:dgConvexCollision.obj
 0001:0008e290       ?SupportVertex@dgConvexCollision@@UEBA?AVdgVector@@AEBV2@@Z 000000018008f290 f   physics:dgConvexCollision.obj
 0001:0008e5c0       ?SupportVertexSimd@dgConvexCollision@@UEBA?AVdgVector@@AEBV2@@Z 000000018008f5c0 f   physics:dgConvexCollision.obj
 0001:0008e610       ?SanityCheck@dgConvexCollision@@IEBA_NHAEBVdgVector@@QEAV2@@Z 000000018008f610 f   physics:dgConvexCollision.obj
 0001:0008eaf0       ?SimplifyClipPolygon@dgConvexCollision@@AEBAHHAEBVdgVector@@QEAV2@@Z 000000018008faf0 f   physics:dgConvexCollision.obj
 0001:0008eef0       ?RectifyConvexSlice@dgConvexCollision@@IEBAHHAEBVdgVector@@QEAV2@@Z 000000018008fef0 f   physics:dgConvexCollision.obj
 0001:0008f600       ?CalculatePlaneIntersectionSimd@dgConvexCollision@@UEBAHAEBVdgVector@@0QEAV2@@Z 0000000180090600 f   physics:dgConvexCollision.obj
 0001:0008f620       ?CalculatePlaneIntersection@dgConvexCollision@@UEBAHAEBVdgVector@@0QEAV2@@Z 0000000180090620 f   physics:dgConvexCollision.obj
 0001:000903e0       ?RayCast@dgConvexCollision@@UEBANAEBVdgVector@@0AEAVdgContactPoint@@P6AIQEBVdgBody@@QEBVdgCollision@@QEAX@Z24@Z 00000001800913e0 f   physics:dgConvexCollision.obj
 0001:00091590       ?RayCastSimd@dgConvexCollision@@UEBANAEBVdgVector@@0AEAVdgContactPoint@@P6AIQEBVdgBody@@QEBVdgCollision@@QEAX@Z24@Z 0000000180092590 f   physics:dgConvexCollision.obj
 0001:00091600       ?IsTriggerVolume@dgConvexCollision@@UEBA_NXZ 0000000180092600 f   physics:dgConvexCollision.obj
 0001:00091620       ?SetAsTriggerVolume@dgConvexCollision@@MEAAX_N@Z 0000000180092620 f   physics:dgConvexCollision.obj
 0001:00091660       ?OOBBTest@dgConvexCollision@@UEBA_NAEBVdgMatrix@@QEBV1@QEAX@Z 0000000180092660 f   physics:dgConvexCollision.obj
 0001:00091890       ??_GdgConvexCollision@@MEAAPEAXI@Z 0000000180092890 f i physics:dgConvexCollision.obj
 0001:00091890       ??_EdgConvexCollision@@MEAAPEAXI@Z 0000000180092890 f i physics:dgConvexCollision.obj
 0001:000918d0       ?UntransformPlane@dgMatrix@@QEBA?AVdgPlane@@AEBV2@@Z 00000001800928d0 f i physics:dgConvexCollision.obj
 0001:00091940       ??1?$dgUpHeap@HN@@QEAA@XZ  0000000180092940 f i physics:dgConvexCollision.obj
 0001:00091960       ??$GetMin@N@@YANNNN@Z      0000000180092960 f i physics:dgConvexCollision.obj
 0001:000919a0       ??$Swap@VdgVector@@@@YAXAEAVdgVector@@0@Z 00000001800929a0 f i physics:dgConvexCollision.obj
 0001:00091a20       ??1?$dgHeapBase@HN@@IEAA@XZ 0000000180092a20 f i physics:dgConvexCollision.obj
 0001:00091a60       ?Flush@?$dgHeapBase@HN@@QEAAXXZ 0000000180092a60 f i physics:dgConvexCollision.obj
 0001:00091a80       ?GetCount@?$dgHeapBase@HN@@QEBAHXZ 0000000180092a80 f i physics:dgConvexCollision.obj
 0001:00091a90       ??A?$dgHeapBase@HN@@QEBAAEBHH@Z 0000000180092a90 f i physics:dgConvexCollision.obj
 0001:00091b00       ??0?$dgUpHeap@HN@@QEAA@QEBXH@Z 0000000180092b00 f i physics:dgConvexCollision.obj
 0001:00091b40       ?Pop@?$dgUpHeap@HN@@QEAAXXZ 0000000180092b40 f i physics:dgConvexCollision.obj
 0001:00091cd0       ?Push@?$dgUpHeap@HN@@QEAAXAEAHN@Z 0000000180092cd0 f i physics:dgConvexCollision.obj
 0001:00091e70       ??0?$dgHeapBase@HN@@IEAA@QEBXH@Z 0000000180092e70 f i physics:dgConvexCollision.obj
 0001:00091ed0       ??0dgCollisionNull@@QEAA@QEAVdgMemoryAllocator@@I@Z 0000000180092ed0 f   physics:dgCollisionNull.obj
 0001:00091f40       ??0dgCollisionNull@@QEAA@QEAVdgWorld@@P6AXPEAX1_K@ZQEAX@Z 0000000180092f40 f   physics:dgCollisionNull.obj
 0001:00091fb0       ?Serialize@dgCollisionNull@@EEBAXP6AXPEAXPEBX_K@ZQEAX@Z 0000000180092fb0 f   physics:dgCollisionNull.obj
 0001:00091ff0       ??1dgCollisionNull@@UEAA@XZ 0000000180092ff0 f   physics:dgCollisionNull.obj
 0001:00092020       ?SetCollisionBBox@dgCollisionNull@@EEAAXAEBVdgVector@@0@Z 0000000180093020 f   physics:dgCollisionNull.obj
 0001:00092080       ?DebugCollision@dgCollisionNull@@MEBAXAEBVdgMatrix@@P6AXPEAXHPEBNH@ZQEAX@Z 0000000180093080 f   physics:dgCollisionNull.obj
 0001:000920a0       ?CalculateSignature@dgCollisionNull@@EEBAHXZ 00000001800930a0 f   physics:dgCollisionNull.obj
 0001:000920c0       ?CalcAABB@dgCollisionNull@@MEBAXAEBVdgMatrix@@AEAVdgVector@@1@Z 00000001800930c0 f   physics:dgCollisionNull.obj
 0001:00092220       ?CalcAABBSimd@dgCollisionNull@@MEBAXAEBVdgMatrix@@AEAVdgVector@@1@Z 0000000180093220 f   physics:dgCollisionNull.obj
 0001:00092270       ?SupportVertex@dgCollisionNull@@MEBA?AVdgVector@@AEBV2@@Z 0000000180093270 f   physics:dgCollisionNull.obj
 0001:000922f0       ?SupportVertexSimd@dgCollisionNull@@MEBA?AVdgVector@@AEBV2@@Z 00000001800932f0 f   physics:dgCollisionNull.obj
 0001:00092370       ?GetVolume@dgCollisionNull@@MEBANXZ 0000000180093370 f   physics:dgCollisionNull.obj
 0001:00092380       ?RayCast@dgCollisionNull@@MEBANAEBVdgVector@@0AEAVdgContactPoint@@P6AIQEBVdgBody@@QEBVdgCollision@@QEAX@Z24@Z 0000000180093380 f   physics:dgCollisionNull.obj
 0001:000923b0       ?RayCastSimd@dgCollisionNull@@MEBANAEBVdgVector@@0AEAVdgContactPoint@@P6AIQEBVdgBody@@QEBVdgCollision@@QEAX@Z24@Z 00000001800933b0 f   physics:dgCollisionNull.obj
 0001:000923e0       ?CalculateVolumeIntegral@dgCollisionNull@@MEBA?AVdgVector@@AEBVdgMatrix@@P6AIPEAX10AEAVdgPlane@@@ZQEAX@Z 00000001800933e0 f   physics:dgCollisionNull.obj
 0001:00092460       ?CalculateInertia@dgCollisionNull@@MEBAXAEAVdgVector@@0@Z 0000000180093460 f   physics:dgCollisionNull.obj
 0001:000924d0       ??_EdgCollisionNull@@UEAAPEAXI@Z 00000001800934d0 f i physics:dgCollisionNull.obj
 0001:000924d0       ??_GdgCollisionNull@@UEAAPEAXI@Z 00000001800934d0 f i physics:dgCollisionNull.obj
 0001:00092510       ??0dgCollisionBox@@QEAA@QEAVdgMemoryAllocator@@INNNAEBVdgMatrix@@@Z 0000000180093510 f   physics:dgCollisionBox.obj
 0001:00092610       ??0dgCollisionBox@@QEAA@QEAVdgWorld@@P6AXPEAX1_K@ZQEAX@Z 0000000180093610 f   physics:dgCollisionBox.obj
 0001:00092720       ?Init@dgCollisionBox@@IEAAXNNN@Z 0000000180093720 f   physics:dgCollisionBox.obj
 0001:00093030       ??1dgCollisionBox@@UEAA@XZ 0000000180094030 f   physics:dgCollisionBox.obj
 0001:00093080       ?SetCollisionBBox@dgCollisionBox@@MEAAXAEBVdgVector@@0@Z 0000000180094080 f   physics:dgCollisionBox.obj
 0001:000930e0       ?CalculateSignature@dgCollisionBox@@MEBAHXZ 00000001800940e0 f   physics:dgCollisionBox.obj
 0001:000931a0       ?SupportVertexSimd@dgCollisionBox@@MEBA?AVdgVector@@AEBV2@@Z 00000001800941a0 f   physics:dgCollisionBox.obj
 0001:000931f0       ?SupportVertex@dgCollisionBox@@MEBA?AVdgVector@@AEBV2@@Z 00000001800941f0 f   physics:dgCollisionBox.obj
 0001:00093300       ?CalcAABB@dgCollisionBox@@MEBAXAEBVdgMatrix@@AEAVdgVector@@1@Z 0000000180094300 f   physics:dgCollisionBox.obj
 0001:000936a0       ?CalcAABBSimd@dgCollisionBox@@MEBAXAEBVdgMatrix@@AEAVdgVector@@1@Z 00000001800946a0 f   physics:dgCollisionBox.obj
 0001:000936c0       ?RayCast@dgCollisionBox@@MEBANAEBVdgVector@@0AEAVdgContactPoint@@P6AIQEBVdgBody@@QEBVdgCollision@@QEAX@Z24@Z 00000001800946c0 f   physics:dgCollisionBox.obj
 0001:00093a90       ?RayCastSimd@dgCollisionBox@@MEBANAEBVdgVector@@0AEAVdgContactPoint@@P6AIQEBVdgBody@@QEBVdgCollision@@QEAX@Z24@Z 0000000180094a90 f   physics:dgCollisionBox.obj
 0001:00093b00       ?CalculateMassProperties@dgCollisionBox@@MEBANAEAVdgVector@@00@Z 0000000180094b00 f   physics:dgCollisionBox.obj
 0001:00094090       ?SetBreakImpulse@dgCollisionBox@@MEAAXN@Z 0000000180095090 f   physics:dgCollisionBox.obj
 0001:000940c0       ?GetBreakImpulse@dgCollisionBox@@MEBANXZ 00000001800950c0 f   physics:dgCollisionBox.obj
 0001:000940e0       ?CalculatePlaneIntersection@dgCollisionBox@@MEBAHAEBVdgVector@@0QEAV2@@Z 00000001800950e0 f   physics:dgCollisionBox.obj
 0001:00094700       ?CalculatePlaneIntersectionSimd@dgCollisionBox@@MEBAHAEBVdgVector@@0QEAV2@@Z 0000000180095700 f   physics:dgCollisionBox.obj
 0001:00094720       ?GetCollisionInfo@dgCollisionBox@@MEBAXPEAVdgCollisionInfo@@@Z 0000000180095720 f   physics:dgCollisionBox.obj
 0001:00094820       ?Serialize@dgCollisionBox@@MEBAXP6AXPEAXPEBX_K@ZQEAX@Z 0000000180095820 f   physics:dgCollisionBox.obj
 0001:000948b0       ??_GdgCollisionBox@@UEAAPEAXI@Z 00000001800958b0 f i physics:dgCollisionBox.obj
 0001:000948b0       ??_EdgCollisionBox@@UEAAPEAXI@Z 00000001800958b0 f i physics:dgCollisionBox.obj
 0001:000948f0       ??0dgCollision@@IEAA@QEAVdgMemoryAllocator@@IAEBVdgMatrix@@W4dgCollisionID@@@Z 00000001800958f0 f   physics:dgCollision.obj
 0001:000949b0       ??0dgCollision@@IEAA@QEAVdgWorld@@P6AXPEAX1_K@ZQEAX@Z 00000001800959b0 f   physics:dgCollision.obj
 0001:00094a90       ??1dgCollision@@MEAA@XZ    0000000180095a90 f   physics:dgCollision.obj
 0001:00094ab0       ?Quantize@dgCollision@@SAIN@Z 0000000180095ab0 f   physics:dgCollision.obj
 0001:00094ad0       ?MakeCRC@dgCollision@@SAIPEAXH@Z 0000000180095ad0 f   physics:dgCollision.obj
 0001:00094b10       ?SetOffsetMatrix@dgCollision@@QEAAXAEBVdgMatrix@@@Z 0000000180095b10 f   physics:dgCollision.obj
 0001:00094cd0       ?GetUserData@dgCollision@@UEBAPEAXXZ 0000000180095cd0 f   physics:dgCollision.obj
 0001:00094ce0       ?SetUserData@dgCollision@@UEAAXQEAX@Z 0000000180095ce0 f   physics:dgCollision.obj
 0001:00094d00       ?GetCollisionInfo@dgCollision@@UEBAXPEAVdgCollisionInfo@@@Z 0000000180095d00 f   physics:dgCollision.obj
 0001:00094db0       ?SerializeLow@dgCollision@@UEBAXP6AXPEAXPEBX_K@ZQEAX@Z 0000000180095db0 f   physics:dgCollision.obj
 0001:00094e30       ?RayCastSimd@dgCollision@@UEBANAEBVdgVector@@0AEAVdgContactPoint@@P6AIQEBVdgBody@@QEBV1@QEAX@Z24@Z 0000000180095e30 f i physics:dgCollision.obj
 0001:00094e90       ??_GdgCollision@@MEAAPEAXI@Z 0000000180095e90 f i physics:dgCollision.obj
 0001:00094e90       ??_EdgCollision@@MEAAPEAXI@Z 0000000180095e90 f i physics:dgCollision.obj
 0001:00094ed0       ??0dgCollisionEllipse@@QEAA@QEAVdgMemoryAllocator@@INNNAEBVdgMatrix@@@Z 0000000180095ed0 f   physics:dgCollisionEllipse.obj
 0001:00094fd0       ??0dgCollisionEllipse@@QEAA@QEAVdgWorld@@P6AXPEAX1_K@ZQEAX@Z 0000000180095fd0 f   physics:dgCollisionEllipse.obj
 0001:00095100       ??1dgCollisionEllipse@@UEAA@XZ 0000000180096100 f   physics:dgCollisionEllipse.obj
 0001:00095130       ?CalculateSignature@dgCollisionEllipse@@EEBAHXZ 0000000180096130 f   physics:dgCollisionEllipse.obj
 0001:000951e0       ?SetCollisionBBox@dgCollisionEllipse@@EEAAXAEBVdgVector@@0@Z 00000001800961e0 f   physics:dgCollisionEllipse.obj
 0001:00095240       ?CalcAABB@dgCollisionEllipse@@MEBAXAEBVdgMatrix@@AEAVdgVector@@1@Z 0000000180096240 f   physics:dgCollisionEllipse.obj
 0001:000953a0       ?CalcAABBSimd@dgCollisionEllipse@@MEBAXAEBVdgMatrix@@AEAVdgVector@@1@Z 00000001800963a0 f   physics:dgCollisionEllipse.obj
 0001:00095500       ?SupportVertex@dgCollisionEllipse@@MEBA?AVdgVector@@AEBV2@@Z 0000000180096500 f   physics:dgCollisionEllipse.obj
 0001:000956b0       ?SupportVertexSimd@dgCollisionEllipse@@MEBA?AVdgVector@@AEBV2@@Z 00000001800966b0 f   physics:dgCollisionEllipse.obj
 0001:00095700       ?CalculatePlaneIntersection@dgCollisionEllipse@@EEBAHAEBVdgVector@@0QEAV2@@Z 0000000180096700 f   physics:dgCollisionEllipse.obj
 0001:000958e0       ?CalculatePlaneIntersectionSimd@dgCollisionEllipse@@EEBAHAEBVdgVector@@0QEAV2@@Z 00000001800968e0 f   physics:dgCollisionEllipse.obj
 0001:00095900       ?DebugCollision@dgCollisionEllipse@@MEBAXAEBVdgMatrix@@P6AXPEAXHPEBNH@ZQEAX@Z 0000000180096900 f   physics:dgCollisionEllipse.obj
 0001:00095ab0       ?RayCast@dgCollisionEllipse@@MEBANAEBVdgVector@@0AEAVdgContactPoint@@P6AIQEBVdgBody@@QEBVdgCollision@@QEAX@Z24@Z 0000000180096ab0 f   physics:dgCollisionEllipse.obj
 0001:00095c40       ?RayCastSimd@dgCollisionEllipse@@MEBANAEBVdgVector@@0AEAVdgContactPoint@@P6AIQEBVdgBody@@QEBVdgCollision@@QEAX@Z24@Z 0000000180096c40 f   physics:dgCollisionEllipse.obj
 0001:00095dd0       ?CalculateMassProperties@dgCollisionEllipse@@EEBANAEAVdgVector@@00@Z 0000000180096dd0 f   physics:dgCollisionEllipse.obj
 0001:00095e10       ?GetCollisionInfo@dgCollisionEllipse@@EEBAXPEAVdgCollisionInfo@@@Z 0000000180096e10 f   physics:dgCollisionEllipse.obj
 0001:00095ef0       ?Serialize@dgCollisionEllipse@@EEBAXP6AXPEAXPEBX_K@ZQEAX@Z 0000000180096ef0 f   physics:dgCollisionEllipse.obj
 0001:00095f40       ??_EdgCollisionEllipse@@UEAAPEAXI@Z 0000000180096f40 f i physics:dgCollisionEllipse.obj
 0001:00095f40       ??_GdgCollisionEllipse@@UEAAPEAXI@Z 0000000180096f40 f i physics:dgCollisionEllipse.obj
 0001:00095f80       ??0dgCollisionCapsule@@QEAA@QEAVdgMemoryAllocator@@INNAEBVdgMatrix@@@Z 0000000180096f80 f   physics:dgCollisionCapsule.obj
 0001:00096040       ??0dgCollisionCapsule@@QEAA@QEAVdgWorld@@P6AXPEAX1_K@ZQEAX@Z 0000000180097040 f   physics:dgCollisionCapsule.obj
 0001:00096110       ??1dgCollisionCapsule@@UEAA@XZ 0000000180097110 f   physics:dgCollisionCapsule.obj
 0001:000961b0       ?Init@dgCollisionCapsule@@AEAAXNN@Z 00000001800971b0 f   physics:dgCollisionCapsule.obj
 0001:00096ca0       ?CalculateSignature@dgCollisionCapsule@@EEBAHXZ 0000000180097ca0 f   physics:dgCollisionCapsule.obj
 0001:00096d40       ?TesselateTriangle@dgCollisionCapsule@@AEBAXHNAEBVdgVector@@00AEAHPEAV2@@Z 0000000180097d40 f   physics:dgCollisionCapsule.obj
 0001:000974d0       ?DebugCollision@dgCollisionCapsule@@EEBAXAEBVdgMatrix@@P6AXPEAXHPEBNH@ZQEAX@Z 00000001800984d0 f   physics:dgCollisionCapsule.obj
 0001:00097c90       ?SetCollisionBBox@dgCollisionCapsule@@EEAAXAEBVdgVector@@0@Z 0000000180098c90 f   physics:dgCollisionCapsule.obj
 0001:00097cf0       ?SupportVertexSimd@dgCollisionCapsule@@EEBA?AVdgVector@@AEBV2@@Z 0000000180098cf0 f   physics:dgCollisionCapsule.obj
 0001:00097d40       ?SupportVertex@dgCollisionCapsule@@EEBA?AVdgVector@@AEBV2@@Z 0000000180098d40 f   physics:dgCollisionCapsule.obj
 0001:00097e50       ?RayCast@dgCollisionCapsule@@EEBANAEBVdgVector@@0AEAVdgContactPoint@@P6AIQEBVdgBody@@QEBVdgCollision@@QEAX@Z24@Z 0000000180098e50 f   physics:dgCollisionCapsule.obj
 0001:00098ea0       ?RayCastSimd@dgCollisionCapsule@@EEBANAEBVdgVector@@0AEAVdgContactPoint@@P6AIQEBVdgBody@@QEBVdgCollision@@QEAX@Z24@Z 0000000180099ea0 f   physics:dgCollisionCapsule.obj
 0001:00098f10       ?CalculateMassProperties@dgCollisionCapsule@@EEBANAEAVdgVector@@00@Z 0000000180099f10 f   physics:dgCollisionCapsule.obj
 0001:00099500       ?CalculatePlaneIntersectionSimd@dgCollisionCapsule@@EEBAHAEBVdgVector@@0QEAV2@@Z 000000018009a500 f   physics:dgCollisionCapsule.obj
 0001:00099520       ?CalculatePlaneIntersection@dgCollisionCapsule@@EEBAHAEBVdgVector@@0QEAV2@@Z 000000018009a520 f   physics:dgCollisionCapsule.obj
 0001:0009a6f0       ?GetCollisionInfo@dgCollisionCapsule@@EEBAXPEAVdgCollisionInfo@@@Z 000000018009b6f0 f   physics:dgCollisionCapsule.obj
 0001:0009a7f0       ?Serialize@dgCollisionCapsule@@EEBAXP6AXPEAXPEBX_K@ZQEAX@Z 000000018009b7f0 f   physics:dgCollisionCapsule.obj
 0001:0009a890       ??_GdgCollisionCapsule@@UEAAPEAXI@Z 000000018009b890 f i physics:dgCollisionCapsule.obj
 0001:0009a890       ??_EdgCollisionCapsule@@UEAAPEAXI@Z 000000018009b890 f i physics:dgCollisionCapsule.obj
 0001:0009a8d0       ??0dgCollisionCone@@QEAA@QEAVdgMemoryAllocator@@INNAEBVdgMatrix@@@Z 000000018009b8d0 f   physics:dgCollisionCone.obj
 0001:0009a970       ??0dgCollisionCone@@QEAA@QEAVdgWorld@@P6AXPEAX1_K@ZQEAX@Z 000000018009b970 f   physics:dgCollisionCone.obj
 0001:0009aa20       ??1dgCollisionCone@@UEAA@XZ 000000018009ba20 f   physics:dgCollisionCone.obj
 0001:0009aac0       ?Init@dgCollisionCone@@AEAAXNN@Z 000000018009bac0 f   physics:dgCollisionCone.obj
 0001:0009b110       ?CalculateSignature@dgCollisionCone@@EEBAHXZ 000000018009c110 f   physics:dgCollisionCone.obj
 0001:0009b1b0       ?DebugCollision@dgCollisionCone@@EEBAXAEBVdgMatrix@@P6AXPEAXHPEBNH@ZQEAX@Z 000000018009c1b0 f   physics:dgCollisionCone.obj
 0001:0009b4c0       ?SetCollisionBBox@dgCollisionCone@@EEAAXAEBVdgVector@@0@Z 000000018009c4c0 f   physics:dgCollisionCone.obj
 0001:0009b520       ?SupportVertexSimd@dgCollisionCone@@EEBA?AVdgVector@@AEBV2@@Z 000000018009c520 f   physics:dgCollisionCone.obj
 0001:0009b560       ?SupportVertex@dgCollisionCone@@EEBA?AVdgVector@@AEBV2@@Z 000000018009c560 f   physics:dgCollisionCone.obj
 0001:0009b720       ?CalculateMassProperties@dgCollisionCone@@EEBANAEAVdgVector@@00@Z 000000018009c720 f   physics:dgCollisionCone.obj
 0001:0009bc60       ?CalculatePlaneIntersection@dgCollisionCone@@EEBAHAEBVdgVector@@0QEAV2@@Z 000000018009cc60 f   physics:dgCollisionCone.obj
 0001:0009bf80       ?CalculatePlaneIntersectionSimd@dgCollisionCone@@EEBAHAEBVdgVector@@0QEAV2@@Z 000000018009cf80 f   physics:dgCollisionCone.obj
 0001:0009bfa0       ?GetCollisionInfo@dgCollisionCone@@EEBAXPEAVdgCollisionInfo@@@Z 000000018009cfa0 f   physics:dgCollisionCone.obj
 0001:0009c070       ?Serialize@dgCollisionCone@@EEBAXP6AXPEAXPEBX_K@ZQEAX@Z 000000018009d070 f   physics:dgCollisionCone.obj
 0001:0009c100       ??_GdgCollisionCone@@UEAAPEAXI@Z 000000018009d100 f i physics:dgCollisionCone.obj
 0001:0009c100       ??_EdgCollisionCone@@UEAAPEAXI@Z 000000018009d100 f i physics:dgCollisionCone.obj
 0001:0009c140       ??0dgCollisionCylinder@@QEAA@QEAVdgMemoryAllocator@@INNAEBVdgMatrix@@@Z 000000018009d140 f   physics:dgCollisionCylinder.obj
 0001:0009c1e0       ??0dgCollisionCylinder@@QEAA@QEAVdgWorld@@P6AXPEAX1_K@ZQEAX@Z 000000018009d1e0 f   physics:dgCollisionCylinder.obj
 0001:0009c290       ?Init@dgCollisionCylinder@@AEAAXNN@Z 000000018009d290 f   physics:dgCollisionCylinder.obj
 0001:0009c900       ??1dgCollisionCylinder@@UEAA@XZ 000000018009d900 f   physics:dgCollisionCylinder.obj
 0001:0009c9a0       ?CalculateSignature@dgCollisionCylinder@@EEBAHXZ 000000018009d9a0 f   physics:dgCollisionCylinder.obj
 0001:0009ca40       ?SetCollisionBBox@dgCollisionCylinder@@EEAAXAEBVdgVector@@0@Z 000000018009da40 f   physics:dgCollisionCylinder.obj
 0001:0009caa0       ?DebugCollision@dgCollisionCylinder@@EEBAXAEBVdgMatrix@@P6AXPEAXHPEBNH@ZQEAX@Z 000000018009daa0 f   physics:dgCollisionCylinder.obj
 0001:0009cea0       ?SupportVertexSimd@dgCollisionCylinder@@EEBA?AVdgVector@@AEBV2@@Z 000000018009dea0 f   physics:dgCollisionCylinder.obj
 0001:0009cee0       ?SupportVertex@dgCollisionCylinder@@EEBA?AVdgVector@@AEBV2@@Z 000000018009dee0 f   physics:dgCollisionCylinder.obj
 0001:0009d090       ?CalculateMassProperties@dgCollisionCylinder@@EEBANAEAVdgVector@@00@Z 000000018009e090 f   physics:dgCollisionCylinder.obj
 0001:0009d580       ?CalculatePlaneIntersection@dgCollisionCylinder@@EEBAHAEBVdgVector@@0QEAV2@@Z 000000018009e580 f   physics:dgCollisionCylinder.obj
 0001:0009d8a0       ?CalculatePlaneIntersectionSimd@dgCollisionCylinder@@EEBAHAEBVdgVector@@0QEAV2@@Z 000000018009e8a0 f   physics:dgCollisionCylinder.obj
 0001:0009d8c0       ?RayCast@dgCollisionCylinder@@EEBANAEBVdgVector@@0AEAVdgContactPoint@@P6AIQEBVdgBody@@QEBVdgCollision@@QEAX@Z24@Z 000000018009e8c0 f   physics:dgCollisionCylinder.obj
 0001:0009e450       ?RayCastSimd@dgCollisionCylinder@@EEBANAEBVdgVector@@0AEAVdgContactPoint@@P6AIQEBVdgBody@@QEBVdgCollision@@QEAX@Z24@Z 000000018009f450 f   physics:dgCollisionCylinder.obj
 0001:0009e4c0       ?GetCollisionInfo@dgCollisionCylinder@@EEBAXPEAVdgCollisionInfo@@@Z 000000018009f4c0 f   physics:dgCollisionCylinder.obj
 0001:0009e5b0       ?Serialize@dgCollisionCylinder@@EEBAXP6AXPEAXPEBX_K@ZQEAX@Z 000000018009f5b0 f   physics:dgCollisionCylinder.obj
 0001:0009e650       ??_EdgCollisionCylinder@@UEAAPEAXI@Z 000000018009f650 f i physics:dgCollisionCylinder.obj
 0001:0009e650       ??_GdgCollisionCylinder@@UEAAPEAXI@Z 000000018009f650 f i physics:dgCollisionCylinder.obj
 0001:0009e690       ??0dgCollisionChamferCylinder@@QEAA@QEAVdgMemoryAllocator@@INNAEBVdgMatrix@@@Z 000000018009f690 f   physics:dgCollisionChamferCylinder.obj
 0001:0009e750       ??0dgCollisionChamferCylinder@@QEAA@QEAVdgWorld@@P6AXPEAX1_K@ZQEAX@Z 000000018009f750 f   physics:dgCollisionChamferCylinder.obj
 0001:0009e820       ??1dgCollisionChamferCylinder@@UEAA@XZ 000000018009f820 f   physics:dgCollisionChamferCylinder.obj
 0001:0009e8c0       ?Init@dgCollisionChamferCylinder@@IEAAXNN@Z 000000018009f8c0 f   physics:dgCollisionChamferCylinder.obj
 0001:0009f2a0       ?DebugCollision@dgCollisionChamferCylinder@@MEBAXAEBVdgMatrix@@P6AXPEAXHPEBNH@ZQEAX@Z 00000001800a02a0 f   physics:dgCollisionChamferCylinder.obj
 0001:0009f820       ?CalculateSignature@dgCollisionChamferCylinder@@MEBAHXZ 00000001800a0820 f   physics:dgCollisionChamferCylinder.obj
 0001:0009f8c0       ?SetCollisionBBox@dgCollisionChamferCylinder@@MEAAXAEBVdgVector@@0@Z 00000001800a08c0 f   physics:dgCollisionChamferCylinder.obj
 0001:0009f920       ?SupportVertexSimd@dgCollisionChamferCylinder@@MEBA?AVdgVector@@AEBV2@@Z 00000001800a0920 f   physics:dgCollisionChamferCylinder.obj
 0001:0009f960       ?SupportVertex@dgCollisionChamferCylinder@@MEBA?AVdgVector@@AEBV2@@Z 00000001800a0960 f   physics:dgCollisionChamferCylinder.obj
 0001:0009fbf0       ?RayCast@dgCollisionChamferCylinder@@MEBANAEBVdgVector@@0AEAVdgContactPoint@@P6AIQEBVdgBody@@QEBVdgCollision@@QEAX@Z24@Z 00000001800a0bf0 f   physics:dgCollisionChamferCylinder.obj
 0001:000a0050       ?RayCastSimd@dgCollisionChamferCylinder@@MEBANAEBVdgVector@@0AEAVdgContactPoint@@P6AIQEBVdgBody@@QEBVdgCollision@@QEAX@Z24@Z 00000001800a1050 f   physics:dgCollisionChamferCylinder.obj
 0001:000a04b0       ?CalculatePlaneIntersectionSimd@dgCollisionChamferCylinder@@MEBAHAEBVdgVector@@0QEAV2@@Z 00000001800a14b0 f   physics:dgCollisionChamferCylinder.obj
 0001:000a04f0       ?CalculatePlaneIntersection@dgCollisionChamferCylinder@@MEBAHAEBVdgVector@@0QEAV2@@Z 00000001800a14f0 f   physics:dgCollisionChamferCylinder.obj
 0001:000a1670       ?GetCollisionInfo@dgCollisionChamferCylinder@@MEBAXPEAVdgCollisionInfo@@@Z 00000001800a2670 f   physics:dgCollisionChamferCylinder.obj
 0001:000a1750       ?Serialize@dgCollisionChamferCylinder@@MEBAXP6AXPEAXPEBX_K@ZQEAX@Z 00000001800a2750 f   physics:dgCollisionChamferCylinder.obj
 0001:000a17e0       ??_EdgCollisionChamferCylinder@@UEAAPEAXI@Z 00000001800a27e0 f i physics:dgCollisionChamferCylinder.obj
 0001:000a17e0       ??_GdgCollisionChamferCylinder@@UEAAPEAXI@Z 00000001800a27e0 f i physics:dgCollisionChamferCylinder.obj
 0001:000a1820       ??0dgCollisionConvexModifier@@QEAA@PEAVdgConvexCollision@@PEAVdgWorld@@@Z 00000001800a2820 f   physics:dgCollisionConvexModifier.obj
 0001:000a19d0       ??0dgCollisionConvexModifier@@QEAA@QEAVdgWorld@@P6AXPEAX1_K@ZQEAX@Z 00000001800a29d0 f   physics:dgCollisionConvexModifier.obj
 0001:000a1b80       ??1dgCollisionConvexModifier@@UEAA@XZ 00000001800a2b80 f   physics:dgCollisionConvexModifier.obj
 0001:000a1be0       ?ModifierGetMatrix@dgCollisionConvexModifier@@UEBA?AVdgMatrix@@XZ 00000001800a2be0 f   physics:dgCollisionConvexModifier.obj
 0001:000a1c70       ?GetBoxMinRadius@dgCollisionConvexModifier@@EEBANXZ 00000001800a2c70 f   physics:dgCollisionConvexModifier.obj
 0001:000a1cb0       ?GetBoxMaxRadius@dgCollisionConvexModifier@@EEBANXZ 00000001800a2cb0 f   physics:dgCollisionConvexModifier.obj
 0001:000a1cf0       ?ModifierSetMatrix@dgCollisionConvexModifier@@UEAAXAEBVdgMatrix@@@Z 00000001800a2cf0 f   physics:dgCollisionConvexModifier.obj
 0001:000a24b0       ?CalculateSignature@dgCollisionConvexModifier@@EEBAHXZ 00000001800a34b0 f   physics:dgCollisionConvexModifier.obj
 0001:000a24c0       ?SetCollisionBBox@dgCollisionConvexModifier@@EEAAXAEBVdgVector@@0@Z 00000001800a34c0 f   physics:dgCollisionConvexModifier.obj
 0001:000a2520       ?CalcAABB@dgCollisionConvexModifier@@MEBAXAEBVdgMatrix@@AEAVdgVector@@1@Z 00000001800a3520 f   physics:dgCollisionConvexModifier.obj
 0001:000a2700       ?CalcAABBSimd@dgCollisionConvexModifier@@MEBAXAEBVdgMatrix@@AEAVdgVector@@1@Z 00000001800a3700 f   physics:dgCollisionConvexModifier.obj
 0001:000a2720       ?SupportVertex@dgCollisionConvexModifier@@MEBA?AVdgVector@@AEBV2@@Z 00000001800a3720 f   physics:dgCollisionConvexModifier.obj
 0001:000a28c0       ?SupportVertexSimd@dgCollisionConvexModifier@@MEBA?AVdgVector@@AEBV2@@Z 00000001800a38c0 f   physics:dgCollisionConvexModifier.obj
 0001:000a2910       ?CalculatePlaneIntersection@dgCollisionConvexModifier@@EEBAHAEBVdgVector@@0QEAV2@@Z 00000001800a3910 f   physics:dgCollisionConvexModifier.obj
 0001:000a2ad0       ?CalculatePlaneIntersectionSimd@dgCollisionConvexModifier@@EEBAHAEBVdgVector@@0QEAV2@@Z 00000001800a3ad0 f   physics:dgCollisionConvexModifier.obj
 0001:000a2b20       ?DebugCollision@dgCollisionConvexModifier@@MEBAXAEBVdgMatrix@@P6AXPEAXHPEBNH@ZQEAX@Z 00000001800a3b20 f   physics:dgCollisionConvexModifier.obj
 0001:000a2c00       ?RayCast@dgCollisionConvexModifier@@MEBANAEBVdgVector@@0AEAVdgContactPoint@@P6AIQEBVdgBody@@QEBVdgCollision@@QEAX@Z24@Z 00000001800a3c00 f   physics:dgCollisionConvexModifier.obj
 0001:000a2dd0       ?RayCastSimd@dgCollisionConvexModifier@@MEBANAEBVdgVector@@0AEAVdgContactPoint@@P6AIQEBVdgBody@@QEBVdgCollision@@QEAX@Z24@Z 00000001800a3dd0 f   physics:dgCollisionConvexModifier.obj
 0001:000a2fa0       ?GetVolume@dgCollisionConvexModifier@@MEBANXZ 00000001800a3fa0 f   physics:dgCollisionConvexModifier.obj
 0001:000a2fe0       ?CalculateVolumeIntegral@dgCollisionConvexModifier@@MEBA?AVdgVector@@AEBVdgMatrix@@P6AIPEAX10AEAVdgPlane@@@ZQEAX@Z 00000001800a3fe0 f   physics:dgCollisionConvexModifier.obj
 0001:000a3370       ?GetCollisionInfo@dgCollisionConvexModifier@@EEBAXPEAVdgCollisionInfo@@@Z 00000001800a4370 f   physics:dgCollisionConvexModifier.obj
 0001:000a3420       ?Serialize@dgCollisionConvexModifier@@EEBAXP6AXPEAXPEBX_K@ZQEAX@Z 00000001800a4420 f   physics:dgCollisionConvexModifier.obj
 0001:000a34a0       ?OOBBTest@dgCollisionConvexModifier@@MEBA_NAEBVdgMatrix@@QEBVdgConvexCollision@@QEAX@Z 00000001800a44a0 f   physics:dgCollisionConvexModifier.obj
 0001:000a34c0       ??_GdgCollisionConvexModifier@@UEAAPEAXI@Z 00000001800a44c0 f i physics:dgCollisionConvexModifier.obj
 0001:000a34c0       ??_EdgCollisionConvexModifier@@UEAAPEAXI@Z 00000001800a44c0 f i physics:dgCollisionConvexModifier.obj
 0001:000a3500       ?Transpose@dgMatrix@@QEBA?AV1@XZ 00000001800a4500 f i physics:dgCollisionConvexModifier.obj
 0001:000a3630       ?TransformVectorSimd@dgMatrix@@QEBA?AVdgVector@@AEBV2@@Z 00000001800a4630 f i physics:dgCollisionConvexModifier.obj
 0001:000a3670       ??0OOBBTestData@dgCollisionCompound@@QEAA@AEBVdgMatrix@@@Z 00000001800a4670 f   physics:dgCollisionCompound.obj
 0001:000a3b50       ??0OOBBTestData@dgCollisionCompound@@QEAA@AEBVdgMatrix@@AEBVdgVector@@1@Z 00000001800a4b50 f   physics:dgCollisionCompound.obj
 0001:000a4410       ??0dgNodeBase@dgCollisionCompound@@QEAA@PEAVdgConvexCollision@@H@Z 00000001800a5410 f   physics:dgCollisionCompound.obj
 0001:000a4670       ??0dgNodeBase@dgCollisionCompound@@QEAA@PEAV01@0H@Z 00000001800a5670 f   physics:dgCollisionCompound.obj
 0001:000a4980       ??1dgNodeBase@dgCollisionCompound@@QEAA@XZ 00000001800a5980 f   physics:dgCollisionCompound.obj
 0001:000a4a70       ?BoxTest@dgNodeBase@dgCollisionCompound@@QEBA_NAEBVOOBBTestData@2@QEBV12@@Z 00000001800a5a70 f   physics:dgCollisionCompound.obj
 0001:000a4f50       ?BoxTest@dgNodeBase@dgCollisionCompound@@QEBA_NAEBVOOBBTestData@2@@Z 00000001800a5f50 f   physics:dgCollisionCompound.obj
 0001:000a52a0       ?BoxClosestDistance@dgNodeBase@dgCollisionCompound@@QEBANQEBVdgVector@@H@Z 00000001800a62a0 f   physics:dgCollisionCompound.obj
 0001:000a5720       ??0dgCollisionCompound@@QEAA@PEAVdgWorld@@@Z 00000001800a6720 f   physics:dgCollisionCompound.obj
 0001:000a57b0       ??0dgCollisionCompound@@QEAA@HQEBQEAVdgConvexCollision@@PEAVdgWorld@@@Z 00000001800a67b0 f   physics:dgCollisionCompound.obj
 0001:000a5880       ??0dgCollisionCompound@@QEAA@AEBV0@@Z 00000001800a6880 f   physics:dgCollisionCompound.obj
 0001:000a5bf0       ??0dgCollisionCompound@@QEAA@QEAVdgWorld@@P6AXPEAX1_K@ZQEAX@Z 00000001800a6bf0 f   physics:dgCollisionCompound.obj
 0001:000a61c0       ??1dgCollisionCompound@@UEAA@XZ 00000001800a71c0 f   physics:dgCollisionCompound.obj
 0001:000a62b0       ?Init@dgCollisionCompound@@IEAAXHQEBQEAVdgConvexCollision@@@Z 00000001800a72b0 f   physics:dgCollisionCompound.obj
 0001:000a6430       ?LinkParentNodes@dgCollisionCompound@@IEAAXXZ 00000001800a7430 f   physics:dgCollisionCompound.obj
 0001:000a6550       ?SetCollisionBBox@dgCollisionCompound@@MEAAXAEBVdgVector@@0@Z 00000001800a7550 f   physics:dgCollisionCompound.obj
 0001:000a65b0       ?CalculateSignature@dgCollisionCompound@@MEBAHXZ 00000001800a75b0 f   physics:dgCollisionCompound.obj
 0001:000a6600       ?CalcAABB@dgCollisionCompound@@MEBAXAEBVdgMatrix@@AEAVdgVector@@1@Z 00000001800a7600 f   physics:dgCollisionCompound.obj
 0001:000a69a0       ?CalcAABBSimd@dgCollisionCompound@@MEBAXAEBVdgMatrix@@AEAVdgVector@@1@Z 00000001800a79a0 f   physics:dgCollisionCompound.obj
 0001:000a6d40       ?DebugCollision@dgCollisionCompound@@MEBAXAEBVdgMatrix@@P6AXPEAXHPEBNH@ZQEAX@Z 00000001800a7d40 f   physics:dgCollisionCompound.obj
 0001:000a6dd0       ?RayCast@dgCollisionCompound@@MEBANAEBVdgVector@@0AEAVdgContactPoint@@P6AIQEBVdgBody@@QEBVdgCollision@@QEAX@Z24@Z 00000001800a7dd0 f   physics:dgCollisionCompound.obj
 0001:000a7180       ?RayCastSimd@dgCollisionCompound@@MEBANAEBVdgVector@@0AEAVdgContactPoint@@P6AIQEBVdgBody@@QEBVdgCollision@@QEAX@Z24@Z 00000001800a8180 f   physics:dgCollisionCompound.obj
 0001:000a7530       ?GetVolume@dgCollisionCompound@@MEBANXZ 00000001800a8530 f   physics:dgCollisionCompound.obj
 0001:000a75c0       ?GetBoxMinRadius@dgCollisionCompound@@MEBANXZ 00000001800a85c0 f   physics:dgCollisionCompound.obj
 0001:000a75e0       ?GetBoxMaxRadius@dgCollisionCompound@@MEBANXZ 00000001800a85e0 f   physics:dgCollisionCompound.obj
 0001:000a7600       ?CalculateVolumeIntegral@dgCollisionCompound@@MEBA?AVdgVector@@AEBVdgMatrix@@P6AIPEAX10AEAVdgPlane@@@ZQEAX@Z 00000001800a8600 f   physics:dgCollisionCompound.obj
 0001:000a77e0       ?CalculateInertia@dgCollisionCompound@@MEBAXAEAVdgVector@@0@Z 00000001800a87e0 f   physics:dgCollisionCompound.obj
 0001:000a7c50       ?AddCollision@dgCollisionCompound@@QEAAXPEAVdgConvexCollision@@@Z 00000001800a8c50 f   physics:dgCollisionCompound.obj
 0001:000a7ca0       ?RemoveCollision@dgCollisionCompound@@QEAAXPEAVdgNodeBase@1@@Z 00000001800a8ca0 f   physics:dgCollisionCompound.obj
 0001:000a8100       ?SupportVertex@dgCollisionCompound@@MEBA?AVdgVector@@AEBV2@@Z 00000001800a9100 f   physics:dgCollisionCompound.obj
 0001:000a8660       ?GetCollisionInfo@dgCollisionCompound@@MEBAXPEAVdgCollisionInfo@@@Z 00000001800a9660 f   physics:dgCollisionCompound.obj
 0001:000a8720       ?Serialize@dgCollisionCompound@@MEBAXP6AXPEAXPEBX_K@ZQEAX@Z 00000001800a9720 f   physics:dgCollisionCompound.obj
 0001:000a8970       ?OOBBTest@dgCollisionCompound@@MEBA_NAEBVdgMatrix@@QEBVdgConvexCollision@@QEAX@Z 00000001800a9970 f   physics:dgCollisionCompound.obj
 0001:000a89d0       ?BuildTopDownTree@dgCollisionCompound@@IEAAPEAVdgNodeBase@1@HQEAPEAV21@AEAH@Z 00000001800a99d0 f   physics:dgCollisionCompound.obj
 0001:000a8ff0       ?BuildTree@dgCollisionCompound@@IEAAPEAVdgNodeBase@1@HQEBQEAVdgConvexCollision@@@Z 00000001800a9ff0 f   physics:dgCollisionCompound.obj
 0001:000a90f0       ?CalculateContacts@dgCollisionCompound@@IEBAHQEAUdgPair@dgCollidingPairCollector@@AEAVdgCollisionParamProxi@@H@Z 00000001800aa0f0 f   physics:dgCollisionCompound.obj
 0001:000a92e0       ?CalculateContactsToSingle@dgCollisionCompound@@IEBAHQEAUdgPair@dgCollidingPairCollector@@AEAVdgCollisionParamProxi@@H@Z 00000001800aa2e0 f   physics:dgCollisionCompound.obj
 0001:000a9ad0       ?CalculateContactsToCompound@dgCollisionCompound@@IEBAHQEAUdgPair@dgCollidingPairCollector@@AEAVdgCollisionParamProxi@@H@Z 00000001800aaad0 f   physics:dgCollisionCompound.obj
 0001:000aa630       ?CalculateContactsToCollisionTree@dgCollisionCompound@@IEBAHQEAUdgPair@dgCollidingPairCollector@@AEAVdgCollisionParamProxi@@H@Z 00000001800ab630 f   physics:dgCollisionCompound.obj
 0001:000ab820       ?CalculateContactsToHightField@dgCollisionCompound@@IEBAHQEAUdgPair@dgCollidingPairCollector@@AEAVdgCollisionParamProxi@@H@Z 00000001800ac820 f   physics:dgCollisionCompound.obj
 0001:000abe50       ?CalculateContactsBruteForce@dgCollisionCompound@@IEBAHQEAUdgPair@dgCollidingPairCollector@@AEAVdgCollisionParamProxi@@H@Z 00000001800ace50 f   physics:dgCollisionCompound.obj
 0001:000ac280       ?ClosestDitance@dgCollisionCompound@@IEBAHQEAVdgBody@@AEAVdgTriplex@@011@Z 00000001800ad280 f   physics:dgCollisionCompound.obj
 0001:000acaa0       ??_GdgNodeBase@dgCollisionCompound@@QEAAPEAXI@Z 00000001800adaa0 f i physics:dgCollisionCompound.obj
 0001:000acae0       ??3dgNodeBase@dgCollisionCompound@@SAXPEAX@Z 00000001800adae0 f i physics:dgCollisionCompound.obj
 0001:000acb00       ??_GdgCollisionCompound@@UEAAPEAXI@Z 00000001800adb00 f i physics:dgCollisionCompound.obj
 0001:000acb00       ??_EdgCollisionCompound@@UEAAPEAXI@Z 00000001800adb00 f i physics:dgCollisionCompound.obj
 0001:000acb40       ??2dgNodeBase@dgCollisionCompound@@SAPEAX_KQEAVdgMemoryAllocator@@@Z 00000001800adb40 f i physics:dgCollisionCompound.obj
 0001:000acb70       ??0dgNodeBase@dgCollisionCompound@@QEAA@XZ 00000001800adb70 f i physics:dgCollisionCompound.obj
 0001:000acbf0       ??$Swap@PEAVdgNodeBase@dgCollisionCompound@@@@YAXAEAPEAVdgNodeBase@dgCollisionCompound@@0@Z 00000001800adbf0 f i physics:dgCollisionCompound.obj
 0001:000acc30       ??0?$dgStack@PEAVdgNodeBase@dgCollisionCompound@@@@QEAA@H@Z 00000001800adc30 f i physics:dgCollisionCompound.obj
 0001:000acc70       ??1?$dgStack@PEAVdgNodeBase@dgCollisionCompound@@@@QEAA@XZ 00000001800adc70 f i physics:dgCollisionCompound.obj
 0001:000acc90       ??A?$dgStack@PEAVdgNodeBase@dgCollisionCompound@@@@QEAAAEAPEAVdgNodeBase@dgCollisionCompound@@H@Z 00000001800adc90 f i physics:dgCollisionCompound.obj
 0001:000acd40       ??0?$dgTree@PEBVdgNodeBase@dgCollisionCompound@@PEBV12@@@QEAA@QEAVdgMemoryAllocator@@@Z 00000001800add40 f i physics:dgCollisionCompound.obj
 0001:000acd80       ??1?$dgTree@PEBVdgNodeBase@dgCollisionCompound@@PEBV12@@@QEAA@XZ 00000001800add80 f i physics:dgCollisionCompound.obj
 0001:000acda0       ?GetCount@?$dgTree@PEBVdgNodeBase@dgCollisionCompound@@PEBV12@@@QEBAHXZ 00000001800adda0 f i physics:dgCollisionCompound.obj
 0001:000acdb0       ?Find@?$dgTree@PEBVdgNodeBase@dgCollisionCompound@@PEBV12@@@QEBAPEAVdgTreeNode@1@PEBVdgNodeBase@dgCollisionCompound@@@Z 00000001800addb0 f i physics:dgCollisionCompound.obj
 0001:000acf30       ?Insert@?$dgTree@PEBVdgNodeBase@dgCollisionCompound@@PEBV12@@@QEAAPEAVdgTreeNode@1@AEBQEBVdgNodeBase@dgCollisionCompound@@PEBV34@@Z 00000001800adf30 f i physics:dgCollisionCompound.obj
 0001:000acf80       ?RemoveAll@?$dgTree@PEBVdgNodeBase@dgCollisionCompound@@PEBV12@@@QEAAXXZ 00000001800adf80 f i physics:dgCollisionCompound.obj
 0001:000acfc0       ?GetLeft@dgTreeNode@?$dgTree@PEBVdgNodeBase@dgCollisionCompound@@PEBV12@@@AEBAPEAV12@XZ 00000001800adfc0 f i physics:dgCollisionCompound.obj
 0001:000acfd0       ?GetRight@dgTreeNode@?$dgTree@PEBVdgNodeBase@dgCollisionCompound@@PEBV12@@@AEBAPEAV12@XZ 00000001800adfd0 f i physics:dgCollisionCompound.obj
 0001:000acfe0       ?Insert@?$dgTree@PEBVdgNodeBase@dgCollisionCompound@@PEBV12@@@QEAAPEAVdgTreeNode@1@AEBQEBVdgNodeBase@dgCollisionCompound@@PEBV34@AEA_N@Z 00000001800adfe0 f i physics:dgCollisionCompound.obj
 0001:000ad2a0       ?CompareKeys@?$dgTree@PEBVdgNodeBase@dgCollisionCompound@@PEBV12@@@AEBAHAEBQEBVdgNodeBase@dgCollisionCompound@@0@Z 00000001800ae2a0 f i physics:dgCollisionCompound.obj
 0001:000ad2f0       ??0dgTreeNode@?$dgTree@PEBVdgNodeBase@dgCollisionCompound@@PEBV12@@@AEAA@AEBQEBVdgNodeBase@dgCollisionCompound@@0PEAV01@@Z 00000001800ae2f0 f i physics:dgCollisionCompound.obj
 0001:000ad390       ??0dgCollisionUserMesh@@QEAA@PEAVdgMemoryAllocator@@AEBVdgVector@@1AEBVdgUserMeshCreation@@@Z 00000001800ae390 f   physics:dgCollisionUserMesh.obj
 0001:000ad490       ??0dgCollisionUserMesh@@QEAA@QEAVdgWorld@@P6AXPEAX1_K@ZQEAX@Z 00000001800ae490 f   physics:dgCollisionUserMesh.obj
 0001:000ad530       ??1dgCollisionUserMesh@@UEAA@XZ 00000001800ae530 f   physics:dgCollisionUserMesh.obj
 0001:000ad590       ?Serialize@dgCollisionUserMesh@@EEBAXP6AXPEAXPEBX_K@ZQEAX@Z 00000001800ae590 f   physics:dgCollisionUserMesh.obj
 0001:000ad5f0       ?GetVertexListIndexList@dgCollisionUserMesh@@UEBAXAEBVdgVector@@0AEAVdgGetVertexListIndexList@dgCollisionMesh@@@Z 00000001800ae5f0 f   physics:dgCollisionUserMesh.obj
 0001:000ad6f0       ?GetCollisionInfo@dgCollisionUserMesh@@EEBAXPEAVdgCollisionInfo@@@Z 00000001800ae6f0 f   physics:dgCollisionUserMesh.obj
 0001:000ad790       ?RayCastSimd@dgCollisionUserMesh@@EEBANAEBVdgVector@@0AEAVdgContactPoint@@P6AIQEBVdgBody@@QEBVdgCollision@@QEAX@Z24@Z 00000001800ae790 f   physics:dgCollisionUserMesh.obj
 0001:000ad800       ?RayCast@dgCollisionUserMesh@@EEBANAEBVdgVector@@0AEAVdgContactPoint@@P6AIQEBVdgBody@@QEBVdgCollision@@QEAX@Z24@Z 00000001800ae800 f   physics:dgCollisionUserMesh.obj
 0001:000ad9d0       ?GetCollidingFacesSimd@dgCollisionUserMesh@@EEBAXQEAVdgPolygonMeshDesc@@@Z 00000001800ae9d0 f   physics:dgCollisionUserMesh.obj
 0001:000ada10       ?GetCollidingFaces@dgCollisionUserMesh@@EEBAXQEAVdgPolygonMeshDesc@@@Z 00000001800aea10 f   physics:dgCollisionUserMesh.obj
 0001:000ada80       ?DebugCollision@dgCollisionUserMesh@@EEBAXAEBVdgMatrix@@P6AXPEAXHPEBNH@ZQEAX@Z 00000001800aea80 f   physics:dgCollisionUserMesh.obj
 0001:000adaa0       ??_GdgCollisionUserMesh@@UEAAPEAXI@Z 00000001800aeaa0 f i physics:dgCollisionUserMesh.obj
 0001:000adaa0       ??_EdgCollisionUserMesh@@UEAAPEAXI@Z 00000001800aeaa0 f i physics:dgCollisionUserMesh.obj
 0001:000adae0       ??0dgCollisionMeshRayHitDesc@@QEAA@XZ 00000001800aeae0 f i physics:dgCollisionUserMesh.obj
 0001:000adb60       ?InitConvexCollision@dgWorld@@CAXXZ 00000001800aeb60 f   physics:dgMinkowskiConv.obj
 0001:000ae700       ?SphereSphereCollision@dgWorld@@AEBAHAEBVdgVector@@N0NAEAVdgCollisionParamProxi@@@Z 00000001800af700 f   physics:dgMinkowskiConv.obj
 0001:000aeab0       ?CalculateSphereToSphereContacts@dgWorld@@AEBAHAEAVdgCollisionParamProxi@@@Z 00000001800afab0 f   physics:dgMinkowskiConv.obj
 0001:000aebf0       ?CalculateCapsuleToSphereContacts@dgWorld@@AEBAHAEAVdgCollisionParamProxi@@@Z 00000001800afbf0 f   physics:dgMinkowskiConv.obj
 0001:000aee10       ?CalculateCapsuleToCapsuleContacts@dgWorld@@AEBAHAEAVdgCollisionParamProxi@@@Z 00000001800afe10 f   physics:dgMinkowskiConv.obj
 0001:000afd60       ?CalculateBoxToSphereContacts@dgWorld@@AEBAHAEAVdgCollisionParamProxi@@@Z 00000001800b0d60 f   physics:dgMinkowskiConv.obj
 0001:000b2350       ?FilterPolygonEdgeContacts@dgWorld@@AEBAHHQEAVdgContactPoint@@@Z 00000001800b3350 f   physics:dgMinkowskiConv.obj
 0001:000b2770       ?ClosestPoint@dgWorld@@AEBAHAEAVdgCollisionParamProxi@@@Z 00000001800b3770 f   physics:dgMinkowskiConv.obj
 0001:000b28a0       ?CalculateHullToHullContactsSimd@dgWorld@@AEBAHAEAVdgCollisionParamProxi@@@Z 00000001800b38a0 f   physics:dgMinkowskiConv.obj
 0001:000b28c0       ?CalculateHullToHullContacts@dgWorld@@AEBAHAEAVdgCollisionParamProxi@@@Z 00000001800b38c0 f   physics:dgMinkowskiConv.obj
 0001:000b2a40       ?CalculateConvexToConvexContactsSimd@dgWorld@@AEBAHAEAVdgCollisionParamProxi@@@Z 00000001800b3a40 f   physics:dgMinkowskiConv.obj
 0001:000b2a60       ?CalculateConvexToConvexContacts@dgWorld@@AEBAHAEAVdgCollisionParamProxi@@@Z 00000001800b3a60 f   physics:dgMinkowskiConv.obj
 0001:000b36a0       ?CalculatePolySoupToSphereContactsDescrete@dgWorld@@AEBAHAEAVdgCollisionParamProxi@@@Z 00000001800b46a0 f   physics:dgMinkowskiConv.obj
 0001:000b4080       ?CalculatePolySoupToElipseContactsDescrete@dgWorld@@AEBAHAEAVdgCollisionParamProxi@@@Z 00000001800b5080 f   physics:dgMinkowskiConv.obj
 0001:000b4ab0       ?CalculatePolySoupToSphereContactsContinue@dgWorld@@AEBAHAEAVdgCollisionParamProxi@@@Z 00000001800b5ab0 f   physics:dgMinkowskiConv.obj
 0001:000b5400       ?CalculatePolySoupToHullContactsDescreteSimd@dgWorld@@AEBAHAEAVdgCollisionParamProxi@@@Z 00000001800b6400 f   physics:dgMinkowskiConv.obj
 0001:000b5420       ?CalculatePolySoupToHullContactsDescrete@dgWorld@@AEBAHAEAVdgCollisionParamProxi@@@Z 00000001800b6420 f   physics:dgMinkowskiConv.obj
 0001:000b5a90       ?CalculateConvexToNonConvexContactsContinueSimd@dgWorld@@AEBAHAEAVdgCollisionParamProxi@@@Z 00000001800b6a90 f   physics:dgMinkowskiConv.obj
 0001:000b5ab0       ?CalculateConvexToNonConvexContactsContinue@dgWorld@@AEBAHAEAVdgCollisionParamProxi@@@Z 00000001800b6ab0 f   physics:dgMinkowskiConv.obj
 0001:000b6420       ?CalculateConvexToNonConvexContactsSimd@dgWorld@@AEBAHAEAVdgCollisionParamProxi@@@Z 00000001800b7420 f   physics:dgMinkowskiConv.obj
 0001:000b6440       ?CalculateConvexToNonConvexContacts@dgWorld@@AEBAHAEAVdgCollisionParamProxi@@@Z 00000001800b7440 f   physics:dgMinkowskiConv.obj
 0001:000b7250       ?GetRadius@dgCollisionCapsule@@QEBANXZ 00000001800b8250 f i physics:dgMinkowskiConv.obj
 0001:000b7270       ?GetHeight@dgCollisionCapsule@@QEBANXZ 00000001800b8270 f i physics:dgMinkowskiConv.obj
 0001:000b7290       ?CalculateClosestPoints@dgContactSolver@@AEAAHXZ 00000001800b8290 f i physics:dgMinkowskiConv.obj
 0001:000b87d0       ?CalcSupportVertex@dgContactSolver@@AEAAXAEBVdgVector@@H@Z 00000001800b97d0 f i physics:dgMinkowskiConv.obj
 0001:000b89b0       ?ReduceLine@dgContactSolver@@AEAA?AVdgVector@@AEBV2@@Z 00000001800b99b0 f i physics:dgMinkowskiConv.obj
 0001:000b8c20       ?ReduceTriangle@dgContactSolver@@AEAA?AVdgVector@@AEBV2@@Z 00000001800b9c20 f i physics:dgMinkowskiConv.obj
 0001:000b9890       ?ReduceTetrahedrum@dgContactSolver@@AEAA?AVdgVector@@AEBV2@@Z 00000001800ba890 f i physics:dgMinkowskiConv.obj
 0001:000b9e10       ?CalcSeparatingPlane@dgContactSolver@@AEAA?AW4dgMinkReturnCode@1@AEAPEAVdgMinkFace@1@AEBVdgVector@@@Z 00000001800bae10 f i physics:dgMinkowskiConv.obj
 0001:000baa20       ?CheckTetraHedronVolume@dgContactSolver@@AEBA_NXZ 00000001800bba20 f i physics:dgMinkowskiConv.obj
 0001:000bab40       ?UpdateSeparatingPlane@dgContactSolver@@AEAA?AW4dgMinkReturnCode@1@AEAPEAVdgMinkFace@1@AEBVdgVector@@@Z 00000001800bbb40 f i physics:dgMinkowskiConv.obj
 0001:000bb710       ?UpdateSeparatingPlaneFallbackSolution@dgContactSolver@@AEAA?AW4dgMinkReturnCode@1@AEAPEAVdgMinkFace@1@AEBVdgVector@@@Z 00000001800bc710 f i physics:dgMinkowskiConv.obj
 0001:000bd910       ??0dgContactSolver@@QEAA@AEAVdgCollisionParamProxi@@@Z 00000001800be910 f i physics:dgMinkowskiConv.obj
 0001:000bdc80       ??0dgMinkFace@dgContactSolver@@QEAA@XZ 00000001800bec80 f i physics:dgMinkowskiConv.obj
 0001:000bdca0       ?HullHullContactsLarge@dgContactSolver@@QEAAHH@Z 00000001800beca0 f i physics:dgMinkowskiConv.obj
 0001:000be330       ?CalculateContacts@dgContactSolver@@AEAAHQEAVdgMinkFace@1@HQEAVdgContactPoint@@H@Z 00000001800bf330 f i physics:dgMinkowskiConv.obj
 0001:000bf4b0       ?CalculateContactAlternateMethod@dgContactSolver@@AEAAHQEAVdgMinkFace@1@HQEAVdgContactPoint@@H@Z 00000001800c04b0 f i physics:dgMinkowskiConv.obj
 0001:000c04f0       ?CalculateConvexShapeIntersection@dgContactSolver@@AEBAHAEBVdgMatrix@@AEBVdgVector@@INHQEAV3@H2QEAVdgContactPoint@@H@Z 00000001800c14f0 f i physics:dgMinkowskiConv.obj
 0001:000c1460       ?CalculateConvexShapeIntersectionLine@dgContactSolver@@AEBAHAEBVdgMatrix@@AEBVdgVector@@INHQEAV3@H2QEAVdgContactPoint@@@Z 00000001800c2460 f i physics:dgMinkowskiConv.obj
 0001:000c1be0       ?ReduceContacts@dgContactSolver@@AEBAPEAUdgPerimenterEdge@1@PEAU21@H@Z 00000001800c2be0 f i physics:dgMinkowskiConv.obj
 0001:000c1f40       ?CalcSeparatingPlaneLarge@dgContactSolver@@AEAA?AW4dgMinkReturnCode@1@AEAPEAVdgMinkFace@1@AEBVdgBigVector@@@Z 00000001800c2f40 f i physics:dgMinkowskiConv.obj
 0001:000c2b40       ?CheckTetraHedronVolumeLarge@dgContactSolver@@AEBA_NXZ 00000001800c3b40 f i physics:dgMinkowskiConv.obj
 0001:000c2c70       ?CalcSupportVertexLarge@dgContactSolver@@AEAAXAEBVdgVector@@H@Z 00000001800c3c70 f i physics:dgMinkowskiConv.obj
 0001:000c2e80       ??0dgBigVector@@QEAA@XZ    00000001800c3e80 f i physics:dgMinkowskiConv.obj
 0001:000c2ea0       ?UpdateSeparatingPlaneLarge@dgContactSolver@@AEAA?AW4dgMinkReturnCode@1@AEAPEAVdgMinkFace@1@AEBVdgBigVector@@@Z 00000001800c3ea0 f i physics:dgMinkowskiConv.obj
 0001:000c3af0       ?UpdateSeparatingPlaneFallbackSolutionLarge@dgContactSolver@@AEAA?AW4dgMinkReturnCode@1@AEAPEAVdgMinkFace@1@AEBVdgBigVector@@@Z 00000001800c4af0 f i physics:dgMinkowskiConv.obj
 0001:000c5ec0       ?ReduceLineLarge@dgContactSolver@@AEAA?AVdgBigVector@@AEBV2@@Z 00000001800c6ec0 f i physics:dgMinkowskiConv.obj
 0001:000c6170       ?ReduceTriangleLarge@dgContactSolver@@AEAA?AVdgBigVector@@AEBV2@@Z 00000001800c7170 f i physics:dgMinkowskiConv.obj
 0001:000c6e00       ?ReduceTetrahedrumLarge@dgContactSolver@@AEAA?AVdgBigVector@@AEBV2@@Z 00000001800c7e00 f i physics:dgMinkowskiConv.obj
 0001:000c73a0       ?CalcFacePlaneLarge@dgContactSolver@@AEAA_NQEAVdgMinkFace@1@@Z 00000001800c83a0 f i physics:dgMinkowskiConv.obj
 0001:000c7530       ??0dgBigPlane@@QEAA@AEBVdgBigVector@@00@Z 00000001800c8530 f i physics:dgMinkowskiConv.obj
 0001:000c75e0       ?Scale@dgBigPlane@@QEBA?AV1@N@Z 00000001800c85e0 f i physics:dgMinkowskiConv.obj
 0001:000c7650       ??0dgBigPlane@@QEAA@NNNN@Z 00000001800c8650 f i physics:dgMinkowskiConv.obj
 0001:000c76a0       ?CalculateClipPlaneLarge@dgContactSolver@@AEAAPEAVdgMinkFace@1@XZ 00000001800c86a0 f i physics:dgMinkowskiConv.obj
 0001:000c9020       ??0dgClosestFace@dgContactSolver@@QEAA@PEAXH@Z 00000001800ca020 f i physics:dgMinkowskiConv.obj
 0001:000c9060       ?NewFace@dgContactSolver@@AEAAPEAVdgMinkFace@1@XZ 00000001800ca060 f i physics:dgMinkowskiConv.obj
 0001:000c9130       ??1?$dgUpHeap@PEAUdgPerimenterEdge@dgContactSolver@@N@@QEAA@XZ 00000001800ca130 f i physics:dgMinkowskiConv.obj
 0001:000c9150       ??1dgClosestFace@dgContactSolver@@QEAA@XZ 00000001800ca150 f i physics:dgMinkowskiConv.obj
 0001:000c9170       ??1?$dgDownHeap@PEAVdgMinkFace@dgContactSolver@@N@@QEAA@XZ 00000001800ca170 f i physics:dgMinkowskiConv.obj
 0001:000c9190       ?HullHullContinueContacts@dgContactSolver@@QEAAHAEANQEAVdgContactPoint@@HHH@Z 00000001800ca190 f i physics:dgMinkowskiConv.obj
 0001:000ca2e0       ?CalculateContactsContinues@dgContactSolver@@AEAAHHQEAVdgContactPoint@@HPEBVdgVector@@1N@Z 00000001800cb2e0 f i physics:dgMinkowskiConv.obj
 0001:000ca600       ?CalcFacePlane@dgContactSolver@@AEAA_NQEAVdgMinkFace@1@@Z 00000001800cb600 f i physics:dgMinkowskiConv.obj
 0001:000ca780       ??0dgPlane@@QEAA@AEBVdgVector@@00@Z 00000001800cb780 f i physics:dgMinkowskiConv.obj
 0001:000ca830       ?CalculateClipPlane@dgContactSolver@@AEAAPEAVdgMinkFace@1@XZ 00000001800cb830 f i physics:dgMinkowskiConv.obj
 0001:000cbf00       ?CalculateVelocities@dgContactSolver@@QEAAXN@Z 00000001800ccf00 f i physics:dgMinkowskiConv.obj
 0001:000cc030       ??0dgCollisionBoundPlaneCache@@QEAA@XZ 00000001800cd030 f i physics:dgMinkowskiConv.obj
 0001:000cc080       ?GetShapeClipSize@dgContactSolver@@AEBANQEAVdgCollision@@@Z 00000001800cd080 f i physics:dgMinkowskiConv.obj
 0001:000cc0c0       ?HullHullContacts@dgContactSolver@@QEAAHH@Z 00000001800cd0c0 f i physics:dgMinkowskiConv.obj
 0001:000cc670       ??0dgContactSolver@@QEAA@AEAVdgCollisionParamProxi@@PEAVdgCollision@@@Z 00000001800cd670 f i physics:dgMinkowskiConv.obj
 0001:000cc9e0       ??0dgPolygonMeshDesc@@QEAA@XZ 00000001800cd9e0 f i physics:dgMinkowskiConv.obj
 0001:000cca10       ??1?$dgHeapBase@PEAVdgMinkFace@dgContactSolver@@N@@IEAA@XZ 00000001800cda10 f i physics:dgMinkowskiConv.obj
 0001:000cca50       ?GetCount@?$dgHeapBase@PEAVdgMinkFace@dgContactSolver@@N@@QEBAHXZ 00000001800cda50 f i physics:dgMinkowskiConv.obj
 0001:000cca60       ??A?$dgHeapBase@PEAVdgMinkFace@dgContactSolver@@N@@QEBAAEBQEAVdgMinkFace@dgContactSolver@@H@Z 00000001800cda60 f i physics:dgMinkowskiConv.obj
 0001:000ccad0       ??0?$dgDownHeap@PEAVdgMinkFace@dgContactSolver@@N@@QEAA@QEBXH@Z 00000001800cdad0 f i physics:dgMinkowskiConv.obj
 0001:000ccb10       ?Pop@?$dgDownHeap@PEAVdgMinkFace@dgContactSolver@@N@@QEAAXXZ 00000001800cdb10 f i physics:dgMinkowskiConv.obj
 0001:000cccb0       ?Push@?$dgDownHeap@PEAVdgMinkFace@dgContactSolver@@N@@QEAAXAEAPEAVdgMinkFace@dgContactSolver@@N@Z 00000001800cdcb0 f i physics:dgMinkowskiConv.obj
 0001:000cce50       ??1?$dgHeapBase@PEAUdgPerimenterEdge@dgContactSolver@@N@@IEAA@XZ 00000001800cde50 f i physics:dgMinkowskiConv.obj
 0001:000cce90       ?Flush@?$dgHeapBase@PEAUdgPerimenterEdge@dgContactSolver@@N@@QEAAXXZ 00000001800cde90 f i physics:dgMinkowskiConv.obj
 0001:000cceb0       ?GetCount@?$dgHeapBase@PEAUdgPerimenterEdge@dgContactSolver@@N@@QEBAHXZ 00000001800cdeb0 f i physics:dgMinkowskiConv.obj
 0001:000ccec0       ??A?$dgHeapBase@PEAUdgPerimenterEdge@dgContactSolver@@N@@QEBAAEBQEAUdgPerimenterEdge@dgContactSolver@@H@Z 00000001800cdec0 f i physics:dgMinkowskiConv.obj
 0001:000ccf30       ??0?$dgUpHeap@PEAUdgPerimenterEdge@dgContactSolver@@N@@QEAA@QEBXH@Z 00000001800cdf30 f i physics:dgMinkowskiConv.obj
 0001:000ccf70       ?Pop@?$dgUpHeap@PEAUdgPerimenterEdge@dgContactSolver@@N@@QEAAXXZ 00000001800cdf70 f i physics:dgMinkowskiConv.obj
 0001:000cd110       ?Push@?$dgUpHeap@PEAUdgPerimenterEdge@dgContactSolver@@N@@QEAAXAEAPEAUdgPerimenterEdge@dgContactSolver@@N@Z 00000001800ce110 f i physics:dgMinkowskiConv.obj
 0001:000cd2b0       ?Remove@?$dgUpHeap@PEAUdgPerimenterEdge@dgContactSolver@@N@@QEAAXH@Z 00000001800ce2b0 f i physics:dgMinkowskiConv.obj
 0001:000cd450       ??$Swap@VdgBigVector@@@@YAXAEAVdgBigVector@@0@Z 00000001800ce450 f i physics:dgMinkowskiConv.obj
 0001:000cd4d0       ??$Swap@VdgContactPoint@@@@YAXAEAVdgContactPoint@@0@Z 00000001800ce4d0 f i physics:dgMinkowskiConv.obj
 0001:000cd560       ??0?$dgHeapBase@PEAVdgMinkFace@dgContactSolver@@N@@IEAA@QEBXH@Z 00000001800ce560 f i physics:dgMinkowskiConv.obj
 0001:000cd5c0       ??0?$dgHeapBase@PEAUdgPerimenterEdge@dgContactSolver@@N@@IEAA@QEBXH@Z 00000001800ce5c0 f i physics:dgMinkowskiConv.obj
 0001:000cd620       ?Flush@?$dgHeapBase@PEAVdgMinkFace@dgContactSolver@@N@@QEAAXXZ 00000001800ce620 f i physics:dgMinkowskiConv.obj
 0001:000cd640       ?dgExpandTraceMessage@@YAXPEBDZZ 00000001800ce640 f   corelib:dgDebug.obj
 0001:000cd6b0       ??0dgMemoryAllocator@@QEAA@XZ 00000001800ce6b0 f   corelib:dgMemory.obj
 0001:000cd730       ??0dgMemoryAllocator@@IEAA@P6APEAXI@ZP6AXPEAXI@Z@Z 00000001800ce730 f   corelib:dgMemory.obj
 0001:000cd7a0       ??1dgMemoryAllocator@@QEAA@XZ 00000001800ce7a0 f   corelib:dgMemory.obj
 0001:000cd810       ??2dgMemoryAllocator@@SAPEAX_K@Z 00000001800ce810 f   corelib:dgMemory.obj
 0001:000cd830       ??3dgMemoryAllocator@@SAXPEAX@Z 00000001800ce830 f   corelib:dgMemory.obj
 0001:000cd850       ?GetMemoryUsed@dgMemoryAllocator@@QEBAHXZ 00000001800ce850 f   corelib:dgMemory.obj
 0001:000cd870       ?SetAllocatorsCallback@dgMemoryAllocator@@QEAAXP6APEAXI@ZP6AXPEAXI@Z@Z 00000001800ce870 f   corelib:dgMemory.obj
 0001:000cd8b0       ?MallocLow@dgMemoryAllocator@@QEAAPEAXHH@Z 00000001800ce8b0 f   corelib:dgMemory.obj
 0001:000cd9f0       ?FreeLow@dgMemoryAllocator@@QEAAXPEAX@Z 00000001800ce9f0 f   corelib:dgMemory.obj
 0001:000cda90       ?Malloc@dgMemoryAllocator@@QEAAPEAXH@Z 00000001800cea90 f   corelib:dgMemory.obj
 0001:000cde40       ?Free@dgMemoryAllocator@@QEAAXPEAX@Z 00000001800cee40 f   corelib:dgMemory.obj
 0001:000ce160       ?dgSetGlobalAllocators@@YAXP6APEAXI@ZP6AXPEAXI@Z@Z 00000001800cf160 f   corelib:dgMemory.obj
 0001:000ce190       ?dgGetMemoryUsed@@YAHXZ    00000001800cf190 f   corelib:dgMemory.obj
 0001:000ce1b0       ?dgMallocStack@@YAPEAX_K@Z 00000001800cf1b0 f   corelib:dgMemory.obj
 0001:000ce1e0       ?dgMallocAligned@@YAPEAX_KH@Z 00000001800cf1e0 f   corelib:dgMemory.obj
 0001:000ce210       ?dgFreeStack@@YAXPEAX@Z    00000001800cf210 f   corelib:dgMemory.obj
 0001:000ce240       ?dgMalloc@@YAPEAX_KQEAVdgMemoryAllocator@@@Z 00000001800cf240 f   corelib:dgMemory.obj
 0001:000ce2c0       ?dgFree@@YAXPEAX@Z         00000001800cf2c0 f   corelib:dgMemory.obj
 0001:000ce340       ?SaveInfo@dgMemoryInfo@dgMemoryAllocator@@QEAAXQEAV2@QEAXHAEAH@Z 00000001800cf340 f i corelib:dgMemory.obj
 0001:000ce3a0       ?GetMemoryUsed@dgGlobalAllocator@@QEBAHXZ 00000001800cf3a0 f i corelib:dgMemory.obj
 0001:000ce410       ?GetInfo@dgListNode@?$dgList@PEAVdgMemoryAllocator@@@@QEAAAEAPEAVdgMemoryAllocator@@XZ 00000001800cf410 f i corelib:dgMemory.obj
 0001:000ce420       ?GetNext@dgListNode@?$dgList@PEAVdgMemoryAllocator@@@@QEBAPEAV12@XZ 00000001800cf420 f i corelib:dgMemory.obj
 0001:000ce430       ?GetFirst@?$dgList@PEAVdgMemoryAllocator@@@@QEBAPEAVdgListNode@1@XZ 00000001800cf430 f i corelib:dgMemory.obj
 0001:000ce440       ?Append@?$dgList@PEAVdgMemoryAllocator@@@@QEAAPEAVdgListNode@1@AEBQEAVdgMemoryAllocator@@@Z 00000001800cf440 f i corelib:dgMemory.obj
 0001:000ce540       ?Remove@?$dgList@PEAVdgMemoryAllocator@@@@QEAAXAEBQEAVdgMemoryAllocator@@@Z 00000001800cf540 f i corelib:dgMemory.obj
 0001:000ce580       ??2dgListNode@?$dgList@PEAVdgMemoryAllocator@@@@CAPEAX_KQEAVdgMemoryAllocator@@@Z 00000001800cf580 f i corelib:dgMemory.obj
 0001:000ce5b0       ??0dgListNode@?$dgList@PEAVdgMemoryAllocator@@@@AEAA@AEBQEAVdgMemoryAllocator@@QEAV01@1@Z 00000001800cf5b0 f i corelib:dgMemory.obj
 0001:000ce680       ?Find@?$dgList@PEAVdgMemoryAllocator@@@@QEBAPEAVdgListNode@1@AEBQEAVdgMemoryAllocator@@@Z 00000001800cf680 f i corelib:dgMemory.obj
 0001:000ce6e0       ?Remove@?$dgList@PEAVdgMemoryAllocator@@@@QEAAXQEAVdgListNode@1@@Z 00000001800cf6e0 f i corelib:dgMemory.obj
 0001:000ce740       ??_GdgListNode@?$dgList@PEAVdgMemoryAllocator@@@@AEAAPEAXI@Z 00000001800cf740 f i corelib:dgMemory.obj
 0001:000ce780       ??3dgListNode@?$dgList@PEAVdgMemoryAllocator@@@@CAXPEAX@Z 00000001800cf780 f i corelib:dgMemory.obj
 0001:000ce7a0       ??1dgListNode@?$dgList@PEAVdgMemoryAllocator@@@@AEAA@XZ 00000001800cf7a0 f i corelib:dgMemory.obj
 0001:000ce7b0       ?Unlink@?$dgList@PEAVdgMemoryAllocator@@@@QEAAXQEAVdgListNode@1@@Z 00000001800cf7b0 f i corelib:dgMemory.obj
 0001:000ce8a0       ?Unlink@dgListNode@?$dgList@PEAVdgMemoryAllocator@@@@AEAAXXZ 00000001800cf8a0 f i corelib:dgMemory.obj
 0001:000ce910       ?GetPrev@dgListNode@?$dgList@PEAVdgMemoryAllocator@@@@QEBAPEAV12@XZ 00000001800cf910 f i corelib:dgMemory.obj
 0001:000ce920       ?dgAtomicAdd@@YAHQEAHH@Z   00000001800cf920 f i corelib:dgMemory.obj
 0001:000ce940       ??0dgGlobalAllocator@@QEAA@XZ 00000001800cf940 f i corelib:dgMemory.obj
 0001:000ce9a0       ?__malloc__@dgGlobalAllocator@@SAPEAXI@Z 00000001800cf9a0 f i corelib:dgMemory.obj
 0001:000ce9c0       ?__free__@dgGlobalAllocator@@SAXPEAXI@Z 00000001800cf9c0 f i corelib:dgMemory.obj
 0001:000ce9e0       ??0?$dgList@PEAVdgMemoryAllocator@@@@QEAA@QEAVdgMemoryAllocator@@@Z 00000001800cf9e0 f i corelib:dgMemory.obj
 0001:000cea30       ?SetAllocator@?$dgList@PEAVdgMemoryAllocator@@@@QEAAXQEAVdgMemoryAllocator@@@Z 00000001800cfa30 f i corelib:dgMemory.obj
 0001:000cea60       ??1dgGlobalAllocator@@QEAA@XZ 00000001800cfa60 f i corelib:dgMemory.obj
 0001:000cead0       ??1?$dgList@PEAVdgMemoryAllocator@@@@QEAA@XZ 00000001800cfad0 f i corelib:dgMemory.obj
 0001:000ceaf0       ?GetCount@?$dgList@PEAVdgMemoryAllocator@@@@QEBAHXZ 00000001800cfaf0 f i corelib:dgMemory.obj
 0001:000ceb00       ?RemoveAll@?$dgList@PEAVdgMemoryAllocator@@@@QEAAXXZ 00000001800cfb00 f i corelib:dgMemory.obj
 0001:000cec00       ?DJBHash@InternalCRC@@YAIQEBDH@Z 00000001800cfc00 f   corelib:dgCRC.obj
 0001:000cec70       ?dgCRC@@YAIQEBD@Z          00000001800cfc70 f   corelib:dgCRC.obj
 0001:000ced40       ?dgCRC@@YAIQEBXHI@Z        00000001800cfd40 f   corelib:dgCRC.obj
 0001:000cee10       ?dgInverseCRC@@YAPEBDI@Z   00000001800cfe10 f   corelib:dgCRC.obj
 0001:000cee60       ?dgHash@@YAIQEBXH@Z        00000001800cfe60 f   corelib:dgCRC.obj
 0001:000cee80       ?dgGetIdentityMatrix@@YAAEBVdgMatrix@@XZ 00000001800cfe80 f   corelib:dgMatrix.obj
 0001:000cee90       ?dgGetZeroMatrix@@YAAEBVdgMatrix@@XZ 00000001800cfe90 f   corelib:dgMatrix.obj
 0001:000ceea0       ??0dgMatrix@@QEAA@AEBVdgQuaternion@@AEBVdgVector@@@Z 00000001800cfea0 f   corelib:dgMatrix.obj
 0001:000cf310       ??DdgMatrix@@QEBA?AV0@AEBV0@@Z 00000001800d0310 f   corelib:dgMatrix.obj
 0001:000d06a0       ?TransformTriplex@dgMatrix@@QEBAXQEAXHQEBXHH@Z 00000001800d16a0 f   corelib:dgMatrix.obj
 0001:000d0860       ?TransformBBox@dgMatrix@@QEBAXAEBVdgVector@@0AEAV2@1@Z 00000001800d1860 f   corelib:dgMatrix.obj
 0001:000d0f40       ?Symetric3by3Inverse@dgMatrix@@QEBA?AV1@XZ 00000001800d1f40 f   corelib:dgMatrix.obj
 0001:000d1900       ?EigenVectors@dgMatrix@@QEAAXAEAVdgVector@@@Z 00000001800d2900 f   corelib:dgMatrix.obj
 0001:000d2e10       ?CalcPitchYawRoll@dgMatrix@@QEBA?AVdgVector@@XZ 00000001800d3e10 f   corelib:dgMatrix.obj
 0001:000d3260       ??0dgPolyhedraDescriptor@@QEAA@AEBVdgPolyhedra@@@Z 00000001800d4260 f   corelib:dgPolyhedra.obj
 0001:000d32b0       ??1dgPolyhedraDescriptor@@QEAA@XZ 00000001800d42b0 f   corelib:dgPolyhedra.obj
 0001:000d32e0       ?Update@dgPolyhedraDescriptor@@QEAAXAEBVdgPolyhedra@@@Z 00000001800d42e0 f   corelib:dgPolyhedra.obj
 0001:000d35a0       ??0dgPolyhedra@@QEAA@QEAVdgMemoryAllocator@@@Z 00000001800d45a0 f   corelib:dgPolyhedra.obj
 0001:000d3610       ??0dgPolyhedra@@QEAA@AEBV0@@Z 00000001800d4610 f   corelib:dgPolyhedra.obj
 0001:000d38a0       ??1dgPolyhedra@@UEAA@XZ    00000001800d48a0 f   corelib:dgPolyhedra.obj
 0001:000d38e0       ?DeleteAllFace@dgPolyhedra@@QEAAXXZ 00000001800d48e0 f   corelib:dgPolyhedra.obj
 0001:000d3930       ?SanityCheck@dgPolyhedra@@QEBA_NXZ 00000001800d4930 f   corelib:dgPolyhedra.obj
 0001:000d3940       ?BeginFace@dgPolyhedra@@QEAAXXZ 00000001800d4940 f   corelib:dgPolyhedra.obj
 0001:000d3950       ?EndFace@dgPolyhedra@@QEAAXXZ 00000001800d4950 f   corelib:dgPolyhedra.obj
 0001:000d3d60       ?AddFace@dgPolyhedra@@QEAAPEAVdgEdge@@HHH@Z 00000001800d4d60 f   corelib:dgPolyhedra.obj
 0001:000d3dc0       ?AddFace@dgPolyhedra@@QEAAPEAVdgEdge@@HQEBHQEB_J@Z 00000001800d4dc0 f   corelib:dgPolyhedra.obj
 0001:000d42e0       ?DeleteFace@dgPolyhedra@@QEAAXQEAVdgEdge@@@Z 00000001800d52e0 f   corelib:dgPolyhedra.obj
 0001:000d4400       ?FindVertexNode@dgPolyhedra@@QEBAPEAVdgEdge@@H@Z 00000001800d5400 f   corelib:dgPolyhedra.obj
 0001:000d4490       ?FindEdgeNode@dgPolyhedra@@QEBAPEAVdgTreeNode@?$dgTree@VdgEdge@@_J@@HH@Z 00000001800d5490 f   corelib:dgPolyhedra.obj
 0001:000d44e0       ?FindEdge@dgPolyhedra@@QEBAPEAVdgEdge@@HH@Z 00000001800d54e0 f   corelib:dgPolyhedra.obj
 0001:000d4540       ?AddHalfEdge@dgPolyhedra@@QEAAPEAVdgEdge@@HH@Z 00000001800d5540 f   corelib:dgPolyhedra.obj
 0001:000d45e0       ?DeleteEdge@dgPolyhedra@@QEAAXQEAVdgEdge@@@Z 00000001800d55e0 f   corelib:dgPolyhedra.obj
 0001:000d4740       ?DeleteEdge@dgPolyhedra@@QEAAXHH@Z 00000001800d5740 f   corelib:dgPolyhedra.obj
 0001:000d47e0       ?CollapseEdge@dgPolyhedra@@QEAAPEAVdgEdge@@QEAV2@@Z 00000001800d57e0 f   corelib:dgPolyhedra.obj
 0001:000d4f10       ?ChangeEdgeIncidentVertex@dgPolyhedra@@QEAAXQEAVdgEdge@@H@Z 00000001800d5f10 f   corelib:dgPolyhedra.obj
 0001:000d5010       ?FlipEdge@dgPolyhedra@@QEAA_NQEAVdgEdge@@@Z 00000001800d6010 f   corelib:dgPolyhedra.obj
 0001:000d5300       ?SpliteEdge@dgPolyhedra@@QEAAPEAVdgEdge@@HQEAV2@@Z 00000001800d6300 f   corelib:dgPolyhedra.obj
 0001:000d5640       ?SpliteEdgeAndTriangulate@dgPolyhedra@@QEAAPEAVdgEdge@@HQEAV2@@Z 00000001800d6640 f   corelib:dgPolyhedra.obj
 0001:000d5880       ?CalculateSphere@dgPolyhedra@@QEBA?AVdgSphere@@QEBNHQEBVdgMatrix@@@Z 00000001800d6880 f   corelib:dgPolyhedra.obj
 0001:000d6380       ?FaceNormal@dgPolyhedra@@QEBA?AVdgVector@@QEAVdgEdge@@QEBNH@Z 00000001800d7380 f   corelib:dgPolyhedra.obj
 0001:000d65f0       ?BigFaceNormal@dgPolyhedra@@QEBA?AVdgBigVector@@QEAVdgEdge@@QEBNH@Z 00000001800d75f0 f   corelib:dgPolyhedra.obj
 0001:000d6640       ?GetMaxIndex@dgPolyhedra@@QEBAHXZ 00000001800d7640 f   corelib:dgPolyhedra.obj
 0001:000d6700       ?GetFaceCount@dgPolyhedra@@QEBAHXZ 00000001800d7700 f   corelib:dgPolyhedra.obj
 0001:000d6810       ?GetUnboundedFaceCount@dgPolyhedra@@QEBAHXZ 00000001800d7810 f   corelib:dgPolyhedra.obj
 0001:000d6920       ?PackVertex@dgPolyhedra@@QEAAHQEANQEBNH@Z 00000001800d7920 f   corelib:dgPolyhedra.obj
 0001:000d6980       ?GetBadEdges@dgPolyhedra@@QEBAXAEAV?$dgList@PEAVdgEdge@@@@QEBNH@Z 00000001800d7980 f   corelib:dgPolyhedra.obj
 0001:000d78f0       ?DeleteDegenerateFaces@dgPolyhedra@@QEAAXQEBNHN@Z 00000001800d88f0 f   corelib:dgPolyhedra.obj
 0001:000d7b80       ?GetConectedSurface@dgPolyhedra@@QEBA_NAEAV1@@Z 00000001800d8b80 f   corelib:dgPolyhedra.obj
 0001:000d7f20       ?GetCoplanarFaces@dgPolyhedra@@QEBAXAEAV?$dgList@PEAVdgEdge@@@@PEAVdgEdge@@QEBNHN@Z 00000001800d8f20 f   corelib:dgPolyhedra.obj
 0001:000d8470       ?DeleteOverlapingFaces@dgPolyhedra@@QEAAXQEBNHN@Z 00000001800d9470 f   corelib:dgPolyhedra.obj
 0001:000d8cf0       ?InvertWinding@dgPolyhedra@@QEAAXXZ 00000001800d9cf0 f   corelib:dgPolyhedra.obj
 0001:000d8fb0       ?TriangleList@dgPolyhedra@@QEBAHQEAIHH@Z 00000001800d9fb0 f   corelib:dgPolyhedra.obj
 0001:000d94c0       ?SwapInfo@dgPolyhedra@@QEAAXAEAV1@@Z 00000001800da4c0 f   corelib:dgPolyhedra.obj
 0001:000d9560       ?GetOpenFaces@dgPolyhedra@@QEBAXAEAV?$dgList@PEAVdgEdge@@@@@Z 00000001800da560 f   corelib:dgPolyhedra.obj
 0001:000d9660       ?Optimize@dgPolyhedra@@QEAAXQEBNHN@Z 00000001800da660 f   corelib:dgPolyhedra.obj
 0001:000dbb80       ?Triangulate@dgPolyhedra@@QEAAXQEBNHQEAV1@@Z 00000001800dcb80 f   corelib:dgPolyhedra.obj
 0001:000ddef0       ?ConvexPartition@dgPolyhedra@@QEAAXQEBNHQEAV1@@Z 00000001800deef0 f   corelib:dgPolyhedra.obj
 0001:000df850       ??_GdgPolyhedra@@UEAAPEAXI@Z 00000001800e0850 f i corelib:dgPolyhedra.obj
 0001:000df850       ??_EdgPolyhedra@@UEAAPEAXI@Z 00000001800e0850 f i corelib:dgPolyhedra.obj
 0001:000df890       ??0dgEdge@@QEAA@HH_K@Z     00000001800e0890 f i corelib:dgPolyhedra.obj
 0001:000df910       ??0dgPairKey@dgPolyhedra@@QEAA@HH@Z 00000001800e0910 f i corelib:dgPolyhedra.obj
 0001:000df940       ?GetVal@dgPairKey@dgPolyhedra@@QEBA_JXZ 00000001800e0940 f i corelib:dgPolyhedra.obj
 0001:000df950       ??1?$dgDownHeap@PEAVdgEdge@@N@@QEAA@XZ 00000001800e0950 f i corelib:dgPolyhedra.obj
 0001:000df970       ??4dgPolyhedra@@QEAAAEAV0@AEBV0@@Z 00000001800e0970 f i corelib:dgPolyhedra.obj
 0001:000dfa10       ??0VertexCache@InternalPolyhedra@@QEAA@HQEAVdgMemoryAllocator@@@Z 00000001800e0a10 f i corelib:dgPolyhedra.obj
 0001:000dfa50       ?IsInCache@VertexCache@InternalPolyhedra@@QEBAHPEAVdgEdge@@@Z 00000001800e0a50 f i corelib:dgPolyhedra.obj
 0001:000dfb10       ?AddEdge@VertexCache@InternalPolyhedra@@QEAAHPEAVdgEdge@@@Z 00000001800e0b10 f i corelib:dgPolyhedra.obj
 0001:000dfb80       ?GetEdge@VertexCache@InternalPolyhedra@@QEBAPEAVdgEdge@@H@Z 00000001800e0b80 f i corelib:dgPolyhedra.obj
 0001:000dfc60       ??1VertexCache@InternalPolyhedra@@QEAA@XZ 00000001800e0c60 f i corelib:dgPolyhedra.obj
 0001:000dfc80       ??0EDGE_HANDLE@InternalPolyhedra@@QEAA@PEAVdgEdge@@@Z 00000001800e0c80 f i corelib:dgPolyhedra.obj
 0001:000dfcb0       ??1EDGE_HANDLE@InternalPolyhedra@@QEAA@XZ 00000001800e0cb0 f i corelib:dgPolyhedra.obj
 0001:000dfd10       ?Evalue@VERTEX_METRIC_STRUCT@InternalPolyhedra@@QEAANAEAVdgVector@@@Z 00000001800e0d10 f i corelib:dgPolyhedra.obj
 0001:000dfe50       ??0dgBigPlane@@QEAA@XZ     00000001800e0e50 f i corelib:dgPolyhedra.obj
 0001:000dfe70       ??0VERTEX_METRIC_STRUCT@InternalPolyhedra@@QEAA@AEBVdgBigPlane@@@Z 00000001800e0e70 f i corelib:dgPolyhedra.obj
 0001:000dffe0       ?Accumulate@VERTEX_METRIC_STRUCT@InternalPolyhedra@@QEAAXAEAU12@@Z 00000001800e0fe0 f i corelib:dgPolyhedra.obj
 0001:000e0120       ?Clear@VERTEX_METRIC_STRUCT@InternalPolyhedra@@QEAAXXZ 00000001800e1120 f i corelib:dgPolyhedra.obj
 0001:000e0140       ?Accumulate@VERTEX_METRIC_STRUCT@InternalPolyhedra@@QEAAXAEAVdgBigPlane@@@Z 00000001800e1140 f i corelib:dgPolyhedra.obj
 0001:000e0330       ??1?$dgDownHeap@PEAVdgListNode@?$dgList@UEDGE_HANDLE@InternalPolyhedra@@@@N@@QEAA@XZ 00000001800e1330 f i corelib:dgPolyhedra.obj
 0001:000e0350       ??0dgDiagonalEdge@InternalPolyhedra@@QEAA@QEAVdgEdge@@@Z 00000001800e1350 f i corelib:dgPolyhedra.obj
 0001:000e0390       ??0Iterator@?$dgList@PEAVdgEdge@@@@QEAA@AEBV1@@Z 00000001800e1390 f i corelib:dgPolyhedra.obj
 0001:000e03c0       ??1Iterator@?$dgList@PEAVdgEdge@@@@QEAA@XZ 00000001800e13c0 f i corelib:dgPolyhedra.obj
 0001:000e03d0       ??BIterator@?$dgList@PEAVdgEdge@@@@QEBAHXZ 00000001800e13d0 f i corelib:dgPolyhedra.obj
 0001:000e0400       ?End@Iterator@?$dgList@PEAVdgEdge@@@@QEAAXXZ 00000001800e1400 f i corelib:dgPolyhedra.obj
 0001:000e0430       ??FIterator@?$dgList@PEAVdgEdge@@@@QEAAXH@Z 00000001800e1430 f i corelib:dgPolyhedra.obj
 0001:000e04a0       ??DIterator@?$dgList@PEAVdgEdge@@@@QEBAAEAPEAVdgEdge@@XZ 00000001800e14a0 f i corelib:dgPolyhedra.obj
 0001:000e04c0       ?GetInfo@dgListNode@?$dgList@VdgDiagonalEdge@InternalPolyhedra@@@@QEAAAEAVdgDiagonalEdge@InternalPolyhedra@@XZ 00000001800e14c0 f i corelib:dgPolyhedra.obj
 0001:000e04d0       ?GetNext@dgListNode@?$dgList@VdgDiagonalEdge@InternalPolyhedra@@@@QEBAPEAV12@XZ 00000001800e14d0 f i corelib:dgPolyhedra.obj
 0001:000e04e0       ??0Iterator@?$dgTree@PEAVdgEdge@@H@@QEAA@AEBV1@@Z 00000001800e14e0 f i corelib:dgPolyhedra.obj
 0001:000e0510       ??1Iterator@?$dgTree@PEAVdgEdge@@H@@QEAA@XZ 00000001800e1510 f i corelib:dgPolyhedra.obj
 0001:000e0520       ?Begin@Iterator@?$dgTree@PEAVdgEdge@@H@@QEAAXXZ 00000001800e1520 f i corelib:dgPolyhedra.obj
 0001:000e0550       ??BIterator@?$dgTree@PEAVdgEdge@@H@@QEBAHXZ 00000001800e1550 f i corelib:dgPolyhedra.obj
 0001:000e0580       ??EIterator@?$dgTree@PEAVdgEdge@@H@@QEAAXH@Z 00000001800e1580 f i corelib:dgPolyhedra.obj
 0001:000e05f0       ?GetNode@Iterator@?$dgTree@PEAVdgEdge@@H@@QEBAPEAVdgTreeNode@2@XZ 00000001800e15f0 f i corelib:dgPolyhedra.obj
 0001:000e0600       ?GetInfo@dgTreeNode@?$dgTree@PEAVdgEdge@@H@@QEAAAEAPEAVdgEdge@@XZ 00000001800e1600 f i corelib:dgPolyhedra.obj
 0001:000e0610       ?GetInfo@dgListNode@?$dgList@UEDGE_HANDLE@InternalPolyhedra@@@@QEAAAEAUEDGE_HANDLE@InternalPolyhedra@@XZ 00000001800e1610 f i corelib:dgPolyhedra.obj
 0001:000e0620       ?GetInfo@dgListNode@?$dgList@PEAVdgEdge@@@@QEAAAEAPEAVdgEdge@@XZ 00000001800e1620 f i corelib:dgPolyhedra.obj
 0001:000e0630       ?GetPrev@dgListNode@?$dgList@PEAVdgEdge@@@@QEBAPEAV12@XZ 00000001800e1630 f i corelib:dgPolyhedra.obj
 0001:000e0640       ??0?$dgList@PEAVdgEdge@@@@QEAA@QEAVdgMemoryAllocator@@@Z 00000001800e1640 f i corelib:dgPolyhedra.obj
 0001:000e0690       ??1?$dgList@PEAVdgEdge@@@@QEAA@XZ 00000001800e1690 f i corelib:dgPolyhedra.obj
 0001:000e06b0       ?GetCount@?$dgList@PEAVdgEdge@@@@QEBAHXZ 00000001800e16b0 f i corelib:dgPolyhedra.obj
 0001:000e06c0       ?GetLast@?$dgList@PEAVdgEdge@@@@QEBAPEAVdgListNode@1@XZ 00000001800e16c0 f i corelib:dgPolyhedra.obj
 0001:000e06d0       ?Append@?$dgList@PEAVdgEdge@@@@QEAAPEAVdgListNode@1@AEBQEAVdgEdge@@@Z 00000001800e16d0 f i corelib:dgPolyhedra.obj
 0001:000e07d0       ?Addtop@?$dgList@PEAVdgEdge@@@@QEAAPEAVdgListNode@1@AEBQEAVdgEdge@@@Z 00000001800e17d0 f i corelib:dgPolyhedra.obj
 0001:000e08d0       ?Remove@?$dgList@PEAVdgEdge@@@@QEAAXQEAVdgListNode@1@@Z 00000001800e18d0 f i corelib:dgPolyhedra.obj
 0001:000e0930       ?RemoveAll@?$dgList@PEAVdgEdge@@@@QEAAXXZ 00000001800e1930 f i corelib:dgPolyhedra.obj
 0001:000e0a30       ??0?$dgTree@VdgEdge@@_J@@QEAA@QEAVdgMemoryAllocator@@@Z 00000001800e1a30 f i corelib:dgPolyhedra.obj
 0001:000e0a70       ??1?$dgTree@VdgEdge@@_J@@QEAA@XZ 00000001800e1a70 f i corelib:dgPolyhedra.obj
 0001:000e0a90       ?Find@?$dgTree@VdgEdge@@_J@@QEBAPEAVdgTreeNode@1@_J@Z 00000001800e1a90 f i corelib:dgPolyhedra.obj
 0001:000e0c10       ?FindGreaterEqual@?$dgTree@VdgEdge@@_J@@QEBAPEAVdgTreeNode@1@_J@Z 00000001800e1c10 f i corelib:dgPolyhedra.obj
 0001:000e0d50       ?Insert@?$dgTree@VdgEdge@@_J@@QEAAPEAVdgTreeNode@1@AEBVdgEdge@@_J@Z 00000001800e1d50 f i corelib:dgPolyhedra.obj
 0001:000e0da0       ?Insert@?$dgTree@VdgEdge@@_J@@QEAAPEAVdgTreeNode@1@AEBVdgEdge@@_JAEA_N@Z 00000001800e1da0 f i corelib:dgPolyhedra.obj
 0001:000e1060       ?ReplaceKey@?$dgTree@VdgEdge@@_J@@QEAAPEAVdgTreeNode@1@QEAV21@_J@Z 00000001800e2060 f i corelib:dgPolyhedra.obj
 0001:000e10e0       ?Remove@?$dgTree@VdgEdge@@_J@@QEAAXQEAVdgTreeNode@1@@Z 00000001800e20e0 f i corelib:dgPolyhedra.obj
 0001:000e1130       ?SwapInfo@?$dgTree@VdgEdge@@_J@@QEAAXAEAV1@@Z 00000001800e2130 f i corelib:dgPolyhedra.obj
 0001:000e1170       ??$GetMax@N@@YANNNN@Z      00000001800e2170 f i corelib:dgPolyhedra.obj
 0001:000e11b0       ??0?$dgList@VdgDiagonalEdge@InternalPolyhedra@@@@QEAA@QEAVdgMemoryAllocator@@@Z 00000001800e21b0 f i corelib:dgPolyhedra.obj
 0001:000e1200       ??1?$dgList@VdgDiagonalEdge@InternalPolyhedra@@@@QEAA@XZ 00000001800e2200 f i corelib:dgPolyhedra.obj
 0001:000e1220       ?GetCount@?$dgList@VdgDiagonalEdge@InternalPolyhedra@@@@QEBAHXZ 00000001800e2220 f i corelib:dgPolyhedra.obj
 0001:000e1230       ?GetFirst@?$dgList@VdgDiagonalEdge@InternalPolyhedra@@@@QEBAPEAVdgListNode@1@XZ 00000001800e2230 f i corelib:dgPolyhedra.obj
 0001:000e1240       ?Append@?$dgList@VdgDiagonalEdge@InternalPolyhedra@@@@QEAAPEAVdgListNode@1@AEBVdgDiagonalEdge@InternalPolyhedra@@@Z 00000001800e2240 f i corelib:dgPolyhedra.obj
 0001:000e1340       ?Remove@?$dgList@VdgDiagonalEdge@InternalPolyhedra@@@@QEAAXQEAVdgListNode@1@@Z 00000001800e2340 f i corelib:dgPolyhedra.obj
 0001:000e13a0       ??1?$dgHeapBase@PEAVdgEdge@@N@@IEAA@XZ 00000001800e23a0 f i corelib:dgPolyhedra.obj
 0001:000e13e0       ?Flush@?$dgHeapBase@PEAVdgEdge@@N@@QEAAXXZ 00000001800e23e0 f i corelib:dgPolyhedra.obj
 0001:000e1400       ?GetCount@?$dgHeapBase@PEAVdgEdge@@N@@QEBAHXZ 00000001800e2400 f i corelib:dgPolyhedra.obj
 0001:000e1410       ??A?$dgHeapBase@PEAVdgEdge@@N@@QEBAAEBQEAVdgEdge@@H@Z 00000001800e2410 f i corelib:dgPolyhedra.obj
 0001:000e1480       ??0?$dgDownHeap@PEAVdgEdge@@N@@QEAA@QEBXH@Z 00000001800e2480 f i corelib:dgPolyhedra.obj
 0001:000e14c0       ?Pop@?$dgDownHeap@PEAVdgEdge@@N@@QEAAXXZ 00000001800e24c0 f i corelib:dgPolyhedra.obj
 0001:000e1660       ?Push@?$dgDownHeap@PEAVdgEdge@@N@@QEAAXAEAPEAVdgEdge@@N@Z 00000001800e2660 f i corelib:dgPolyhedra.obj
 0001:000e1800       ??0?$dgStack@_K@@QEAA@H@Z  00000001800e2800 f i corelib:dgPolyhedra.obj
 0001:000e1840       ??1?$dgStack@_K@@QEAA@XZ   00000001800e2840 f i corelib:dgPolyhedra.obj
 0001:000e1860       ??A?$dgStack@_K@@QEAAAEA_KH@Z 00000001800e2860 f i corelib:dgPolyhedra.obj
 0001:000e1910       ??0?$dgStack@PEAVdgTreeNode@?$dgTree@VdgEdge@@_J@@@@QEAA@H@Z 00000001800e2910 f i corelib:dgPolyhedra.obj
 0001:000e1950       ??1?$dgStack@PEAVdgTreeNode@?$dgTree@VdgEdge@@_J@@@@QEAA@XZ 00000001800e2950 f i corelib:dgPolyhedra.obj
 0001:000e1970       ??A?$dgStack@PEAVdgTreeNode@?$dgTree@VdgEdge@@_J@@@@QEAAAEAPEAVdgTreeNode@?$dgTree@VdgEdge@@_J@@H@Z 00000001800e2970 f i corelib:dgPolyhedra.obj
 0001:000e1a20       ??0?$dgStack@VdgPolyhedra@@@@QEAA@H@Z 00000001800e2a20 f i corelib:dgPolyhedra.obj
 0001:000e1a60       ??1?$dgStack@VdgPolyhedra@@@@QEAA@XZ 00000001800e2a60 f i corelib:dgPolyhedra.obj
 0001:000e1a80       ??A?$dgStack@VdgPolyhedra@@@@QEAAAEAVdgPolyhedra@@H@Z 00000001800e2a80 f i corelib:dgPolyhedra.obj
 0001:000e1b40       ??0?$dgStack@_J@@QEAA@H@Z  00000001800e2b40 f i corelib:dgPolyhedra.obj
 0001:000e1b80       ??1?$dgStack@_J@@QEAA@XZ   00000001800e2b80 f i corelib:dgPolyhedra.obj
 0001:000e1ba0       ??A?$dgStack@_J@@QEAAAEA_JH@Z 00000001800e2ba0 f i corelib:dgPolyhedra.obj
 0001:000e1c50       ??0?$dgTree@PEAVdgEdge@@H@@QEAA@QEAVdgMemoryAllocator@@@Z 00000001800e2c50 f i corelib:dgPolyhedra.obj
 0001:000e1c90       ??1?$dgTree@PEAVdgEdge@@H@@QEAA@XZ 00000001800e2c90 f i corelib:dgPolyhedra.obj
 0001:000e1cb0       ?GetCount@?$dgTree@PEAVdgEdge@@H@@QEBAHXZ 00000001800e2cb0 f i corelib:dgPolyhedra.obj
 0001:000e1cc0       ?Minimum@?$dgTree@PEAVdgEdge@@H@@QEBAPEAVdgTreeNode@1@XZ 00000001800e2cc0 f i corelib:dgPolyhedra.obj
 0001:000e1d00       ?Insert@?$dgTree@PEAVdgEdge@@H@@QEAAPEAVdgTreeNode@1@AEBQEAVdgEdge@@H@Z 00000001800e2d00 f i corelib:dgPolyhedra.obj
 0001:000e1d50       ?Remove@?$dgTree@PEAVdgEdge@@H@@QEAAXQEAVdgTreeNode@1@@Z 00000001800e2d50 f i corelib:dgPolyhedra.obj
 0001:000e1da0       ??0?$dgList@UEDGE_HANDLE@InternalPolyhedra@@@@QEAA@QEAVdgMemoryAllocator@@@Z 00000001800e2da0 f i corelib:dgPolyhedra.obj
 0001:000e1df0       ??1?$dgList@UEDGE_HANDLE@InternalPolyhedra@@@@QEAA@XZ 00000001800e2df0 f i corelib:dgPolyhedra.obj
 0001:000e1e10       ?Addtop@?$dgList@UEDGE_HANDLE@InternalPolyhedra@@@@QEAAPEAVdgListNode@1@AEBUEDGE_HANDLE@InternalPolyhedra@@@Z 00000001800e2e10 f i corelib:dgPolyhedra.obj
 0001:000e1f10       ?Remove@?$dgList@UEDGE_HANDLE@InternalPolyhedra@@@@QEAAXQEAVdgListNode@1@@Z 00000001800e2f10 f i corelib:dgPolyhedra.obj
 0001:000e1f70       ??0?$dgStack@UVERTEX_METRIC_STRUCT@InternalPolyhedra@@@@QEAA@H@Z 00000001800e2f70 f i corelib:dgPolyhedra.obj
 0001:000e1fb0       ??1?$dgStack@UVERTEX_METRIC_STRUCT@InternalPolyhedra@@@@QEAA@XZ 00000001800e2fb0 f i corelib:dgPolyhedra.obj
 0001:000e1fd0       ??A?$dgStack@UVERTEX_METRIC_STRUCT@InternalPolyhedra@@@@QEAAAEAUVERTEX_METRIC_STRUCT@InternalPolyhedra@@H@Z 00000001800e2fd0 f i corelib:dgPolyhedra.obj
 0001:000e2090       ??1?$dgHeapBase@PEAVdgListNode@?$dgList@UEDGE_HANDLE@InternalPolyhedra@@@@N@@IEAA@XZ 00000001800e3090 f i corelib:dgPolyhedra.obj
 0001:000e20d0       ?GetCount@?$dgHeapBase@PEAVdgListNode@?$dgList@UEDGE_HANDLE@InternalPolyhedra@@@@N@@QEBAHXZ 00000001800e30d0 f i corelib:dgPolyhedra.obj
 0001:000e20e0       ??A?$dgHeapBase@PEAVdgListNode@?$dgList@UEDGE_HANDLE@InternalPolyhedra@@@@N@@QEBAAEBQEAVdgListNode@?$dgList@UEDGE_HANDLE@InternalPolyhedra@@@@H@Z 00000001800e30e0 f i corelib:dgPolyhedra.obj
 0001:000e2150       ??0?$dgDownHeap@PEAVdgListNode@?$dgList@UEDGE_HANDLE@InternalPolyhedra@@@@N@@QEAA@QEBXH@Z 00000001800e3150 f i corelib:dgPolyhedra.obj
 0001:000e2190       ?Pop@?$dgDownHeap@PEAVdgListNode@?$dgList@UEDGE_HANDLE@InternalPolyhedra@@@@N@@QEAAXXZ 00000001800e3190 f i corelib:dgPolyhedra.obj
 0001:000e2330       ?Push@?$dgDownHeap@PEAVdgListNode@?$dgList@UEDGE_HANDLE@InternalPolyhedra@@@@N@@QEAAXAEAPEAVdgListNode@?$dgList@UEDGE_HANDLE@InternalPolyhedra@@@@N@Z 00000001800e3330 f i corelib:dgPolyhedra.obj
 0001:000e24d0       ??_GdgListNode@?$dgList@PEAVdgEdge@@@@AEAAPEAXI@Z 00000001800e34d0 f i corelib:dgPolyhedra.obj
 0001:000e2510       ??_GdgListNode@?$dgList@VdgDiagonalEdge@InternalPolyhedra@@@@AEAAPEAXI@Z 00000001800e3510 f i corelib:dgPolyhedra.obj
 0001:000e2550       ??_GdgListNode@?$dgList@UEDGE_HANDLE@InternalPolyhedra@@@@AEAAPEAXI@Z 00000001800e3550 f i corelib:dgPolyhedra.obj
 0001:000e2590       ??2dgListNode@?$dgList@PEAVdgEdge@@@@CAPEAX_KQEAVdgMemoryAllocator@@@Z 00000001800e3590 f i corelib:dgPolyhedra.obj
 0001:000e25c0       ??3dgListNode@?$dgList@PEAVdgEdge@@@@CAXPEAX@Z 00000001800e35c0 f i corelib:dgPolyhedra.obj
 0001:000e25e0       ??0dgListNode@?$dgList@PEAVdgEdge@@@@AEAA@AEBQEAVdgEdge@@QEAV01@1@Z 00000001800e35e0 f i corelib:dgPolyhedra.obj
 0001:000e26b0       ??1dgListNode@?$dgList@PEAVdgEdge@@@@AEAA@XZ 00000001800e36b0 f i corelib:dgPolyhedra.obj
 0001:000e26c0       ?Unlink@dgListNode@?$dgList@PEAVdgEdge@@@@AEAAXXZ 00000001800e36c0 f i corelib:dgPolyhedra.obj
 0001:000e2730       ?GetNext@dgListNode@?$dgList@PEAVdgEdge@@@@QEBAPEAV12@XZ 00000001800e3730 f i corelib:dgPolyhedra.obj
 0001:000e2740       ??0dgTreeNode@?$dgTree@VdgEdge@@_J@@AEAA@AEBVdgEdge@@AEB_JPEAV01@@Z 00000001800e3740 f i corelib:dgPolyhedra.obj
 0001:000e2810       ?GetLeft@dgTreeNode@?$dgTree@VdgEdge@@_J@@AEBAPEAV12@XZ 00000001800e3810 f i corelib:dgPolyhedra.obj
 0001:000e2820       ?GetRight@dgTreeNode@?$dgTree@VdgEdge@@_J@@AEBAPEAV12@XZ 00000001800e3820 f i corelib:dgPolyhedra.obj
 0001:000e2830       ?GetParent@dgTreeNode@?$dgTree@VdgEdge@@_J@@AEAAPEAV12@XZ 00000001800e3830 f i corelib:dgPolyhedra.obj
 0001:000e2840       ??2dgListNode@?$dgList@VdgDiagonalEdge@InternalPolyhedra@@@@CAPEAX_KQEAVdgMemoryAllocator@@@Z 00000001800e3840 f i corelib:dgPolyhedra.obj
 0001:000e2870       ??3dgListNode@?$dgList@VdgDiagonalEdge@InternalPolyhedra@@@@CAXPEAX@Z 00000001800e3870 f i corelib:dgPolyhedra.obj
 0001:000e2890       ??0dgListNode@?$dgList@VdgDiagonalEdge@InternalPolyhedra@@@@AEAA@AEBVdgDiagonalEdge@InternalPolyhedra@@QEAV01@1@Z 00000001800e3890 f i corelib:dgPolyhedra.obj
 0001:000e2960       ??1dgListNode@?$dgList@VdgDiagonalEdge@InternalPolyhedra@@@@AEAA@XZ 00000001800e3960 f i corelib:dgPolyhedra.obj
 0001:000e2970       ??2dgListNode@?$dgList@UEDGE_HANDLE@InternalPolyhedra@@@@CAPEAX_KQEAVdgMemoryAllocator@@@Z 00000001800e3970 f i corelib:dgPolyhedra.obj
 0001:000e29a0       ??3dgListNode@?$dgList@UEDGE_HANDLE@InternalPolyhedra@@@@CAXPEAX@Z 00000001800e39a0 f i corelib:dgPolyhedra.obj
 0001:000e29c0       ??0dgListNode@?$dgList@UEDGE_HANDLE@InternalPolyhedra@@@@AEAA@AEBUEDGE_HANDLE@InternalPolyhedra@@QEAV01@1@Z 00000001800e39c0 f i corelib:dgPolyhedra.obj
 0001:000e2a90       ??0EDGE_HANDLE@InternalPolyhedra@@QEAA@AEBU01@@Z 00000001800e3a90 f i corelib:dgPolyhedra.obj
 0001:000e2b40       ??1dgListNode@?$dgList@UEDGE_HANDLE@InternalPolyhedra@@@@AEAA@XZ 00000001800e3b40 f i corelib:dgPolyhedra.obj
 0001:000e2b60       ?Unlink@?$dgList@PEAVdgEdge@@@@QEAAXQEAVdgListNode@1@@Z 00000001800e3b60 f i corelib:dgPolyhedra.obj
 0001:000e2c50       ?Insert@?$dgTree@VdgEdge@@_J@@QEAAPEAVdgTreeNode@1@QEAV21@_J@Z 00000001800e3c50 f i corelib:dgPolyhedra.obj
 0001:000e2e80       ?Unlink@?$dgTree@VdgEdge@@_J@@QEAAXQEAVdgTreeNode@1@@Z 00000001800e3e80 f i corelib:dgPolyhedra.obj
 0001:000e2f10       ?CompareKeys@?$dgTree@VdgEdge@@_J@@AEBAHAEB_J0@Z 00000001800e3f10 f i corelib:dgPolyhedra.obj
 0001:000e2f60       ??$Swap@PEAVdgTreeNode@?$dgTree@VdgEdge@@_J@@@@YAXAEAPEAVdgTreeNode@?$dgTree@VdgEdge@@_J@@0@Z 00000001800e3f60 f i corelib:dgPolyhedra.obj
 0001:000e2fa0       ?RemoveAll@?$dgList@VdgDiagonalEdge@InternalPolyhedra@@@@QEAAXXZ 00000001800e3fa0 f i corelib:dgPolyhedra.obj
 0001:000e30a0       ?Unlink@?$dgList@VdgDiagonalEdge@InternalPolyhedra@@@@QEAAXQEAVdgListNode@1@@Z 00000001800e40a0 f i corelib:dgPolyhedra.obj
 0001:000e3190       ??0?$dgHeapBase@PEAVdgEdge@@N@@IEAA@QEBXH@Z 00000001800e4190 f i corelib:dgPolyhedra.obj
 0001:000e31f0       ?Insert@?$dgTree@PEAVdgEdge@@H@@QEAAPEAVdgTreeNode@1@AEBQEAVdgEdge@@HAEA_N@Z 00000001800e41f0 f i corelib:dgPolyhedra.obj
 0001:000e34b0       ?RemoveAll@?$dgTree@PEAVdgEdge@@H@@QEAAXXZ 00000001800e44b0 f i corelib:dgPolyhedra.obj
 0001:000e34f0       ?RemoveAll@?$dgList@UEDGE_HANDLE@InternalPolyhedra@@@@QEAAXXZ 00000001800e44f0 f i corelib:dgPolyhedra.obj
 0001:000e35f0       ?Unlink@?$dgList@UEDGE_HANDLE@InternalPolyhedra@@@@QEAAXQEAVdgListNode@1@@Z 00000001800e45f0 f i corelib:dgPolyhedra.obj
 0001:000e36e0       ??0?$dgHeapBase@PEAVdgListNode@?$dgList@UEDGE_HANDLE@InternalPolyhedra@@@@N@@IEAA@QEBXH@Z 00000001800e46e0 f i corelib:dgPolyhedra.obj
 0001:000e3740       ?GetKey@dgTreeNode@?$dgTree@VdgEdge@@_J@@QEBAAEB_JXZ 00000001800e4740 f i corelib:dgPolyhedra.obj
 0001:000e3750       ?Unlink@dgListNode@?$dgList@VdgDiagonalEdge@InternalPolyhedra@@@@AEAAXXZ 00000001800e4750 f i corelib:dgPolyhedra.obj
 0001:000e37c0       ?GetPrev@dgListNode@?$dgList@VdgDiagonalEdge@InternalPolyhedra@@@@QEBAPEAV12@XZ 00000001800e47c0 f i corelib:dgPolyhedra.obj
 0001:000e37d0       ??0dgTreeNode@?$dgTree@PEAVdgEdge@@H@@AEAA@AEBQEAVdgEdge@@AEBHPEAV01@@Z 00000001800e47d0 f i corelib:dgPolyhedra.obj
 0001:000e3870       ?GetLeft@dgTreeNode@?$dgTree@PEAVdgEdge@@H@@AEBAPEAV12@XZ 00000001800e4870 f i corelib:dgPolyhedra.obj
 0001:000e3880       ?GetRight@dgTreeNode@?$dgTree@PEAVdgEdge@@H@@AEBAPEAV12@XZ 00000001800e4880 f i corelib:dgPolyhedra.obj
 0001:000e3890       ?Unlink@dgListNode@?$dgList@UEDGE_HANDLE@InternalPolyhedra@@@@AEAAXXZ 00000001800e4890 f i corelib:dgPolyhedra.obj
 0001:000e3900       ?GetNext@dgListNode@?$dgList@UEDGE_HANDLE@InternalPolyhedra@@@@QEBAPEAV12@XZ 00000001800e4900 f i corelib:dgPolyhedra.obj
 0001:000e3910       ?GetPrev@dgListNode@?$dgList@UEDGE_HANDLE@InternalPolyhedra@@@@QEBAPEAV12@XZ 00000001800e4910 f i corelib:dgPolyhedra.obj
 0001:000e3920       ?CompareKeys@?$dgTree@PEAVdgEdge@@H@@AEBAHAEBH0@Z 00000001800e4920 f i corelib:dgPolyhedra.obj
 0001:000e3970       ?Flush@?$dgHeapBase@PEAVdgListNode@?$dgList@UEDGE_HANDLE@InternalPolyhedra@@@@N@@QEAAXXZ 00000001800e4970 f i corelib:dgPolyhedra.obj
 0001:000e3990       ?Minimum@dgRedBackNode@@QEBAPEAV1@XZ 00000001800e4990 f   corelib:dgTree.obj
 0001:000e39d0       ?Maximum@dgRedBackNode@@QEBAPEAV1@XZ 00000001800e49d0 f   corelib:dgTree.obj
 0001:000e3a10       ?Prev@dgRedBackNode@@QEBAPEAV1@XZ 00000001800e4a10 f   corelib:dgTree.obj
 0001:000e3a90       ?Next@dgRedBackNode@@QEBAPEAV1@XZ 00000001800e4a90 f   corelib:dgTree.obj
 0001:000e3b20       ?RotateLeft@dgRedBackNode@@QEAAXQEAPEAV1@@Z 00000001800e4b20 f   corelib:dgTree.obj
 0001:000e3c10       ?RotateRight@dgRedBackNode@@QEAAXQEAPEAV1@@Z 00000001800e4c10 f   corelib:dgTree.obj
 0001:000e3d00       ?InsertFixup@dgRedBackNode@@QEAAXQEAPEAV1@@Z 00000001800e4d00 f   corelib:dgTree.obj
 0001:000e3fc0       ?RemoveFixup@dgRedBackNode@@QEAAXQEAV1@QEAPEAV1@@Z 00000001800e4fc0 f   corelib:dgTree.obj
 0001:000e43c0       ?Unlink@dgRedBackNode@@QEAAXQEAPEAV1@@Z 00000001800e53c0 f   corelib:dgTree.obj
 0001:000e4770       ?Remove@dgRedBackNode@@QEAAXQEAPEAV1@@Z 00000001800e5770 f   corelib:dgTree.obj
 0001:000e47e0       ?RemoveAllLow@dgRedBackNode@@QEAAXXZ 00000001800e57e0 f   corelib:dgTree.obj
 0001:000e4870       ?RemoveAll@dgRedBackNode@@QEAAXXZ 00000001800e5870 f   corelib:dgTree.obj
 0001:000e48b0       ?GetColor@dgRedBackNode@@QEBA?AW4REDBLACK_COLOR@1@XZ 00000001800e58b0 f i corelib:dgTree.obj
 0001:000e48d0       ??_GdgRedBackNode@@QEAAPEAXI@Z 00000001800e58d0 f i corelib:dgTree.obj
 0001:000e4910       ??3dgRedBackNode@@SAXPEAX@Z 00000001800e5910 f i corelib:dgTree.obj
 0001:000e4930       ??1dgRedBackNode@@QEAA@XZ  00000001800e5930 f i corelib:dgTree.obj
 0001:000e4940       ??0dgThreads@@QEAA@XZ      00000001800e5940 f   corelib:dgThreads.obj
 0001:000e4a70       ??1dgThreads@@QEAA@XZ      00000001800e5a70 f   corelib:dgThreads.obj
 0001:000e4aa0       ?GetThreadCount@dgThreads@@QEBAHXZ 00000001800e5aa0 f   corelib:dgThreads.obj
 0001:000e4ae0       ?ClearTimers@dgThreads@@QEAAXXZ 00000001800e5ae0 f   corelib:dgThreads.obj
 0001:000e4b30       ?SetPerfomanceCounter@dgThreads@@QEAAXP6AIXZ@Z 00000001800e5b30 f   corelib:dgThreads.obj
 0001:000e4b60       ?GetPerfomanceTicks@dgThreads@@QEBAII@Z 00000001800e5b60 f   corelib:dgThreads.obj
 0001:000e4ba0       ?CreateThreaded@dgThreads@@QEAAXH@Z 00000001800e5ba0 f   corelib:dgThreads.obj
 0001:000e4d10       ?DestroydgThreads@dgThreads@@QEAAXXZ 00000001800e5d10 f   corelib:dgThreads.obj
 0001:000e4ed0       ?SubmitJob@dgThreads@@QEAAHQEAVdgWorkerThread@@@Z 00000001800e5ed0 f   corelib:dgThreads.obj
 0001:000e5000       ?ThreadExecute@dgThreads@@CAIPEAX@Z 00000001800e6000 f   corelib:dgThreads.obj
 0001:000e5040       ?GetWork@dgThreads@@AEAAHPEAPEAVdgWorkerThread@@@Z 00000001800e6040 f   corelib:dgThreads.obj
 0001:000e5110       ?DoWork@dgThreads@@AEAAXH@Z 00000001800e6110 f   corelib:dgThreads.obj
 0001:000e5210       ?SynchronizationBarrier@dgThreads@@QEAAXXZ 00000001800e6210 f   corelib:dgThreads.obj
 0001:000e5260       ?CalculateChunkSizes@dgThreads@@QEBAXHQEAH@Z 00000001800e6260 f   corelib:dgThreads.obj
 0001:000e5320       ?dgGetLock@dgThreads@@QEBAXXZ 00000001800e6320 f   corelib:dgThreads.obj
 0001:000e5380       ?dgReleaseLock@dgThreads@@QEBAXXZ 00000001800e6380 f   corelib:dgThreads.obj
 0001:000e53b0       ?dgGetIndirectLock@dgThreads@@QEAAXPEAH@Z 00000001800e63b0 f   corelib:dgThreads.obj
 0001:000e53e0       ?dgReleaseIndirectLock@dgThreads@@QEAAXPEAH@Z 00000001800e63e0 f   corelib:dgThreads.obj
 0001:000e5400       ?dgSpinUnlock@@YAXPEAH@Z   00000001800e6400 f i corelib:dgThreads.obj
 0001:000e5420       ?GetMinMax@@YAXAEAVdgVector@@0QEBNHH@Z 00000001800e6420 f   corelib:dgTypes.obj
 0001:000e56b0       ?dgGetCpuType@@YA?AW4dgCpuClass@@XZ 00000001800e66b0 f   corelib:dgTypes.obj
 0001:000e5710       ?dgVertexListToIndexList@@YAHQEANHHHHQEAHN@Z 00000001800e6710 f   corelib:dgTypes.obj
 0001:000e6fd0       ??0?$dgStack@N@@QEAA@H@Z   00000001800e7fd0 f i corelib:dgTypes.obj
 0001:000e7010       ??1?$dgStack@N@@QEAA@XZ    00000001800e8010 f i corelib:dgTypes.obj
 0001:000e7030       ??A?$dgStack@N@@QEAAAEANH@Z 00000001800e8030 f i corelib:dgTypes.obj
 0001:000e70e0       ??0FastRayTest@@QEAA@AEBVdgVector@@0@Z 00000001800e80e0 f   corelib:dgIntersections.obj
 0001:000e76b0       ?BoxTestSimd@FastRayTest@@QEBAHAEBVdgVector@@0@Z 00000001800e86b0 f   corelib:dgIntersections.obj
 0001:000e76d0       ?BoxTest@FastRayTest@@QEBAHAEBVdgVector@@0@Z 00000001800e86d0 f   corelib:dgIntersections.obj
 0001:000e78b0       ?PolygonIntersectSimd@FastRayTest@@QEBANAEBVdgVector@@QEBNHQEBHH@Z 00000001800e88b0 f   corelib:dgIntersections.obj
 0001:000e78d0       ?PolygonIntersect@FastRayTest@@QEBANAEBVdgVector@@QEBNHQEBHH@Z 00000001800e88d0 f   corelib:dgIntersections.obj
 0001:000e7be0       ?dgRayBoxClip@@YA_NAEAVdgVector@@0AEBV1@1@Z 00000001800e8be0 f   corelib:dgIntersections.obj
 0001:000e80e0       ?dgPointToRayDistance@@YA?AVdgVector@@AEBV1@00@Z 00000001800e90e0 f   corelib:dgIntersections.obj
 0001:000e81f0       ?dgRayToRayDistance@@YAXAEBVdgVector@@000AEAV1@1@Z 00000001800e91f0 f   corelib:dgIntersections.obj
 0001:000e87c0       ?dgPointToTriangleDistance@@YA?AVdgVector@@AEBV1@000@Z 00000001800e97c0 f   corelib:dgIntersections.obj
 0001:000e90d0       ?dgPointToTriangleDistance@@YA?AVdgBigVector@@AEBV1@000@Z 00000001800ea0d0 f   corelib:dgIntersections.obj
 0001:000e99e0       ?dgPointToPolygonDistance@@YA_NAEBVdgVector@@QEBNHQEBHHNAEAV1@@Z 00000001800ea9e0 f   corelib:dgIntersections.obj
 0001:000e9c70       ?LineTriangleIntersection@@YA?AVdgBigVector@@AEBV1@0000@Z 00000001800eac70 f   corelib:dgIntersections.obj
 0001:000ea430       ??0dgHugeVector@@QEAA@AEBVdgBigVector@@@Z 00000001800eb430 f i corelib:dgIntersections.obj
 0001:000ea570       ??0dgHugeVector@@QEAA@AEBV?$dgTemplateVector@VdgGoogol@@@@@Z 00000001800eb570 f i corelib:dgIntersections.obj
 0001:000ea5c0       ??1?$dgTemplateVector@VdgGoogol@@@@QEAA@XZ 00000001800eb5c0 f i corelib:dgIntersections.obj
 0001:000ea610       ??1dgHugeVector@@QEAA@XZ   00000001800eb610 f i corelib:dgIntersections.obj
 0001:000ea630       ??0?$dgTemplateVector@VdgGoogol@@@@QEAA@XZ 00000001800eb630 f i corelib:dgIntersections.obj
 0001:000ea680       ??G?$dgTemplateVector@VdgGoogol@@@@QEBA?AV0@AEBV0@@Z 00000001800eb680 f i corelib:dgIntersections.obj
 0001:000ea7d0       ??L?$dgTemplateVector@VdgGoogol@@@@QEBA?AVdgGoogol@@AEBV0@@Z 00000001800eb7d0 f i corelib:dgIntersections.obj
 0001:000ea8d0       ??D?$dgTemplateVector@VdgGoogol@@@@QEBA?AV0@AEBV0@@Z 00000001800eb8d0 f i corelib:dgIntersections.obj
 0001:000eab20       ??0?$dgTemplateVector@VdgGoogol@@@@QEAA@VdgGoogol@@000@Z 00000001800ebb20 f i corelib:dgIntersections.obj
 0001:000eaca0       ??0dgPolyhedraMassProperties@@QEAA@XZ 00000001800ebca0 f   corelib:dgPolyhedraMassProperties.obj
 0001:000eacd0       ?AddCGFace@dgPolyhedraMassProperties@@QEAAXHPEBVdgVector@@@Z 00000001800ebcd0 f   corelib:dgPolyhedraMassProperties.obj
 0001:000eb080       ?AddInertiaFace@dgPolyhedraMassProperties@@QEAAXHPEBN@Z 00000001800ec080 f   corelib:dgPolyhedraMassProperties.obj
 0001:000eb680       ?AddInertiaAndCrossFace@dgPolyhedraMassProperties@@QEAAXHPEBN@Z 00000001800ec680 f   corelib:dgPolyhedraMassProperties.obj
 0001:000ebf50       ?MassProperties@dgPolyhedraMassProperties@@QEAANAEAVdgVector@@00@Z 00000001800ecf50 f   corelib:dgPolyhedraMassProperties.obj
 0001:000ec0e0       ??0dgConvexHull3DFace@@QEAA@XZ 00000001800ed0e0 f   corelib:dgConvexHull3d.obj
 0001:000ec130       ?Evalue@dgConvexHull3DFace@@AEBANQEBVdgBigVector@@AEBV2@@Z 00000001800ed130 f   corelib:dgConvexHull3d.obj
 0001:000ec620       ?GetPlaneEquation@dgConvexHull3DFace@@AEBA?AVdgBigPlane@@QEBVdgBigVector@@@Z 00000001800ed620 f   corelib:dgConvexHull3d.obj
 0001:000ec740       ??0dgConvexHull3d@@IEAA@QEAVdgMemoryAllocator@@@Z 00000001800ed740 f   corelib:dgConvexHull3d.obj
 0001:000ec7c0       ??0dgConvexHull3d@@QEAA@QEAVdgMemoryAllocator@@QEBNHHN@Z 00000001800ed7c0 f   corelib:dgConvexHull3d.obj
 0001:000ecb00       ??1dgConvexHull3d@@UEAA@XZ 00000001800edb00 f   corelib:dgConvexHull3d.obj
 0001:000ecb40       ?ConvexCompareVertex@dgConvexHull3d@@KAHQEBVdgBigVector@@0QEAX@Z 00000001800edb40 f   corelib:dgConvexHull3d.obj
 0001:000ecbf0       ?BuildTree@dgConvexHull3d@@IEBAPEAVdgAABBPointTree3d@@QEAV2@QEAVdgBigVector@@HHQEAPEADAEAH@Z 00000001800edbf0 f   corelib:dgConvexHull3d.obj
 0001:000ed760       ?InitVertexArray@dgConvexHull3d@@MEAAHQEAVdgBigVector@@0QEBNHHQEAXH@Z 00000001800ee760 f   corelib:dgConvexHull3d.obj
 0001:000ee440       ?TetrahedrumVolume@dgConvexHull3d@@IEBANAEBVdgBigVector@@000@Z 00000001800ef440 f   corelib:dgConvexHull3d.obj
 0001:000ee510       ?TessellateTriangle@dgConvexHull3d@@IEBAXHAEBVdgVector@@00AEAHQEAVdgBigVector@@1@Z 00000001800ef510 f   corelib:dgConvexHull3d.obj
 0001:000eebe0       ?SupportVertex@dgConvexHull3d@@IEBAHQEAPEAVdgAABBPointTree3d@@QEBVdgBigVector@@AEBV3@@Z 00000001800efbe0 f   corelib:dgConvexHull3d.obj
 0001:000ef590       ?BuildNormalList@dgConvexHull3d@@IEBAHQEAVdgBigVector@@@Z 00000001800f0590 f   corelib:dgConvexHull3d.obj
 0001:000ef9a0       ?AddFace@dgConvexHull3d@@MEAAPEAVdgListNode@?$dgList@VdgConvexHull3DFace@@@@HHH@Z 00000001800f09a0 f   corelib:dgConvexHull3d.obj
 0001:000efa10       ?DeleteFace@dgConvexHull3d@@MEAAXQEAVdgListNode@?$dgList@VdgConvexHull3DFace@@@@@Z 00000001800f0a10 f   corelib:dgConvexHull3d.obj
 0001:000efa40       ?Sanity@dgConvexHull3d@@IEBA_NXZ 00000001800f0a40 f   corelib:dgConvexHull3d.obj
 0001:000efa50       ?CalculateConvexHull@dgConvexHull3d@@IEAAXPEAVdgAABBPointTree3d@@QEAVdgBigVector@@1HN@Z 00000001800f0a50 f   corelib:dgConvexHull3d.obj
 0001:000f0860       ??_GdgConvexHull3d@@UEAAPEAXI@Z 00000001800f1860 f i corelib:dgConvexHull3d.obj
 0001:000f0860       ??_EdgConvexHull3d@@UEAAPEAXI@Z 00000001800f1860 f i corelib:dgConvexHull3d.obj
 0001:000f08a0       ??2@YAPEAX_KPEAX@Z         00000001800f18a0 f i corelib:dgConvexHull3d.obj
 0001:000f08b0       ??0dgAABBPointTree3d@@QEAA@XZ 00000001800f18b0 f i corelib:dgConvexHull3d.obj
 0001:000f0900       ??0dgAABBPointTree3dClump@@QEAA@XZ 00000001800f1900 f i corelib:dgConvexHull3d.obj
 0001:000f0920       ??3?$dgList@VdgConvexHull3DFace@@@@SAXPEAX@Z 00000001800f1920 f i corelib:dgConvexHull3d.obj
 0001:000f0940       ?GetInfo@dgListNode@?$dgList@PEAVdgListNode@?$dgList@VdgConvexHull3DFace@@@@@@QEAAAEAPEAV1?$dgList@VdgConvexHull3DFace@@@@XZ 00000001800f1940 f i corelib:dgConvexHull3d.obj
 0001:000f0950       ??0?$dgList@VdgConvexHull3DFace@@@@QEAA@QEAVdgMemoryAllocator@@@Z 00000001800f1950 f i corelib:dgConvexHull3d.obj
 0001:000f09a0       ??1?$dgList@VdgConvexHull3DFace@@@@QEAA@XZ 00000001800f19a0 f i corelib:dgConvexHull3d.obj
 0001:000f09c0       ?GetAllocator@?$dgList@VdgConvexHull3DFace@@@@QEBAPEAVdgMemoryAllocator@@XZ 00000001800f19c0 f i corelib:dgConvexHull3d.obj
 0001:000f09d0       ?Append@?$dgList@VdgConvexHull3DFace@@@@QEAAPEAVdgListNode@1@XZ 00000001800f19d0 f i corelib:dgConvexHull3d.obj
 0001:000f0ac0       ?Remove@?$dgList@VdgConvexHull3DFace@@@@QEAAXQEAVdgListNode@1@@Z 00000001800f1ac0 f i corelib:dgConvexHull3d.obj
 0001:000f0b20       ??0?$dgArray@VdgVector@@@@QEAA@HQEAVdgMemoryAllocator@@@Z 00000001800f1b20 f i corelib:dgConvexHull3d.obj
 0001:000f0b70       ??1?$dgArray@VdgVector@@@@QEAA@XZ 00000001800f1b70 f i corelib:dgConvexHull3d.obj
 0001:000f0bb0       ??A?$dgArray@VdgVector@@@@QEAAAEAVdgVector@@H@Z 00000001800f1bb0 f i corelib:dgConvexHull3d.obj
 0001:000f0c30       ??0?$dgStack@VdgBigVector@@@@QEAA@H@Z 00000001800f1c30 f i corelib:dgConvexHull3d.obj
 0001:000f0c70       ??1?$dgStack@VdgBigVector@@@@QEAA@XZ 00000001800f1c70 f i corelib:dgConvexHull3d.obj
 0001:000f0c90       ??A?$dgStack@VdgBigVector@@@@QEAAAEAVdgBigVector@@H@Z 00000001800f1c90 f i corelib:dgConvexHull3d.obj
 0001:000f0d50       ??0?$dgStack@VdgAABBPointTree3dClump@@@@QEAA@H@Z 00000001800f1d50 f i corelib:dgConvexHull3d.obj
 0001:000f0d90       ??1?$dgStack@VdgAABBPointTree3dClump@@@@QEAA@XZ 00000001800f1d90 f i corelib:dgConvexHull3d.obj
 0001:000f0db0       ?GetSizeInBytes@?$dgStack@VdgAABBPointTree3dClump@@@@QEBAHXZ 00000001800f1db0 f i corelib:dgConvexHull3d.obj
 0001:000f0dd0       ??A?$dgStack@VdgAABBPointTree3dClump@@@@QEAAAEAVdgAABBPointTree3dClump@@H@Z 00000001800f1dd0 f i corelib:dgConvexHull3d.obj
 0001:000f0e90       ??$dgSort@VdgBigVector@@@@YAXQEAVdgBigVector@@HP6AHQEBV0@1QEAX@Z2@Z 00000001800f1e90 f i corelib:dgConvexHull3d.obj
 0001:000f1400       ??0?$dgList@PEAVdgListNode@?$dgList@VdgConvexHull3DFace@@@@@@QEAA@QEAVdgMemoryAllocator@@@Z 00000001800f2400 f i corelib:dgConvexHull3d.obj
 0001:000f1450       ??1?$dgList@PEAVdgListNode@?$dgList@VdgConvexHull3DFace@@@@@@QEAA@XZ 00000001800f2450 f i corelib:dgConvexHull3d.obj
 0001:000f1470       ?GetCount@?$dgList@PEAVdgListNode@?$dgList@VdgConvexHull3DFace@@@@@@QEBAHXZ 00000001800f2470 f i corelib:dgConvexHull3d.obj
 0001:000f1480       ?GetFirst@?$dgList@PEAVdgListNode@?$dgList@VdgConvexHull3DFace@@@@@@QEBAPEAVdgListNode@1@XZ 00000001800f2480 f i corelib:dgConvexHull3d.obj
 0001:000f1490       ?Append@?$dgList@PEAVdgListNode@?$dgList@VdgConvexHull3DFace@@@@@@QEAAPEAVdgListNode@1@AEBQEAV2?$dgList@VdgConvexHull3DFace@@@@@Z 00000001800f2490 f i corelib:dgConvexHull3d.obj
 0001:000f1590       ?Addtop@?$dgList@PEAVdgListNode@?$dgList@VdgConvexHull3DFace@@@@@@QEAAPEAVdgListNode@1@AEBQEAV2?$dgList@VdgConvexHull3DFace@@@@@Z 00000001800f2590 f i corelib:dgConvexHull3d.obj
 0001:000f1690       ?Remove@?$dgList@PEAVdgListNode@?$dgList@VdgConvexHull3DFace@@@@@@QEAAXAEBQEAVdgListNode@?$dgList@VdgConvexHull3DFace@@@@@Z 00000001800f2690 f i corelib:dgConvexHull3d.obj
 0001:000f16d0       ??0?$dgStack@PEAVdgListNode@?$dgList@VdgConvexHull3DFace@@@@@@QEAA@H@Z 00000001800f26d0 f i corelib:dgConvexHull3d.obj
 0001:000f1710       ??1?$dgStack@PEAVdgListNode@?$dgList@VdgConvexHull3DFace@@@@@@QEAA@XZ 00000001800f2710 f i corelib:dgConvexHull3d.obj
 0001:000f1730       ?GetElementsCount@?$dgStack@PEAVdgListNode@?$dgList@VdgConvexHull3DFace@@@@@@QEBAHXZ 00000001800f2730 f i corelib:dgConvexHull3d.obj
 0001:000f1740       ??A?$dgStack@PEAVdgListNode@?$dgList@VdgConvexHull3DFace@@@@@@QEAAAEAPEAVdgListNode@?$dgList@VdgConvexHull3DFace@@@@H@Z 00000001800f2740 f i corelib:dgConvexHull3d.obj
 0001:000f17f0       ??_GdgListNode@?$dgList@VdgConvexHull3DFace@@@@AEAAPEAXI@Z 00000001800f27f0 f i corelib:dgConvexHull3d.obj
 0001:000f1830       ??2dgListNode@?$dgList@VdgConvexHull3DFace@@@@CAPEAX_KQEAVdgMemoryAllocator@@@Z 00000001800f2830 f i corelib:dgConvexHull3d.obj
 0001:000f1860       ??3dgListNode@?$dgList@VdgConvexHull3DFace@@@@CAXPEAX@Z 00000001800f2860 f i corelib:dgConvexHull3d.obj
 0001:000f1880       ??0dgListNode@?$dgList@VdgConvexHull3DFace@@@@AEAA@QEAV01@0@Z 00000001800f2880 f i corelib:dgConvexHull3d.obj
 0001:000f1940       ??1dgListNode@?$dgList@VdgConvexHull3DFace@@@@AEAA@XZ 00000001800f2940 f i corelib:dgConvexHull3d.obj
 0001:000f1950       ??2dgListNode@?$dgList@PEAVdgListNode@?$dgList@VdgConvexHull3DFace@@@@@@CAPEAX_KQEAVdgMemoryAllocator@@@Z 00000001800f2950 f i corelib:dgConvexHull3d.obj
 0001:000f1980       ??0dgListNode@?$dgList@PEAVdgListNode@?$dgList@VdgConvexHull3DFace@@@@@@AEAA@AEBQEAV0?$dgList@VdgConvexHull3DFace@@@@QEAV01@1@Z 00000001800f2980 f i corelib:dgConvexHull3d.obj
 0001:000f1a50       ?RemoveAll@?$dgList@VdgConvexHull3DFace@@@@QEAAXXZ 00000001800f2a50 f i corelib:dgConvexHull3d.obj
 0001:000f1b50       ?Unlink@?$dgList@VdgConvexHull3DFace@@@@QEAAXQEAVdgListNode@1@@Z 00000001800f2b50 f i corelib:dgConvexHull3d.obj
 0001:000f1c40       ?Find@?$dgList@PEAVdgListNode@?$dgList@VdgConvexHull3DFace@@@@@@QEBAPEAVdgListNode@1@AEBQEAV2?$dgList@VdgConvexHull3DFace@@@@@Z 00000001800f2c40 f i corelib:dgConvexHull3d.obj
 0001:000f1ca0       ?Remove@?$dgList@PEAVdgListNode@?$dgList@VdgConvexHull3DFace@@@@@@QEAAXQEAVdgListNode@1@@Z 00000001800f2ca0 f i corelib:dgConvexHull3d.obj
 0001:000f1d00       ?RemoveAll@?$dgList@PEAVdgListNode@?$dgList@VdgConvexHull3DFace@@@@@@QEAAXXZ 00000001800f2d00 f i corelib:dgConvexHull3d.obj
 0001:000f1e00       ??_GdgListNode@?$dgList@PEAVdgListNode@?$dgList@VdgConvexHull3DFace@@@@@@AEAAPEAXI@Z 00000001800f2e00 f i corelib:dgConvexHull3d.obj
 0001:000f1e40       ?Unlink@dgListNode@?$dgList@VdgConvexHull3DFace@@@@AEAAXXZ 00000001800f2e40 f i corelib:dgConvexHull3d.obj
 0001:000f1eb0       ?GetPrev@dgListNode@?$dgList@VdgConvexHull3DFace@@@@QEBAPEAV12@XZ 00000001800f2eb0 f i corelib:dgConvexHull3d.obj
 0001:000f1ec0       ??3dgListNode@?$dgList@PEAVdgListNode@?$dgList@VdgConvexHull3DFace@@@@@@CAXPEAX@Z 00000001800f2ec0 f i corelib:dgConvexHull3d.obj
 0001:000f1ee0       ??1dgListNode@?$dgList@PEAVdgListNode@?$dgList@VdgConvexHull3DFace@@@@@@AEAA@XZ 00000001800f2ee0 f i corelib:dgConvexHull3d.obj
 0001:000f1ef0       ?Unlink@dgListNode@?$dgList@PEAVdgListNode@?$dgList@VdgConvexHull3DFace@@@@@@AEAAXXZ 00000001800f2ef0 f i corelib:dgConvexHull3d.obj
 0001:000f1f60       ?GetNext@dgListNode@?$dgList@PEAVdgListNode@?$dgList@VdgConvexHull3DFace@@@@@@QEBAPEAV12@XZ 00000001800f2f60 f i corelib:dgConvexHull3d.obj
 0001:000f1f70       ?Unlink@?$dgList@PEAVdgListNode@?$dgList@VdgConvexHull3DFace@@@@@@QEAAXQEAVdgListNode@1@@Z 00000001800f2f70 f i corelib:dgConvexHull3d.obj
 0001:000f2060       ?GetPrev@dgListNode@?$dgList@PEAVdgListNode@?$dgList@VdgConvexHull3DFace@@@@@@QEBAPEAV12@XZ 00000001800f3060 f i corelib:dgConvexHull3d.obj
 0001:000f2070       ??0dgDelaunayTetrahedralization@@QEAA@QEAVdgMemoryAllocator@@QEBNHHN@Z 00000001800f3070 f   corelib:dgDelaunayTetrahedralization.obj
 0001:000f24e0       ??1dgDelaunayTetrahedralization@@UEAA@XZ 00000001800f34e0 f   corelib:dgDelaunayTetrahedralization.obj
 0001:000f2510       ?AddVertex@dgDelaunayTetrahedralization@@UEAAHAEBVdgBigVector@@@Z 00000001800f3510 f   corelib:dgDelaunayTetrahedralization.obj
 0001:000f2590       ?CompareVertexByIndex@dgDelaunayTetrahedralization@@KAHQEBVdgHullVector@@0QEAX@Z 00000001800f3590 f   corelib:dgDelaunayTetrahedralization.obj
 0001:000f25e0       ?SortVertexArray@dgDelaunayTetrahedralization@@IEAAXXZ 00000001800f35e0 f   corelib:dgDelaunayTetrahedralization.obj
 0001:000f2720       ?RemoveUpperHull@dgDelaunayTetrahedralization@@QEAAXXZ 00000001800f3720 f   corelib:dgDelaunayTetrahedralization.obj
 0001:000f27e0       ?GetTetraVolume@dgDelaunayTetrahedralization@@IEBANQEBVdgConvexHull4dTetraherum@@@Z 00000001800f37e0 f   corelib:dgDelaunayTetrahedralization.obj
 0001:000f2d10       ??_GdgDelaunayTetrahedralization@@UEAAPEAXI@Z 00000001800f3d10 f i corelib:dgDelaunayTetrahedralization.obj
 0001:000f2d10       ??_EdgDelaunayTetrahedralization@@UEAAPEAXI@Z 00000001800f3d10 f i corelib:dgDelaunayTetrahedralization.obj
 0001:000f2d50       ??A?$dgArray@VdgHullVector@@@@QEAAAEAVdgHullVector@@H@Z 00000001800f3d50 f i corelib:dgDelaunayTetrahedralization.obj
 0001:000f2dd0       ??$dgSort@VdgHullVector@@@@YAXQEAVdgHullVector@@HP6AHQEBV0@1QEAX@Z2@Z 00000001800f3dd0 f i corelib:dgDelaunayTetrahedralization.obj
 0001:000f3340       ??0dgTetrahedrumPlane@dgConvexHull4dTetraherum@@QEAA@AEBVdgBigVector@@000@Z 00000001800f4340 f   corelib:dgConvexHull4d.obj
 0001:000f3500       ?Evalue@dgTetrahedrumPlane@dgConvexHull4dTetraherum@@QEBANAEBVdgBigVector@@@Z 00000001800f4500 f   corelib:dgConvexHull4d.obj
 0001:000f3540       ??0dgConvexHull4dTetraherum@@QEAA@XZ 00000001800f4540 f   corelib:dgConvexHull4d.obj
 0001:000f3570       ?Init@dgConvexHull4dTetraherum@@AEAAXQEBVdgHullVector@@HHHH@Z 00000001800f4570 f   corelib:dgConvexHull4d.obj
 0001:000f3870       ?Evalue@dgConvexHull4dTetraherum@@QEBANQEBVdgHullVector@@AEBVdgBigVector@@@Z 00000001800f4870 f   corelib:dgConvexHull4d.obj
 0001:000f3e90       ?GetPlaneEquation@dgConvexHull4dTetraherum@@QEBA?AVdgTetrahedrumPlane@1@QEBVdgHullVector@@@Z 00000001800f4e90 f   corelib:dgConvexHull4d.obj
 0001:000f3f40       ??0dgConvexHull4d@@IEAA@QEAVdgMemoryAllocator@@@Z 00000001800f4f40 f   corelib:dgConvexHull4d.obj
 0001:000f3fc0       ??0dgConvexHull4d@@QEAA@QEAVdgMemoryAllocator@@QEBVdgBigVector@@HN@Z 00000001800f4fc0 f   corelib:dgConvexHull4d.obj
 0001:000f4070       ??1dgConvexHull4d@@UEAA@XZ 00000001800f5070 f   corelib:dgConvexHull4d.obj
 0001:000f40b0       ?BuildHull@dgConvexHull4d@@IEAAXQEAVdgMemoryAllocator@@QEBVdgBigVector@@HN@Z 00000001800f50b0 f   corelib:dgConvexHull4d.obj
 0001:000f4200       ?TessellateTriangle@dgConvexHull4d@@IEBAXHAEBVdgVector@@00AEAHQEAVdgBigVector@@1@Z 00000001800f5200 f   corelib:dgConvexHull4d.obj
 0001:000f48d0       ?BuildNormalList@dgConvexHull4d@@IEBAHQEAVdgBigVector@@@Z 00000001800f58d0 f   corelib:dgConvexHull4d.obj
 0001:000f4ce0       ?SupportVertex@dgConvexHull4d@@IEBAHQEAPEAVdgAABBPointTree4d@@QEBVdgHullVector@@AEBVdgBigVector@@@Z 00000001800f5ce0 f   corelib:dgConvexHull4d.obj
 0001:000f5790       ?ConvexCompareVertex@dgConvexHull4d@@KAHQEBVdgHullVector@@0QEAX@Z 00000001800f6790 f   corelib:dgConvexHull4d.obj
 0001:000f5840       ?BuildTree@dgConvexHull4d@@IEBAPEAVdgAABBPointTree4d@@QEAV2@QEAVdgHullVector@@HHQEAPEADAEAH@Z 00000001800f6840 f   corelib:dgConvexHull4d.obj
 0001:000f64a0       ?InitVertexArray@dgConvexHull4d@@MEAAHQEAVdgHullVector@@QEBVdgBigVector@@HQEAXH@Z 00000001800f74a0 f   corelib:dgConvexHull4d.obj
 0001:000f7040       ?AddFace@dgConvexHull4d@@MEAAPEAVdgListNode@?$dgList@VdgConvexHull4dTetraherum@@@@HHHH@Z 00000001800f8040 f   corelib:dgConvexHull4d.obj
 0001:000f70c0       ?DeleteFace@dgConvexHull4d@@MEAAXQEAVdgListNode@?$dgList@VdgConvexHull4dTetraherum@@@@@Z 00000001800f80c0 f   corelib:dgConvexHull4d.obj
 0001:000f70f0       ?Sanity@dgConvexHull4d@@IEBA_NXZ 00000001800f80f0 f   corelib:dgConvexHull4d.obj
 0001:000f71a0       ?LinkSibling@dgConvexHull4d@@IEBAXPEAVdgListNode@?$dgList@VdgConvexHull4dTetraherum@@@@0@Z 00000001800f81a0 f   corelib:dgConvexHull4d.obj
 0001:000f7340       ?InsertNewVertex@dgConvexHull4d@@IEAAXHQEAVdgListNode@?$dgList@VdgConvexHull4dTetraherum@@@@AEAV?$dgList@PEAVdgListNode@?$dgList@VdgConvexHull4dTetraherum@@@@@@1@Z 00000001800f8340 f   corelib:dgConvexHull4d.obj
 0001:000f7a90       ?CalculateConvexHull@dgConvexHull4d@@IEAAXPEAVdgAABBPointTree4d@@QEAVdgHullVector@@HN@Z 00000001800f8a90 f   corelib:dgConvexHull4d.obj
 0001:000f7ea0       ?FindFacingNode@dgConvexHull4d@@IEAAPEAVdgListNode@?$dgList@VdgConvexHull4dTetraherum@@@@AEBVdgBigVector@@@Z 00000001800f8ea0 f   corelib:dgConvexHull4d.obj
 0001:000f8230       ?AddVertex@dgConvexHull4d@@MEAAHAEBVdgBigVector@@@Z 00000001800f9230 f   corelib:dgConvexHull4d.obj
 0001:000f83e0       ??_GdgConvexHull4d@@UEAAPEAXI@Z 00000001800f93e0 f i corelib:dgConvexHull4d.obj
 0001:000f83e0       ??_EdgConvexHull4d@@UEAAPEAXI@Z 00000001800f93e0 f i corelib:dgConvexHull4d.obj
 0001:000f8420       ??0dgAABBPointTree4d@@QEAA@XZ 00000001800f9420 f i corelib:dgConvexHull4d.obj
 0001:000f8470       ??0dgAABBPointTree4dClump@@QEAA@XZ 00000001800f9470 f i corelib:dgConvexHull4d.obj
 0001:000f8490       ??4dgHullVector@@QEAAXAEBVdgBigVector@@@Z 00000001800f9490 f i corelib:dgConvexHull4d.obj
 0001:000f8510       ??1?$dgDownHeap@PEAVdgListNode@?$dgList@VdgConvexHull4dTetraherum@@@@N@@QEAA@XZ 00000001800f9510 f i corelib:dgConvexHull4d.obj
 0001:000f8530       ??0Iterator@?$dgTree@PEAVdgListNode@?$dgList@VdgConvexHull4dTetraherum@@@@PEAV12@@@QEAA@AEBV1@@Z 00000001800f9530 f i corelib:dgConvexHull4d.obj
 0001:000f8560       ??1Iterator@?$dgTree@PEAVdgListNode@?$dgList@VdgConvexHull4dTetraherum@@@@PEAV12@@@QEAA@XZ 00000001800f9560 f i corelib:dgConvexHull4d.obj
 0001:000f8570       ?Begin@Iterator@?$dgTree@PEAVdgListNode@?$dgList@VdgConvexHull4dTetraherum@@@@PEAV12@@@QEAAXXZ 00000001800f9570 f i corelib:dgConvexHull4d.obj
 0001:000f85a0       ??BIterator@?$dgTree@PEAVdgListNode@?$dgList@VdgConvexHull4dTetraherum@@@@PEAV12@@@QEBAHXZ 00000001800f95a0 f i corelib:dgConvexHull4d.obj
 0001:000f85d0       ??EIterator@?$dgTree@PEAVdgListNode@?$dgList@VdgConvexHull4dTetraherum@@@@PEAV12@@@QEAAXH@Z 00000001800f95d0 f i corelib:dgConvexHull4d.obj
 0001:000f8640       ?GetNode@Iterator@?$dgTree@PEAVdgListNode@?$dgList@VdgConvexHull4dTetraherum@@@@PEAV12@@@QEBAPEAVdgTreeNode@2@XZ 00000001800f9640 f i corelib:dgConvexHull4d.obj
 0001:000f8650       ?GetInfo@dgTreeNode@?$dgTree@PEAVdgListNode@?$dgList@VdgConvexHull4dTetraherum@@@@PEAV12@@@QEAAAEAPEAVdgListNode@?$dgList@VdgConvexHull4dTetraherum@@@@XZ 00000001800f9650 f i corelib:dgConvexHull4d.obj
 0001:000f8660       ?Sub4@?$dgTemplateVector@N@@QEBA?AV1@AEBV1@@Z 00000001800f9660 f i corelib:dgConvexHull4d.obj
 0001:000f86e0       ?DotProduct4@?$dgTemplateVector@N@@QEBANAEBV1@@Z 00000001800f96e0 f i corelib:dgConvexHull4d.obj
 0001:000f8750       ?CrossProduct4@?$dgTemplateVector@N@@QEBA?AV1@AEBV1@0@Z 00000001800f9750 f i corelib:dgConvexHull4d.obj
 0001:000f8a80       ?CompProduct4@?$dgTemplateVector@N@@QEBA?AV1@AEBV1@@Z 00000001800f9a80 f i corelib:dgConvexHull4d.obj
 0001:000f8b00       ??0?$dgList@VdgConvexHull4dTetraherum@@@@QEAA@QEAVdgMemoryAllocator@@@Z 00000001800f9b00 f i corelib:dgConvexHull4d.obj
 0001:000f8b50       ??1?$dgList@VdgConvexHull4dTetraherum@@@@QEAA@XZ 00000001800f9b50 f i corelib:dgConvexHull4d.obj
 0001:000f8b70       ?Append@?$dgList@VdgConvexHull4dTetraherum@@@@QEAAPEAVdgListNode@1@XZ 00000001800f9b70 f i corelib:dgConvexHull4d.obj
 0001:000f8c60       ?Remove@?$dgList@VdgConvexHull4dTetraherum@@@@QEAAXQEAVdgListNode@1@@Z 00000001800f9c60 f i corelib:dgConvexHull4d.obj
 0001:000f8cc0       ??0?$dgArray@VdgHullVector@@@@QEAA@HQEAVdgMemoryAllocator@@@Z 00000001800f9cc0 f i corelib:dgConvexHull4d.obj
 0001:000f8d10       ??1?$dgArray@VdgHullVector@@@@QEAA@XZ 00000001800f9d10 f i corelib:dgConvexHull4d.obj
 0001:000f8d50       ??0?$dgStack@VdgHullVector@@@@QEAA@H@Z 00000001800f9d50 f i corelib:dgConvexHull4d.obj
 0001:000f8d90       ??1?$dgStack@VdgHullVector@@@@QEAA@XZ 00000001800f9d90 f i corelib:dgConvexHull4d.obj
 0001:000f8db0       ??A?$dgStack@VdgHullVector@@@@QEAAAEAVdgHullVector@@H@Z 00000001800f9db0 f i corelib:dgConvexHull4d.obj
 0001:000f8e70       ??0?$dgStack@VdgAABBPointTree4dClump@@@@QEAA@H@Z 00000001800f9e70 f i corelib:dgConvexHull4d.obj
 0001:000f8eb0       ??1?$dgStack@VdgAABBPointTree4dClump@@@@QEAA@XZ 00000001800f9eb0 f i corelib:dgConvexHull4d.obj
 0001:000f8ed0       ?GetSizeInBytes@?$dgStack@VdgAABBPointTree4dClump@@@@QEBAHXZ 00000001800f9ed0 f i corelib:dgConvexHull4d.obj
 0001:000f8ef0       ??A?$dgStack@VdgAABBPointTree4dClump@@@@QEAAAEAVdgAABBPointTree4dClump@@H@Z 00000001800f9ef0 f i corelib:dgConvexHull4d.obj
 0001:000f8fb0       ??$Swap@VdgHullVector@@@@YAXAEAVdgHullVector@@0@Z 00000001800f9fb0 f i corelib:dgConvexHull4d.obj
 0001:000f9030       ?GetLast@?$dgList@PEAVdgListNode@?$dgList@VdgConvexHull4dTetraherum@@@@@@QEBAPEAVdgListNode@1@XZ 00000001800fa030 f i corelib:dgConvexHull4d.obj
 0001:000f9040       ?Addtop@?$dgList@PEAVdgListNode@?$dgList@VdgConvexHull4dTetraherum@@@@@@QEAAPEAVdgListNode@1@AEBQEAV2?$dgList@VdgConvexHull4dTetraherum@@@@@Z 00000001800fa040 f i corelib:dgConvexHull4d.obj
 0001:000f9140       ?Remove@?$dgList@PEAVdgListNode@?$dgList@VdgConvexHull4dTetraherum@@@@@@QEAAXAEBQEAVdgListNode@?$dgList@VdgConvexHull4dTetraherum@@@@@Z 00000001800fa140 f i corelib:dgConvexHull4d.obj
 0001:000f9180       ??0?$dgTree@PEAVdgListNode@?$dgList@VdgConvexHull4dTetraherum@@@@PEAV12@@@QEAA@QEAVdgMemoryAllocator@@@Z 00000001800fa180 f i corelib:dgConvexHull4d.obj
 0001:000f91c0       ??1?$dgTree@PEAVdgListNode@?$dgList@VdgConvexHull4dTetraherum@@@@PEAV12@@@QEAA@XZ 00000001800fa1c0 f i corelib:dgConvexHull4d.obj
 0001:000f91e0       ?Minimum@?$dgTree@PEAVdgListNode@?$dgList@VdgConvexHull4dTetraherum@@@@PEAV12@@@QEBAPEAVdgTreeNode@1@XZ 00000001800fa1e0 f i corelib:dgConvexHull4d.obj
 0001:000f9220       ?Find@?$dgTree@PEAVdgListNode@?$dgList@VdgConvexHull4dTetraherum@@@@PEAV12@@@QEBAPEAVdgTreeNode@1@PEAVdgListNode@?$dgList@VdgConvexHull4dTetraherum@@@@@Z 00000001800fa220 f i corelib:dgConvexHull4d.obj
 0001:000f93a0       ?Insert@?$dgTree@PEAVdgListNode@?$dgList@VdgConvexHull4dTetraherum@@@@PEAV12@@@QEAAPEAVdgTreeNode@1@AEBQEAVdgListNode@?$dgList@VdgConvexHull4dTetraherum@@@@PEAV34@@Z 00000001800fa3a0 f i corelib:dgConvexHull4d.obj
 0001:000f93f0       ??1?$dgHeapBase@PEAVdgListNode@?$dgList@VdgConvexHull4dTetraherum@@@@N@@IEAA@XZ 00000001800fa3f0 f i corelib:dgConvexHull4d.obj
 0001:000f9430       ?Value@?$dgHeapBase@PEAVdgListNode@?$dgList@VdgConvexHull4dTetraherum@@@@N@@QEBANH@Z 00000001800fa430 f i corelib:dgConvexHull4d.obj
 0001:000f9460       ?GetCount@?$dgHeapBase@PEAVdgListNode@?$dgList@VdgConvexHull4dTetraherum@@@@N@@QEBAHXZ 00000001800fa460 f i corelib:dgConvexHull4d.obj
 0001:000f9470       ?GetMaxCount@?$dgHeapBase@PEAVdgListNode@?$dgList@VdgConvexHull4dTetraherum@@@@N@@QEBAHXZ 00000001800fa470 f i corelib:dgConvexHull4d.obj
 0001:000f9480       ??A?$dgHeapBase@PEAVdgListNode@?$dgList@VdgConvexHull4dTetraherum@@@@N@@QEBAAEBQEAVdgListNode@?$dgList@VdgConvexHull4dTetraherum@@@@H@Z 00000001800fa480 f i corelib:dgConvexHull4d.obj
 0001:000f94f0       ??0?$dgDownHeap@PEAVdgListNode@?$dgList@VdgConvexHull4dTetraherum@@@@N@@QEAA@QEBXH@Z 00000001800fa4f0 f i corelib:dgConvexHull4d.obj
 0001:000f9530       ?Pop@?$dgDownHeap@PEAVdgListNode@?$dgList@VdgConvexHull4dTetraherum@@@@N@@QEAAXXZ 00000001800fa530 f i corelib:dgConvexHull4d.obj
 0001:000f96d0       ?Push@?$dgDownHeap@PEAVdgListNode@?$dgList@VdgConvexHull4dTetraherum@@@@N@@QEAAXAEAPEAVdgListNode@?$dgList@VdgConvexHull4dTetraherum@@@@N@Z 00000001800fa6d0 f i corelib:dgConvexHull4d.obj
 0001:000f9870       ?Remove@?$dgDownHeap@PEAVdgListNode@?$dgList@VdgConvexHull4dTetraherum@@@@N@@QEAAXH@Z 00000001800fa870 f i corelib:dgConvexHull4d.obj
 0001:000f9a10       ??_GdgListNode@?$dgList@VdgConvexHull4dTetraherum@@@@AEAAPEAXI@Z 00000001800faa10 f i corelib:dgConvexHull4d.obj
 0001:000f9a50       ??2dgListNode@?$dgList@VdgConvexHull4dTetraherum@@@@CAPEAX_KQEAVdgMemoryAllocator@@@Z 00000001800faa50 f i corelib:dgConvexHull4d.obj
 0001:000f9a80       ??3dgListNode@?$dgList@VdgConvexHull4dTetraherum@@@@CAXPEAX@Z 00000001800faa80 f i corelib:dgConvexHull4d.obj
 0001:000f9aa0       ??0dgListNode@?$dgList@VdgConvexHull4dTetraherum@@@@AEAA@QEAV01@0@Z 00000001800faaa0 f i corelib:dgConvexHull4d.obj
 0001:000f9b60       ??1dgListNode@?$dgList@VdgConvexHull4dTetraherum@@@@AEAA@XZ 00000001800fab60 f i corelib:dgConvexHull4d.obj
 0001:000f9b70       ?GetLeft@dgTreeNode@?$dgTree@PEAVdgListNode@?$dgList@VdgConvexHull4dTetraherum@@@@PEAV12@@@AEBAPEAV12@XZ 00000001800fab70 f i corelib:dgConvexHull4d.obj
 0001:000f9b80       ?GetRight@dgTreeNode@?$dgTree@PEAVdgListNode@?$dgList@VdgConvexHull4dTetraherum@@@@PEAV12@@@AEBAPEAV12@XZ 00000001800fab80 f i corelib:dgConvexHull4d.obj
 0001:000f9b90       ?RemoveAll@?$dgList@VdgConvexHull4dTetraherum@@@@QEAAXXZ 00000001800fab90 f i corelib:dgConvexHull4d.obj
 0001:000f9c90       ?Unlink@?$dgList@VdgConvexHull4dTetraherum@@@@QEAAXQEAVdgListNode@1@@Z 00000001800fac90 f i corelib:dgConvexHull4d.obj
 0001:000f9d80       ?Find@?$dgList@PEAVdgListNode@?$dgList@VdgConvexHull4dTetraherum@@@@@@QEBAPEAVdgListNode@1@AEBQEAV2?$dgList@VdgConvexHull4dTetraherum@@@@@Z 00000001800fad80 f i corelib:dgConvexHull4d.obj
 0001:000f9de0       ?Insert@?$dgTree@PEAVdgListNode@?$dgList@VdgConvexHull4dTetraherum@@@@PEAV12@@@QEAAPEAVdgTreeNode@1@AEBQEAVdgListNode@?$dgList@VdgConvexHull4dTetraherum@@@@PEAV34@AEA_N@Z 00000001800fade0 f i corelib:dgConvexHull4d.obj
 0001:000fa0a0       ?RemoveAll@?$dgTree@PEAVdgListNode@?$dgList@VdgConvexHull4dTetraherum@@@@PEAV12@@@QEAAXXZ 00000001800fb0a0 f i corelib:dgConvexHull4d.obj
 0001:000fa0e0       ?CompareKeys@?$dgTree@PEAVdgListNode@?$dgList@VdgConvexHull4dTetraherum@@@@PEAV12@@@AEBAHAEBQEAVdgListNode@?$dgList@VdgConvexHull4dTetraherum@@@@0@Z 00000001800fb0e0 f i corelib:dgConvexHull4d.obj
 0001:000fa130       ??0?$dgHeapBase@PEAVdgListNode@?$dgList@VdgConvexHull4dTetraherum@@@@N@@IEAA@QEBXH@Z 00000001800fb130 f i corelib:dgConvexHull4d.obj
 0001:000fa190       ?Unlink@dgListNode@?$dgList@VdgConvexHull4dTetraherum@@@@AEAAXXZ 00000001800fb190 f i corelib:dgConvexHull4d.obj
 0001:000fa200       ?GetPrev@dgListNode@?$dgList@VdgConvexHull4dTetraherum@@@@QEBAPEAV12@XZ 00000001800fb200 f i corelib:dgConvexHull4d.obj
 0001:000fa210       ??0dgTreeNode@?$dgTree@PEAVdgListNode@?$dgList@VdgConvexHull4dTetraherum@@@@PEAV12@@@AEAA@AEBQEAVdgListNode@?$dgList@VdgConvexHull4dTetraherum@@@@0PEAV01@@Z 00000001800fb210 f i corelib:dgConvexHull4d.obj
 0001:000fa2b0       ?Flush@?$dgHeapBase@PEAVdgListNode@?$dgList@VdgConvexHull4dTetraherum@@@@N@@QEAAXXZ 00000001800fb2b0 f i corelib:dgConvexHull4d.obj
 0001:000fad50       ??0dgAABBPolygonSoup@@IEAA@XZ 00000001800fbd50 f   corelib:dgAABBPolygonSoup.obj
 0001:000fadc0       ??1dgAABBPolygonSoup@@MEAA@XZ 00000001800fbdc0 f   corelib:dgAABBPolygonSoup.obj
 0001:000fae20       ?GetRootNode@dgAABBPolygonSoup@@IEBAPEAXXZ 00000001800fbe20 f   corelib:dgAABBPolygonSoup.obj
 0001:000fae40       ?GetBackNode@dgAABBPolygonSoup@@IEBAPEAXQEBX@Z 00000001800fbe40 f   corelib:dgAABBPolygonSoup.obj
 0001:000faeb0       ?GetFrontNode@dgAABBPolygonSoup@@IEBAPEAXQEBX@Z 00000001800fbeb0 f   corelib:dgAABBPolygonSoup.obj
 0001:000faf20       ?GetNodeAABB@dgAABBPolygonSoup@@IEBAXQEBXAEAVdgVector@@1@Z 00000001800fbf20 f   corelib:dgAABBPolygonSoup.obj
 0001:000fb070       ?ForAllSectorsSimd@dgAABBPolygonSoup@@MEBAXAEBVdgVector@@0P6A?AW4dgIntersectStatus@@PEAXQEBNHQEBHH@ZQEAX@Z 00000001800fc070 f   corelib:dgAABBPolygonSoup.obj
 0001:000fb0f0       ?ForAllSectors@dgAABBPolygonSoup@@MEBAXAEBVdgVector@@0P6A?AW4dgIntersectStatus@@PEAXQEBNHQEBHH@ZQEAX@Z 00000001800fc0f0 f   corelib:dgAABBPolygonSoup.obj
 0001:000fb170       ?ForAllSectorsSupportVectex@dgAABBPolygonSoup@@MEBA?AVdgVector@@AEBV2@@Z 00000001800fc170 f   corelib:dgAABBPolygonSoup.obj
 0001:000fb210       ?GetAABB@dgAABBPolygonSoup@@UEBAXAEAVdgVector@@0@Z 00000001800fc210 f   corelib:dgAABBPolygonSoup.obj
 0001:000fb3a0       ?ForAllSectorsRayHit@dgAABBPolygonSoup@@MEBAXAEBVFastRayTest@@P6ANPEAXQEBNHQEBHH@ZQEAX@Z 00000001800fc3a0 f   corelib:dgAABBPolygonSoup.obj
 0001:000fb420       ?ForAllSectorsRayHitSimd@dgAABBPolygonSoup@@MEBAXAEBVFastRayTest@@P6ANPEAXQEBNHQEBHH@ZQEAX@Z 00000001800fc420 f   corelib:dgAABBPolygonSoup.obj
 0001:000fb4a0       ?Serialize@dgAABBPolygonSoup@@UEBAXP6AXPEAXPEBX_K@ZQEAX@Z 00000001800fc4a0 f   corelib:dgAABBPolygonSoup.obj
 0001:000fb590       ?Deserialize@dgAABBPolygonSoup@@UEAAXP6AXPEAX0_K@ZQEAX@Z 00000001800fc590 f   corelib:dgAABBPolygonSoup.obj
 0001:000fb710       ?CalculateThisFaceEdgeNormals@dgAABBPolygonSoup@@CA?AW4dgIntersectStatus@@PEAXQEBNHQEBHH@Z 00000001800fc710 f   corelib:dgAABBPolygonSoup.obj
 0001:000fb990       ?CalculateAllFaceEdgeNormals@dgAABBPolygonSoup@@CA?AW4dgIntersectStatus@@PEAXQEBNHQEBHH@Z 00000001800fc990 f   corelib:dgAABBPolygonSoup.obj
 0001:000fbd40       ?CalculateFaceMaxSize@dgAABBPolygonSoup@@IEBANQEAVdgTriplex@@HQEBH@Z 00000001800fcd40 f   corelib:dgAABBPolygonSoup.obj
 0001:000fc0c0       ?Create@dgAABBPolygonSoup@@IEAAXAEBVdgPolygonSoupDatabaseBuilder@@_N@Z 00000001800fd0c0 f   corelib:dgAABBPolygonSoup.obj
 0001:000fcae0       ??0dgPolygonSoupDatabase@@IEAA@PEBD@Z 00000001800fdae0 f i corelib:dgAABBPolygonSoup.obj
 0001:000fcb30       ??_GdgPolygonSoupDatabase@@MEAAPEAXI@Z 00000001800fdb30 f i corelib:dgAABBPolygonSoup.obj
 0001:000fcb30       ??_EdgPolygonSoupDatabase@@MEAAPEAXI@Z 00000001800fdb30 f i corelib:dgAABBPolygonSoup.obj
 0001:000fcb70       ??1dgPolygonSoupDatabase@@MEAA@XZ 00000001800fdb70 f i corelib:dgAABBPolygonSoup.obj
 0001:000fcbb0       ?ForAllSectorsSimd@dgPolygonSoupDatabase@@MEBAXAEBVdgVector@@0P6A?AW4dgIntersectStatus@@PEAXQEBNHQEBHH@ZQEAX@Z 00000001800fdbb0 f i corelib:dgAABBPolygonSoup.obj
 0001:000fcc10       ?ForAllSectors@dgPolygonSoupDatabase@@MEBAXAEBVdgVector@@0P6A?AW4dgIntersectStatus@@PEAXQEBNHQEBHH@ZQEAX@Z 00000001800fdc10 f i corelib:dgAABBPolygonSoup.obj
 0001:000fcc70       ?GetAABB@dgPolygonSoupDatabase@@UEBAXAEAVdgVector@@0@Z 00000001800fdc70 f i corelib:dgAABBPolygonSoup.obj
 0001:000fcc80       ?ForAllSectorsRayHit@dgPolygonSoupDatabase@@MEBAXAEBVFastRayTest@@P6ANPEAXQEBNHQEBHH@ZQEAX@Z 00000001800fdc80 f i corelib:dgAABBPolygonSoup.obj
 0001:000fcce0       ?ForAllSectorsRayHitSimd@dgPolygonSoupDatabase@@MEBAXAEBVFastRayTest@@P6ANPEAXQEBNHQEBHH@ZQEAX@Z 00000001800fdce0 f i corelib:dgAABBPolygonSoup.obj
 0001:000fcd40       ??_EdgAABBPolygonSoup@@MEAAPEAXI@Z 00000001800fdd40 f i corelib:dgAABBPolygonSoup.obj
 0001:000fcd40       ??_GdgAABBPolygonSoup@@MEAAPEAXI@Z 00000001800fdd40 f i corelib:dgAABBPolygonSoup.obj
 0001:000fcd80       ?IsLeaf@TreeNode@dgAABBTree@@QEBAIXZ 00000001800fdd80 f i corelib:dgAABBPolygonSoup.obj
 0001:000fcda0       ?GetNode@TreeNode@dgAABBTree@@QEBAPEAV2@PEBX@Z 00000001800fdda0 f i corelib:dgAABBPolygonSoup.obj
 0001:000fcdc0       ?ForAllSectorsSimd@dgAABBTree@@QEBAXQEBHQEBNAEBVdgVector@@2P6A?AW4dgIntersectStatus@@PEAX1H0H@ZQEAX@Z 00000001800fddc0 f i corelib:dgAABBPolygonSoup.obj
 0001:000fd090       ?GetCount@TreeNode@dgAABBTree@@QEBAIXZ 00000001800fe090 f i corelib:dgAABBPolygonSoup.obj
 0001:000fd0f0       ?GetIndex@TreeNode@dgAABBTree@@QEBAIXZ 00000001800fe0f0 f i corelib:dgAABBPolygonSoup.obj
 0001:000fd150       ?BoxIntersectSimd@dgAABBTree@@QEBAHQEBVdgTriplex@@AEBVdgVector@@1@Z 00000001800fe150 f i corelib:dgAABBPolygonSoup.obj
 0001:000fd170       ?ForAllSectors@dgAABBTree@@QEBAXQEBHQEBNAEBVdgVector@@2P6A?AW4dgIntersectStatus@@PEAX1H0H@ZQEAX@Z 00000001800fe170 f i corelib:dgAABBPolygonSoup.obj
 0001:000fd440       ?BoxIntersect@dgAABBTree@@QEBAHQEBVdgTriplex@@AEBVdgVector@@1@Z 00000001800fe440 f i corelib:dgAABBPolygonSoup.obj
 0001:000fd550       ?ForAllSectorsSupportVertex@dgAABBTree@@QEBA?AVdgVector@@AEBV2@QEBHQEBN@Z 00000001800fe550 f i corelib:dgAABBPolygonSoup.obj
 0001:000fdf70       ?ForAllSectorsRayHit@dgAABBTree@@QEBAXAEBVFastRayTest@@PEBHPEBNP6ANPEAXQEBNHQEBHH@ZQEAX@Z 00000001800fef70 f i corelib:dgAABBPolygonSoup.obj
 0001:000fe380       ?RayTest@dgAABBTree@@QEBAHAEBVFastRayTest@@QEBVdgTriplex@@@Z 00000001800ff380 f i corelib:dgAABBPolygonSoup.obj
 0001:000fe5e0       ?ForAllSectorsRayHitSimd@dgAABBTree@@QEBAXAEBVFastRayTest@@PEBHPEBNP6ANPEAXQEBNHQEBHH@ZQEAX@Z 00000001800ff5e0 f i corelib:dgAABBPolygonSoup.obj
 0001:000fe9f0       ?RayTestSimd@dgAABBTree@@QEBAHAEBVFastRayTest@@QEBVdgTriplex@@@Z 00000001800ff9f0 f i corelib:dgAABBPolygonSoup.obj
 0001:000fea10       ??0AdjacentdFaces@@QEAA@XZ 00000001800ffa10 f i corelib:dgAABBPolygonSoup.obj
 0001:000fea40       ??0TreeNode@dgAABBTree@@QEAA@II@Z 00000001800ffa40 f i corelib:dgAABBPolygonSoup.obj
 0001:000feab0       ?CalcExtends@dgAABBTree@@QEAAXQEAVdgTriplex@@HQEBH@Z 00000001800ffab0 f i corelib:dgAABBPolygonSoup.obj
 0001:000fed30       ?BuildBottomUp@dgAABBTree@@QEAAHQEAVdgMemoryAllocator@@HQEAV1@QEAVdgTriplex@@AEAH@Z 00000001800ffd30 f i corelib:dgAABBPolygonSoup.obj
 0001:000ff890       ??2dgConstructionTree@dgAABBTree@@SAPEAX_KQEAVdgMemoryAllocator@@@Z 0000000180100890 f i corelib:dgAABBPolygonSoup.obj
 0001:000ff8c0       ??0dgConstructionTree@dgAABBTree@@QEAA@XZ 00000001801008c0 f i corelib:dgAABBPolygonSoup.obj
 0001:000ff8f0       ??0dgConstructionTree@dgAABBTree@@QEAA@QEAV01@0@Z 00000001801008f0 f i corelib:dgAABBPolygonSoup.obj
 0001:000ffa90       ?BuildTree@dgAABBTree@@QEAAHPEAVdgConstructionTree@1@QEAV1@1QEAVdgTriplex@@AEAH@Z 0000000180100a90 f i corelib:dgAABBPolygonSoup.obj
 0001:000ffe20       ??0TreeNode@dgAABBTree@@QEAA@I@Z 0000000180100e20 f i corelib:dgAABBPolygonSoup.obj
 0001:000ffe80       ?BuildTopDown@dgAABBTree@@QEAAHQEAVdgMemoryAllocator@@HQEAV1@QEAVdgTriplex@@AEAH@Z 0000000180100e80 f i corelib:dgAABBPolygonSoup.obj
 0001:000fffc0       ?BuildTree@dgAABBTree@@QEAAPEAVdgConstructionTree@1@QEAVdgMemoryAllocator@@HHQEAV1@QEBVdgTriplex@@@Z 0000000180100fc0 f i corelib:dgAABBPolygonSoup.obj
 0001:00100370       ?GetAxis@dgAABBTree@@AEBAHPEAPEAVdgConstructionTree@1@H@Z 0000000180101370 f i corelib:dgAABBPolygonSoup.obj
 0001:001005f0       ?CompareBox@dgAABBTree@@CAHQEBVdgConstructionTree@1@0QEAX@Z 00000001801015f0 f i corelib:dgAABBPolygonSoup.obj
 0001:00100680       ??_GdgConstructionTree@dgAABBTree@@QEAAPEAXI@Z 0000000180101680 f i corelib:dgAABBPolygonSoup.obj
 0001:001006c0       ??3dgConstructionTree@dgAABBTree@@SAXPEAX@Z 00000001801016c0 f i corelib:dgAABBPolygonSoup.obj
 0001:001006e0       ??1dgConstructionTree@dgAABBTree@@QEAA@XZ 00000001801016e0 f i corelib:dgAABBPolygonSoup.obj
 0001:00100790       ??1?$dgDownHeap@VdgHeapNodePair@dgAABBTree@@N@@QEAA@XZ 0000000180101790 f i corelib:dgAABBPolygonSoup.obj
 0001:001007b0       ??A?$dgArray@VdgTriplex@@@@QEBAAEBVdgTriplex@@H@Z 00000001801017b0 f i corelib:dgAABBPolygonSoup.obj
 0001:00100830       ??A?$dgArray@H@@QEBAAEBHH@Z 0000000180101830 f i corelib:dgAABBPolygonSoup.obj
 0001:001008b0       ??0?$dgStack@VdgAABBTree@@@@QEAA@H@Z 00000001801018b0 f i corelib:dgAABBPolygonSoup.obj
 0001:001008f0       ??1?$dgStack@VdgAABBTree@@@@QEAA@XZ 00000001801018f0 f i corelib:dgAABBPolygonSoup.obj
 0001:00100910       ??A?$dgStack@VdgAABBTree@@@@QEAAAEAVdgAABBTree@@H@Z 0000000180101910 f i corelib:dgAABBPolygonSoup.obj
 0001:001009d0       ??0?$dgStack@VdgHeapNodePair@dgAABBTree@@@@QEAA@H@Z 00000001801019d0 f i corelib:dgAABBPolygonSoup.obj
 0001:00100a10       ??1?$dgStack@VdgHeapNodePair@dgAABBTree@@@@QEAA@XZ 0000000180101a10 f i corelib:dgAABBPolygonSoup.obj
 0001:00100a30       ?GetSizeInBytes@?$dgStack@VdgHeapNodePair@dgAABBTree@@@@QEBAHXZ 0000000180101a30 f i corelib:dgAABBPolygonSoup.obj
 0001:00100a50       ??A?$dgStack@VdgHeapNodePair@dgAABBTree@@@@QEAAAEAVdgHeapNodePair@dgAABBTree@@H@Z 0000000180101a50 f i corelib:dgAABBPolygonSoup.obj
 0001:00100b00       ??0?$dgStack@PEAVdgConstructionTree@dgAABBTree@@@@QEAA@H@Z 0000000180101b00 f i corelib:dgAABBPolygonSoup.obj
 0001:00100b40       ??1?$dgStack@PEAVdgConstructionTree@dgAABBTree@@@@QEAA@XZ 0000000180101b40 f i corelib:dgAABBPolygonSoup.obj
 0001:00100b60       ??A?$dgStack@PEAVdgConstructionTree@dgAABBTree@@@@QEAAAEAPEAVdgConstructionTree@dgAABBTree@@H@Z 0000000180101b60 f i corelib:dgAABBPolygonSoup.obj
 0001:00100c10       ??1?$dgHeapBase@VdgHeapNodePair@dgAABBTree@@N@@IEAA@XZ 0000000180101c10 f i corelib:dgAABBPolygonSoup.obj
 0001:00100c50       ?Flush@?$dgHeapBase@VdgHeapNodePair@dgAABBTree@@N@@QEAAXXZ 0000000180101c50 f i corelib:dgAABBPolygonSoup.obj
 0001:00100c70       ?Value@?$dgHeapBase@VdgHeapNodePair@dgAABBTree@@N@@QEBANH@Z 0000000180101c70 f i corelib:dgAABBPolygonSoup.obj
 0001:00100ca0       ?GetCount@?$dgHeapBase@VdgHeapNodePair@dgAABBTree@@N@@QEBAHXZ 0000000180101ca0 f i corelib:dgAABBPolygonSoup.obj
 0001:00100cb0       ?GetMaxCount@?$dgHeapBase@VdgHeapNodePair@dgAABBTree@@N@@QEBAHXZ 0000000180101cb0 f i corelib:dgAABBPolygonSoup.obj
 0001:00100cc0       ??A?$dgHeapBase@VdgHeapNodePair@dgAABBTree@@N@@QEBAAEBVdgHeapNodePair@dgAABBTree@@H@Z 0000000180101cc0 f i corelib:dgAABBPolygonSoup.obj
 0001:00100d30       ??0?$dgDownHeap@VdgHeapNodePair@dgAABBTree@@N@@QEAA@QEBXH@Z 0000000180101d30 f i corelib:dgAABBPolygonSoup.obj
 0001:00100d70       ?Pop@?$dgDownHeap@VdgHeapNodePair@dgAABBTree@@N@@QEAAXXZ 0000000180101d70 f i corelib:dgAABBPolygonSoup.obj
 0001:00100f10       ?Push@?$dgDownHeap@VdgHeapNodePair@dgAABBTree@@N@@QEAAXAEAVdgHeapNodePair@dgAABBTree@@N@Z 0000000180101f10 f i corelib:dgAABBPolygonSoup.obj
 0001:001010b0       ?Sort@?$dgDownHeap@VdgHeapNodePair@dgAABBTree@@N@@QEAAXXZ 00000001801020b0 f i corelib:dgAABBPolygonSoup.obj
 0001:00101290       ??$dgSortIndirect@VdgConstructionTree@dgAABBTree@@@@YAXQEAPEAVdgConstructionTree@dgAABBTree@@HP6AHQEBV01@1QEAX@Z2@Z 0000000180102290 f i corelib:dgAABBPolygonSoup.obj
 0001:00101720       ??$Swap@VdgAABBTree@@@@YAXAEAVdgAABBTree@@0@Z 0000000180102720 f i corelib:dgAABBPolygonSoup.obj
 0001:00101790       ?Resize@?$dgArray@VdgTriplex@@@@QEBAXH@Z 0000000180102790 f i corelib:dgAABBPolygonSoup.obj
 0001:00101a20       ?Resize@?$dgArray@H@@QEBAXH@Z 0000000180102a20 f i corelib:dgAABBPolygonSoup.obj
 0001:00101c00       ??0?$dgHeapBase@VdgHeapNodePair@dgAABBTree@@N@@IEAA@QEBXH@Z 0000000180102c00 f i corelib:dgAABBPolygonSoup.obj
 0001:00101c60       ??0dgPolygonSoupDatabaseBuilder@@QEAA@QEAVdgMemoryAllocator@@@Z 0000000180102c60 f   corelib:dgPolygonSoupBuilder.obj
 0001:00101d20       ??1dgPolygonSoupDatabaseBuilder@@QEAA@XZ 0000000180102d20 f   corelib:dgPolygonSoupBuilder.obj
 0001:00101d80       ?Begin@dgPolygonSoupDatabaseBuilder@@QEAAXXZ 0000000180102d80 f   corelib:dgPolygonSoupBuilder.obj
 0001:00101dc0       ?AddMesh@dgPolygonSoupDatabaseBuilder@@QEAAXQEBNHHHQEBH11AEBVdgMatrix@@@Z 0000000180102dc0 f   corelib:dgPolygonSoupBuilder.obj
 0001:001021c0       ?SingleFaceFixup@dgPolygonSoupDatabaseBuilder@@QEAAXXZ 00000001801031c0 f   corelib:dgPolygonSoupBuilder.obj
 0001:001022b0       ?EndAndOptimize@dgPolygonSoupDatabaseBuilder@@AEAAX_N@Z 00000001801032b0 f   corelib:dgPolygonSoupBuilder.obj
 0001:00102480       ?OptimizeByGroupID@dgPolygonSoupDatabaseBuilder@@AEAAXXZ 0000000180103480 f   corelib:dgPolygonSoupBuilder.obj
 0001:00102980       ?OptimizeByGroupID@dgPolygonSoupDatabaseBuilder@@AEAAXAEAV1@HH0@Z 0000000180103980 f   corelib:dgPolygonSoupBuilder.obj
 0001:00103170       ?OptimizeByIndividualFaces@dgPolygonSoupDatabaseBuilder@@AEAAXXZ 0000000180104170 f   corelib:dgPolygonSoupBuilder.obj
 0001:00103360       ?End@dgPolygonSoupDatabaseBuilder@@QEAAX_N@Z 0000000180104360 f   corelib:dgPolygonSoupBuilder.obj
 0001:00103710       ?Optimize@dgPolygonSoupDatabaseBuilder@@AEAAX_N@Z 0000000180104710 f   corelib:dgPolygonSoupBuilder.obj
 0001:00104660       ?FilterFace@dgPolygonSoupDatabaseBuilder@@AEAAHHQEAH@Z 0000000180105660 f   corelib:dgPolygonSoupBuilder.obj
 0001:00105400       ?AddConvexFace@dgPolygonSoupDatabaseBuilder@@AEAAHHQEAH0@Z 0000000180106400 f   corelib:dgPolygonSoupBuilder.obj
 0001:00106170       ??0VertexArray@dgPolygonSoupDatabaseBuilder@@QEAA@QEAVdgMemoryAllocator@@@Z 0000000180107170 f i corelib:dgPolygonSoupBuilder.obj
 0001:001061a0       ??0IndexArray@dgPolygonSoupDatabaseBuilder@@QEAA@QEAVdgMemoryAllocator@@@Z 00000001801071a0 f i corelib:dgPolygonSoupBuilder.obj
 0001:001061d0       ??1IndexArray@dgPolygonSoupDatabaseBuilder@@QEAA@XZ 00000001801071d0 f i corelib:dgPolygonSoupBuilder.obj
 0001:001061f0       ??1VertexArray@dgPolygonSoupDatabaseBuilder@@QEAA@XZ 00000001801071f0 f i corelib:dgPolygonSoupBuilder.obj
 0001:00106210       ??0dgPolySoupFilterAllocator@@QEAA@QEAVdgMemoryAllocator@@@Z 0000000180107210 f i corelib:dgPolygonSoupBuilder.obj
 0001:00106250       ??1dgPolySoupFilterAllocator@@UEAA@XZ 0000000180107250 f i corelib:dgPolygonSoupBuilder.obj
 0001:00106280       ?AddFilterFace@dgPolySoupFilterAllocator@@QEAAHIQEAH@Z 0000000180107280 f i corelib:dgPolygonSoupBuilder.obj
 0001:00106450       ??_GdgPolySoupFilterAllocator@@UEAAPEAXI@Z 0000000180107450 f i corelib:dgPolygonSoupBuilder.obj
 0001:00106450       ??_EdgPolySoupFilterAllocator@@UEAAPEAXI@Z 0000000180107450 f i corelib:dgPolygonSoupBuilder.obj
 0001:00106490       ??0?$dgArray@VdgTriplex@@@@QEAA@HQEAVdgMemoryAllocator@@@Z 0000000180107490 f i corelib:dgPolygonSoupBuilder.obj
 0001:001064e0       ??1?$dgArray@VdgTriplex@@@@QEAA@XZ 00000001801074e0 f i corelib:dgPolygonSoupBuilder.obj
 0001:00106520       ??A?$dgArray@VdgTriplex@@@@QEAAAEAVdgTriplex@@H@Z 0000000180107520 f i corelib:dgPolygonSoupBuilder.obj
 0001:001065a0       ??0?$dgArray@H@@QEAA@HQEAVdgMemoryAllocator@@@Z 00000001801075a0 f i corelib:dgPolygonSoupBuilder.obj
 0001:001065f0       ??1?$dgArray@H@@QEAA@XZ    00000001801075f0 f i corelib:dgPolygonSoupBuilder.obj
 0001:00106630       ??A?$dgArray@H@@QEAAAEAHH@Z 0000000180107630 f i corelib:dgPolygonSoupBuilder.obj
 0001:001066b0       ??0?$dgTree@HH@@QEAA@QEAVdgMemoryAllocator@@@Z 00000001801076b0 f i corelib:dgPolygonSoupBuilder.obj
 0001:001066f0       ??1?$dgTree@HH@@QEAA@XZ    00000001801076f0 f i corelib:dgPolygonSoupBuilder.obj
 0001:00106710       ?Find@?$dgTree@HH@@QEBAPEAVdgTreeNode@1@H@Z 0000000180107710 f i corelib:dgPolygonSoupBuilder.obj
 0001:00106880       ?Insert@?$dgTree@HH@@QEAAPEAVdgTreeNode@1@AEBHH@Z 0000000180107880 f i corelib:dgPolygonSoupBuilder.obj
 0001:001068d0       ?GetLeft@dgTreeNode@?$dgTree@HH@@AEBAPEAV12@XZ 00000001801078d0 f i corelib:dgPolygonSoupBuilder.obj
 0001:001068e0       ?GetRight@dgTreeNode@?$dgTree@HH@@AEBAPEAV12@XZ 00000001801078e0 f i corelib:dgPolygonSoupBuilder.obj
 0001:001068f0       ?Insert@?$dgTree@HH@@QEAAPEAVdgTreeNode@1@AEBHHAEA_N@Z 00000001801078f0 f i corelib:dgPolygonSoupBuilder.obj
 0001:00106bb0       ?RemoveAll@?$dgTree@HH@@QEAAXXZ 0000000180107bb0 f i corelib:dgPolygonSoupBuilder.obj
 0001:00106bf0       ?CompareKeys@?$dgTree@HH@@AEBAHAEBH0@Z 0000000180107bf0 f i corelib:dgPolygonSoupBuilder.obj
 0001:00106c40       ??0dgTreeNode@?$dgTree@HH@@AEAA@AEBH0PEAV01@@Z 0000000180107c40 f i corelib:dgPolygonSoupBuilder.obj
 0001:00106cd0       ??0dgQuaternion@@QEAA@AEBVdgMatrix@@@Z 0000000180107cd0 f   corelib:dgQuaternion.obj
 0001:00107390       ??0dgQuaternion@@QEAA@AEBVdgVector@@N@Z 0000000180108390 f   corelib:dgQuaternion.obj
 0001:001074c0       ?CalcAverageOmega@dgQuaternion@@QEBA?AVdgVector@@AEBV1@N@Z 00000001801084c0 f   corelib:dgQuaternion.obj
 0001:00107540       ?Slerp@dgQuaternion@@QEBA?AV1@AEBV1@N@Z 0000000180108540 f   corelib:dgQuaternion.obj
 0001:001075b0       ?GetIdentitySphere@@YAAEBVdgSphere@@XZ 00000001801085b0 f   corelib:dgSphere.obj
 0001:001075c0       ??0dgSphere@@QEAA@XZ       00000001801085c0 f   corelib:dgSphere.obj
 0001:00107640       ??0dgSphere@@QEAA@AEBVdgQuaternion@@AEBVdgVector@@1@Z 0000000180108640 f   corelib:dgSphere.obj
 0001:001076f0       ??0dgSphere@@QEAA@AEBVdgMatrix@@AEBVdgVector@@@Z 00000001801086f0 f   corelib:dgSphere.obj
 0001:00107790       ?SetDimensions@dgSphere@@QEAAXQEBNHQEBHHPEBVdgMatrix@@@Z 0000000180108790 f   corelib:dgSphere.obj
 0001:00108ad0       ?SetDimensions@dgSphere@@QEAAXQEBNHHPEBVdgMatrix@@@Z 0000000180109ad0 f   corelib:dgSphere.obj
 0001:00109750       ?SetDimensions@dgSphere@@QEAAXNNN@Z 000000018010a750 f i corelib:dgSphere.obj
 0001:00109870       ?Determinant2x2@@YANQEAY01$$CBNQEAN@Z 000000018010a870 f   corelib:dgSmallDeterminant.obj
 0001:00109940       ?Determinant2x2@@YA?AVdgGoogol@@QEAY01$$CBV1@@Z 000000018010a940 f   corelib:dgSmallDeterminant.obj
 0001:001099f0       ?Determinant3x3@@YANQEAY02$$CBNQEAN@Z 000000018010a9f0 f   corelib:dgSmallDeterminant.obj
 0001:00109be0       ?Determinant3x3@@YA?AVdgGoogol@@QEAY02$$CBV1@@Z 000000018010abe0 f   corelib:dgSmallDeterminant.obj
 0001:00109f20       ?Determinant4x4@@YANQEAY03$$CBNQEAN@Z 000000018010af20 f   corelib:dgSmallDeterminant.obj
 0001:0010a150       ?Determinant4x4@@YA?AVdgGoogol@@QEAY03$$CBV1@@Z 000000018010b150 f   corelib:dgSmallDeterminant.obj
 0001:0010a4b0       ??0dgGoogol@@QEAA@XZ       000000018010b4b0 f   corelib:dgGoogol.obj
 0001:0010a4f0       ??0dgGoogol@@QEAA@N@Z      000000018010b4f0 f   corelib:dgGoogol.obj
 0001:0010a520       ??1dgGoogol@@QEAA@XZ       000000018010b520 f   corelib:dgGoogol.obj
 0001:0010a530       ?GetAproximateValue@dgGoogol@@QEBANXZ 000000018010b530 f   corelib:dgGoogol.obj
 0001:0010a590       ?InitFloatFloat@dgGoogol@@QEAAXN@Z 000000018010b590 f   corelib:dgGoogol.obj
 0001:0010a6f0       ??HdgGoogol@@QEBA?AV0@AEBV0@@Z 000000018010b6f0 f   corelib:dgGoogol.obj
 0001:0010a980       ??GdgGoogol@@QEBA?AV0@AEBV0@@Z 000000018010b980 f   corelib:dgGoogol.obj
 0001:0010aa50       ??DdgGoogol@@QEBA?AV0@AEBV0@@Z 000000018010ba50 f   corelib:dgGoogol.obj
 0001:0010ab80       ?AddFloat@dgGoogol@@AEBAXNNAEAN0@Z 000000018010bb80 f i corelib:dgGoogol.obj
 0001:0010ac20       ?PackFloat@dgGoogol@@AEAAXXZ 000000018010bc20 f i corelib:dgGoogol.obj
 0001:0010aee0       ?ScaleFloat@dgGoogol@@AEBA?AV1@N@Z 000000018010bee0 f i corelib:dgGoogol.obj
 0001:0010b180       ?MulFloat@dgGoogol@@AEBAXNNAEAN0@Z 000000018010c180 f i corelib:dgGoogol.obj
 0001:0010b270       ?SplitFloat@dgGoogol@@AEBAXNAEAN0@Z 000000018010c270 f i corelib:dgGoogol.obj
 0001:0010b2f0       strlen                     000000018010c2f0 f   LIBCMTD:strlen.obj
 0001:0010b3a0       _fpmath                    000000018010c3a0 f   LIBCMTD:_fpinit_.obj
 0001:0010b3c0       _fpclear                   000000018010c3c0 f   LIBCMTD:_fpinit_.obj
 0001:0010b3d0       _cfltcvt_init              000000018010c3d0 f   LIBCMTD:_fpinit_.obj
 0001:0010b460       __setfflag                 000000018010c460 f   LIBCMTD:_fpinit_.obj
 0001:0010b490       ceil                       000000018010c490 f   LIBCMTD:_ceil_.obj
 0001:0010b6d0       _CrtSetReportHookW2        000000018010c6d0 f   LIBCMTD:dbgrptw.obj
 0001:0010bab0       _CrtDbgReportW             000000018010cab0 f   LIBCMTD:dbgrptw.obj
 0001:0010bb20       _CrtDbgReportWV            000000018010cb20 f i LIBCMTD:dbgrptw.obj
 0001:0010bb70       __crtMessageWindowW        000000018010cb70 f   LIBCMTD:dbgrptw.obj
 0001:0010c170       _invoke_watson_if_error    000000018010d170 f i LIBCMTD:dbgrptw.obj
 0001:0010c1c0       _invoke_watson_if_oneof    000000018010d1c0 f i LIBCMTD:dbgrptw.obj
 0001:0010c230       ?_CrtDbgReportW@@YAHHPEBGH00ZZ 000000018010d230 f   LIBCMTD:dbgrptw.obj
 0001:0010c2a0       fabs                       000000018010d2a0 f   LIBCMTD:_fabs_.obj
 0001:0010c3b0       sqrt                       000000018010d3b0 f   LIBCMTD:_sqrt_.obj
 0001:0010c590       _finite                    000000018010d590 f   LIBCMTD:__finite_.obj
 0001:0010c5e0       sin                        000000018010d5e0 f   LIBCMTD:_sincos_.obj
 0001:0010cec0       cos                        000000018010dec0 f   LIBCMTD:_sincos_.obj
 0001:0010d470       malloc                     000000018010e470 f   LIBCMTD:dbgmalloc.obj
 0001:0010d4b0       free                       000000018010e4b0 f   LIBCMTD:dbgfree.obj
 0001:0010d4e0       memset                     000000018010e4e0 f   LIBCMTD:memset.obj
 0001:0010d5d0       _CRT_INIT                  000000018010e5d0 f   LIBCMTD:dllcrt0.obj
 0001:0010d7c0       _DllMainCRTStartup         000000018010e7c0 f   LIBCMTD:dllcrt0.obj
 0001:0010d960       sprintf                    000000018010e960 f   LIBCMTD:sprintf.obj
 0001:0010dbc0       _sprintf_l                 000000018010ebc0 f   LIBCMTD:sprintf.obj
 0001:0010dc00       sprintf_s                  000000018010ec00 f   LIBCMTD:sprintf.obj
 0001:0010dc50       _sprintf_s_l               000000018010ec50 f   LIBCMTD:sprintf.obj
 0001:0010dca0       _snprintf_s                000000018010eca0 f   LIBCMTD:sprintf.obj
 0001:0010dd00       _snprintf_s_l              000000018010ed00 f   LIBCMTD:sprintf.obj
 0001:0010dd60       _sprintf_p                 000000018010ed60 f   LIBCMTD:sprintf.obj
 0001:0010ddb0       _sprintf_p_l               000000018010edb0 f   LIBCMTD:sprintf.obj
 0001:0010de00       _scprintf                  000000018010ee00 f   LIBCMTD:sprintf.obj
 0001:0010de40       _scprintf_p                000000018010ee40 f   LIBCMTD:sprintf.obj
 0001:0010de80       _scprintf_l                000000018010ee80 f   LIBCMTD:sprintf.obj
 0001:0010dec0       _scprintf_p_l              000000018010eec0 f   LIBCMTD:sprintf.obj
 0001:0010df00       _purecall                  000000018010ef00 f   LIBCMTD:purevirt.obj
 0001:0010df50       _set_purecall_handler      000000018010ef50 f   LIBCMTD:purevirt.obj
 0001:0010df90       _get_purecall_handler      000000018010ef90 f   LIBCMTD:purevirt.obj
 0001:0010dfb0       ??3@YAXPEAX@Z              000000018010efb0 f   LIBCMTD:dbgdel.obj
 0001:0010e070       pow                        000000018010f070 f   LIBCMTD:_pow_.obj
 0001:0010e661       __clear_x87_state          000000018010f661 f   LIBCMTD:_pow_.obj
 0001:0010e670       log                        000000018010f670 f   LIBCMTD:_log_.obj
 0001:0010ecc0       floor                      000000018010fcc0 f   LIBCMTD:_floor_.obj
 0001:0010ef00       memmove                    000000018010ff00     LIBCMTD:memcpy.obj
 0001:0010ef00       memcpy                     000000018010ff00 f   LIBCMTD:memcpy.obj
 0001:0010f240       atan2                      0000000180110240 f   LIBCMTD:_atan2_.obj
 0001:001102e0       acos                       00000001801112e0 f   LIBCMTD:_acos_.obj
 0001:00110860       asin                       0000000180111860 f   LIBCMTD:_asin_.obj
 0001:00110e20       strcat                     0000000180111e20 f   LIBCMTD:strcat.obj
 0001:00110ec0       strcpy                     0000000180111ec0 f   LIBCMTD:strcat.obj
 0001:00110ec3       ___entry_from_strcat_in_strcpy 0000000180111ec3     LIBCMTD:strcat.obj
 0001:00110f80       _vsprintf_l                0000000180111f80 f   LIBCMTD:vsprintf.obj
 0001:001111c0       vsprintf                   00000001801121c0 f   LIBCMTD:vsprintf.obj
 0001:001111f0       _vscprintf_helper          00000001801121f0 f   LIBCMTD:vsprintf.obj
 0001:00111320       _vscprintf                 0000000180112320 f   LIBCMTD:vsprintf.obj
 0001:00111350       _vscprintf_l               0000000180112350 f   LIBCMTD:vsprintf.obj
 0001:00111390       _vscprintf_p               0000000180112390 f   LIBCMTD:vsprintf.obj
 0001:001113c0       _vscprintf_p_l             00000001801123c0 f   LIBCMTD:vsprintf.obj
 0001:00111400       _onexit                    0000000180112400 f   LIBCMTD:onexit.obj
 0001:001115f0       atexit                     00000001801125f0 f   LIBCMTD:onexit.obj
 0001:00111630       __onexitinit               0000000180112630 f   LIBCMTD:onexit.obj
 0001:001116a0       _beginthreadex             00000001801126a0 f   LIBCMTD:threadex.obj
 0001:001119b0       _endthreadex               00000001801129b0 f   LIBCMTD:threadex.obj
 0001:00111a10       _forcdecpt                 0000000180112a10 f   LIBCMTD:cvt.obj
 0001:00111a30       _forcdecpt_l               0000000180112a30 f   LIBCMTD:cvt.obj
 0001:00111b30       ??0_LocaleUpdate@@QEAA@PEAUlocaleinfo_struct@@@Z 0000000180112b30 f i LIBCMTD:cvt.obj
 0001:00111c90       ??1_LocaleUpdate@@QEAA@XZ  0000000180112c90 f i LIBCMTD:cvt.obj
 0001:00111cd0       ?GetLocaleT@_LocaleUpdate@@QEAAPEAUlocaleinfo_struct@@XZ 0000000180112cd0 f i LIBCMTD:cvt.obj
 0001:00111ce0       _cropzeros                 0000000180112ce0 f   LIBCMTD:cvt.obj
 0001:00111d00       _cropzeros_l               0000000180112d00 f   LIBCMTD:cvt.obj
 0001:00111e70       _positive                  0000000180112e70 f   LIBCMTD:cvt.obj
 0001:00111eb0       _fassign_l                 0000000180112eb0 f   LIBCMTD:cvt.obj
 0001:00111f20       _fassign                   0000000180112f20 f   LIBCMTD:cvt.obj
 0001:00111f50       _cftoe_l                   0000000180112f50 f   LIBCMTD:cvt.obj
 0001:00112890       _cftoe                     0000000180113890 f   LIBCMTD:cvt.obj
 0001:001128e0       _cftoa_l                   00000001801138e0 f   LIBCMTD:cvt.obj
 0001:00113410       ?strrchr@@YAPEADPEADH@Z    0000000180114410 f i LIBCMTD:cvt.obj
 0001:00113430       _cftoa                     0000000180114430 f   LIBCMTD:cvt.obj
 0001:00113480       _cftof_l                   0000000180114480 f   LIBCMTD:cvt.obj
 0001:00113b30       _cftof                     0000000180114b30 f   LIBCMTD:cvt.obj
 0001:00113b70       _cftog_l                   0000000180114b70 f   LIBCMTD:cvt.obj
 0001:00113f50       _cftog                     0000000180114f50 f   LIBCMTD:cvt.obj
 0001:00113fa0       _cfltcvt_l                 0000000180114fa0 f   LIBCMTD:cvt.obj
 0001:001140c0       _cfltcvt                   00000001801150c0 f   LIBCMTD:cvt.obj
 0001:00114160       _initp_misc_cfltcvt_tab    0000000180115160 f   LIBCMTD:cmiscdat.obj
 0001:001141c0       _handle_errorf             00000001801151c0 f   LIBCMTD:_libm_error_.obj
 0001:00114520       _handle_error              0000000180115520 f   LIBCMTD:_libm_error_.obj
 0001:001146a0       __C_specific_handler       00000001801156a0 f   LIBCMTD:chandler.obj
 0001:00114a40       _mtinitlocks               0000000180115a40 f   LIBCMTD:mlock.obj
 0001:00114b10       _mtdeletelocks             0000000180115b10 f   LIBCMTD:mlock.obj
 0001:00114c30       _mtinitlocknum             0000000180115c30 f   LIBCMTD:mlock.obj
 0001:00114d60       _lock                      0000000180115d60 f   LIBCMTD:mlock.obj
 0001:00114dc0       _unlock                    0000000180115dc0 f   LIBCMTD:mlock.obj
 0001:00114df0       _lockerr_exit              0000000180115df0 f   LIBCMTD:mlock.obj
 0001:00114e20       _malloc_dbg                0000000180115e20 f   LIBCMTD:dbgheap.obj
 0001:00114e70       _nh_malloc                 0000000180115e70 f   LIBCMTD:dbgheap.obj
 0001:00114eb0       _nh_malloc_dbg             0000000180115eb0 f   LIBCMTD:dbgheap.obj
 0001:00114fc0       _heap_alloc                0000000180115fc0 f   LIBCMTD:dbgheap.obj
 0001:001154a0       _heap_alloc_dbg            00000001801164a0 f   LIBCMTD:dbgheap.obj
 0001:00115520       _calloc_dbg_impl           0000000180116520 f   LIBCMTD:dbgheap.obj
 0001:00115650       _calloc_dbg                0000000180116650 f   LIBCMTD:dbgheap.obj
 0001:001156e0       _recalloc                  00000001801166e0 f   LIBCMTD:dbgheap.obj
 0001:00115730       _realloc_dbg               0000000180116730 f   LIBCMTD:dbgheap.obj
 0001:00116030       _recalloc_dbg              0000000180117030 f   LIBCMTD:dbgheap.obj
 0001:001161b0       _expand                    00000001801171b0 f   LIBCMTD:dbgheap.obj
 0001:001161f0       _expand_dbg                00000001801171f0 f   LIBCMTD:dbgheap.obj
 0001:00116310       _free_nolock               0000000180117310 f   LIBCMTD:dbgheap.obj
 0001:00116330       _free_dbg                  0000000180117330 f   LIBCMTD:dbgheap.obj
 0001:00116370       _free_dbg_nolock           0000000180117370 f   LIBCMTD:dbgheap.obj
 0001:001169f0       _msize                     00000001801179f0 f   LIBCMTD:dbgheap.obj
 0001:00116a10       _msize_dbg                 0000000180117a10 f   LIBCMTD:dbgheap.obj
 0001:00116c20       _CrtSetBreakAlloc          0000000180117c20 f   LIBCMTD:dbgheap.obj
 0001:00116c50       _CrtSetDbgBlockType        0000000180117c50 f   LIBCMTD:dbgheap.obj
 0001:00116d10       _CrtSetAllocHook           0000000180117d10 f   LIBCMTD:dbgheap.obj
 0001:00116d40       _CrtGetAllocHook           0000000180117d40 f   LIBCMTD:dbgheap.obj
 0001:00116dc0       _CrtCheckMemory            0000000180117dc0 f   LIBCMTD:dbgheap.obj
 0001:00117360       _CrtSetDbgFlag             0000000180118360 f   LIBCMTD:dbgheap.obj
 0001:00117490       _CrtDoForAllClientObjects  0000000180118490 f   LIBCMTD:dbgheap.obj
 0001:001175b0       _CrtIsValidPointer         00000001801185b0 f   LIBCMTD:dbgheap.obj
 0001:001175f0       _CrtIsValidHeapPointer     00000001801185f0 f   LIBCMTD:dbgheap.obj
 0001:00117640       _CrtIsMemoryBlock          0000000180118640 f   LIBCMTD:dbgheap.obj
 0001:001177c0       _CrtReportBlockType        00000001801187c0 f   LIBCMTD:dbgheap.obj
 0001:00117800       _CrtSetDumpClient          0000000180118800 f   LIBCMTD:dbgheap.obj
 0001:00117830       _CrtGetDumpClient          0000000180118830 f   LIBCMTD:dbgheap.obj
 0001:00117840       _CrtMemCheckpoint          0000000180118840 f   LIBCMTD:dbgheap.obj
 0001:00117ac0       _CrtMemDifference          0000000180118ac0 f   LIBCMTD:dbgheap.obj
 0001:00117dd0       _CrtMemDumpAllObjectsSince 0000000180118dd0 f   LIBCMTD:dbgheap.obj
 0001:00118440       _CrtDumpMemoryLeaks        0000000180119440 f   LIBCMTD:dbgheap.obj
 0001:001184c0       _CrtMemDumpStatistics      00000001801194c0 f   LIBCMTD:dbgheap.obj
 0001:00118650       _aligned_malloc            0000000180119650 f   LIBCMTD:dbgheap.obj
 0001:00118680       _aligned_malloc_dbg        0000000180119680 f   LIBCMTD:dbgheap.obj
 0001:001186c0       _aligned_realloc           00000001801196c0 f   LIBCMTD:dbgheap.obj
 0001:00118700       _aligned_recalloc          0000000180119700 f   LIBCMTD:dbgheap.obj
 0001:00118750       _aligned_realloc_dbg       0000000180119750 f   LIBCMTD:dbgheap.obj
 0001:001187a0       _aligned_recalloc_dbg      00000001801197a0 f   LIBCMTD:dbgheap.obj
 0001:00118800       _aligned_offset_malloc     0000000180119800 f   LIBCMTD:dbgheap.obj
 0001:00118840       _aligned_offset_malloc_dbg 0000000180119840 f   LIBCMTD:dbgheap.obj
 0001:00118ad0       _aligned_offset_realloc    0000000180119ad0 f   LIBCMTD:dbgheap.obj
 0001:00118b20       _aligned_offset_recalloc   0000000180119b20 f   LIBCMTD:dbgheap.obj
 0001:00118b80       _aligned_offset_realloc_dbg 0000000180119b80 f   LIBCMTD:dbgheap.obj
 0001:00118fc0       _aligned_offset_recalloc_dbg 0000000180119fc0 f   LIBCMTD:dbgheap.obj
 0001:00119160       _aligned_free              000000018011a160 f   LIBCMTD:dbgheap.obj
 0001:00119180       _aligned_free_dbg          000000018011a180 f   LIBCMTD:dbgheap.obj
 0001:00119260       _CrtSetDebugFillThreshold  000000018011a260 f   LIBCMTD:dbgheap.obj
 0001:00119290       _CrtSetCheckCount          000000018011a290 f   LIBCMTD:dbgheap.obj
 0001:001192b0       _CrtGetCheckCount          000000018011a2b0 f   LIBCMTD:dbgheap.obj
 0001:001192c0       _aligned_msize             000000018011a2c0 f   LIBCMTD:dbgheap.obj
 0001:001192f0       _aligned_msize_dbg         000000018011a2f0 f   LIBCMTD:dbgheap.obj
 0001:001194a0       _CrtDbgBreak               000000018011a4a0 f   LIBCMTD:dbgrptt.obj
 0001:001194b0       _CrtSetReportMode          000000018011a4b0 f   LIBCMTD:dbgrptt.obj
 0001:00119660       _CrtSetReportFile          000000018011a660 f   LIBCMTD:dbgrptt.obj
 0001:001197c0       _CrtSetReportHook          000000018011a7c0 f   LIBCMTD:dbgrptt.obj
 0001:001197f0       _CrtGetReportHook          000000018011a7f0 f   LIBCMTD:dbgrptt.obj
 0001:00119800       _VCrtDbgReportA            000000018011a800 f   LIBCMTD:dbgrptt.obj
 0001:0011a210       _VCrtDbgReportW            000000018011b210 f   LIBCMTD:dbgrptt.obj
 0001:0011ad80       _initp_misc_invarg         000000018011bd80 f   LIBCMTD:invarg.obj
 0001:0011ada0       _invalid_parameter         000000018011bda0 f   LIBCMTD:invarg.obj
 0001:0011ae40       _invoke_watson             000000018011be40 f   LIBCMTD:invarg.obj
 0001:0011afe0       _set_invalid_parameter_handler 000000018011bfe0 f   LIBCMTD:invarg.obj
 0001:0011b040       _get_invalid_parameter_handler 000000018011c040 f   LIBCMTD:invarg.obj
 0001:0011b080       ?_invalid_parameter@@YAXPEBG00I_K@Z 000000018011c080 f   LIBCMTD:invarg.obj
 0001:0011b0c0       ?_invoke_watson@@YAXPEBG00I_K@Z 000000018011c0c0 f   LIBCMTD:invarg.obj
 0001:0011b100       _dosmaperr                 000000018011c100 f   LIBCMTD:dosmap.obj
 0001:0011b130       _get_errno_from_oserr      000000018011c130 f   LIBCMTD:dosmap.obj
 0001:0011b1c0       _set_errno                 000000018011c1c0 f   LIBCMTD:dosmap.obj
 0001:0011b200       _get_errno                 000000018011c200 f   LIBCMTD:dosmap.obj
 0001:0011b2b0       _set_doserrno              000000018011c2b0 f   LIBCMTD:dosmap.obj
 0001:0011b2f0       _get_doserrno              000000018011c2f0 f   LIBCMTD:dosmap.obj
 0001:0011b3a0       _errno                     000000018011c3a0 f   LIBCMTD:dosmap.obj
 0001:0011b3d0       __doserrno                 000000018011c3d0 f   LIBCMTD:dosmap.obj
 0001:0011b400       __GSHandlerCheck           000000018011c400 f   LIBCMTD:gshandler.obj
 0001:0011b440       __GSHandlerCheckCommon     000000018011c440 f   LIBCMTD:gshandler.obj
 0001:0011b540       _crt_waiting_on_module_handle 000000018011c540 f   LIBCMTD:crt0dat.obj
 0001:0011b5b0       _cinit                     000000018011c5b0 f   LIBCMTD:crt0dat.obj
 0001:0011b660       exit                       000000018011c660 f   LIBCMTD:crt0dat.obj
 0001:0011b680       _exit                      000000018011c680 f   LIBCMTD:crt0dat.obj
 0001:0011b6a0       _cexit                     000000018011c6a0 f   LIBCMTD:crt0dat.obj
 0001:0011b6c0       _c_exit                    000000018011c6c0 f   LIBCMTD:crt0dat.obj
 0001:0011b6e0       _amsg_exit                 000000018011c6e0 f   LIBCMTD:crt0dat.obj
 0001:0011b720       __freeCrtMemory            000000018011c720 f   LIBCMTD:crt0dat.obj
 0001:0011bab0       __crtCorExitProcess        000000018011cab0 f   LIBCMTD:crt0dat.obj
 0001:0011bb00       __crtExitProcess           000000018011cb00 f   LIBCMTD:crt0dat.obj
 0001:0011bb20       _lockexit                  000000018011cb20 f   LIBCMTD:crt0dat.obj
 0001:0011bb40       _unlockexit                000000018011cb40 f   LIBCMTD:crt0dat.obj
 0001:0011bb60       _init_pointers             000000018011cb60 f   LIBCMTD:crt0dat.obj
 0001:0011bc30       _initterm_e                000000018011cc30 f   LIBCMTD:crt0dat.obj
 0001:0011bc90       _get_wpgmptr               000000018011cc90 f   LIBCMTD:crt0dat.obj
 0001:0011bdf0       _get_pgmptr                000000018011cdf0 f   LIBCMTD:crt0dat.obj
 0001:0011bf50       _initp_misc_winsig         000000018011cf50 f   LIBCMTD:winsig.obj
 0001:0011bf90       signal                     000000018011cf90 f   LIBCMTD:winsig.obj
 0001:0011c470       raise                      000000018011d470 f   LIBCMTD:winsig.obj
 0001:0011c8b0       __get_sigabrt              000000018011d8b0 f   LIBCMTD:winsig.obj
 0001:0011c8d0       __fpecode                  000000018011d8d0 f   LIBCMTD:winsig.obj
 0001:0011c8f0       __pxcptinfoptrs            000000018011d8f0 f   LIBCMTD:winsig.obj
 0001:0011c910       __crtMessageBoxW           000000018011d910 f   LIBCMTD:crtmboxw.obj
 0001:0011cbe0       _swprintf                  000000018011dbe0 f   LIBCMTD:swprintf.obj
 0001:0011cea0       __swprintf_l               000000018011dea0 f   LIBCMTD:swprintf.obj
 0001:0011cee0       swprintf_s                 000000018011dee0 f   LIBCMTD:swprintf.obj
 0001:0011cf30       _snwprintf_s               000000018011df30 f   LIBCMTD:swprintf.obj
 0001:0011cf90       _swprintf_p                000000018011df90 f   LIBCMTD:swprintf.obj
 0001:0011cfe0       _swprintf_s_l              000000018011dfe0 f   LIBCMTD:swprintf.obj
 0001:0011d030       _snwprintf_s_l             000000018011e030 f   LIBCMTD:swprintf.obj
 0001:0011d090       _swprintf_p_l              000000018011e090 f   LIBCMTD:swprintf.obj
 0001:0011d0e0       _scwprintf                 000000018011e0e0 f   LIBCMTD:swprintf.obj
 0001:0011d120       _scwprintf_p               000000018011e120 f   LIBCMTD:swprintf.obj
 0001:0011d160       _scwprintf_l               000000018011e160 f   LIBCMTD:swprintf.obj
 0001:0011d1a0       _scwprintf_p_l             000000018011e1a0 f   LIBCMTD:swprintf.obj
 0001:0011d1e0       memcpy_s                   000000018011e1e0 f   LIBCMTD:memcpy_s.obj
 0001:0011d430       wcslen                     000000018011e430 f   LIBCMTD:wcslen.obj
 0001:0011d480       wcscpy_s                   000000018011e480 f   LIBCMTD:wcscpy_s.obj
 0001:0011d900       __security_check_cookie    000000018011e900 f   LIBCMTD:amdsecgs.obj
 0001:0011d920       _handle_qnan1              000000018011e920 f   LIBCMTD:_fpexcept_.obj
 0001:0011d9a0       _handle_qnan2              000000018011e9a0 f   LIBCMTD:_fpexcept_.obj
 0001:0011da30       _except1                   000000018011ea30 f   LIBCMTD:_fpexcept_.obj
 0001:0011db70       _except2                   000000018011eb70 f   LIBCMTD:_fpexcept_.obj
 0001:0011dcd0       _raise_exc_ex              000000018011ecd0 f   LIBCMTD:_fpexcept_.obj
 0001:0011e360       _raise_exc                 000000018011f360 f   LIBCMTD:_fpexcept_.obj
 0001:0011e3c0       _raise_excf                000000018011f3c0 f   LIBCMTD:_fpexcept_.obj
 0001:0011e420       _handle_exc                000000018011f420 f   LIBCMTD:_fpexcept_.obj
 0001:0011e890       _umatherr                  000000018011f890 f   LIBCMTD:_fpexcept_.obj
 0001:0011e960       _set_errno_from_matherr    000000018011f960 f   LIBCMTD:_fpexcept_.obj
 0001:0011ea10       _errcode                   000000018011fa10 f   LIBCMTD:_fpexcept_.obj
 0001:0011ea90       _set_exp                   000000018011fa90 f   LIBCMTD:_util_.obj
 0001:0011eae0       _get_exp                   000000018011fae0 f   LIBCMTD:_util_.obj
 0001:0011eb20       _add_exp                   000000018011fb20 f   LIBCMTD:_util_.obj
 0001:0011eb60       _set_bexp                  000000018011fb60 f   LIBCMTD:_util_.obj
 0001:0011eba0       _sptype                    000000018011fba0 f   LIBCMTD:_util_.obj
 0001:0011ec20       _decomp                    000000018011fc20 f   LIBCMTD:_util_.obj
 0001:0011ed70       _statfp                    000000018011fd70 f   LIBCMTD:_fpctrl_.obj
 0001:0011eda0       _clrfp                     000000018011fda0 f   LIBCMTD:_fpctrl_.obj
 0001:0011edd0       _ctrlfp                    000000018011fdd0 f   LIBCMTD:_fpctrl_.obj
 0001:0011ee80       _set_statfp                000000018011fe80 f   LIBCMTD:_fpctrl_.obj
 0001:0011eec0       __remainder_piby2          000000018011fec0 f   LIBCMTD:_remainder_piby2_.obj
 0001:0011fd00       _controlfp_s               0000000180120d00 f   LIBCMTD:_contrlfp_.obj
 0001:0011fe20       _encode_pointer            0000000180120e20 f   LIBCMTD:tidtable.obj
 0001:0011fe50       _encoded_null              0000000180120e50 f   LIBCMTD:tidtable.obj
 0001:0011fe60       _decode_pointer            0000000180120e60 f   LIBCMTD:tidtable.obj
 0001:0011fe90       __crtTlsAlloc              0000000180120e90 f   LIBCMTD:tidtable.obj
 0001:0011feb0       __fls_getvalue             0000000180120eb0 f   LIBCMTD:tidtable.obj
 0001:0011fed0       __get_flsindex             0000000180120ed0 f   LIBCMTD:tidtable.obj
 0001:0011fee0       __set_flsgetvalue          0000000180120ee0 f   LIBCMTD:tidtable.obj
 0001:0011fef0       __fls_setvalue             0000000180120ef0 f   LIBCMTD:tidtable.obj
 0001:0011ff20       _mtinit                    0000000180120f20 f   LIBCMTD:tidtable.obj
 0001:0011fff0       _mtterm                    0000000180120ff0 f   LIBCMTD:tidtable.obj
 0001:00120020       _initptd                   0000000180121020 f   LIBCMTD:tidtable.obj
 0001:00120110       _getptd_noexit             0000000180121110 f   LIBCMTD:tidtable.obj
 0001:001201f0       _getptd                    00000001801211f0 f   LIBCMTD:tidtable.obj
 0001:00120220       _freefls                   0000000180121220 f   LIBCMTD:tidtable.obj
 0001:00120430       _freeptd                   0000000180121430 f   LIBCMTD:tidtable.obj
 0001:00120480       __threadid                 0000000180121480 f   LIBCMTD:tidtable.obj
 0001:00120490       __threadhandle             0000000180121490 f   LIBCMTD:tidtable.obj
 0001:001204a0       _ioinit                    00000001801214a0 f   LIBCMTD:ioinit.obj
 0001:00120b60       _ioterm                    0000000180121b60 f   LIBCMTD:ioinit.obj
 0001:00120c40       _setenvp                   0000000180121c40 f   LIBCMTD:stdenvp.obj
 0001:00120e50       _setargv                   0000000180121e50 f   LIBCMTD:stdargv.obj
 0001:00120fc0       _set_pgmptr                0000000180121fc0 f i LIBCMTD:stdargv.obj
 0001:00121480       __crtGetEnvironmentStringsA 0000000180122480 f   LIBCMTD:a_env.obj
 0001:00121740       _RTC_Initialize            0000000180122740 f   LIBCMTD:_initsect_.obj
 0001:00121780       _RTC_Terminate             0000000180122780 f   LIBCMTD:_initsect_.obj
 0001:001217c0       _heap_init                 00000001801227c0 f   LIBCMTD:heapinit.obj
 0001:00121840       _heap_term                 0000000180122840 f   LIBCMTD:heapinit.obj
 0001:00121870       _get_heap_handle           0000000180122870 f   LIBCMTD:heapinit.obj
 0001:001218c0       __security_init_cookie     00000001801228c0 f   LIBCMTD:gs_support.obj
 0001:001219c0       _initp_misc_winxfltr       00000001801229c0 f   LIBCMTD:winxfltr.obj
 0001:001219d0       __CppXcptFilter            00000001801229d0 f   LIBCMTD:winxfltr.obj
 0001:00121a00       _XcptFilter                0000000180122a00 f   LIBCMTD:winxfltr.obj
 0001:00121ce0       _flsbuf                    0000000180122ce0 f   LIBCMTD:_flsbuf.obj
 0001:00122050       _output_l                  0000000180123050 f   LIBCMTD:output.obj
 0001:00123900       get_int_arg                0000000180124900 f i LIBCMTD:output.obj
 0001:00123960       get_int64_arg              0000000180124960 f i LIBCMTD:output.obj
 0001:001239d0       get_short_arg              00000001801249d0 f i LIBCMTD:output.obj
 0001:00123a40       _vsnprintf_helper          0000000180124a40 f   LIBCMTD:vsnprnc.obj
 0001:00123cf0       _vsnprintf_c               0000000180124cf0 f   LIBCMTD:vsnprnc.obj
 0001:00123d60       _vsnprintf_c_l             0000000180124d60 f   LIBCMTD:vsnprnc.obj
 0001:00123dd0       _vsprintf_s_l              0000000180124dd0 f   LIBCMTD:vsnprnc.obj
 0001:00124120       vsprintf_s                 0000000180125120 f   LIBCMTD:vsnprnc.obj
 0001:00124160       _vsnprintf_s_l             0000000180125160 f   LIBCMTD:vsnprnc.obj
 0001:001246d0       _vsnprintf_s               00000001801256d0 f   LIBCMTD:vsnprnc.obj
 0001:00124720       _vsprintf_p                0000000180125720 f   LIBCMTD:vsnprnc.obj
 0001:00124790       _vsprintf_p_l              0000000180125790 f   LIBCMTD:vsnprnc.obj
 0001:00124800       abort                      0000000180125800 f   LIBCMTD:abort.obj
 0001:001248d0       _set_abort_behavior        00000001801258d0 f   LIBCMTD:abort.obj
 0001:00124910       _FF_MSGBANNER              0000000180125910 f   LIBCMTD:crt0msg.obj
 0001:00124960       _NMSG_WRITE                0000000180125960 f   LIBCMTD:crt0msg.obj
 0001:00124cd0       _GET_RTERRMSG              0000000180125cd0 f   LIBCMTD:crt0msg.obj
 0001:00124d30       __getlocaleinfo            0000000180125d30 f   LIBCMTD:inithelp.obj
 0001:001250c0       _initp_misc_purevirt       00000001801260c0 f   LIBCMTD:inithelp.obj
 0001:001250e0       __pow_error                00000001801260e0 f   LIBCMTD:_pow_error_.obj
 0001:00125800       _validate_param_reuseA     0000000180126800 f   LIBCMTD:outputp.obj
 0001:00125b70       _output_p_l                0000000180126b70 f   LIBCMTD:outputp.obj
 0001:0012a390       get_crtdouble_arg          000000018012b390 f i LIBCMTD:outputp.obj
 0001:0012a400       _ValidateImageBase         000000018012b400 f   LIBCMTD:pesect.obj
 0001:0012a480       _FindPESection             000000018012b480 f   LIBCMTD:pesect.obj
 0001:0012a530       _IsNonwritableInCurrentImage 000000018012b530 f   LIBCMTD:pesect.obj
 0001:0012a5c0       _isalpha_l                 000000018012b5c0 f i LIBCMTD:_ctype.obj
 0001:0012a660       isalpha                    000000018012b660 f i LIBCMTD:_ctype.obj
 0001:0012a6a0       _isupper_l                 000000018012b6a0 f i LIBCMTD:_ctype.obj
 0001:0012a740       isupper                    000000018012b740 f i LIBCMTD:_ctype.obj
 0001:0012a780       _islower_l                 000000018012b780 f i LIBCMTD:_ctype.obj
 0001:0012a820       islower                    000000018012b820 f i LIBCMTD:_ctype.obj
 0001:0012a860       _isdigit_l                 000000018012b860 f i LIBCMTD:_ctype.obj
 0001:0012a900       isdigit                    000000018012b900 f i LIBCMTD:_ctype.obj
 0001:0012a940       _isxdigit_l                000000018012b940 f i LIBCMTD:_ctype.obj
 0001:0012a9e0       isxdigit                   000000018012b9e0 f i LIBCMTD:_ctype.obj
 0001:0012aa20       _isspace_l                 000000018012ba20 f i LIBCMTD:_ctype.obj
 0001:0012aac0       isspace                    000000018012bac0 f i LIBCMTD:_ctype.obj
 0001:0012ab00       _ispunct_l                 000000018012bb00 f i LIBCMTD:_ctype.obj
 0001:0012aba0       ispunct                    000000018012bba0 f i LIBCMTD:_ctype.obj
 0001:0012abe0       _isalnum_l                 000000018012bbe0 f i LIBCMTD:_ctype.obj
 0001:0012ac80       isalnum                    000000018012bc80 f i LIBCMTD:_ctype.obj
 0001:0012acc0       _isprint_l                 000000018012bcc0 f i LIBCMTD:_ctype.obj
 0001:0012ad60       isprint                    000000018012bd60 f i LIBCMTD:_ctype.obj
 0001:0012ada0       _isgraph_l                 000000018012bda0 f i LIBCMTD:_ctype.obj
 0001:0012ae40       isgraph                    000000018012be40 f i LIBCMTD:_ctype.obj
 0001:0012ae80       _iscntrl_l                 000000018012be80 f i LIBCMTD:_ctype.obj
 0001:0012af20       iscntrl                    000000018012bf20 f i LIBCMTD:_ctype.obj
 0001:0012af60       __isascii                  000000018012bf60 f i LIBCMTD:_ctype.obj
 0001:0012af90       __toascii                  000000018012bf90 f i LIBCMTD:_ctype.obj
 0001:0012afa0       _iscsymf_l                 000000018012bfa0 f i LIBCMTD:_ctype.obj
 0001:0012aff0       __iscsymf                  000000018012bff0 f i LIBCMTD:_ctype.obj
 0001:0012b030       _iscsym_l                  000000018012c030 f i LIBCMTD:_ctype.obj
 0001:0012b080       __iscsym                   000000018012c080 f i LIBCMTD:_ctype.obj
 0001:0012b0c0       _tolower                   000000018012c0c0 f   LIBCMTD:tolower.obj
 0001:0012b0d0       _tolower_l                 000000018012c0d0 f   LIBCMTD:tolower.obj
 0001:0012b370       tolower                    000000018012c370 f   LIBCMTD:tolower.obj
 0001:0012b3c0       __updatetmbcinfo           000000018012c3c0 f   LIBCMTD:mbctype.obj
 0001:0012b4c0       _setmbcp                   000000018012c4c0 f   LIBCMTD:mbctype.obj
 0001:0012b8a0       _setmbcp_nolock            000000018012c8a0 f   LIBCMTD:mbctype.obj
 0001:0012c300       _getmbcp                   000000018012d300 f   LIBCMTD:mbctype.obj
 0001:0012c380       __initmbctable             000000018012d380 f   LIBCMTD:mbctype.obj
 0001:0012c3b0       ___setlc_active_func       000000018012d3b0 f   LIBCMTD:setlocal.obj
 0001:0012c3c0       ___unguarded_readlc_active_add_func 000000018012d3c0 f   LIBCMTD:setlocal.obj
 0001:0012c3d0       __freetlocinfo             000000018012d3d0 f   LIBCMTD:setlocal.obj
 0001:0012c750       __addlocaleref             000000018012d750 f   LIBCMTD:setlocal.obj
 0001:0012c8a0       __removelocaleref          000000018012d8a0 f   LIBCMTD:setlocal.obj
 0001:0012ca10       __updatetlocinfo           000000018012da10 f   LIBCMTD:setlocal.obj
 0001:0012cb50       _configthreadlocale        000000018012db50 f   LIBCMTD:setlocal.obj
 0001:0012ccb0       _locterm                   000000018012dcb0 f   LIBCMTD:setlocal.obj
 0001:0012cd00       _free_locale               000000018012dd00 f   LIBCMTD:setlocal.obj
 0001:0012ce10       __free_locale              000000018012de10 f   LIBCMTD:setlocal.obj
 0001:0012ce30       _create_locale             000000018012de30 f   LIBCMTD:setlocal.obj
 0001:0012d100       __create_locale            000000018012e100 f   LIBCMTD:setlocal.obj
 0001:0012d120       _get_current_locale        000000018012e120 f   LIBCMTD:setlocal.obj
 0001:0012d200       __get_current_locale       000000018012e200 f   LIBCMTD:setlocal.obj
 0001:0012d210       setlocale                  000000018012e210 f   LIBCMTD:setlocal.obj
 0001:0012e4b0       _expandlocale              000000018012f4b0 f   LIBCMTD:setlocal.obj
 0001:0012e860       __init_dummy               000000018012f860 f   LIBCMTD:setlocal.obj
 0001:0012e870       _strcats                   000000018012f870 f   LIBCMTD:setlocal.obj
 0001:0012e920       __lc_strtolc               000000018012f920 f   LIBCMTD:setlocal.obj
 0001:0012eba0       __lc_lctostr               000000018012fba0 f   LIBCMTD:setlocal.obj
 0001:0012ec70       _atodbl_l                  000000018012fc70 f   LIBCMTD:atodbl.obj
 0001:0012ee00       _atodbl                    000000018012fe00 f   LIBCMTD:atodbl.obj
 0001:0012ee30       _atoldbl_l                 000000018012fe30 f   LIBCMTD:atodbl.obj
 0001:0012efc0       _atoldbl                   000000018012ffc0 f   LIBCMTD:atodbl.obj
 0001:0012eff0       _atoflt_l                  000000018012fff0 f   LIBCMTD:atodbl.obj
 0001:0012f180       _atoflt                    0000000180130180 f   LIBCMTD:atodbl.obj
 0001:0012f1b0       _fptostr                   00000001801301b0 f   LIBCMTD:_fptostr.obj
 0001:0012f5e0       _fltout2                   00000001801305e0 f   LIBCMTD:_cfout_.obj
 0001:0012f700       __dtold                    0000000180130700 f   LIBCMTD:_cfout_.obj
 0001:0012f8b0       _set_output_format         00000001801308b0 f   LIBCMTD:outputformat.obj
 0001:0012f970       _get_output_format         0000000180130970 f   LIBCMTD:outputformat.obj
 0001:0012f980       strcpy_s                   0000000180130980 f   LIBCMTD:strcpy_s.obj
 0001:0012fdf0       strrchr                    0000000180130df0 f   LIBCMTD:strrchr.obj
 0001:0012fe70       _fptrap                    0000000180130e70 f   LIBCMTD:crt0fp.obj
 0001:0012fe90       _matherr                   0000000180130e90 f   LIBCMTD:_matherr_.obj
 0001:0012feb0       _local_unwind              0000000180130eb0 f   LIBCMTD:jmpuwind.obj
 0001:0012fee0       _NLG_Notify                0000000180130ee0 f   LIBCMTD:jmpuwind.obj
 0001:0012ff00       __NLG_Dispatch2            0000000180130f00 f   LIBCMTD:jmpuwind.obj
 0001:0012ff10       __NLG_Return2              0000000180130f10 f   LIBCMTD:jmpuwind.obj
 0001:0012ff20       _initp_misc_initcrit       0000000180130f20 f   LIBCMTD:initcrit.obj
 0001:0012ff40       __crtInitCritSecAndSpinCount 0000000180130f40 f   LIBCMTD:initcrit.obj
 0001:0012ff90       _initp_heap_handler        0000000180130f90 f   LIBCMTD:handler.obj
 0001:0012ffb0       ?_set_new_handler@@YAP6AH_K@ZP6AH0@Z@Z 0000000180130fb0 f   LIBCMTD:handler.obj
 0001:00130000       ?_set_new_handler@@YAP6AH_K@ZH@Z 0000000180131000 f   LIBCMTD:handler.obj
 0001:00130050       ?_query_new_handler@@YAP6AH_K@ZXZ 0000000180131050 f   LIBCMTD:handler.obj
 0001:00130070       _callnewh                  0000000180131070 f   LIBCMTD:handler.obj
 0001:001300b0       _malloc_base               00000001801310b0 f   LIBCMTD:malloc.obj
 0001:00130150       _heap_alloc_base           0000000180131150 f i LIBCMTD:malloc.obj
 0001:001301c0       _CrtSetReportHook2         00000001801311c0 f   LIBCMTD:dbgrpt.obj
 0001:001305a0       _CrtDbgReport              00000001801315a0 f   LIBCMTD:dbgrpt.obj
 0001:00130610       _CrtDbgReportV             0000000180131610 f i LIBCMTD:dbgrpt.obj
 0001:00130660       __crtMessageWindowA        0000000180131660 f   LIBCMTD:dbgrpt.obj
 0001:00130c50       _CrtDefaultAllocHook       0000000180131c50 f   LIBCMTD:dbghook.obj
 0001:00130c70       __crt_debugger_hook        0000000180131c70 f   LIBCMTD:dbghook.obj
 0001:00130c80       _expand_base               0000000180131c80 f   LIBCMTD:expand.obj
 0001:00130e50       _realloc_base              0000000180131e50 f   LIBCMTD:realloc.obj
 0001:00130f60       _free_base                 0000000180131f60 f   LIBCMTD:free.obj
 0001:00130fc0       _heapchk                   0000000180131fc0 f   LIBCMTD:heapchk.obj
 0001:00131020       _heapset                   0000000180132020 f   LIBCMTD:heapchk.obj
 0001:00131040       _chvalidator               0000000180132040 f   LIBCMTD:isctype.obj
 0001:001310a0       _chvalidator_l             00000001801320a0 f   LIBCMTD:isctype.obj
 0001:00131190       _isctype_l                 0000000180132190 f   LIBCMTD:isctype.obj
 0001:00131320       _isctype                   0000000180132320 f   LIBCMTD:isctype.obj
 0001:00131370       __GSHandlerCheck_SEH       0000000180132370 f   LIBCMTD:gshandlerseh.obj
 0001:00131430       _mbstowcs_l_helper         0000000180132430 f   LIBCMTD:mbstowcs.obj
 0001:00131960       _mbstowcs_l                0000000180132960 f   LIBCMTD:mbstowcs.obj
 0001:001319a0       mbstowcs                   00000001801329a0 f   LIBCMTD:mbstowcs.obj
 0001:00131a00       _mbstowcs_s_l              0000000180132a00 f   LIBCMTD:mbstowcs.obj
 0001:00131f90       mbstowcs_s                 0000000180132f90 f   LIBCMTD:mbstowcs.obj
 0001:00131fe0       strcat_s                   0000000180132fe0 f   LIBCMTD:strcat_s.obj
 0001:001325c0       _itoa_s                    00000001801335c0 f   LIBCMTD:xtoas.obj
 0001:00132bc0       _ltoa_s                    0000000180133bc0 f   LIBCMTD:xtoas.obj
 0001:00132c20       _ultoa_s                   0000000180133c20 f   LIBCMTD:xtoas.obj
 0001:00132c60       _i64toa_s                  0000000180133c60 f   LIBCMTD:xtoas.obj
 0001:00133240       _ui64toa_s                 0000000180134240 f   LIBCMTD:xtoas.obj
 0001:00133280       _wcstombs_l_helper         0000000180134280 f   LIBCMTD:wcstombs.obj
 0001:00133a50       _wcstombs_l                0000000180134a50 f   LIBCMTD:wcstombs.obj
 0001:00133a90       wcstombs                   0000000180134a90 f   LIBCMTD:wcstombs.obj
 0001:00133ac0       _wcstombs_s_l              0000000180134ac0 f   LIBCMTD:wcstombs.obj
 0001:00133fa0       wcstombs_s                 0000000180134fa0 f   LIBCMTD:wcstombs.obj
 0001:00133ff0       wcscat_s                   0000000180134ff0 f   LIBCMTD:wcscat_s.obj
 0001:001345e0       _vswprintf_helper          00000001801355e0 f   LIBCMTD:vswprnc.obj
 0001:00134910       _vswprintf_c               0000000180135910 f   LIBCMTD:vswprnc.obj
 0001:00134980       _vswprintf_c_l             0000000180135980 f   LIBCMTD:vswprnc.obj
 0001:001349f0       _vswprintf_s_l             00000001801359f0 f   LIBCMTD:vswprnc.obj
 0001:00134d50       vswprintf_s                0000000180135d50 f   LIBCMTD:vswprnc.obj
 0001:00134d90       _vsnwprintf_s_l            0000000180135d90 f   LIBCMTD:vswprnc.obj
 0001:00135310       _vsnwprintf_s              0000000180136310 f   LIBCMTD:vswprnc.obj
 0001:00135360       _vswprintf_p               0000000180136360 f   LIBCMTD:vswprnc.obj
 0001:001353d0       _vswprintf_p_l             00000001801363d0 f   LIBCMTD:vswprnc.obj
 0001:00135440       _itow_s                    0000000180136440 f   LIBCMTD:xtows.obj
 0001:00135a50       _ltow_s                    0000000180136a50 f   LIBCMTD:xtows.obj
 0001:00135ab0       _ultow_s                   0000000180136ab0 f   LIBCMTD:xtows.obj
 0001:00135af0       _i64tow_s                  0000000180136af0 f   LIBCMTD:xtows.obj
 0001:001360f0       _ui64tow_s                 00000001801370f0 f   LIBCMTD:xtows.obj
 0001:00136130       _initp_eh_hooks            0000000180137130 f   LIBCMTD:hooks.obj
 0001:00136160       ?terminate@@YAXXZ          0000000180137160 f   LIBCMTD:hooks.obj
 0001:00136190       ?unexpected@@YAXXZ         0000000180137190 f   LIBCMTD:hooks.obj
 0001:001361c0       ?_inconsistency@@YAXXZ     00000001801371c0 f   LIBCMTD:hooks.obj
 0001:001361f0       _initp_misc_rand_s         00000001801371f0 f   LIBCMTD:rand_s.obj
 0001:00136210       rand_s                     0000000180137210 f   LIBCMTD:rand_s.obj
 0001:001364e0       _woutput_l                 00000001801374e0 f   LIBCMTD:woutput.obj
 0001:00137a70       _vswprintf_l               0000000180138a70 f   LIBCMTD:vswprint.obj
 0001:00137d20       _vswprintf                 0000000180138d20 f   LIBCMTD:vswprint.obj
 0001:00137d50       __vswprintf_l              0000000180138d50 f   LIBCMTD:vswprint.obj
 0001:00137d90       _vscwprintf_helper         0000000180138d90 f   LIBCMTD:vswprint.obj
 0001:00137ec0       _vscwprintf                0000000180138ec0 f   LIBCMTD:vswprint.obj
 0001:00137ef0       _vscwprintf_l              0000000180138ef0 f   LIBCMTD:vswprint.obj
 0001:00137f30       _vscwprintf_p              0000000180138f30 f   LIBCMTD:vswprint.obj
 0001:00137f60       _vscwprintf_p_l            0000000180138f60 f   LIBCMTD:vswprint.obj
 0001:00137fa0       __report_gsfailure         0000000180138fa0 f   LIBCMTD:gs_report.obj
 0001:001380f0       _set_fpsr                  00000001801390f0 f   LIBCMTD:_fpsr_.obj
 0001:001380fa       _fclrf                     00000001801390fa f   LIBCMTD:_fpsr_.obj
 0001:00138110       _statusfp                  0000000180139110 f   LIBCMTD:_ieee_.obj
 0001:00138130       _clearfp                   0000000180139130 f   LIBCMTD:_ieee_.obj
 0001:00138150       _controlfp                 0000000180139150 f   LIBCMTD:_ieee_.obj
 0001:00138180       _control87                 0000000180139180 f i LIBCMTD:_ieee_.obj
 0001:00138290       _set_controlfp             0000000180139290 f   LIBCMTD:_ieee_.obj
 0001:00138630       _fpreset                   0000000180139630 f   LIBCMTD:_ieee_.obj
 0001:00138650       _ismbbkalnum_l             0000000180139650 f   LIBCMTD:ismbbyte.obj
 0001:00138680       _ismbbkalnum               0000000180139680 f   LIBCMTD:ismbbyte.obj
 0001:001386b0       _ismbbkprint_l             00000001801396b0 f   LIBCMTD:ismbbyte.obj
 0001:001386e0       _ismbbkprint               00000001801396e0 f   LIBCMTD:ismbbyte.obj
 0001:00138710       _ismbbkpunct_l             0000000180139710 f   LIBCMTD:ismbbyte.obj
 0001:00138740       _ismbbkpunct               0000000180139740 f   LIBCMTD:ismbbyte.obj
 0001:00138770       _ismbbalnum_l              0000000180139770 f   LIBCMTD:ismbbyte.obj
 0001:001387a0       _ismbbalnum                00000001801397a0 f   LIBCMTD:ismbbyte.obj
 0001:001387d0       _ismbbalpha_l              00000001801397d0 f   LIBCMTD:ismbbyte.obj
 0001:00138800       _ismbbalpha                0000000180139800 f   LIBCMTD:ismbbyte.obj
 0001:00138830       _ismbbgraph_l              0000000180139830 f   LIBCMTD:ismbbyte.obj
 0001:00138860       _ismbbgraph                0000000180139860 f   LIBCMTD:ismbbyte.obj
 0001:00138890       _ismbbprint_l              0000000180139890 f   LIBCMTD:ismbbyte.obj
 0001:001388c0       _ismbbprint                00000001801398c0 f   LIBCMTD:ismbbyte.obj
 0001:001388f0       _ismbbpunct_l              00000001801398f0 f   LIBCMTD:ismbbyte.obj
 0001:00138920       _ismbbpunct                0000000180139920 f   LIBCMTD:ismbbyte.obj
 0001:00138950       _ismbblead_l               0000000180139950 f   LIBCMTD:ismbbyte.obj
 0001:00138980       _ismbblead                 0000000180139980 f   LIBCMTD:ismbbyte.obj
 0001:001389b0       _ismbbtrail_l              00000001801399b0 f   LIBCMTD:ismbbyte.obj
 0001:001389e0       _ismbbtrail                00000001801399e0 f   LIBCMTD:ismbbyte.obj
 0001:00138a10       _ismbbkana_l               0000000180139a10 f   LIBCMTD:ismbbyte.obj
 0001:00138aa0       _ismbbkana                 0000000180139aa0 f   LIBCMTD:ismbbyte.obj
 0001:00138b90       _lseeki64                  0000000180139b90 f   LIBCMTD:lseeki64.obj
 0001:00138e20       _lseeki64_nolock           0000000180139e20 f   LIBCMTD:lseeki64.obj
 0001:00138f50       _write                     0000000180139f50 f   LIBCMTD:write.obj
 0001:001391d0       _write_nolock              000000018013a1d0 f   LIBCMTD:write.obj
 0001:0013a240       _getbuf                    000000018013b240 f   LIBCMTD:_getbuf.obj
 0001:0013a340       _isatty                    000000018013b340 f   LIBCMTD:isatty.obj
 0001:0013a460       __iob_func                 000000018013b460 f   LIBCMTD:_file.obj
 0001:0013a470       __initstdio                000000018013b470 f   LIBCMTD:_file.obj
 0001:0013a630       __endstdio                 000000018013b630 f   LIBCMTD:_file.obj
 0001:0013a670       _lock_file                 000000018013b670 f   LIBCMTD:_file.obj
 0001:0013a6f0       _lock_file2                000000018013b6f0 f   LIBCMTD:_file.obj
 0001:0013a740       _unlock_file               000000018013b740 f   LIBCMTD:_file.obj
 0001:0013a7c0       _unlock_file2              000000018013b7c0 f   LIBCMTD:_file.obj
 0001:0013a810       _fileno                    000000018013b810 f   LIBCMTD:fileno.obj
 0001:0013a8c0       printf                     000000018013b8c0 f   LIBCMTD:printf.obj
 0001:0013aa10       _printf_l                  000000018013ba10 f   LIBCMTD:printf.obj
 0001:0013aa50       _printf_s_l                000000018013ba50 f   LIBCMTD:printf.obj
 0001:0013aa90       printf_s                   000000018013ba90 f   LIBCMTD:printf.obj
 0001:0013aad0       _printf_p_l                000000018013bad0 f   LIBCMTD:printf.obj
 0001:0013ab10       _printf_p                  000000018013bb10 f   LIBCMTD:printf.obj
 0001:0013ab50       _set_printf_count_output   000000018013bb50 f   LIBCMTD:printf.obj
 0001:0013abc0       _get_printf_count_output   000000018013bbc0 f   LIBCMTD:printf.obj
 0001:0013abf0       _wctomb_s_l                000000018013bbf0 f   LIBCMTD:wctomb.obj
 0001:0013b090       wctomb_s                   000000018013c090 f   LIBCMTD:wctomb.obj
 0001:0013b0e0       _wctomb_l                  000000018013c0e0 f   LIBCMTD:wctomb.obj
 0001:0013b190       wctomb                     000000018013c190 f   LIBCMTD:wctomb.obj
 0001:0013b200       _isleadbyte_l              000000018013c200 f i LIBCMTD:_wctype.obj
 0001:0013b260       isleadbyte                 000000018013c260 f i LIBCMTD:_wctype.obj
 0001:0013b280       _iswalpha_l                000000018013c280 f i LIBCMTD:_wctype.obj
 0001:0013b2b0       iswalpha                   000000018013c2b0 f i LIBCMTD:_wctype.obj
 0001:0013b2d0       _iswupper_l                000000018013c2d0 f i LIBCMTD:_wctype.obj
 0001:0013b300       iswupper                   000000018013c300 f i LIBCMTD:_wctype.obj
 0001:0013b320       _iswlower_l                000000018013c320 f i LIBCMTD:_wctype.obj
 0001:0013b350       iswlower                   000000018013c350 f i LIBCMTD:_wctype.obj
 0001:0013b370       _iswdigit_l                000000018013c370 f i LIBCMTD:_wctype.obj
 0001:0013b3a0       iswdigit                   000000018013c3a0 f i LIBCMTD:_wctype.obj
 0001:0013b3c0       _iswxdigit_l               000000018013c3c0 f i LIBCMTD:_wctype.obj
 0001:0013b3f0       iswxdigit                  000000018013c3f0 f i LIBCMTD:_wctype.obj
 0001:0013b410       _iswspace_l                000000018013c410 f i LIBCMTD:_wctype.obj
 0001:0013b440       iswspace                   000000018013c440 f i LIBCMTD:_wctype.obj
 0001:0013b460       _iswpunct_l                000000018013c460 f i LIBCMTD:_wctype.obj
 0001:0013b490       iswpunct                   000000018013c490 f i LIBCMTD:_wctype.obj
 0001:0013b4b0       _iswalnum_l                000000018013c4b0 f i LIBCMTD:_wctype.obj
 0001:0013b4e0       iswalnum                   000000018013c4e0 f i LIBCMTD:_wctype.obj
 0001:0013b500       _iswprint_l                000000018013c500 f i LIBCMTD:_wctype.obj
 0001:0013b530       iswprint                   000000018013c530 f i LIBCMTD:_wctype.obj
 0001:0013b550       _iswgraph_l                000000018013c550 f i LIBCMTD:_wctype.obj
 0001:0013b580       iswgraph                   000000018013c580 f i LIBCMTD:_wctype.obj
 0001:0013b5a0       _iswcntrl_l                000000018013c5a0 f i LIBCMTD:_wctype.obj
 0001:0013b5d0       iswcntrl                   000000018013c5d0 f i LIBCMTD:_wctype.obj
 0001:0013b5f0       iswascii                   000000018013c5f0 f i LIBCMTD:_wctype.obj
 0001:0013b620       _iswcsym_l                 000000018013c620 f i LIBCMTD:_wctype.obj
 0001:0013b670       __iswcsym                  000000018013c670 f i LIBCMTD:_wctype.obj
 0001:0013b6b0       _iswcsymf_l                000000018013c6b0 f i LIBCMTD:_wctype.obj
 0001:0013b700       __iswcsymf                 000000018013c700 f i LIBCMTD:_wctype.obj
 0001:0013b740       _output_s_l                000000018013c740 f   LIBCMTD:outputs.obj
 0001:0013d190       _set_error_mode            000000018013e190 f   LIBCMTD:errmode.obj
 0001:0013d290       __set_app_type             000000018013e290 f   LIBCMTD:errmode.obj
 0001:0013d2a0       __get_app_type             000000018013e2a0 f   LIBCMTD:errmode.obj
 0001:0013d2b0       __crtMessageBoxA           000000018013e2b0 f   LIBCMTD:crtmbox.obj
 0001:0013d580       strncpy_s                  000000018013e580 f   LIBCMTD:strncpy_s.obj
 0001:0013dbc0       __crtGetLocaleInfoW        000000018013ebc0 f   LIBCMTD:w_loc.obj
 0001:0013dc80       __crtGetLocaleInfoA        000000018013ec80 f   LIBCMTD:a_loc.obj
 0001:0013df30       _MarkAllocaS               000000018013ef30 f i LIBCMTD:a_loc.obj
 0001:0013df60       _freea                     000000018013ef60 f i LIBCMTD:a_loc.obj
 0001:0013dff0       strtol                     000000018013eff0 f   LIBCMTD:strtol.obj
 0001:0013e730       _strtol_l                  000000018013f730 f   LIBCMTD:strtol.obj
 0001:0013e770       strtoul                    000000018013f770 f   LIBCMTD:strtol.obj
 0001:0013e7e0       _strtoul_l                 000000018013f7e0 f   LIBCMTD:strtol.obj
 0001:0013e820       __crtLCMapStringA          000000018013f820 f   LIBCMTD:a_map.obj
 0001:0013f0e0       ?_GetEstablisherFrame@@YAPEA_KPEA_KPEAU_xDISPATCHER_CONTEXT@@PEBU_s_FuncInfo@@0@Z 00000001801400e0 f   LIBCMTD:trnsctrl.obj
 0001:0013f260       _GetImageBase              0000000180140260 f   LIBCMTD:trnsctrl.obj
 0001:0013f280       _GetThrowImageBase         0000000180140280 f   LIBCMTD:trnsctrl.obj
 0001:0013f2a0       _SetImageBase              00000001801402a0 f   LIBCMTD:trnsctrl.obj
 0001:0013f2d0       _SetThrowImageBase         00000001801402d0 f   LIBCMTD:trnsctrl.obj
 0001:0013f300       _MoveContext               0000000180140300 f   LIBCMTD:trnsctrl.obj
 0001:0013f330       ?_ExecutionInCatch@@YAHPEAU_xDISPATCHER_CONTEXT@@PEBU_s_FuncInfo@@@Z 0000000180140330 f   LIBCMTD:trnsctrl.obj
 0001:0013f420       ?__FrameUnwindToEmptyState@@YAXPEA_KPEAU_xDISPATCHER_CONTEXT@@PEBU_s_FuncInfo@@@Z 0000000180140420 f   LIBCMTD:trnsctrl.obj
 0001:0013f4c0       __CxxFrameHandler3         00000001801404c0 f   LIBCMTD:trnsctrl.obj
 0001:0013f590       __CxxFrameHandler2         0000000180140590 f   LIBCMTD:trnsctrl.obj
 0001:0013f5d0       __CxxFrameHandler          00000001801405d0 f   LIBCMTD:trnsctrl.obj
 0001:0013f6a0       ?__SehTransFilter@@YAHPEAU_EXCEPTION_POINTERS@@PEAUEHExceptionRecord@@PEA_KPEAU_CONTEXT@@PEAU_xDISPATCHER_CONTEXT@@PEBU_s_FuncInfo@@PEAH@Z 00000001801406a0 f   LIBCMTD:trnsctrl.obj
 0001:0013f750       _CallSETranslator          0000000180140750 f   LIBCMTD:trnsctrl.obj
 0001:0013f7d0       ?_GetRangeOfTrysToCheck@@YAPEBU_s_TryBlockMapEntry@@PEA_KPEBU_s_FuncInfo@@HHPEAI2PEAU_xDISPATCHER_CONTEXT@@@Z 00000001801407d0 f   LIBCMTD:trnsctrl.obj
 0001:0013f9f0       _CreateFrameInfo           00000001801409f0 f   LIBCMTD:trnsctrl.obj
 0001:0013fa70       _IsExceptionObjectToBeDestroyed 0000000180140a70 f   LIBCMTD:trnsctrl.obj
 0001:0013fad0       _FindAndUnlinkFrame        0000000180140ad0 f   LIBCMTD:trnsctrl.obj
 0001:0013fb60       _UnwindNestedFrames        0000000180140b60 f   LIBCMTD:trnsctrl.obj
 0001:0013fc70       __crtGetStringTypeA        0000000180140c70 f   LIBCMTD:a_str.obj
 0001:00140030       __pwctype_func             0000000180141030 f   LIBCMTD:ctype.obj
 0001:00140040       __pctype_func              0000000180141040 f   LIBCMTD:ctype.obj
 0001:001400a0       __init_time                00000001801410a0 f   LIBCMTD:inittime.obj
 0001:00140bd0       __free_lc_time             0000000180141bd0 f   LIBCMTD:inittime.obj
 0001:00140f70       __init_numeric             0000000180141f70 f   LIBCMTD:initnum.obj
 0001:00141420       __free_lconv_num           0000000180142420 f   LIBCMTD:initnum.obj
 0001:001414b0       __init_monetary            00000001801424b0 f   LIBCMTD:initmon.obj
 0001:00141bc0       __free_lconv_mon           0000000180142bc0 f   LIBCMTD:initmon.obj
 0001:00141ce0       __init_ctype               0000000180142ce0 f   LIBCMTD:initctyp.obj
 0001:00142540       ___mb_cur_max_func         0000000180143540 f   LIBCMTD:initctyp.obj
 0001:001425a0       ___mb_cur_max_l_func       00000001801435a0 f   LIBCMTD:initctyp.obj
 0001:001425e0       ___lc_codepage_func        00000001801435e0 f   LIBCMTD:initctyp.obj
 0001:00142640       ___lc_collate_cp_func      0000000180143640 f   LIBCMTD:initctyp.obj
 0001:001426a0       ___lc_handle_func          00000001801436a0 f   LIBCMTD:initctyp.obj
 0001:00142700       __init_collate             0000000180143700 f   LIBCMTD:initcoll.obj
 0001:00142710       _Getdays_l                 0000000180143710 f   LIBCMTD:strftime.obj
 0001:00142970       _Getdays                   0000000180143970 f   LIBCMTD:strftime.obj
 0001:00142980       _Getmonths_l               0000000180143980 f   LIBCMTD:strftime.obj
 0001:00142be0       _Getmonths                 0000000180143be0 f   LIBCMTD:strftime.obj
 0001:00142bf0       _Gettnames_l               0000000180143bf0 f   LIBCMTD:strftime.obj
 0001:00143320       _Gettnames                 0000000180144320 f   LIBCMTD:strftime.obj
 0001:00143330       _strftime_l                0000000180144330 f   LIBCMTD:strftime.obj
 0001:00143380       strftime                   0000000180144380 f   LIBCMTD:strftime.obj
 0001:001433d0       _Strftime                  00000001801443d0 f   LIBCMTD:strftime.obj
 0001:00143420       _Strftime_l                0000000180144420 f   LIBCMTD:strftime.obj
 0001:00145fe0       localeconv                 0000000180146fe0 f   LIBCMTD:lconv.obj
 0001:00146050       strcmp                     0000000180147050 f   LIBCMTD:strcmp.obj
 0001:00146100       strcspn                    0000000180147100 f   LIBCMTD:strcspn.obj
 0001:00146230       strncmp                    0000000180147230 f   LIBCMTD:strncmp.obj
 0001:001462f0       strpbrk                    00000001801472f0 f   LIBCMTD:strpbrk.obj
 0001:00146410       memcmp                     0000000180147410 f   LIBCMTD:memcmp.obj
 0001:001464e0       __get_qualified_locale     00000001801474e0 f   LIBCMTD:getqloc.obj
 0001:00147740       _ld12tod                   0000000180148740 f   LIBCMTD:_intrncvt_.obj
 0001:00147770       _ld12cvt                   0000000180148770 f i LIBCMTD:_intrncvt_.obj
 0001:00147a80       _RoundMan                  0000000180148a80 f i LIBCMTD:_intrncvt_.obj
 0001:00147b90       _ZeroTail                  0000000180148b90 f i LIBCMTD:_intrncvt_.obj
 0001:00147c40       _IncMan                    0000000180148c40 f i LIBCMTD:_intrncvt_.obj
 0001:00147d10       __addl                     0000000180148d10 f i LIBCMTD:_intrncvt_.obj
 0001:00147d70       _CopyMan                   0000000180148d70 f i LIBCMTD:_intrncvt_.obj
 0001:00147de0       _FillZeroMan               0000000180148de0 f i LIBCMTD:_intrncvt_.obj
 0001:00147e20       _IsZeroMan                 0000000180148e20 f i LIBCMTD:_intrncvt_.obj
 0001:00147e60       _ShrMan                    0000000180148e60 f i LIBCMTD:_intrncvt_.obj
 0001:00147fa0       _ld12tof                   0000000180148fa0 f   LIBCMTD:_intrncvt_.obj
 0001:00147fd0       _ld12told                  0000000180148fd0 f   LIBCMTD:_intrncvt_.obj
 0001:001480b0       __strgtold12_l             00000001801490b0 f   LIBCMTD:_strgtold_.obj
 0001:00148fc0       __multtenpow12             0000000180149fc0 f i LIBCMTD:_strgtold_.obj
 0001:00149110       __ld12mul                  000000018014a110 f i LIBCMTD:_strgtold_.obj
 0001:00149690       __shl_12                   000000018014a690 f i LIBCMTD:_strgtold_.obj
 0001:00149730       __shr_12                   000000018014a730 f i LIBCMTD:_strgtold_.obj
 0001:001497d0       __STRINGTOLD_L             000000018014a7d0 f   LIBCMTD:_strgtold_.obj
 0001:00149880       $I10_OUTPUT                000000018014a880 f   LIBCMTD:_x10fout_.obj
 0001:0014a110       __add_12                   000000018014b110 f i LIBCMTD:_x10fout_.obj
 0001:0014a1e0       _woutput_s_l               000000018014b1e0 f   LIBCMTD:woutputs.obj
 0001:0014b910       _validate_param_reuseW     000000018014c910 f   LIBCMTD:woutputp.obj
 0001:0014bc80       _woutput_p_l               000000018014cc80 f   LIBCMTD:woutputp.obj
 0001:0014ff00       _mbtowc_l                  0000000180150f00 f   LIBCMTD:mbtowc.obj
 0001:00150220       mbtowc                     0000000180151220 f   LIBCMTD:mbtowc.obj
 0001:00150250       fputwc                     0000000180151250 f   LIBCMTD:fputwc.obj
 0001:00150340       _fputwc_nolock             0000000180151340 f   LIBCMTD:fputwc.obj
 0001:00150740       putwc                      0000000180151740 f   LIBCMTD:fputwc.obj
 0001:00150770       _alloc_osfhnd              0000000180151770 f   LIBCMTD:osfinfo.obj
 0001:00150a60       _set_osfhnd                0000000180151a60 f   LIBCMTD:osfinfo.obj
 0001:00150b70       _free_osfhnd               0000000180151b70 f   LIBCMTD:osfinfo.obj
 0001:00150ca0       _get_osfhandle             0000000180151ca0 f   LIBCMTD:osfinfo.obj
 0001:00150e90       _open_osfhandle            0000000180151e90 f   LIBCMTD:osfinfo.obj
 0001:00151100       __lock_fhandle             0000000180152100 f   LIBCMTD:osfinfo.obj
 0001:001511e0       _unlock_fhandle            00000001801521e0 f   LIBCMTD:osfinfo.obj
 0001:00151220       _putwch                    0000000180152220 f   LIBCMTD:putwch.obj
 0001:00151260       _putwch_nolock             0000000180152260 f   LIBCMTD:putwch.obj
 0001:001513b0       _cputws                    00000001801523b0 f   LIBCMTD:putwch.obj
 0001:001514f0       DebuggerKnownHandle        00000001801524f0 f   LIBCMTD:_error_.obj
 0001:00151570       ?_RTC_Failure@@YAXPEAXH@Z  0000000180152570 f   LIBCMTD:_error_.obj
 0001:00151880       ?_RTC_StackFailure@@YAXPEAXPEBD@Z 0000000180152880 f   LIBCMTD:_error_.obj
 0001:00151990       ?_RTC_AllocaFailure@@YAXPEAXPEAU_RTC_ALLOCA_NODE@@H@Z 0000000180152990 f   LIBCMTD:_error_.obj
 0001:00151be0       _RTC_UninitUse             0000000180152be0 f   LIBCMTD:_error_.obj
 0001:00151cf0       _fcloseall                 0000000180152cf0 f   LIBCMTD:closeall.obj
 0001:00151df0       fflush                     0000000180152df0 f   LIBCMTD:fflush.obj
 0001:00151e40       _fflush_nolock             0000000180152e40 f   LIBCMTD:fflush.obj
 0001:00151ec0       _flush                     0000000180152ec0 f   LIBCMTD:fflush.obj
 0001:00151fb0       _flushall                  0000000180152fb0 f   LIBCMTD:fflush.obj
 0001:00152140       _stbuf                     0000000180153140 f   LIBCMTD:_sftbuf.obj
 0001:00152300       _ftbuf                     0000000180153300 f   LIBCMTD:_sftbuf.obj
 0001:001523c0       vprintf_helper             00000001801533c0 f   LIBCMTD:vprintf.obj
 0001:001524e0       _vprintf_l                 00000001801534e0 f   LIBCMTD:vprintf.obj
 0001:00152520       _vprintf_s_l               0000000180153520 f   LIBCMTD:vprintf.obj
 0001:00152560       _vprintf_p_l               0000000180153560 f   LIBCMTD:vprintf.obj
 0001:001525a0       vprintf                    00000001801535a0 f   LIBCMTD:vprintf.obj
 0001:001525d0       vprintf_s                  00000001801535d0 f   LIBCMTD:vprintf.obj
 0001:00152600       _vprintf_p                 0000000180153600 f   LIBCMTD:vprintf.obj
 0001:00152630       _iswctype_l                0000000180153630 f   LIBCMTD:iswctype.obj
 0001:00152730       iswctype                   0000000180153730 f   LIBCMTD:iswctype.obj
 0001:001527e0       is_wctype                  00000001801537e0 f   LIBCMTD:iswctype.obj
 0001:00152810       __ansicp                   0000000180153810 f   LIBCMTD:convrtcp.obj
 0001:00152880       __convertcp                0000000180153880 f   LIBCMTD:convrtcp.obj
 0001:00152bf0       ?__StateFromIp@@YAHPEBU_s_FuncInfo@@PEAU_xDISPATCHER_CONTEXT@@_J@Z 0000000180153bf0 f   LIBCMTD:ehstate.obj
 0001:00152cd0       ?__StateFromControlPc@@YAHPEBU_s_FuncInfo@@PEAU_xDISPATCHER_CONTEXT@@@Z 0000000180153cd0 f   LIBCMTD:ehstate.obj
 0001:00152d00       ?__GetCurrentState@@YAHPEA_KPEAU_xDISPATCHER_CONTEXT@@PEBU_s_FuncInfo@@@Z 0000000180153d00 f   LIBCMTD:ehstate.obj
 0001:00152d60       ?__SetState@@YAXPEA_KPEAU_xDISPATCHER_CONTEXT@@PEBU_s_FuncInfo@@H@Z 0000000180153d60 f   LIBCMTD:ehstate.obj
 0001:00152d90       ?__SetUnwindTryBlock@@YAXPEA_KPEAU_xDISPATCHER_CONTEXT@@PEBU_s_FuncInfo@@H@Z 0000000180153d90 f   LIBCMTD:ehstate.obj
 0001:00152e00       ?__GetUnwindTryBlock@@YAHPEA_KPEAU_xDISPATCHER_CONTEXT@@PEBU_s_FuncInfo@@@Z 0000000180153e00 f   LIBCMTD:ehstate.obj
 0001:00152e50       __InternalCxxFrameHandler  0000000180153e50 f   LIBCMTD:frame.obj
 0001:00153a20       ??0bad_exception@std@@QEAA@PEBD@Z 0000000180154a20 f i LIBCMTD:frame.obj
 0001:00153a60       ??1bad_exception@std@@UEAA@XZ 0000000180154a60 f i LIBCMTD:frame.obj
 0001:00153a90       ??_Ebad_exception@std@@UEAAPEAXI@Z 0000000180154a90 f i LIBCMTD:frame.obj
 0001:00153a90       ??_Gbad_exception@std@@UEAAPEAXI@Z 0000000180154a90 f i LIBCMTD:frame.obj
 0001:00153ad0       ??0bad_exception@std@@QEAA@AEBV01@@Z 0000000180154ad0 f i LIBCMTD:frame.obj
 0001:00153e60       __TypeMatch                0000000180154e60 f   LIBCMTD:frame.obj
 0001:00154040       __FrameUnwindFilter        0000000180155040 f   LIBCMTD:frame.obj
 0001:001540d0       __FrameUnwindToState       00000001801550d0 f   LIBCMTD:frame.obj
 0001:00154410       __CxxCallCatchBlock        0000000180155410 f   LIBCMTD:frame.obj
 0001:001547c0       __BuildCatchObjectHelper   00000001801557c0 f   LIBCMTD:frame.obj
 0001:00154b10       __BuildCatchObject         0000000180155b10 f   LIBCMTD:frame.obj
 0001:00154c50       __DestructExceptionObject  0000000180155c50 f   LIBCMTD:frame.obj
 0001:00154cc0       __AdjustPointer            0000000180155cc0 f   LIBCMTD:frame.obj
 0001:00154d40       ?__uncaught_exception@@YA_NXZ 0000000180155d40 f   LIBCMTD:frame.obj
 0001:00154d70       __CxxExceptionFilter       0000000180155d70 f   LIBCMTD:frame.obj
 0001:00155090       __CxxRegisterExceptionObject 0000000180156090 f   LIBCMTD:frame.obj
 0001:00155210       __CxxDetectRethrow         0000000180156210 f   LIBCMTD:frame.obj
 0001:001552c0       __CxxUnregisterExceptionObject 00000001801562c0 f   LIBCMTD:frame.obj
 0001:00155470       __CxxQueryExceptionSize    0000000180156470 f   LIBCMTD:frame.obj
 0001:00155480       __CxxCallUnwindDtor        0000000180156480 f   LIBCMTD:frame.obj
 0001:001554a0       __CxxCallUnwindDelDtor     00000001801564a0 f   LIBCMTD:frame.obj
 0001:001554c0       __CxxCallUnwindStdDelDtor  00000001801564c0 f   LIBCMTD:frame.obj
 0001:001554e0       __CxxCallUnwindVecDtor     00000001801564e0 f   LIBCMTD:frame.obj
 0001:00155700       ?_is_exception_typeof@@YAHAEBVtype_info@@PEAU_EXCEPTION_POINTERS@@@Z 0000000180156700 f   LIBCMTD:frame.obj
 0001:00155840       _get_daylight              0000000180156840 f   LIBCMTD:timeset.obj
 0001:00155900       _get_dstbias               0000000180156900 f   LIBCMTD:timeset.obj
 0001:001559c0       _get_timezone              00000001801569c0 f   LIBCMTD:timeset.obj
 0001:00155a80       _get_tzname                0000000180156a80 f   LIBCMTD:timeset.obj
 0001:00155d10       __daylight                 0000000180156d10 f   LIBCMTD:timeset.obj
 0001:00155d20       __dstbias                  0000000180156d20 f   LIBCMTD:timeset.obj
 0001:00155d30       __timezone                 0000000180156d30 f   LIBCMTD:timeset.obj
 0001:00155d40       __tzname                   0000000180156d40 f   LIBCMTD:timeset.obj
 0001:00155d50       __tzset                    0000000180156d50 f   LIBCMTD:tzset.obj
 0001:00155da0       _tzset                     0000000180156da0 f   LIBCMTD:tzset.obj
 0001:001563d0       _set_daylight              00000001801573d0 f i LIBCMTD:tzset.obj
 0001:001563f0       _set_dstbias               00000001801573f0 f i LIBCMTD:tzset.obj
 0001:00156410       _set_timezone              0000000180157410 f i LIBCMTD:tzset.obj
 0001:00156430       _isindst                   0000000180157430 f   LIBCMTD:tzset.obj
 0001:00156cd0       _stricmp_l                 0000000180157cd0 f   LIBCMTD:stricmp.obj
 0001:00156f50       __ascii_stricmp            0000000180157f50 f   LIBCMTD:stricmp.obj
 0001:00156fe0       _stricmp                   0000000180157fe0 f   LIBCMTD:stricmp.obj
 0001:00157160       _strnicmp_l                0000000180158160 f   LIBCMTD:strnicmp.obj
 0001:001574f0       __ascii_strnicmp           00000001801584f0 f   LIBCMTD:strnicmp.obj
 0001:001575c0       _strnicmp                  00000001801585c0 f   LIBCMTD:strnicmp.obj
 0001:001577f0       atol                       00000001801587f0 f   LIBCMTD:atox.obj
 0001:00157810       _atol_l                    0000000180158810 f   LIBCMTD:atox.obj
 0001:00157840       atoi                       0000000180158840 f   LIBCMTD:atox.obj
 0001:00157860       _atoi_l                    0000000180158860 f   LIBCMTD:atox.obj
 0001:00157890       _atoi64                    0000000180158890 f   LIBCMTD:atox.obj
 0001:001578b0       _atoi64_l                  00000001801588b0 f   LIBCMTD:atox.obj
 0001:001578e0       __mtold12                  00000001801588e0 f   LIBCMTD:_mantold_.obj
 0001:00157ad0       wcstol                     0000000180158ad0 f   LIBCMTD:wcstol.obj
 0001:001580f0       _wcstol_l                  00000001801590f0 f   LIBCMTD:wcstol.obj
 0001:00158130       wcstoul                    0000000180159130 f   LIBCMTD:wcstol.obj
 0001:001581a0       _wcstoul_l                 00000001801591a0 f   LIBCMTD:wcstol.obj
 0001:001581e0       _flswbuf                   00000001801591e0 f   LIBCMTD:_flswbuf.obj
 0001:00158570       __initconin                0000000180159570 f   LIBCMTD:initcon.obj
 0001:001585c0       __initconout               00000001801595c0 f   LIBCMTD:initcon.obj
 0001:00158610       __termcon                  0000000180159610 f   LIBCMTD:initcon.obj
 0001:00158660       ?_RTC_GetSrcLine@@YAHPEAEPEA_WKPEAH1K@Z 0000000180159660 f   LIBCMTD:_pdblkup_.obj
 0001:00158c90       _RTC_NumErrors             0000000180159c90 f   LIBCMTD:_userapi_.obj
 0001:00158ca0       _RTC_GetErrDesc            0000000180159ca0 f   LIBCMTD:_userapi_.obj
 0001:00158cc0       _RTC_SetErrorType          0000000180159cc0 f   LIBCMTD:_userapi_.obj
 0001:00158ce0       _RTC_SetErrorFunc          0000000180159ce0 f   LIBCMTD:_userapi_.obj
 0001:00158d00       _RTC_SetErrorFuncW         0000000180159d00 f   LIBCMTD:_userapi_.obj
 0001:00158d20       ?_RTC_GetErrorFunc@@YAP6AHHPEBDH00ZZPEBX@Z 0000000180159d20 f   LIBCMTD:_userapi_.obj
 0001:00158d30       ?_RTC_GetErrorFuncW@@YAP6AHHPEB_WH00ZZPEBX@Z 0000000180159d30 f   LIBCMTD:_userapi_.obj
 0001:00158d40       fclose                     0000000180159d40 f   LIBCMTD:fclose.obj
 0001:00158e40       _fclose_nolock             0000000180159e40 f   LIBCMTD:fclose.obj
 0001:00158f80       _commit                    0000000180159f80 f   LIBCMTD:commit.obj
 0001:001591f0       __crtGetStringTypeW        000000018015a1f0 f   LIBCMTD:w_str.obj
 0001:001592c0       ?_ValidateRead@@YAHPEBXI@Z 000000018015a2c0 f   LIBCMTD:validate.obj
 0001:001592f0       ?_ValidateWrite@@YAHPEAXI@Z 000000018015a2f0 f   LIBCMTD:validate.obj
 0001:00159320       ?_ValidateExecute@@YAHP6A_JXZ@Z 000000018015a320 f   LIBCMTD:validate.obj
 0001:00159350       _CxxThrowException         000000018015a350 f   LIBCMTD:throw.obj
 0001:00159410       ?name@type_info@@QEBAPEBDPEAU__type_info_node@@@Z 000000018015a410 f   LIBCMTD:typinfo.obj
 0001:00159440       ??1type_info@@UEAA@XZ      000000018015a440 f   LIBCMTD:typinfo.obj
 0001:00159470       ??_Gtype_info@@UEAAPEAXI@Z 000000018015a470 f i LIBCMTD:typinfo.obj
 0001:00159470       ??_Etype_info@@UEAAPEAXI@Z 000000018015a470 f i LIBCMTD:typinfo.obj
 0001:001594b0       ?_name_internal_method@type_info@@QEBAPEBDPEAU__type_info_node@@@Z 000000018015a4b0 f   LIBCMTD:typinfo.obj
 0001:001594e0       ?_type_info_dtor_internal_method@type_info@@QEAAXXZ 000000018015a4e0 f   LIBCMTD:typinfo.obj
 0001:00159500       ??8type_info@@QEBA_NAEBV0@@Z 000000018015a500 f   LIBCMTD:typinfo.obj
 0001:00159550       ??9type_info@@QEBA_NAEBV0@@Z 000000018015a550 f   LIBCMTD:typinfo.obj
 0001:001595a0       ?before@type_info@@QEBAHAEBV1@@Z 000000018015a5a0 f   LIBCMTD:typinfo.obj
 0001:001595f0       ?raw_name@type_info@@QEBAPEBDXZ 000000018015a5f0 f   LIBCMTD:typinfo.obj
 0001:00159600       ??0type_info@@AEAA@AEBV0@@Z 000000018015a600 f   LIBCMTD:typinfo.obj
 0001:00159620       ??4type_info@@AEAAAEAV0@AEBV0@@Z 000000018015a620 f   LIBCMTD:typinfo.obj
 0001:00159630       ??0exception@std@@QEAA@XZ  000000018015a630 f   LIBCMTD:stdexcpt.obj
 0001:00159670       ??_Eexception@std@@UEAAPEAXI@Z 000000018015a670 f i LIBCMTD:stdexcpt.obj
 0001:00159670       ??_Gexception@std@@UEAAPEAXI@Z 000000018015a670 f i LIBCMTD:stdexcpt.obj
 0001:001596b0       ??0exception@std@@QEAA@AEBQEBD@Z 000000018015a6b0 f   LIBCMTD:stdexcpt.obj
 0001:00159750       ??0exception@std@@QEAA@AEBQEBDH@Z 000000018015a750 f   LIBCMTD:stdexcpt.obj
 0001:001597a0       ??0exception@std@@QEAA@AEBV01@@Z 000000018015a7a0 f   LIBCMTD:stdexcpt.obj
 0001:00159870       ??4exception@std@@QEAAAEAV01@AEBV01@@Z 000000018015a870 f   LIBCMTD:stdexcpt.obj
 0001:00159940       ??1exception@std@@UEAA@XZ  000000018015a940 f   LIBCMTD:stdexcpt.obj
 0001:00159980       ?what@exception@std@@UEBAPEBDXZ 000000018015a980 f   LIBCMTD:stdexcpt.obj
 0001:001599b0       ??0bad_cast@std@@QEAA@PEBD@Z 000000018015a9b0 f   LIBCMTD:stdexcpt.obj
 0001:001599f0       ??_Gbad_cast@std@@UEAAPEAXI@Z 000000018015a9f0 f i LIBCMTD:stdexcpt.obj
 0001:001599f0       ??_Ebad_cast@std@@UEAAPEAXI@Z 000000018015a9f0 f i LIBCMTD:stdexcpt.obj
 0001:00159a30       ??0bad_cast@std@@QEAA@AEBV01@@Z 000000018015aa30 f   LIBCMTD:stdexcpt.obj
 0001:00159a70       ??1bad_cast@std@@UEAA@XZ   000000018015aa70 f   LIBCMTD:stdexcpt.obj
 0001:00159aa0       ??0bad_typeid@std@@QEAA@PEBD@Z 000000018015aaa0 f   LIBCMTD:stdexcpt.obj
 0001:00159ae0       ??_Gbad_typeid@std@@UEAAPEAXI@Z 000000018015aae0 f i LIBCMTD:stdexcpt.obj
 0001:00159ae0       ??_Ebad_typeid@std@@UEAAPEAXI@Z 000000018015aae0 f i LIBCMTD:stdexcpt.obj
 0001:00159b20       ??0bad_typeid@std@@QEAA@AEBV01@@Z 000000018015ab20 f   LIBCMTD:stdexcpt.obj
 0001:00159b60       ??1bad_typeid@std@@UEAA@XZ 000000018015ab60 f   LIBCMTD:stdexcpt.obj
 0001:00159b90       ??0__non_rtti_object@std@@QEAA@PEBD@Z 000000018015ab90 f   LIBCMTD:stdexcpt.obj
 0001:00159bd0       ??_G__non_rtti_object@std@@UEAAPEAXI@Z 000000018015abd0 f i LIBCMTD:stdexcpt.obj
 0001:00159bd0       ??_E__non_rtti_object@std@@UEAAPEAXI@Z 000000018015abd0 f i LIBCMTD:stdexcpt.obj
 0001:00159c10       ??0__non_rtti_object@std@@QEAA@AEBV01@@Z 000000018015ac10 f   LIBCMTD:stdexcpt.obj
 0001:00159c50       ??1__non_rtti_object@std@@UEAA@XZ 000000018015ac50 f   LIBCMTD:stdexcpt.obj
 0001:00159c80       _GetNextInstrOffset        000000018015ac80 f   LIBCMTD:handlers.obj
 0001:00159c90       getenv                     000000018015ac90 f   LIBCMTD:getenv.obj
 0001:00159e10       _getenv_helper_nolock      000000018015ae10 f   LIBCMTD:getenv.obj
 0001:00159f70       getenv_s                   000000018015af70 f   LIBCMTD:getenv.obj
 0001:0015a200       _dupenv_s                  000000018015b200 f   LIBCMTD:getenv.obj
 0001:0015a250       _dupenv_s_dbg              000000018015b250 f   LIBCMTD:getenv.obj
 0001:0015a520       _strtoi64                  000000018015b520 f   LIBCMTD:strtoq.obj
 0001:0015ac10       _strtoi64_l                000000018015bc10 f   LIBCMTD:strtoq.obj
 0001:0015ac50       _strtoui64                 000000018015bc50 f   LIBCMTD:strtoq.obj
 0001:0015acc0       _strtoui64_l               000000018015bcc0 f   LIBCMTD:strtoq.obj
 0001:0015ad00       _wchartodigit              000000018015bd00 f   LIBCMTD:wchtodig.obj
 0001:0015b070       _close                     000000018015c070 f   LIBCMTD:close.obj
 0001:0015b2d0       _close_nolock              000000018015c2d0 f   LIBCMTD:close.obj
 0001:0015b3c0       _freebuf                   000000018015c3c0 f   LIBCMTD:_freebuf.obj
 0001:0015b480       ?_Type_info_dtor@type_info@@CAXPEAV1@@Z 000000018015c480 f   LIBCMTD:typname.obj
 0001:0015b580       ?_Name_base@type_info@@CAPEBDPEBV1@PEAU__type_info_node@@@Z 000000018015c580 f   LIBCMTD:typname.obj
 0001:0015b740       ?_Type_info_dtor_internal@type_info@@CAXPEAV1@@Z 000000018015c740 f   LIBCMTD:typname.obj
 0001:0015b840       __unDNameHelper            000000018015c840 f   LIBCMTD:typname.obj
 0001:0015b8b0       ?_Name_base_internal@type_info@@CAPEBDPEBV1@PEAU__type_info_node@@@Z 000000018015c8b0 f   LIBCMTD:typname.obj
 0001:0015ba80       __clean_type_info_names_internal 000000018015ca80 f   LIBCMTD:typname.obj
 0001:0015bb00       strnlen                    000000018015cb00 f   LIBCMTD:strlen_s.obj
 0001:0015bb60       _mbsnbicoll_l              000000018015cb60 f   LIBCMTD:mbsnbico.obj
 0001:0015bf00       _mbsnbicoll                000000018015cf00 f   LIBCMTD:mbsnbico.obj
 0001:0015bf30       __wtomb_environ            000000018015cf30 f   LIBCMTD:wtombenv.obj
 0001:0015c090       __unDName                  000000018015d090 f   LIBCMTD:undname.obj
 0001:0015c170       ?Constructor@HeapManager@@QEAAXP6APEAX_K@ZP6AXPEAX@Z@Z 000000018015d170 f i LIBCMTD:undname.obj
 0001:0015c1d0       ?Destructor@HeapManager@@QEAAXXZ 000000018015d1d0 f i LIBCMTD:undname.obj
 0001:0015c230       __unDNameEx                000000018015d230 f   LIBCMTD:undname.obj
 0001:0015c310       ??0UnDecorator@@QEAA@PEADPEBDHP6APEADJ@ZK@Z 000000018015d310 f i LIBCMTD:undname.obj
 0001:0015c3e0       ??BUnDecorator@@QEAAPEADXZ 000000018015d3e0 f i LIBCMTD:undname.obj
 0001:0015c6a0       ?dbGetString@DName@@QEBAPEADXZ 000000018015d6a0 f   LIBCMTD:undname.obj
 0001:0015c6d0       ?getDecoratedName@UnDecorator@@CA?AVDName@@XZ 000000018015d6d0 f   LIBCMTD:undname.obj
 0001:0015cac0       ?getSymbolName@UnDecorator@@CA?AVDName@@XZ 000000018015dac0 f i LIBCMTD:undname.obj
 0001:0015cb40       ?getZName@UnDecorator@@CA?AVDName@@_N0@Z 000000018015db40 f   LIBCMTD:undname.obj
 0001:0015cec0       ?getOperatorName@UnDecorator@@CA?AVDName@@_NPEA_N@Z 000000018015dec0 f i LIBCMTD:undname.obj
 0001:0015db30       ?getStringEncoding@UnDecorator@@CA?AVDName@@PEADH@Z 000000018015eb30 f   LIBCMTD:undname.obj
 0001:0015dc70       ?getScope@UnDecorator@@CA?AVDName@@XZ 000000018015ec70 f   LIBCMTD:undname.obj
 0001:0015e0f0       ?getSignedDimension@UnDecorator@@CA?AVDName@@XZ 000000018015f0f0 f   LIBCMTD:undname.obj
 0001:0015e180       ?getDimension@UnDecorator@@CA?AVDName@@_N@Z 000000018015f180 f   LIBCMTD:undname.obj
 0001:0015e510       ?getNumberOfDimensions@UnDecorator@@CAHXZ 000000018015f510 f   LIBCMTD:undname.obj
 0001:0015e630       ?getTemplateName@UnDecorator@@CA?AVDName@@_N@Z 000000018015f630 f   LIBCMTD:undname.obj
 0001:0015e8a0       ?getTemplateArgumentList@UnDecorator@@CA?AVDName@@XZ 000000018015f8a0 f   LIBCMTD:undname.obj
 0001:0015ebd0       ?getTemplateConstant@UnDecorator@@CA?AVDName@@XZ 000000018015fbd0 f   LIBCMTD:undname.obj
 0001:0015f170       ?composeDeclaration@UnDecorator@@CA?AVDName@@AEBV2@@Z 0000000180160170 f i LIBCMTD:undname.obj
 0001:00161230       ?getTypeEncoding@UnDecorator@@CAHXZ 0000000180162230 f i LIBCMTD:undname.obj
 0001:00161e10       ?getBasedType@UnDecorator@@CA?AVDName@@XZ 0000000180162e10 f   LIBCMTD:undname.obj
 0001:00161f00       ?getScopedName@UnDecorator@@CA?AVDName@@XZ 0000000180162f00 f   LIBCMTD:undname.obj
 0001:00162070       ?getCallingConvention@UnDecorator@@CA?AVDName@@XZ 0000000180163070 f   LIBCMTD:undname.obj
 0001:00162210       ?getReturnType@UnDecorator@@CA?AVDName@@PEAV2@@Z 0000000180163210 f   LIBCMTD:undname.obj
 0001:00162270       ?getDataType@UnDecorator@@CA?AVDName@@PEAV2@@Z 0000000180163270 f   LIBCMTD:undname.obj
 0001:001623f0       ?getPrimaryDataType@UnDecorator@@CA?AVDName@@AEBV2@@Z 00000001801633f0 f   LIBCMTD:undname.obj
 0001:001626c0       ?getArgumentTypes@UnDecorator@@CA?AVDName@@XZ 00000001801636c0 f   LIBCMTD:undname.obj
 0001:00162880       ?getArgumentList@UnDecorator@@CA?AVDName@@XZ 0000000180163880 f   LIBCMTD:undname.obj
 0001:00162a20       ?getThrowTypes@UnDecorator@@CA?AVDName@@XZ 0000000180163a20 f   LIBCMTD:undname.obj
 0001:00162b10       ?getBasicDataType@UnDecorator@@CA?AVDName@@AEBV2@@Z 0000000180163b10 f   LIBCMTD:undname.obj
 0001:00163250       ?getECSUDataType@UnDecorator@@CA?AVDName@@XZ 0000000180164250 f   LIBCMTD:undname.obj
 0001:00163490       ?getECSUName@UnDecorator@@CA?AVDName@@XZ 0000000180164490 f i LIBCMTD:undname.obj
 0001:001634b0       ?getEnumType@UnDecorator@@CA?AVDName@@XZ 00000001801644b0 f i LIBCMTD:undname.obj
 0001:00163630       ?getFunctionIndirectType@UnDecorator@@CA?AVDName@@AEBV2@@Z 0000000180164630 f   LIBCMTD:undname.obj
 0001:00163b80       ?getPtrRefType@UnDecorator@@CA?AVDName@@AEBV2@0D@Z 0000000180164b80 f   LIBCMTD:undname.obj
 0001:00163d90       ?getExtendedDataIndirectType@UnDecorator@@CA?AVDName@@AEADAEA_NH@Z 0000000180164d90 f   LIBCMTD:undname.obj
 0001:00164070       ?getDataIndirectType@UnDecorator@@CA?AVDName@@AEBV2@D0H@Z 0000000180165070 f   LIBCMTD:undname.obj
 0001:00164a10       ?getPtrRefDataType@UnDecorator@@CA?AVDName@@AEBV2@H@Z 0000000180165a10 f i LIBCMTD:undname.obj
 0001:00164b90       ?getArrayType@UnDecorator@@CA?AVDName@@AEBV2@@Z 0000000180165b90 f i LIBCMTD:undname.obj
 0001:00164e80       ?getLexicalFrame@UnDecorator@@CA?AVDName@@XZ 0000000180165e80 f i LIBCMTD:undname.obj
 0001:00164ec0       ?getThisType@UnDecorator@@CA?AVDName@@XZ 0000000180165ec0 f i LIBCMTD:undname.obj
 0001:00164f10       ?getPointerType@UnDecorator@@CA?AVDName@@AEBV2@0@Z 0000000180165f10 f i LIBCMTD:undname.obj
 0001:00164f50       ?getPointerTypeArray@UnDecorator@@CA?AVDName@@AEBV2@0@Z 0000000180165f50 f i LIBCMTD:undname.obj
 0001:00164f90       ?getReferenceType@UnDecorator@@CA?AVDName@@AEBV2@0@Z 0000000180165f90 f i LIBCMTD:undname.obj
 0001:00164fd0       ?getDisplacement@UnDecorator@@CA?AVDName@@XZ 0000000180165fd0 f i LIBCMTD:undname.obj
 0001:00164ff0       ?getCallIndex@UnDecorator@@CA?AVDName@@XZ 0000000180165ff0 f i LIBCMTD:undname.obj
 0001:00165010       ?getGuardNumber@UnDecorator@@CA?AVDName@@XZ 0000000180166010 f i LIBCMTD:undname.obj
 0001:00165030       ?getVbTableType@UnDecorator@@CA?AVDName@@AEBV2@@Z 0000000180166030 f i LIBCMTD:undname.obj
 0001:00165060       ?getVCallThunkType@UnDecorator@@CA?AVDName@@XZ 0000000180166060 f i LIBCMTD:undname.obj
 0001:001650e0       ?getVfTableType@UnDecorator@@CA?AVDName@@AEBV2@@Z 00000001801660e0 f i LIBCMTD:undname.obj
 0001:00165310       ?getStorageConvention@UnDecorator@@CA?AVDName@@XZ 0000000180166310 f i LIBCMTD:undname.obj
 0001:00165330       ?getDataIndirectType@UnDecorator@@CA?AVDName@@XZ 0000000180166330 f i LIBCMTD:undname.obj
 0001:00165380       ?getVdispMapType@UnDecorator@@CA?AVDName@@AEBV2@@Z 0000000180166380 f i LIBCMTD:undname.obj
 0001:00165410       ?getExternalDataType@UnDecorator@@CA?AVDName@@AEBV2@@Z 0000000180166410 f i LIBCMTD:undname.obj
 0001:001654e0       ?doMSKeywords@UnDecorator@@SAHXZ 00000001801664e0 f i LIBCMTD:undname.obj
 0001:00165510       ?doPtr64@UnDecorator@@SAHXZ 0000000180166510 f i LIBCMTD:undname.obj
 0001:00165540       ?doFunctionReturns@UnDecorator@@SAHXZ 0000000180166540 f i LIBCMTD:undname.obj
 0001:00165570       ?doAllocationModel@UnDecorator@@SAHXZ 0000000180166570 f i LIBCMTD:undname.obj
 0001:001655a0       ?doAllocationLanguage@UnDecorator@@SAHXZ 00000001801665a0 f i LIBCMTD:undname.obj
 0001:001655d0       ?doThisTypes@UnDecorator@@SAHXZ 00000001801665d0 f i LIBCMTD:undname.obj
 0001:00165600       ?doAccessSpecifiers@UnDecorator@@SAHXZ 0000000180166600 f i LIBCMTD:undname.obj
 0001:00165630       ?doThrowTypes@UnDecorator@@SAHXZ 0000000180166630 f i LIBCMTD:undname.obj
 0001:00165660       ?doMemberTypes@UnDecorator@@SAHXZ 0000000180166660 f i LIBCMTD:undname.obj
 0001:00165690       ?doNameOnly@UnDecorator@@SAHXZ 0000000180166690 f i LIBCMTD:undname.obj
 0001:001656a0       ?doTypeOnly@UnDecorator@@SAHXZ 00000001801666a0 f i LIBCMTD:undname.obj
 0001:001656b0       ?haveTemplateParameters@UnDecorator@@SAHXZ 00000001801666b0 f i LIBCMTD:undname.obj
 0001:001656c0       ?doEcsu@UnDecorator@@SAHXZ 00000001801666c0 f i LIBCMTD:undname.obj
 0001:001656f0       ?doEllipsis@UnDecorator@@SAHXZ 00000001801666f0 f i LIBCMTD:undname.obj
 0001:00165720       ?UScore@UnDecorator@@SAPEBDW4Tokens@@@Z 0000000180166720 f   LIBCMTD:undname.obj
 0001:00165760       ?doUnderScore@UnDecorator@@SAHXZ 0000000180166760 f i LIBCMTD:undname.obj
 0001:00165790       ??2@YAPEAX_KAEAVHeapManager@@H@Z 0000000180166790 f i LIBCMTD:undname.obj
 0001:001657c0       ?getMemory@HeapManager@@QEAAPEAX_KH@Z 00000001801667c0 f   LIBCMTD:undname.obj
 0001:00165930       ??0Block@HeapManager@@QEAA@XZ 0000000180166930 f i LIBCMTD:undname.obj
 0001:00165950       ??H@YA?AVDName@@DAEBV0@@Z  0000000180166950 f i LIBCMTD:undname.obj
 0001:00165990       ??H@YA?AVDName@@W4DNameStatus@@AEBV0@@Z 0000000180166990 f i LIBCMTD:undname.obj
 0001:001659d0       ??H@YA?AVDName@@PEBDAEBV0@@Z 00000001801669d0 f i LIBCMTD:undname.obj
 0001:00165a10       ??0DName@@QEAA@XZ          0000000180166a10 f i LIBCMTD:undname.obj
 0001:00165af0       ??0DName@@QEAA@D@Z         0000000180166af0 f   LIBCMTD:undname.obj
 0001:00165c00       ??0DName@@QEAA@AEBV0@@Z    0000000180166c00 f i LIBCMTD:undname.obj
 0001:00165c30       ??0DName@@QEAA@PEAV0@@Z    0000000180166c30 f   LIBCMTD:undname.obj
 0001:00165dc0       ??0DName@@QEAA@PEBD@Z      0000000180166dc0 f   LIBCMTD:undname.obj
 0001:00165ed0       ??0DName@@QEAA@AEAPEBDD@Z  0000000180166ed0 f   LIBCMTD:undname.obj
 0001:00166230       ?doNoIdentCharCheck@UnDecorator@@SAHXZ 0000000180167230 f i LIBCMTD:undname.obj
 0001:00166240       ??0DName@@QEAA@_K@Z        0000000180167240 f   LIBCMTD:undname.obj
 0001:001663d0       ??0DName@@QEAA@_J@Z        00000001801673d0 f   LIBCMTD:undname.obj
 0001:001665a0       ??0DName@@QEAA@W4DNameStatus@@@Z 00000001801675a0 f   LIBCMTD:undname.obj
 0001:00166700       ?isValid@DName@@QEBAHXZ    0000000180167700 f i LIBCMTD:undname.obj
 0001:00166740       ?isEmpty@DName@@QEBAHXZ    0000000180167740 f i LIBCMTD:undname.obj
 0001:00166770       ?status@DName@@QEBA?AW4DNameStatus@@XZ 0000000180167770 f i LIBCMTD:undname.obj
 0001:00166790       ?setPtrRef@DName@@QEAAAEAV1@XZ 0000000180167790 f i LIBCMTD:undname.obj
 0001:001667c0       ?isPtrRef@DName@@QEBAHXZ   00000001801677c0 f i LIBCMTD:undname.obj
 0001:001667e0       ?isUDC@DName@@QEBAHXZ      00000001801677e0 f i LIBCMTD:undname.obj
 0001:00166830       ?setIsUDC@DName@@QEAAXXZ   0000000180167830 f i LIBCMTD:undname.obj
 0001:00166870       ?isUDTThunk@DName@@QEBAHXZ 0000000180167870 f i LIBCMTD:undname.obj
 0001:001668c0       ?setIsArray@DName@@QEAAXXZ 00000001801678c0 f i LIBCMTD:undname.obj
 0001:001668e0       ?isArray@DName@@QEBAHXZ    00000001801678e0 f i LIBCMTD:undname.obj
 0001:00166900       ?isNoTE@DName@@QEBAHXZ     0000000180167900 f i LIBCMTD:undname.obj
 0001:00166920       ?setIsNoTE@DName@@QEAAXXZ  0000000180167920 f i LIBCMTD:undname.obj
 0001:00166940       ?isPinPtr@DName@@QEBAHXZ   0000000180167940 f i LIBCMTD:undname.obj
 0001:00166960       ?setIsPinPtr@DName@@QEAAXXZ 0000000180167960 f i LIBCMTD:undname.obj
 0001:00166980       ?isComArray@DName@@QEBAHXZ 0000000180167980 f i LIBCMTD:undname.obj
 0001:001669a0       ?setIsComArray@DName@@QEAAXXZ 00000001801679a0 f i LIBCMTD:undname.obj
 0001:001669c0       ?isVCallThunk@DName@@QEBAHXZ 00000001801679c0 f i LIBCMTD:undname.obj
 0001:001669e0       ?setIsVCallThunk@DName@@QEAAXXZ 00000001801679e0 f i LIBCMTD:undname.obj
 0001:00166a00       ?length@DName@@QEBAHXZ     0000000180167a00 f i LIBCMTD:undname.obj
 0001:00166a40       ?getLastChar@DName@@QEBADXZ 0000000180167a40 f i LIBCMTD:undname.obj
 0001:00166a80       ?getString@DName@@QEBAPEADPEADH@Z 0000000180167a80 f i LIBCMTD:undname.obj
 0001:00166b30       ?getString@DName@@QEBAPEADPEAD0@Z 0000000180167b30 f i LIBCMTD:undname.obj
 0001:00166b80       ??HDName@@QEBA?AV0@D@Z     0000000180167b80 f   LIBCMTD:undname.obj
 0001:00166bd0       ??HDName@@QEBA?AV0@PEBD@Z  0000000180167bd0 f   LIBCMTD:undname.obj
 0001:00166c20       ??HDName@@QEBA?AV0@AEBV0@@Z 0000000180167c20 f   LIBCMTD:undname.obj
 0001:00166c70       ??HDName@@QEBA?AV0@PEAV0@@Z 0000000180167c70 f   LIBCMTD:undname.obj
 0001:00166cc0       ??HDName@@QEBA?AV0@W4DNameStatus@@@Z 0000000180167cc0 f   LIBCMTD:undname.obj
 0001:00166d10       ?append@DName@@AEAAXPEAVDNameNode@@@Z 0000000180167d10 f   LIBCMTD:undname.obj
 0001:00166dc0       ??YDName@@QEAAAEAV0@D@Z    0000000180167dc0 f   LIBCMTD:undname.obj
 0001:00166e60       ??YDName@@QEAAAEAV0@PEBD@Z 0000000180167e60 f   LIBCMTD:undname.obj
 0001:00166f20       ??YDName@@QEAAAEAV0@AEBV0@@Z 0000000180167f20 f   LIBCMTD:undname.obj
 0001:00166fa0       ??YDName@@QEAAAEAV0@PEAV0@@Z 0000000180167fa0 f   LIBCMTD:undname.obj
 0001:00167080       ??YDName@@QEAAAEAV0@W4DNameStatus@@@Z 0000000180168080 f   LIBCMTD:undname.obj
 0001:001670f0       ??_5DName@@QEAAAEAV0@AEBV0@@Z 00000001801680f0 f   LIBCMTD:undname.obj
 0001:00167160       ??4DName@@QEAAAEAV0@D@Z    0000000180168160 f i LIBCMTD:undname.obj
 0001:00167270       ??4DName@@QEAAAEAV0@PEBD@Z 0000000180168270 f   LIBCMTD:undname.obj
 0001:00167380       ??4DName@@QEAAAEAV0@AEBV0@@Z 0000000180168380 f   LIBCMTD:undname.obj
 0001:001673b0       ??4DName@@QEAAAEAV0@PEAV0@@Z 00000001801683b0 f   LIBCMTD:undname.obj
 0001:00167530       ??4DName@@QEAAAEAV0@W4DNameStatus@@@Z 0000000180168530 f   LIBCMTD:undname.obj
 0001:00167670       ?doPchar@DName@@AEAAXPEBDH@Z 0000000180168670 f   LIBCMTD:undname.obj
 0001:00167800       ?isFull@Replicator@@QEBAHXZ 0000000180168800 f i LIBCMTD:undname.obj
 0001:00167830       ??0Replicator@@QEAA@XZ     0000000180168830 f i LIBCMTD:undname.obj
 0001:00167850       ??YReplicator@@QEAAAEAV0@AEBVDName@@@Z 0000000180168850 f   LIBCMTD:undname.obj
 0001:00167910       ??AReplicator@@QEBA?AVDName@@H@Z 0000000180168910 f   LIBCMTD:undname.obj
 0001:001679a0       ??0DNameNode@@IEAA@XZ      00000001801689a0 f   LIBCMTD:undname.obj
 0001:001679c0       ??0charNode@@QEAA@D@Z      00000001801689c0 f   LIBCMTD:undname.obj
 0001:00167a00       ?length@charNode@@UEBAHXZ  0000000180168a00 f i LIBCMTD:undname.obj
 0001:00167a10       ?getLastChar@charNode@@UEBADXZ 0000000180168a10 f i LIBCMTD:undname.obj
 0001:00167a20       ?getString@charNode@@UEBAPEADPEAD0@Z 0000000180168a20 f i LIBCMTD:undname.obj
 0001:00167a60       ??0pcharNode@@QEAA@PEBDH@Z 0000000180168a60 f   LIBCMTD:undname.obj
 0001:00167b20       ?length@pcharNode@@UEBAHXZ 0000000180168b20 f i LIBCMTD:undname.obj
 0001:00167b30       ?getLastChar@pcharNode@@UEBADXZ 0000000180168b30 f i LIBCMTD:undname.obj
 0001:00167b70       ?getString@pcharNode@@UEBAPEADPEAD0@Z 0000000180168b70 f i LIBCMTD:undname.obj
 0001:00167bb0       ?getStringHelper@@YAPEADPEAD00H@Z 0000000180168bb0 f i LIBCMTD:undname.obj
 0001:00167c20       ??0pDNameNode@@QEAA@PEAVDName@@@Z 0000000180168c20 f   LIBCMTD:undname.obj
 0001:00167ca0       ?length@pDNameNode@@UEBAHXZ 0000000180168ca0 f i LIBCMTD:undname.obj
 0001:00167ce0       ?getLastChar@pDNameNode@@UEBADXZ 0000000180168ce0 f i LIBCMTD:undname.obj
 0001:00167d20       ?getString@pDNameNode@@UEBAPEADPEAD0@Z 0000000180168d20 f i LIBCMTD:undname.obj
 0001:00167d80       ??0DNameStatusNode@@AEAA@W4DNameStatus@@@Z 0000000180168d80 f   LIBCMTD:undname.obj
 0001:00167df0       ?length@DNameStatusNode@@UEBAHXZ 0000000180168df0 f i LIBCMTD:undname.obj
 0001:00167e00       ?getLastChar@DNameStatusNode@@UEBADXZ 0000000180168e00 f i LIBCMTD:undname.obj
 0001:00167e30       ?getString@DNameStatusNode@@UEBAPEADPEAD0@Z 0000000180168e30 f i LIBCMTD:undname.obj
 0001:00167e80       ?make@DNameStatusNode@@SAPEAV1@W4DNameStatus@@@Z 0000000180168e80 f i LIBCMTD:undname.obj
 0001:00167f30       ??0pairNode@@QEAA@PEAVDNameNode@@0@Z 0000000180168f30 f   LIBCMTD:undname.obj
 0001:00167f90       ?length@pairNode@@UEBAHXZ  0000000180168f90 f i LIBCMTD:undname.obj
 0001:00167ff0       ?getLastChar@pairNode@@UEBADXZ 0000000180168ff0 f i LIBCMTD:undname.obj
 0001:00168050       ?getString@pairNode@@UEBAPEADPEAD0@Z 0000000180169050 f i LIBCMTD:undname.obj
 0001:001681e0       __crtCompareStringA        00000001801691e0 f   LIBCMTD:a_cmp.obj
 0001:00168a20       _strnicoll_l               0000000180169a20 f   LIBCMTD:strnicol.obj
 0001:00168dd0       _strnicoll                 0000000180169dd0 f   LIBCMTD:strnicol.obj
 0001:00168e20       __crtsetenv                0000000180169e20 f   LIBCMTD:setenv.obj
 0001:00169710       _mbschr_l                  000000018016a710 f   LIBCMTD:mbschr.obj
 0001:00169980       _mbschr                    000000018016a980 f   LIBCMTD:mbschr.obj
 0001:001699b0       strchr                     000000018016a9b0 f   LIBCMTD:strchr.obj
 0001:00169a02       OutputDebugStringA         000000018016aa02 f   kernel32:KERNEL32.dll
 0001:00169a08       GetSystemInfo              000000018016aa08 f   kernel32:KERNEL32.dll
 0001:00169a0e       InitializeCriticalSection  000000018016aa0e f   kernel32:KERNEL32.dll
 0001:00169a14       CreateEventA               000000018016aa14 f   kernel32:KERNEL32.dll
 0001:00169a1a       CreateSemaphoreA           000000018016aa1a f   kernel32:KERNEL32.dll
 0001:00169a20       CloseHandle                000000018016aa20 f   kernel32:KERNEL32.dll
 0001:00169a26       WaitForMultipleObjects     000000018016aa26 f   kernel32:KERNEL32.dll
 0001:00169a2c       DeleteCriticalSection      000000018016aa2c f   kernel32:KERNEL32.dll
 0001:00169a32       SetEvent                   000000018016aa32 f   kernel32:KERNEL32.dll
 0001:00169a38       Sleep                      000000018016aa38 f   kernel32:KERNEL32.dll
 0001:00169a3e       LeaveCriticalSection       000000018016aa3e f   kernel32:KERNEL32.dll
 0001:00169a44       ReleaseSemaphore           000000018016aa44 f   kernel32:KERNEL32.dll
 0001:00169a4a       EnterCriticalSection       000000018016aa4a f   kernel32:KERNEL32.dll
 0001:00169a50       WaitForSingleObject        000000018016aa50 f   kernel32:KERNEL32.dll
 0001:00169a56       GetModuleFileNameW         000000018016aa56 f   kernel32:KERNEL32.dll
 0001:00169a5c       GetCurrentThreadId         000000018016aa5c f   kernel32:KERNEL32.dll
 0001:00169a62       FlsSetValue                000000018016aa62 f   kernel32:KERNEL32.dll
 0001:00169a68       GetCommandLineA            000000018016aa68 f   kernel32:KERNEL32.dll
 0001:00169a6e       GetLastError               000000018016aa6e f   kernel32:KERNEL32.dll
 0001:00169a74       CreateThread               000000018016aa74 f   kernel32:KERNEL32.dll
 0001:00169a7a       ExitThread                 000000018016aa7a f   kernel32:KERNEL32.dll
 0001:00169a80       RtlUnwindEx                000000018016aa80 f   kernel32:KERNEL32.dll
 0001:00169a86       FatalAppExitA              000000018016aa86 f   kernel32:KERNEL32.dll
 0001:00169a8c       HeapSize                   000000018016aa8c f   kernel32:KERNEL32.dll
 0001:00169a92       HeapValidate               000000018016aa92 f   kernel32:KERNEL32.dll
 0001:00169a98       IsBadReadPtr               000000018016aa98 f   kernel32:KERNEL32.dll
 0001:00169a9e       DebugBreak                 000000018016aa9e f   kernel32:KERNEL32.dll
 0001:00169aa4       GetStdHandle               000000018016aaa4 f   kernel32:KERNEL32.dll
 0001:00169aaa       WriteFile                  000000018016aaaa f   kernel32:KERNEL32.dll
 0001:00169ab0       WriteConsoleW              000000018016aab0 f   kernel32:KERNEL32.dll
 0001:00169ab6       GetFileType                000000018016aab6 f   kernel32:KERNEL32.dll
 0001:00169abc       OutputDebugStringW         000000018016aabc f   kernel32:KERNEL32.dll
 0001:00169ac2       TerminateProcess           000000018016aac2 f   kernel32:KERNEL32.dll
 0001:00169ac8       GetCurrentProcess          000000018016aac8 f   kernel32:KERNEL32.dll
 0001:00169ace       UnhandledExceptionFilter   000000018016aace f   kernel32:KERNEL32.dll
 0001:00169ad4       SetUnhandledExceptionFilter 000000018016aad4 f   kernel32:KERNEL32.dll
 0001:00169ada       IsDebuggerPresent          000000018016aada f   kernel32:KERNEL32.dll
 0001:00169ae0       RtlVirtualUnwind           000000018016aae0 f   kernel32:KERNEL32.dll
 0001:00169ae6       RtlLookupFunctionEntry     000000018016aae6 f   kernel32:KERNEL32.dll
 0001:00169aec       RtlCaptureContext          000000018016aaec f   kernel32:KERNEL32.dll
 0001:00169af2       GetModuleHandleW           000000018016aaf2 f   kernel32:KERNEL32.dll
 0001:00169af8       GetProcAddress             000000018016aaf8 f   kernel32:KERNEL32.dll
 0001:00169afe       ExitProcess                000000018016aafe f   kernel32:KERNEL32.dll
 0001:00169b04       SetConsoleCtrlHandler      000000018016ab04 f   kernel32:KERNEL32.dll
 0001:00169b0a       LoadLibraryW               000000018016ab0a f   kernel32:KERNEL32.dll
 0001:00169b10       RaiseException             000000018016ab10 f   kernel32:KERNEL32.dll
 0001:00169b16       EncodePointer              000000018016ab16 f   kernel32:KERNEL32.dll
 0001:00169b1c       DecodePointer              000000018016ab1c f   kernel32:KERNEL32.dll
 0001:00169b22       TlsAlloc                   000000018016ab22 f   kernel32:KERNEL32.dll
 0001:00169b28       FlsGetValue                000000018016ab28 f   kernel32:KERNEL32.dll
 0001:00169b2e       FlsAlloc                   000000018016ab2e f   kernel32:KERNEL32.dll
 0001:00169b34       FlsFree                    000000018016ab34 f   kernel32:KERNEL32.dll
 0001:00169b3a       SetLastError               000000018016ab3a f   kernel32:KERNEL32.dll
 0001:00169b40       GetCurrentThread           000000018016ab40 f   kernel32:KERNEL32.dll
 0001:00169b46       SetHandleCount             000000018016ab46 f   kernel32:KERNEL32.dll
 0001:00169b4c       GetStartupInfoA            000000018016ab4c f   kernel32:KERNEL32.dll
 0001:00169b52       GetModuleFileNameA         000000018016ab52 f   kernel32:KERNEL32.dll
 0001:00169b58       FreeEnvironmentStringsA    000000018016ab58 f   kernel32:KERNEL32.dll
 0001:00169b5e       GetEnvironmentStrings      000000018016ab5e f   kernel32:KERNEL32.dll
 0001:00169b64       FreeEnvironmentStringsW    000000018016ab64 f   kernel32:KERNEL32.dll
 0001:00169b6a       WideCharToMultiByte        000000018016ab6a f   kernel32:KERNEL32.dll
 0001:00169b70       GetEnvironmentStringsW     000000018016ab70 f   kernel32:KERNEL32.dll
 0001:00169b76       HeapSetInformation         000000018016ab76 f   kernel32:KERNEL32.dll
 0001:00169b7c       HeapCreate                 000000018016ab7c f   kernel32:KERNEL32.dll
 0001:00169b82       HeapDestroy                000000018016ab82 f   kernel32:KERNEL32.dll
 0001:00169b88       QueryPerformanceCounter    000000018016ab88 f   kernel32:KERNEL32.dll
 0001:00169b8e       GetTickCount               000000018016ab8e f   kernel32:KERNEL32.dll
 0001:00169b94       GetCurrentProcessId        000000018016ab94 f   kernel32:KERNEL32.dll
 0001:00169b9a       GetSystemTimeAsFileTime    000000018016ab9a f   kernel32:KERNEL32.dll
 0001:00169ba0       GetACP                     000000018016aba0 f   kernel32:KERNEL32.dll
 0001:00169ba6       GetOEMCP                   000000018016aba6 f   kernel32:KERNEL32.dll
 0001:00169bac       GetCPInfo                  000000018016abac f   kernel32:KERNEL32.dll
 0001:00169bb2       IsValidCodePage            000000018016abb2 f   kernel32:KERNEL32.dll
 0001:00169bb8       InitializeCriticalSectionAndSpinCount 000000018016abb8 f   kernel32:KERNEL32.dll
 0001:00169bbe       HeapAlloc                  000000018016abbe f   kernel32:KERNEL32.dll
 0001:00169bc4       HeapReAlloc                000000018016abc4 f   kernel32:KERNEL32.dll
 0001:00169bca       HeapQueryInformation       000000018016abca f   kernel32:KERNEL32.dll
 0001:00169bd0       HeapFree                   000000018016abd0 f   kernel32:KERNEL32.dll
 0001:00169bd6       MultiByteToWideChar        000000018016abd6 f   kernel32:KERNEL32.dll
 0001:00169bdc       FreeLibrary                000000018016abdc f   kernel32:KERNEL32.dll
 0001:00169be2       LoadLibraryA               000000018016abe2 f   kernel32:KERNEL32.dll
 0001:00169be8       SetFilePointer             000000018016abe8 f   kernel32:KERNEL32.dll
 0001:00169bee       GetConsoleCP               000000018016abee f   kernel32:KERNEL32.dll
 0001:00169bf4       GetConsoleMode             000000018016abf4 f   kernel32:KERNEL32.dll
 0001:00169bfa       GetLocaleInfoW             000000018016abfa f   kernel32:KERNEL32.dll
 0001:00169c00       GetLocaleInfoA             000000018016ac00 f   kernel32:KERNEL32.dll
 0001:00169c06       LCMapStringA               000000018016ac06 f   kernel32:KERNEL32.dll
 0001:00169c0c       LCMapStringW               000000018016ac0c f   kernel32:KERNEL32.dll
 0001:00169c12       GetStringTypeA             000000018016ac12 f   kernel32:KERNEL32.dll
 0001:00169c18       GetStringTypeW             000000018016ac18 f   kernel32:KERNEL32.dll
 0001:00169c1e       GetTimeFormatA             000000018016ac1e f   kernel32:KERNEL32.dll
 0001:00169c24       GetDateFormatA             000000018016ac24 f   kernel32:KERNEL32.dll
 0001:00169c2a       IsValidLocale              000000018016ac2a f   kernel32:KERNEL32.dll
 0001:00169c30       EnumSystemLocalesA         000000018016ac30 f   kernel32:KERNEL32.dll
 0001:00169c36       GetUserDefaultLCID         000000018016ac36 f   kernel32:KERNEL32.dll
 0001:00169c3c       SetStdHandle               000000018016ac3c f   kernel32:KERNEL32.dll
 0001:00169c42       WriteConsoleA              000000018016ac42 f   kernel32:KERNEL32.dll
 0001:00169c48       GetConsoleOutputCP         000000018016ac48 f   kernel32:KERNEL32.dll
 0001:00169c4e       lstrlenA                   000000018016ac4e f   kernel32:KERNEL32.dll
 0001:00169c54       RtlPcToFileHeader          000000018016ac54 f   kernel32:KERNEL32.dll
 0001:00169c5a       GetTimeZoneInformation     000000018016ac5a f   kernel32:KERNEL32.dll
 0001:00169c60       CreateFileA                000000018016ac60 f   kernel32:KERNEL32.dll
 0001:00169c66       GetProcessHeap             000000018016ac66 f   kernel32:KERNEL32.dll
 0001:00169c6c       VirtualQuery               000000018016ac6c f   kernel32:KERNEL32.dll
 0001:00169c72       FlushFileBuffers           000000018016ac72 f   kernel32:KERNEL32.dll
 0001:00169c78       CompareStringA             000000018016ac78 f   kernel32:KERNEL32.dll
 0001:00169c7e       CompareStringW             000000018016ac7e f   kernel32:KERNEL32.dll
 0001:00169c84       SetEnvironmentVariableA    000000018016ac84 f   kernel32:KERNEL32.dll
 0001:001bfef0       _frnd                      00000001801c0ef0 f   LIBCMTD:_fpsr_.obj
 0001:001c0f30       _alloca_probe              00000001801c1f30     LIBCMTD:chkstk.obj
 0001:001c0f30       __chkstk                   00000001801c1f30 f   LIBCMTD:chkstk.obj
 0001:001c0f90       _get_fpsr                  00000001801c1f90 f   LIBCMTD:_fpsr_.obj
 0001:001c0fb0       _CallSettingFrame          00000001801c1fb0 f   LIBCMTD:handlers.obj
 0002:00000000       __xc_a                     00000001801c8000     LIBCMTD:crt0init.obj
 0002:000002e0       __xc_z                     00000001801c82e0     LIBCMTD:crt0init.obj
 0002:000003f0       __xi_a                     00000001801c83f0     LIBCMTD:crt0init.obj
 0002:00000620       __xi_z                     00000001801c8620     LIBCMTD:crt0init.obj
 0002:00000730       __xp_a                     00000001801c8730     LIBCMTD:crt0init.obj
 0002:00000a68       __xp_z                     00000001801c8a68     LIBCMTD:crt0init.obj
 0002:00000b78       __xt_a                     00000001801c8b78     LIBCMTD:crt0init.obj
 0002:00000c88       __xt_z                     00000001801c8c88     LIBCMTD:crt0init.obj
 0002:00001fe0       __real@4059000000000000    00000001801c9fe0     Newton.obj
 0002:00001ff0       __real@c059000000000000    00000001801c9ff0     Newton.obj
 0002:00002000       __real@3ff0000000000000    00000001801ca000     Newton.obj
 0002:00002010       __real@3ddb7cdfe0000000    00000001801ca010     Newton.obj
 0002:00002020       __real@3f50624de0000000    00000001801ca020     Newton.obj
 0002:00002030       __real@3f91111120000000    00000001801ca030     Newton.obj
 0002:00002040       __real@404dffffe5c00017    00000001801ca040     Newton.obj
 0002:00002050       __real@408f3fffe7190014    00000001801ca050     Newton.obj
 0002:00002060       __real@3fc0000000000000    00000001801ca060     Newton.obj
 0002:00002070       __real@4000000000000000    00000001801ca070     Newton.obj
 0002:00002080       __real@3f847ae140000000    00000001801ca080     Newton.obj
 0002:00002090       __mask@@NegDouble@         00000001801ca090     Newton.obj
 0002:000020a8       __real@3fe6666660000000    00000001801ca0a8     Newton.obj
 0002:000020b8       __real@bff0000000000000    00000001801ca0b8     Newton.obj
 0002:000020c8       __real@3eb0c6f7a0000000    00000001801ca0c8     Newton.obj
 0002:000020d8       __real@3ee4f8b580000000    00000001801ca0d8     Newton.obj
 0002:000020f0       ??_C@_1FG@DPADFPDA@?$AAc?$AA?3?$AA?2?$AAn?$AAe?$AAw?$AAt?$AAo?$AAn?$AA_?$AA2?$AA0?$AA0?$AA?2?$AA3?$AAd?$AAl?$AAi?$AAb?$AA?2?$AAs?$AAd?$AAk?$AA?2?$AAc?$AAo?$AAr?$AAe?$AAl?$AAi?$AAb?$AA?2@ 00000001801ca0f0     Newton.obj
 0002:00002158       ??_C@_1DA@JDEKGPJE@?$AAd?$AAg?$AAC?$AAh?$AAe?$AAc?$AAk?$AAV?$AAe?$AAc?$AAt?$AAo?$AAr?$AA?5?$AA?$CI?$AA?$CI?$AA?$CK?$AAt?$AAh?$AAi?$AAs?$AA?$CJ?$AA?$CJ?$AA?$AA@ 00000001801ca158     Newton.obj
 0002:00002198       __real@0000000000000000    00000001801ca198     Newton.obj
 0002:000021b0       ??_C@_1JK@PNNLFPPH@?$AA?$CI?$AAd?$AAg?$AAA?$AAb?$AAs?$AAf?$AA?5?$AA?$CI?$AAm?$AA_?$AAr?$AAi?$AAg?$AAh?$AAt?$AA?5?$AA?$CF?$AA?5?$AA?$CI?$AAm?$AA_?$AAf?$AAr?$AAo?$AAn?$AAt?$AA?5?$AA?$CK?$AA?5?$AAm?$AA_@ 00000001801ca1b0     Newton.obj
 0002:00002270       ??_C@_1II@JNGBILOA@?$AA?$CI?$AAd?$AAg?$AAA?$AAb?$AAs?$AAf?$AA?5?$AA?$CI?$AAm?$AA_?$AAr?$AAi?$AAg?$AAh?$AAt?$AA?5?$AA?$CF?$AA?5?$AAm?$AA_?$AAr?$AAi?$AAg?$AAh?$AAt?$AA?$CJ?$AA?5?$AA?9?$AA?5?$AAd?$AAg@ 00000001801ca270     Newton.obj
 0002:00002320       ??_C@_1HM@GJAKGBDD@?$AA?$CI?$AAd?$AAg?$AAA?$AAb?$AAs?$AAf?$AA?5?$AA?$CI?$AAm?$AA_?$AAu?$AAp?$AA?5?$AA?$CF?$AA?5?$AAm?$AA_?$AAu?$AAp?$AA?$CJ?$AA?5?$AA?9?$AA?5?$AAd?$AAg?$AAF?$AAl?$AAo?$AAa?$AAt?$AA3@ 00000001801ca320     Newton.obj
 0002:000023c0       ??_C@_1FG@EINKGDAC@?$AAc?$AA?3?$AA?2?$AAn?$AAe?$AAw?$AAt?$AAo?$AAn?$AA_?$AA2?$AA0?$AA0?$AA?2?$AA3?$AAd?$AAl?$AAi?$AAb?$AA?2?$AAs?$AAd?$AAk?$AA?2?$AAc?$AAo?$AAr?$AAe?$AAl?$AAi?$AAb?$AA?2@ 00000001801ca3c0     Newton.obj
 0002:00002430       ??_C@_1II@FFGMHNGG@?$AA?$CI?$AAd?$AAg?$AAA?$AAb?$AAs?$AAf?$AA?5?$AA?$CI?$AAm?$AA_?$AAf?$AAr?$AAo?$AAn?$AAt?$AA?5?$AA?$CF?$AA?5?$AAm?$AA_?$AAf?$AAr?$AAo?$AAn?$AAt?$AA?$CJ?$AA?5?$AA?9?$AA?5?$AAd?$AAg@ 00000001801ca430     Newton.obj
 0002:000024d8       __real@3fe276c8c0000000    00000001801ca4d8     Newton.obj
 0002:000024e8       ??_C@_1O@ILILCEBJ@?$AAi?$AA?5?$AA?$DO?$AA?$DN?$AA?5?$AA0?$AA?$AA@ 00000001801ca4e8     Newton.obj
 0002:000024f8       ??_C@_1M@NEALEACL@?$AAi?$AA?5?$AA?$DM?$AA?5?$AA4?$AA?$AA@ 00000001801ca4f8     Newton.obj
 0002:00002508       __real@431550f7d8000000    00000001801ca508     Newton.obj
 0002:00002518       __real@42fc6bf520000000    00000001801ca518     Newton.obj
 0002:00002528       __real@3e45798ee0000000    00000001801ca528     Newton.obj
 0002:00002538       __real@3f91df45b05b05b0    00000001801ca538     Newton.obj
 0002:00002548       __real@3feff7cee0000000    00000001801ca548     Newton.obj
 0002:00002558       __real@3f947ae140000000    00000001801ca558     Newton.obj
 0002:00002568       __real@3f1a36e2e0000000    00000001801ca568     Newton.obj
 0002:00002580       ??_C@_1FM@OAIKGLAI@?$AAc?$AA?3?$AA?2?$AAn?$AAe?$AAw?$AAt?$AAo?$AAn?$AA_?$AA2?$AA0?$AA0?$AA?2?$AA3?$AAd?$AAl?$AAi?$AAb?$AA?2?$AAs?$AAd?$AAk?$AA?2?$AAc?$AAo?$AAr?$AAe?$AAl?$AAi?$AAb?$AA?2@ 00000001801ca580     Newton.obj
 0002:000025f0       ??_C@_1DA@PEKPEHMI@?$AAm?$AA_?$AAe?$AAd?$AAg?$AAe?$AAM?$AAa?$AAr?$AAk?$AA?5?$AA?$DM?$AA?5?$AA0?$AAx?$AA7?$AAf?$AAf?$AAf?$AAf?$AAf?$AAf?$AAf?$AA?$AA@ 00000001801ca5f0     Newton.obj
 0002:00002630       ??_C@_1FC@CDAHNMJI@?$AAc?$AA?3?$AA?2?$AAn?$AAe?$AAw?$AAt?$AAo?$AAn?$AA_?$AA2?$AA0?$AA0?$AA?2?$AA3?$AAd?$AAl?$AAi?$AAb?$AA?2?$AAs?$AAd?$AAk?$AA?2?$AAc?$AAo?$AAr?$AAe?$AAl?$AAi?$AAb?$AA?2@ 00000001801ca630     Newton.obj
 0002:000026a0       ??_C@_1EK@IMIPNHCJ@?$AA?$CI?$AAd?$AAg?$AAU?$AAn?$AAs?$AAi?$AAg?$AAn?$AAe?$AAd?$AA6?$AA4?$AA?5?$AA?$CI?$AA?$CG?$AAm?$AA_?$AAi?$AAn?$AAf?$AAo?$AA?$CJ?$AA?5?$AA?$CG?$AA?5?$AA0?$AAx?$AA0?$AAf?$AA?$CJ?$AA?5@ 00000001801ca6a0     Newton.obj
 0002:000036a0       ??_7NewtonUserJoint@@6B@   00000001801cb6a0     NewtonClass.obj
 0002:00003718       __real@430c6bf520000000    00000001801cb718     NewtonClass.obj
 0002:00003728       __real@c30c6bf520000000    00000001801cb728     NewtonClass.obj
 0002:00003738       __real@bf50624de0000000    00000001801cb738     NewtonClass.obj
 0002:00003748       __real@4058c00000000000    00000001801cb748     NewtonClass.obj
 0002:00003758       ??_C@_1M@IHBNDPOD@?$AAm?$AA_?$AAp?$AAt?$AAr?$AA?$AA@ 00000001801cb758     NewtonClass.obj
 0002:00003770       ??_C@_1HA@CCBMCHMB@?$AAc?$AA?3?$AA?2?$AAn?$AAe?$AAw?$AAt?$AAo?$AAn?$AA_?$AA2?$AA0?$AA0?$AA?2?$AA3?$AAd?$AAl?$AAi?$AAb?$AA?2?$AAs?$AAd?$AAk?$AA?2?$AAp?$AAh?$AAy?$AAs?$AAi?$AAc?$AAs?$AA?2@ 00000001801cb770     NewtonClass.obj
 0002:000037f8       ??_C@_13COJANIEC@?$AA0?$AA?$AA@ 00000001801cb7f8     NewtonClass.obj
 0002:00003800       ??_C@_0P@GHFPNOJB@bad?5allocation?$AA@ 00000001801cb800     physics:dgWorld.obj
 0002:00003818       __real@3fb99999a0000000    00000001801cb818     physics:dgWorld.obj
 0002:00003820       __real@3ff6666660000000    00000001801cb820     physics:dgWorld.obj
 0002:00003828       __real@3ff8000000000000    00000001801cb828     physics:dgWorld.obj
 0002:00003830       __real@3f50624ddf3b645d    00000001801cb830     physics:dgWorld.obj
 0002:00003838       __real@3f847ae151eb8520    00000001801cb838     physics:dgWorld.obj
 0002:00003840       __real@3fd0000000000000    00000001801cb840     physics:dgWorld.obj
 0002:00003850       ??_7dgCollisionPoint@@6B@  00000001801cb850     physics:dgWorld.obj
 0002:00003948       __real@4202a05f20000000    00000001801cb948     physics:dgWorld.obj
 0002:00003950       ??_C@_04IABPNMKE@simd?$AA@ 00000001801cb950     physics:dgWorld.obj
 0002:00003958       ??_C@_03MKEPLMIM@x87?$AA@  00000001801cb958     physics:dgWorld.obj
 0002:00003960       ??_C@_1EK@JJJDNOME@?$AAd?$AAg?$AAB?$AAo?$AAd?$AAy?$AAC?$AAo?$AAl?$AAl?$AAi?$AAs?$AAi?$AAo?$AAn?$AAL?$AAi?$AAs?$AAt?$AA?3?$AA?3?$AAG?$AAe?$AAt?$AAC?$AAo?$AAu?$AAn?$AAt?$AA?$CI?$AA?$CJ?$AA?5@ 00000001801cb960     physics:dgWorld.obj
 0002:000039b0       ??_C@_1FC@BAACEGC@?$AAm?$AAe?$AA?4?$AAG?$AAe?$AAt?$AAF?$AAi?$AAr?$AAs?$AAt?$AA?$CI?$AA?$CJ?$AA?9?$AA?$DO?$AAG?$AAe?$AAt?$AAI?$AAn?$AAf?$AAo?$AA?$CI?$AA?$CJ?$AA?4?$AAG?$AAe?$AAt?$AAC?$AAo?$AAu?$AAn@ 00000001801cb9b0     physics:dgWorld.obj
 0002:00003a10       ??_C@_1EC@DHKPNDAL@?$AA?4?$AA?4?$AA?2?$AA?4?$AA?4?$AA?2?$AA?4?$AA?4?$AA?2?$AAs?$AAd?$AAk?$AA?2?$AAp?$AAh?$AAy?$AAs?$AAi?$AAc?$AAs?$AA?2?$AAd?$AAg?$AAW?$AAo?$AAr?$AAl?$AAd?$AA?4?$AAc?$AAp?$AAp@ 00000001801cba10     physics:dgWorld.obj
 0002:00003a60       ??_C@_1IK@FBKAMGPG@?$AAd?$AAg?$AAB?$AAo?$AAd?$AAy?$AAM?$AAa?$AAs?$AAt?$AAe?$AAr?$AAL?$AAi?$AAs?$AAt?$AA?3?$AA?3?$AAG?$AAe?$AAt?$AAF?$AAi?$AAr?$AAs?$AAt?$AA?$CI?$AA?$CJ?$AA?9?$AA?$DO?$AAG?$AAe@ 00000001801cba60     physics:dgWorld.obj
 0002:00003af0       __real@431c6bf520000000    00000001801cbaf0     physics:dgWorld.obj
 0002:00003af8       __real@3fbac08320000000    00000001801cbaf8     physics:dgWorld.obj
 0002:00003b00       ??_C@_1EC@ICCOIKME@?$AA?$CI?$AAd?$AAg?$AAU?$AAn?$AAs?$AAi?$AAg?$AAn?$AAe?$AAd?$AA6?$AA4?$AA?5?$AA?$CI?$AAb?$AAo?$AAd?$AAy?$AA?$CJ?$AA?5?$AA?$CG?$AA?5?$AA0?$AAx?$AAf?$AA?$CJ?$AA?5?$AA?$DN?$AA?$DN?$AA?5?$AA0@ 00000001801cbb00     physics:dgWorld.obj
 0002:00003b48       ??_C@_1BE@BMACBLPL@?$AAc?$AAo?$AAl?$AAl?$AAi?$AAs?$AAi?$AAo?$AAn?$AA?$AA@ 00000001801cbb48     physics:dgWorld.obj
 0002:00003b60       ??_C@_1CE@OCAGGPEK@?$AAb?$AAo?$AAd?$AAy?$AA?9?$AA?$DO?$AAm?$AA_?$AAc?$AAo?$AAl?$AAl?$AAi?$AAs?$AAi?$AAo?$AAn?$AA?$AA@ 00000001801cbb60     physics:dgWorld.obj
 0002:00003b88       ??_C@_1CM@OCIJBPJL@?$AAm?$AA_?$AAn?$AAu?$AAm?$AAb?$AAe?$AAr?$AAO?$AAf?$AAT?$AAh?$AAe?$AAa?$AAd?$AAs?$AA?5?$AA?$DO?$AA?$DN?$AA?5?$AA1?$AA?$AA@ 00000001801cbb88     physics:dgWorld.obj
 0002:00003bb8       ??_C@_1CA@FKFNLNJ@?$AAm?$AA_?$AAi?$AAn?$AAU?$AAp?$AAd?$AAa?$AAt?$AAe?$AA?5?$AA?$DN?$AA?$DN?$AA?5?$AA0?$AA?$AA@ 00000001801cbbb8     physics:dgWorld.obj
 0002:00003bd8       ??_C@_1BO@NBLPCMLH@?$AAb?$AAo?$AAd?$AAy?$AA0?$AA?5?$AA?$CB?$AA?$DN?$AA?5?$AAb?$AAo?$AAd?$AAy?$AA1?$AA?$AA@ 00000001801cbbd8     physics:dgWorld.obj
 0002:00003bf8       ??_C@_1M@OIAIJOBD@?$AAb?$AAo?$AAd?$AAy?$AA0?$AA?$AA@ 00000001801cbbf8     physics:dgWorld.obj
 0002:00003c08       ??_C@_19EFPOFDIJ@?$AAb?$AAo?$AAd?$AAy?$AA?$AA@ 00000001801cbc08     physics:dgWorld.obj
 0002:00003c18       ??_C@_1DE@PINLMFAK@?$AAi?$AAn?$AAd?$AAe?$AAx?$AA?5?$AA?$DM?$AA?5?$AAD?$AAG?$AA_?$AAR?$AAE?$AAC?$AAU?$AAR?$AAS?$AAI?$AAV?$AAE?$AA_?$AAS?$AAI?$AAZ?$AAE?$AA?$AA@ 00000001801cbc18     physics:dgWorld.obj
 0002:00003c50       ??_C@_1DA@MHEAPLEG@?$AAb?$AAo?$AAd?$AAy?$AA?5?$AA?$CB?$AA?$DN?$AA?5?$AAm?$AA_?$AAs?$AAe?$AAn?$AAt?$AAi?$AAo?$AAn?$AAe?$AAl?$AAB?$AAo?$AAd?$AAy?$AA?$AA@ 00000001801cbc50     physics:dgWorld.obj
 0002:00003c80       ??_7dgWorkerThread@@6B@    00000001801cbc80     physics:dgWorld.obj
 0002:00003c90       ??_C@_1FC@JBMHHHCK@?$AAc?$AA?3?$AA?2?$AAn?$AAe?$AAw?$AAt?$AAo?$AAn?$AA_?$AA2?$AA0?$AA0?$AA?2?$AA3?$AAd?$AAl?$AAi?$AAb?$AA?2?$AAs?$AAd?$AAk?$AA?2?$AAc?$AAo?$AAr?$AAe?$AAl?$AAi?$AAb?$AA?2@ 00000001801cbc90     physics:dgWorld.obj
 0002:00003ce8       ??_C@_1BK@LKMNECAF@?$AAm?$AA_?$AAc?$AAo?$AAu?$AAn?$AAt?$AA?5?$AA?$DN?$AA?$DN?$AA?5?$AA0?$AA?$AA@ 00000001801cbce8     physics:dgWorld.obj
 0002:00003d10       ??_C@_1FO@HJAMEBAD@?$AA?4?$AA?4?$AA?2?$AA?4?$AA?4?$AA?2?$AA?4?$AA?4?$AA?2?$AAs?$AAd?$AAk?$AA?2?$AAp?$AAh?$AAy?$AAs?$AAi?$AAc?$AAs?$AA?2?$AAd?$AAg?$AAB?$AAr?$AAo?$AAa?$AAd?$AAP?$AAh?$AAa?$AAs@ 00000001801cbd10     physics:dgBroadPhaseCollision.obj
 0002:00003d70       ??_C@_1CA@GLNLFIMP@?$AAG?$AAe?$AAt?$AAC?$AAo?$AAu?$AAn?$AAt?$AA?$CI?$AA?$CJ?$AA?5?$AA?$DN?$AA?$DN?$AA?5?$AA0?$AA?$AA@ 00000001801cbd70     physics:dgBroadPhaseCollision.obj
 0002:00003d90       ??_C@_19EFANFLCA@?$AAn?$AAo?$AAd?$AAe?$AA?$AA@ 00000001801cbd90     physics:dgBroadPhaseCollision.obj
 0002:00003da0       ??_C@_1EA@PHHFFPM@?$AAl?$AAi?$AAn?$AAe?$AA?4?$AAm?$AA_?$AAb?$AAo?$AAx?$AAL?$AA0?$AA?$FL?$AAm?$AA_?$AAi?$AAn?$AAd?$AAe?$AAx?$AA?$FN?$AA?5?$AA?$DM?$AA?$DN?$AA?5?$AAm?$AAa?$AAx?$AAV?$AAa?$AAl?$AA?$AA@ 00000001801cbda0     physics:dgBroadPhaseCollision.obj
 0002:00003de0       ??_C@_1DM@NDMBHPPP@?$AA?$CB?$AAb?$AAo?$AAd?$AAy?$AA?9?$AA?$DO?$AAm?$AA_?$AAc?$AAo?$AAl?$AAl?$AAi?$AAs?$AAi?$AAo?$AAn?$AAC?$AAe?$AAl?$AAl?$AA?4?$AAm?$AA_?$AAc?$AAe?$AAl?$AAl?$AA?$AA@ 00000001801cbde0     physics:dgBroadPhaseCollision.obj
 0002:00003e20       ??_C@_1DK@ONJJLKBC@?$AAb?$AAo?$AAd?$AAy?$AA?9?$AA?$DO?$AAm?$AA_?$AAc?$AAo?$AAl?$AAl?$AAi?$AAs?$AAi?$AAo?$AAn?$AAC?$AAe?$AAl?$AAl?$AA?4?$AAm?$AA_?$AAc?$AAe?$AAl?$AAl?$AA?$AA@ 00000001801cbe20     physics:dgBroadPhaseCollision.obj
 0002:00003e60       ??_C@_1BK@FBPKPJAG@?$AAm?$AA_?$AAc?$AAo?$AAu?$AAn?$AAt?$AA?5?$AA?$DO?$AA?$DN?$AA?5?$AA0?$AA?$AA@ 00000001801cbe60     physics:dgBroadPhaseCollision.obj
 0002:00003e80       ??_C@_1BI@PKPDJDDM@?$AA?$CB?$AAG?$AAe?$AAt?$AAC?$AAo?$AAu?$AAn?$AAt?$AA?$CI?$AA?$CJ?$AA?$AA@ 00000001801cbe80     physics:dgBroadPhaseCollision.obj
 0002:00003e98       __real@408f400000000000    00000001801cbe98     physics:dgBroadPhaseCollision.obj
 0002:00003ea0       __real@c08f400000000000    00000001801cbea0     physics:dgBroadPhaseCollision.obj
 0002:00003ea8       ??_7dgBroadPhaseApplyExternalForce@@6B@ 00000001801cbea8     physics:dgBroadPhaseCollision.obj
 0002:00003eb8       ??_7dgBroadPhaseCellPairsWorkerThread@@6B@ 00000001801cbeb8     physics:dgBroadPhaseCollision.obj
 0002:00003ec8       ??_7dgBroadPhaseMaterialCallbackWorkerThread@@6B@ 00000001801cbec8     physics:dgBroadPhaseCollision.obj
 0002:00003ed8       ??_7dgBroadPhaseCalculateContactsWorkerThread@@6B@ 00000001801cbed8     physics:dgBroadPhaseCollision.obj
 0002:00003ee8       ??_C@_1DM@PJPFHIBL@?$AAm?$AA_?$AAl?$AAa?$AAy?$AAe?$AAr?$AAM?$AAa?$AAp?$AA?$FL?$AAi?$AA?$FN?$AA?4?$AAG?$AAe?$AAt?$AAC?$AAo?$AAu?$AAn?$AAt?$AA?$CI?$AA?$CJ?$AA?5?$AA?$DN?$AA?$DN?$AA?5?$AA0?$AA?$AA@ 00000001801cbee8     physics:dgBroadPhaseCollision.obj
 0002:00003f28       __real@3fe0000000000000    00000001801cbf28     physics:dgBroadPhaseCollision.obj
 0002:00003f30       __real@4060000000000000    00000001801cbf30     physics:dgBroadPhaseCollision.obj
 0002:00003f38       __real@3f90000000000000    00000001801cbf38     physics:dgBroadPhaseCollision.obj
 0002:00003f40       __real@3ff3333340000000    00000001801cbf40     physics:dgBroadPhaseCollision.obj
 0002:00003f48       ??_C@_1CM@IIKMBBJF@?$AAi?$AAn?$AAd?$AAe?$AAx?$AA?5?$AA?$DN?$AA?$DN?$AA?5?$AAc?$AAo?$AAn?$AAt?$AAa?$AAc?$AAt?$AAC?$AAo?$AAu?$AAn?$AAt?$AA?$AA@ 00000001801cbf48     physics:dgBroadPhaseCollision.obj
 0002:00003f80       ??_C@_1EM@OLIAFOJM@?$AAb?$AAo?$AAd?$AAy?$AA?9?$AA?$DO?$AAm?$AA_?$AAi?$AAn?$AAv?$AAM?$AAa?$AAs?$AAs?$AA?4?$AAm?$AA_?$AAw?$AA?5?$AA?$DO?$AA?5?$AAd?$AAg?$AAF?$AAl?$AAo?$AAa?$AAt?$AA3?$AA2?$AA?$CI@ 00000001801cbf80     physics:dgBroadPhaseCollision.obj
 0002:00003fd0       ??_C@_1BJK@BJNAOAON@?$AAb?$AAo?$AAd?$AAy?$AA?9?$AA?$DO?$AAm?$AA_?$AAc?$AAo?$AAl?$AAl?$AAi?$AAs?$AAi?$AAo?$AAn?$AA?9?$AA?$DO?$AAI?$AAs?$AAT?$AAy?$AAp?$AAe?$AA?$CI?$AAd?$AAg?$AAC?$AAo?$AAl?$AAl@ 00000001801cbfd0     physics:dgBroadPhaseCollision.obj
 0002:00004170       __real@3f1a36e2d7731900    00000001801cc170     physics:dgBroadPhaseCollision.obj
 0002:00004178       ??_C@_1DG@MDIEFPOL@?$AAc?$AAo?$AAn?$AAt?$AAa?$AAc?$AAt?$AAI?$AAn?$AAd?$AAe?$AAx?$AA?5?$AA?$DM?$AA?5?$AAc?$AAo?$AAn?$AAt?$AAa?$AAc?$AAt?$AAS?$AAi?$AAz?$AAe?$AA?$AA@ 00000001801cc178     physics:dgBroadPhaseCollision.obj
 0002:000041b0       ??_C@_1GI@GIJIHCPK@?$AAp?$AAa?$AAi?$AAr?$AA?4?$AAm?$AA_?$AAc?$AAo?$AAn?$AAt?$AAa?$AAc?$AAt?$AAC?$AAo?$AAu?$AAn?$AAt?$AA?5?$AA?$DM?$AA?$DN?$AA?5?$AA?$CI?$AAD?$AAG?$AA_?$AAC?$AAO?$AAN?$AAS?$AAT@ 00000001801cc1b0     physics:dgBroadPhaseCollision.obj
 0002:00004218       ??_C@_1CM@KEMNMPHD@?$AAc?$AAe?$AAl?$AAl?$AA?9?$AA?$DO?$AAm?$AA_?$AAl?$AAa?$AAs?$AAt?$AAS?$AAo?$AAr?$AAt?$AAA?$AAr?$AAr?$AAa?$AAy?$AA?$AA@ 00000001801cc218     physics:dgBroadPhaseCollision.obj
 0002:00004248       __real@3ff19999a0000000    00000001801cc248     physics:dgBroadPhaseCollision.obj
 0002:00004250       ??_C@_1BK@MKKPHAPO@?$AAc?$AAe?$AAl?$AAl?$AA?4?$AAm?$AA_?$AAc?$AAo?$AAu?$AAn?$AAt?$AA?$AA@ 00000001801cc250     physics:dgBroadPhaseCollision.obj
 0002:00004270       ??_C@_1II@MLILGNIF@?$AAm?$AAa?$AAs?$AAt?$AAe?$AAr?$AAL?$AAi?$AAs?$AAt?$AA?4?$AAG?$AAe?$AAt?$AAF?$AAi?$AAr?$AAs?$AAt?$AA?$CI?$AA?$CJ?$AA?9?$AA?$DO?$AAG?$AAe?$AAt?$AAI?$AAn?$AAf?$AAo?$AA?$CI?$AA?$CJ@ 00000001801cc270     physics:dgBroadPhaseCollision.obj
 0002:000042f8       ??_C@_1BO@IHOIJOM@?$AAS?$AAa?$AAn?$AAi?$AAt?$AAy?$AAC?$AAh?$AAe?$AAc?$AAk?$AA?5?$AA?$CI?$AA?$CJ?$AA?$AA@ 00000001801cc2f8     physics:dgBroadPhaseCollision.obj
