 newton_d

 Timestamp is 4d42f052 (Fri Jan 28 08:35:30 2011)

 Preferred load address is 10000000

 Start         Length     Name                   Class
 0001:00000000 00152455H .text                   CODE
 0001:00152460 00001187H .text$x                 CODE
 0001:001535f0 000016b6H .text$yc                CODE
 0001:00154cb0 00001012H .text$yd                CODE
 0002:00000000 00000104H .CRT$XCA                DATA
 0002:00000104 00000164H .CRT$XCU                DATA
 0002:00000268 00000104H .CRT$XCZ                DATA
 0002:0000036c 00000104H .CRT$XIA                DATA
 0002:00000470 00000118H .CRT$XIC                DATA
 0002:00000588 00000104H .CRT$XIZ                DATA
 0002:0000068c 00000104H .CRT$XPA                DATA
 0002:00000790 00000109H .CRT$XPX                DATA
 0002:0000089c 00000104H .CRT$XPXA               DATA
 0002:000009a0 00000104H .CRT$XPZ                DATA
 0002:00000aa4 00000104H .CRT$XTA                DATA
 0002:00000ba8 00000104H .CRT$XTZ                DATA
 0002:00000cb0 00036613H .rdata                  DATA
 0002:000372c4 00000190H .rdata$debug            DATA
 0002:00037454 0000031eH .rdata$r                DATA
 0002:00037780 00000139H .rdata$sxdata           DATA
 0002:000378bc 00000104H .rtc$IAA                DATA
 0002:000379c0 00000104H .rtc$IZZ                DATA
 0002:00037ac4 00000104H .rtc$TAA                DATA
 0002:00037bc8 00000104H .rtc$TZZ                DATA
 0002:00037cd0 00001073H .xdata$x                DATA
 0002:00038d50 00003d6eH .edata                  DATA
 0003:00000000 0000254cH .data                   DATA
 0003:00002560 00004bc4H .bss                    DATA
 0004:00000000 00000014H .idata$2                DATA
 0004:00000014 00000014H .idata$3                DATA
 0004:00000028 00000228H .idata$4                DATA
 0004:00000250 00000228H .idata$5                DATA
 0004:00000478 00000982H .idata$6                DATA
 0005:00000000 00000169H .rsrc$01                DATA
 0005:00000170 00000580H .rsrc$02                DATA

  Address         Publics by Value              Rva+Base       Lib:Object

 0000:00000000       __except_list              00000000     <absolute>
 0000:0000000c       ___safe_se_handler_count   0000000c     <absolute>
 0000:00000000       ___ImageBase               10000000     <linker-defined>
 0001:00001640       ?TraceFuntionName@@YAXPBD@Z 10002640 f   Newton.obj
 0001:00001660       _DllMain@12                10002660 f   Newton.obj
 0001:00001670       _NewtonGetMemoryUsed       10002670 f   Newton.obj
 0001:00001680       _NewtonSetMemorySystem     10002680 f   Newton.obj
 0001:000016d0       _NewtonCreate              100026d0 f   Newton.obj
 0001:000017e0       _NewtonDestroy             100027e0 f   Newton.obj
 0001:00001880       _NewtonInvalidateCache     10002880 f   Newton.obj
 0001:000018a0       _NewtonSetPlatformArchitecture 100028a0 f   Newton.obj
 0001:000018c0       _NewtonGetPlatformArchitecture 100028c0 f   Newton.obj
 0001:000018e0       _NewtonWorldCriticalSectionLock 100028e0 f   Newton.obj
 0001:00001900       _NewtonWorldCriticalSectionUnlock 10002900 f   Newton.obj
 0001:00001920       _NewtonSetThreadsCount     10002920 f   Newton.obj
 0001:00001940       _NewtonGetThreadsCount     10002940 f   Newton.obj
 0001:00001960       _NewtonGetMaxThreadsCount  10002960 f   Newton.obj
 0001:00001980       _NewtonSetMultiThreadSolverOnSingleIsland 10002980 f   Newton.obj
 0001:000019a0       _NewtonGetMultiThreadSolverOnSingleIsland 100029a0 f   Newton.obj
 0001:000019c0       _NewtonSetSolverModel      100029c0 f   Newton.obj
 0001:000019e0       _NewtonSetFrictionModel    100029e0 f   Newton.obj
 0001:00001a00       _NewtonSetPerformanceClock 10002a00 f   Newton.obj
 0001:00001a20       _NewtonReadPerformanceTicks 10002a20 f   Newton.obj
 0001:00001a40       _NewtonReadThreadPerformanceTicks 10002a40 f   Newton.obj
 0001:00001a60       _NewtonUpdate              10002a60 f   Newton.obj
 0001:00001b30       _NewtonCollisionUpdate     10002b30 f   Newton.obj
 0001:00001b70       _NewtonSetMinimumFrameRate 10002b70 f   Newton.obj
 0001:00001bc0       _NewtonDestroyAllBodies    10002bc0 f   Newton.obj
 0001:00001c30       _NewtonSetWorldSize        10002c30 f   Newton.obj
 0001:00001cd0       _NewtonSetIslandUpdateEvent 10002cd0 f   Newton.obj
 0001:00001cf0       _NewtonSetCollisionDestructor 10002cf0 f   Newton.obj
 0001:00001d10       _NewtonSetDestroyBodyByExeciveForce 10002d10 f   Newton.obj
 0001:00001d30       _NewtonSetBodyLeaveWorldEvent 10002d30 f   Newton.obj
 0001:00001d50       _NewtonWorldGetFirstBody   10002d50 f   Newton.obj
 0001:00001de0       _NewtonWorldGetNextBody    10002de0 f   Newton.obj
 0001:00001e20       _NewtonWorldForEachJointDo 10002e20 f   Newton.obj
 0001:00001f00       _NewtonWorldForEachBodyInAABBDo 10002f00 f   Newton.obj
 0001:00001fb0       _NewtonWorldGetVersion     10002fb0 f   Newton.obj
 0001:00001fc0       _NewtonWorldFloatSize      10002fc0 f   Newton.obj
 0001:00001fd0       _NewtonWorldSetUserData    10002fd0 f   Newton.obj
 0001:00001ff0       _NewtonWorldGetUserData    10002ff0 f   Newton.obj
 0001:00002010       _NewtonWorldSetDestructorCallBack 10003010 f   Newton.obj
 0001:00002030       _NewtonWorldGetDestructorCallBack 10003030 f   Newton.obj
 0001:00002050       _NewtonWorldGetBodyCount   10003050 f   Newton.obj
 0001:00002070       _NewtonWorldGetConstraintCount 10003070 f   Newton.obj
 0001:00002090       _NewtonWorldRayCast        10003090 f   Newton.obj
 0001:00002150       _NewtonWorldConvexCast     10003150 f   Newton.obj
 0001:000021e0       _NewtonIslandGetBody       100031e0 f   Newton.obj
 0001:00002200       _NewtonIslandGetBodyAABB   10003200 f   Newton.obj
 0001:00002240       _NewtonMaterialGetDefaultGroupID 10003240 f   Newton.obj
 0001:00002260       _NewtonMaterialCreateGroupID 10003260 f   Newton.obj
 0001:00002280       _NewtonMaterialDestroyAllGroupID 10003280 f   Newton.obj
 0001:000022a0       _NewtonMaterialSetDefaultCollidable 100032a0 f   Newton.obj
 0001:00002300       _NewtonMaterialSetContinuousCollisionMode 10003300 f   Newton.obj
 0001:00002360       _NewtonMaterialSetSurfaceThickness 10003360 f   Newton.obj
 0001:000023c0       _NewtonMaterialSetDefaultFriction 100033c0 f   Newton.obj
 0001:000024f0       _NewtonMaterialSetDefaultElasticity 100034f0 f   Newton.obj
 0001:00002550       _NewtonMaterialSetDefaultSoftness 10003550 f   Newton.obj
 0001:000025b0       _NewtonMaterialSetCollisionCallback 100035b0 f   Newton.obj
 0001:000025f0       ?NewtonMaterialSetCompondCollisionCallback@@YAXPBUNewtonWorld@@HHP6AHPBUNewtonMaterial@@PBUNewtonBody@@2H@Z@Z 100035f0 f   Newton.obj
 0001:00002620       _NewtonMaterialGetUserData 10003620 f   Newton.obj
 0001:00002650       _NewtonWorldGetFirstMaterial 10003650 f   Newton.obj
 0001:00002670       _NewtonWorldGetNextMaterial 10003670 f   Newton.obj
 0001:00002690       _NewtonMaterialGetMaterialPairUserData 10003690 f   Newton.obj
 0001:000026b0       _NewtonMaterialGetContactFaceAttribute 100036b0 f   Newton.obj
 0001:000026d0       _NewtonMaterialGetContactNormalSpeed 100036d0 f   Newton.obj
 0001:00002810       _NewtonMaterialGetContactTangentSpeed 10003810 f   Newton.obj
 0001:00002990       _NewtonMaterialGetContactPositionAndNormal 10003990 f   Newton.obj
 0001:000029f0       _NewtonMaterialGetContactForce 100039f0 f   Newton.obj
 0001:00002ad0       _NewtonMaterialGetContactTangentDirections 10003ad0 f   Newton.obj
 0001:00002b30       _NewtonMaterialGetBodyCollisionID 10003b30 f   Newton.obj
 0001:00002b70       _NewtonMaterialSetContactSoftness 10003b70 f   Newton.obj
 0001:00002bb0       _NewtonMaterialSetContactElasticity 10003bb0 f   Newton.obj
 0001:00002bf0       _NewtonMaterialSetContactFrictionState 10003bf0 f   Newton.obj
 0001:00002c70       _NewtonMaterialSetContactFrictionCoef 10003c70 f   Newton.obj
 0001:00002d70       _NewtonMaterialSetContactNormalAcceleration 10003d70 f   Newton.obj
 0001:00002da0       _NewtonMaterialSetContactTangentAcceleration 10003da0 f   Newton.obj
 0001:00002e00       _NewtonMaterialSetContactNormalDirection 10003e00 f   Newton.obj
 0001:00002f50       _NewtonMaterialContactRotateTangentDirections 10003f50 f   Newton.obj
 0001:00003080       _NewtonCreateNull          10004080 f   Newton.obj
 0001:000030a0       _NewtonCreateBox           100040a0 f   Newton.obj
 0001:00003130       _NewtonCreateSphere        10004130 f   Newton.obj
 0001:00003260       _NewtonCreateCone          10004260 f   Newton.obj
 0001:000032e0       _NewtonCreateCapsule       100042e0 f   Newton.obj
 0001:00003360       _NewtonCreateCylinder      10004360 f   Newton.obj
 0001:000033e0       _NewtonCreateChamferCylinder 100043e0 f   Newton.obj
 0001:00003460       _NewtonCreateConvexHull    10004460 f   Newton.obj
 0001:00003510       _NewtonCreateConvexHullFromMesh 10004510 f   Newton.obj
 0001:00003540       _NewtonCreateConvexHullModifier 10004540 f   Newton.obj
 0001:00003570       _NewtonConvexHullModifierGetMatrix 10004570 f   Newton.obj
 0001:000035d0       _NewtonConvexHullModifierSetMatrix 100045d0 f   Newton.obj
 0001:00003600       _NewtonCreateCompoundCollision 10004600 f   Newton.obj
 0001:00003640       _NewtonCreateCompoundCollisionFromMesh 10004640 f   Newton.obj
 0001:00003680       _NewtonCreateCompoundBreakable 10004680 f   Newton.obj
 0001:000036d0       _NewtonCompoundBreakableResetAnchoredPieces 100046d0 f   Newton.obj
 0001:00003700       _NewtonCompoundBreakableSetAnchoredPieces 10004700 f   Newton.obj
 0001:00003740       _NewtonBreakableGetMainMesh 10004740 f   Newton.obj
 0001:00003780       _NewtonBreakableBeginDelete 10004780 f   Newton.obj
 0001:000037c0       _NewtonBreakableCreateDebrieBody 100047c0 f   Newton.obj
 0001:00003810       _NewtonBreakableDeleteComponent 10004810 f   Newton.obj
 0001:00003850       _NewtonBreakableEndDelete  10004850 f   Newton.obj
 0001:00003890       _NewtonBreakableGetFirstComponent 10004890 f   Newton.obj
 0001:000038d0       _NewtonBreakableGetNextComponent 100048d0 f   Newton.obj
 0001:00003900       _NewtonCompoundBreakableGetVertexCount 10004900 f   Newton.obj
 0001:00003940       _NewtonCompoundBreakableGetVertexStreams 10004940 f   Newton.obj
 0001:00003990       _NewtonBreakableGetFirstSegment 10004990 f   Newton.obj
 0001:000039c0       _NewtonBreakableGetNextSegment 100049c0 f   Newton.obj
 0001:000039e0       _NewtonBreakableGetComponentsInRadius 100049e0 f   Newton.obj
 0001:00003a80       _NewtonBreakableSegmentGetMaterial 10004a80 f   Newton.obj
 0001:00003aa0       _NewtonBreakableSegmentGetIndexCount 10004aa0 f   Newton.obj
 0001:00003ac0       _NewtonBreakableSegmentGetIndexStream 10004ac0 f   Newton.obj
 0001:00003b10       _NewtonBreakableSegmentGetIndexStreamShort 10004b10 f   Newton.obj
 0001:00003b60       _NewtonCollisionIsTriggerVolume 10004b60 f   Newton.obj
 0001:00003b90       _NewtonCollisionSetAsTriggerVolume 10004b90 f   Newton.obj
 0001:00003bc0       _NewtonCollisionSetMaxBreakImpactImpulse 10004bc0 f   Newton.obj
 0001:00003bf0       _NewtonCollisionGetMaxBreakImpactImpulse 10004bf0 f   Newton.obj
 0001:00003c10       _NewtonCollisionSetUserID  10004c10 f   Newton.obj
 0001:00003c30       _NewtonCollisionGetUserID  10004c30 f   Newton.obj
 0001:00003c50       _NewtonConvexHullGetFaceIndices 10004c50 f   Newton.obj
 0001:00003c90       _NewtonConvexCollisionCalculateVolume 10004c90 f   Newton.obj
 0001:00003cb0       _NewtonConvexCollisionCalculateInertialMatrix 10004cb0 f   Newton.obj
 0001:00003d70       _NewtonCreateUserMeshCollision 10004d70 f   Newton.obj
 0001:00003e50       _NewtonCreateTreeCollision 10004e50 f   Newton.obj
 0001:00003e80       _NewtonStaticCollisionSetDebugCallback 10004e80 f   Newton.obj
 0001:00003ee0       _NewtonTreeCollisionSetUserRayCastCallback 10004ee0 f   Newton.obj
 0001:00003f10       _NewtonHeightFieldSetUserRayCastCallback 10004f10 f   Newton.obj
 0001:00003f40       _NewtonTreeCollisionBeginBuild 10004f40 f   Newton.obj
 0001:00003f90       _NewtonTreeCollisionAddFace 10004f90 f   Newton.obj
 0001:00003ff0       _NewtonTreeCollisionEndBuild 10004ff0 f   Newton.obj
 0001:00004040       _NewtonTreeCollisionGetFaceAtribute 10005040 f   Newton.obj
 0001:000040a0       _NewtonTreeCollisionSetFaceAtribute 100050a0 f   Newton.obj
 0001:00004100       _NewtonTreeCollisionGetVertexListIndexListInAABB 10005100 f   Newton.obj
 0001:00004210       _NewtonCreateHeightFieldCollision 10005210 f   Newton.obj
 0001:00004260       _NewtonCreateSceneCollision 10005260 f   Newton.obj
 0001:00004290       _NewtonSceneCollisionCreateProxy 10005290 f   Newton.obj
 0001:000042e0       _NewtonSceneCollisionDestroyProxy 100052e0 f   Newton.obj
 0001:00004330       _NewtonSceneProxySetMatrix 10005330 f   Newton.obj
 0001:00004370       _NewtonSceneProxyGetMatrix 10005370 f   Newton.obj
 0001:000043e0       _NewtonSceneCollisionOptimize 100053e0 f   Newton.obj
 0001:00004430       _NewtonCollisionPointDistance 10005430 f   Newton.obj
 0001:00004460       _NewtonCollisionClosestPoint 10005460 f   Newton.obj
 0001:000044a0       _NewtonCollisionCollide    100054a0 f   Newton.obj
 0001:000044e0       _NewtonCollisionCollideContinue 100054e0 f   Newton.obj
 0001:00004540       _NewtonCollisionSupportVertex 10005540 f   Newton.obj
 0001:00004670       _NewtonCollisionRayCast    10005670 f   Newton.obj
 0001:000047e0       _NewtonCollisionCalculateAABB 100057e0 f   Newton.obj
 0001:00004870       _NewtonCollisionForEachPolygonDo 10005870 f   Newton.obj
 0001:000048d0       _NewtonCollisionMakeUnique 100058d0 f   Newton.obj
 0001:00004900       _NewtonAddCollisionReference 10005900 f   Newton.obj
 0001:00004920       _NewtonReleaseCollision    10005920 f   Newton.obj
 0001:00004950       _NewtonCollisionSerialize  10005950 f   Newton.obj
 0001:00004980       _NewtonCreateCollisionFromSerialization 10005980 f   Newton.obj
 0001:000049a0       _NewtonCollisionGetInfo    100059a0 f   Newton.obj
 0001:000049c0       _NewtonGetEulerAngle       100059c0 f   Newton.obj
 0001:00004a10       _NewtonSetEulerAngle       10005a10 f   Newton.obj
 0001:00004b80       _NewtonCalculateSpringDamperAcceleration 10005b80 f   Newton.obj
 0001:00004c00       _NewtonCreateBody          10005c00 f   Newton.obj
 0001:00004c70       _NewtonDestroyBody         10005c70 f   Newton.obj
 0001:00004ca0       _NewtonBodySetUserData     10005ca0 f   Newton.obj
 0001:00004cc0       _NewtonBodyGetUserData     10005cc0 f   Newton.obj
 0001:00004ce0       _NewtonBodyGetWorld        10005ce0 f   Newton.obj
 0001:00004d00       _NewtonBodySetTransformCallback 10005d00 f   Newton.obj
 0001:00004d20       _NewtonBodyGetTransformCallback 10005d20 f   Newton.obj
 0001:00004d40       _NewtonBodySetForceAndTorqueCallback 10005d40 f   Newton.obj
 0001:00004d60       _NewtonBodyGetForceAndTorqueCallback 10005d60 f   Newton.obj
 0001:00004d80       _NewtonBodySetDestructorCallback 10005d80 f   Newton.obj
 0001:00004da0       _NewtonBodySetMassMatrix   10005da0 f   Newton.obj
 0001:00004f30       _NewtonBodyGetMassMatrix   10005f30 f   Newton.obj
 0001:00004fd0       _NewtonBodyGetInvMass      10005fd0 f   Newton.obj
 0001:00005060       _NewtonBodySetMatrix       10006060 f   Newton.obj
 0001:000050c0       _NewtonBodySetMatrixRecursive 100060c0 f   Newton.obj
 0001:00005120       _NewtonBodyGetMatrix       10006120 f   Newton.obj
 0001:00005150       _NewtonBodyGetRotation     10006150 f   Newton.obj
 0001:00005180       _NewtonBodySetForce        10006180 f   Newton.obj
 0001:000051f0       _NewtonBodyAddForce        100061f0 f   Newton.obj
 0001:00005260       _NewtonBodyGetForceAcc     10006260 f   Newton.obj
 0001:000052c0       _NewtonBodyGetForce        100062c0 f   Newton.obj
 0001:00005320       _NewtonBodyCalculateInverseDynamicsForce 10006320 f   Newton.obj
 0001:000053d0       _NewtonBodySetTorque       100063d0 f   Newton.obj
 0001:00005440       _NewtonBodyAddTorque       10006440 f   Newton.obj
 0001:000054b0       _NewtonBodyGetTorque       100064b0 f   Newton.obj
 0001:00005510       _NewtonBodyGetTorqueAcc    10006510 f   Newton.obj
 0001:00005570       _NewtonBodySetCentreOfMass 10006570 f   Newton.obj
 0001:000055e0       _NewtonBodyGetCentreOfMass 100065e0 f   Newton.obj
 0001:00005630       _NewtonBodyGetFirstJoint   10006630 f   Newton.obj
 0001:00005650       _NewtonBodyGetNextJoint    10006650 f   Newton.obj
 0001:00005670       _NewtonBodyGetFirstContactJoint 10006670 f   Newton.obj
 0001:00005690       _NewtonBodyGetNextContactJoint 10006690 f   Newton.obj
 0001:000056b0       _NewtonContactJointGetContactCount 100066b0 f   Newton.obj
 0001:000056f0       _NewtonContactJointGetFirstContact 100066f0 f   Newton.obj
 0001:00005730       _NewtonContactJointGetNextContact 10006730 f   Newton.obj
 0001:00005770       _NewtonContactJointRemoveContact 10006770 f   Newton.obj
 0001:000057c0       _NewtonContactGetMaterial  100067c0 f   Newton.obj
 0001:000057e0       _NewtonBodyAddBuoyancyForce 100067e0 f   Newton.obj
 0001:00005870       _NewtonBodySetCollision    10006870 f   Newton.obj
 0001:000058a0       _NewtonBodyGetCollision    100068a0 f   Newton.obj
 0001:000058c0       _NewtonBodySetMaterialGroupID 100068c0 f   Newton.obj
 0001:000058e0       _NewtonBodyGetMaterialGroupID 100068e0 f   Newton.obj
 0001:00005900       _NewtonBodySetContinuousCollisionMode 10006900 f   Newton.obj
 0001:00005930       _NewtonBodyGetContinuousCollisionMode 10006930 f   Newton.obj
 0001:00005950       _NewtonBodySetJointRecursiveCollision 10006950 f   Newton.obj
 0001:00005980       _NewtonBodyGetJointRecursiveCollision 10006980 f   Newton.obj
 0001:000059a0       _NewtonBodyGetFreezeState  100069a0 f   Newton.obj
 0001:000059c0       _NewtonBodySetFreezeState  100069c0 f   Newton.obj
 0001:000059f0       _NewtonBodySetAutoSleep    100069f0 f   Newton.obj
 0001:00005a20       _NewtonBodyGetAutoSleep    10006a20 f   Newton.obj
 0001:00005a40       _NewtonBodyGetSleepState   10006a40 f   Newton.obj
 0001:00005a60       _NewtonBodyGetAABB         10006a60 f   Newton.obj
 0001:00005ae0       _NewtonBodySetVelocity     10006ae0 f   Newton.obj
 0001:00005b50       _NewtonBodyGetVelocity     10006b50 f   Newton.obj
 0001:00005bb0       _NewtonBodySetOmega        10006bb0 f   Newton.obj
 0001:00005c20       _NewtonBodyGetOmega        10006c20 f   Newton.obj
 0001:00005c80       _NewtonBodySetLinearDamping 10006c80 f   Newton.obj
 0001:00005ca0       _NewtonBodyGetLinearDamping 10006ca0 f   Newton.obj
 0001:00005cc0       _NewtonBodySetAngularDamping 10006cc0 f   Newton.obj
 0001:00005d30       _NewtonBodyGetAngularDamping 10006d30 f   Newton.obj
 0001:00005d80       _NewtonBodyAddImpulse      10006d80 f   Newton.obj
 0001:00005de0       _NewtonConstraintCreateBall 10006de0 f   Newton.obj
 0001:00005e60       _NewtonBallSetConeLimits   10006e60 f   Newton.obj
 0001:000061b0       _NewtonBallSetUserCallback 100071b0 f   Newton.obj
 0001:000061d0       _NewtonBallGetJointAngle   100071d0 f   Newton.obj
 0001:00006220       _NewtonBallGetJointOmega   10007220 f   Newton.obj
 0001:00006270       _NewtonBallGetJointForce   10007270 f   Newton.obj
 0001:000062c0       _NewtonConstraintCreateHinge 100072c0 f   Newton.obj
 0001:00006370       _NewtonHingeSetUserCallback 10007370 f   Newton.obj
 0001:00006390       _NewtonHingeGetJointAngle  10007390 f   Newton.obj
 0001:000063b0       _NewtonHingeGetJointOmega  100073b0 f   Newton.obj
 0001:000063d0       _NewtonHingeCalculateStopAlpha 100073d0 f   Newton.obj
 0001:00006400       _NewtonHingeGetJointForce  10007400 f   Newton.obj
 0001:00006450       _NewtonConstraintCreateSlider 10007450 f   Newton.obj
 0001:00006500       _NewtonSliderSetUserCallback 10007500 f   Newton.obj
 0001:00006520       _NewtonSliderGetJointPosit 10007520 f   Newton.obj
 0001:00006540       _NewtonSliderGetJointVeloc 10007540 f   Newton.obj
 0001:00006560       _NewtonSliderCalculateStopAccel 10007560 f   Newton.obj
 0001:00006590       _NewtonSliderGetJointForce 10007590 f   Newton.obj
 0001:000065e0       _NewtonConstraintCreateCorkscrew 100075e0 f   Newton.obj
 0001:00006690       _NewtonCorkscrewSetUserCallback 10007690 f   Newton.obj
 0001:000066b0       _NewtonCorkscrewGetJointPosit 100076b0 f   Newton.obj
 0001:000066d0       _NewtonCorkscrewGetJointVeloc 100076d0 f   Newton.obj
 0001:000066f0       _NewtonCorkscrewGetJointAngle 100076f0 f   Newton.obj
 0001:00006710       _NewtonCorkscrewGetJointOmega 10007710 f   Newton.obj
 0001:00006730       _NewtonCorkscrewCalculateStopAlpha 10007730 f   Newton.obj
 0001:00006760       _NewtonCorkscrewCalculateStopAccel 10007760 f   Newton.obj
 0001:00006790       _NewtonCorkscrewGetJointForce 10007790 f   Newton.obj
 0001:000067e0       _NewtonConstraintCreateUniversal 100077e0 f   Newton.obj
 0001:000068d0       _NewtonUniversalSetUserCallback 100078d0 f   Newton.obj
 0001:000068f0       _NewtonUniversalGetJointAngle0 100078f0 f   Newton.obj
 0001:00006910       _NewtonUniversalGetJointAngle1 10007910 f   Newton.obj
 0001:00006930       _NewtonUniversalGetJointOmega0 10007930 f   Newton.obj
 0001:00006950       _NewtonUniversalGetJointOmega1 10007950 f   Newton.obj
 0001:00006970       _NewtonUniversalCalculateStopAlpha0 10007970 f   Newton.obj
 0001:000069a0       _NewtonUniversalCalculateStopAlpha1 100079a0 f   Newton.obj
 0001:000069d0       _NewtonUniversalGetJointForce 100079d0 f   Newton.obj
 0001:00006a20       _NewtonConstraintCreateUpVector 10007a20 f   Newton.obj
 0001:00006a90       _NewtonUpVectorGetPin      10007a90 f   Newton.obj
 0001:00006ae0       _NewtonUpVectorSetPin      10007ae0 f   Newton.obj
 0001:00006b50       _NewtonConstraintCreateUserJoint 10007b50 f   Newton.obj
 0001:00006bc0       _NewtonUserJointAddLinearRow 10007bc0 f   Newton.obj
 0001:00006d40       _NewtonUserJointAddAngularRow 10007d40 f   Newton.obj
 0001:00006e50       _NewtonUserJointAddGeneralRow 10007e50 f   Newton.obj
 0001:00006e70       _NewtonUserJointSetRowMaximumFriction 10007e70 f   Newton.obj
 0001:00006e90       _NewtonUserJointSetRowMinimumFriction 10007e90 f   Newton.obj
 0001:00006eb0       _NewtonUserJointSetRowAcceleration 10007eb0 f   Newton.obj
 0001:00006ed0       _NewtonUserJointSetRowSpringDamperAcceleration 10007ed0 f   Newton.obj
 0001:00006f00       _NewtonUserJointSetRowStiffness 10007f00 f   Newton.obj
 0001:00006f20       _NewtonUserJointGetRowForce 10007f20 f   Newton.obj
 0001:00006f40       _NewtonUserJointSetFeedbackCollectorCallback 10007f40 f   Newton.obj
 0001:00006f60       _NewtonJointSetUserData    10007f60 f   Newton.obj
 0001:00006f80       _NewtonJointGetUserData    10007f80 f   Newton.obj
 0001:00006fa0       _NewtonJointGetInfo        10007fa0 f   Newton.obj
 0001:00006fc0       _NewtonJointGetBody0       10007fc0 f   Newton.obj
 0001:00006fe0       _NewtonJointGetBody1       10007fe0 f   Newton.obj
 0001:00007020       _NewtonJointSetCollisionState 10008020 f   Newton.obj
 0001:00007050       _NewtonJointGetCollisionState 10008050 f   Newton.obj
 0001:00007070       _NewtonJointSetStiffness   10008070 f   Newton.obj
 0001:000070a0       _NewtonJointGetStiffness   100080a0 f   Newton.obj
 0001:000070c0       _NewtonJointSetDestructor  100080c0 f   Newton.obj
 0001:000070e0       _NewtonDestroyJoint        100080e0 f   Newton.obj
 0001:00007100       _NewtonMeshCreate          10008100 f   Newton.obj
 0001:00007160       _NewtonMeshCreateFromMesh  10008160 f   Newton.obj
 0001:000071b0       _NewtonMeshCreateFromCollision 100081b0 f   Newton.obj
 0001:00007200       _NewtonMeshConvexHull      10008200 f   Newton.obj
 0001:00007270       _NewtonMeshCreatePlane     10008270 f   Newton.obj
 0001:000072f0       _NewtonMeshDestroy         100082f0 f   Newton.obj
 0001:00007330       _NewtonMeshCalculateOOBB   10008330 f   Newton.obj
 0001:000073a0       _NewtonMeshCalculateVertexNormals 100083a0 f   Newton.obj
 0001:000073c0       _NewtonMeshApplySphericalMapping 100083c0 f   Newton.obj
 0001:000073e0       _NewtonMeshApplyBoxMapping 100083e0 f   Newton.obj
 0001:00007410       _NewtonMeshApplyCylindricalMapping 10008410 f   Newton.obj
 0001:00007430       _NewtonMeshTriangulate     10008430 f   Newton.obj
 0001:00007440       _NewtonMeshPolygonize      10008440 f   Newton.obj
 0001:00007450       _NewtonMeshIsOpenMesh      10008450 f   Newton.obj
 0001:00007470       _NewtonMeshFixTJoints      10008470 f   Newton.obj
 0001:00007480       _NewtonMeshClip            10008480 f   Newton.obj
 0001:000074c0       _NewtonMeshUnion           100084c0 f   Newton.obj
 0001:000074e0       _NewtonMeshDifference      100084e0 f   Newton.obj
 0001:00007500       _NewtonMeshIntersection    10008500 f   Newton.obj
 0001:00007520       _NewtonRemoveUnusedVertices 10008520 f   Newton.obj
 0001:00007540       _NewtonMeshBeginFace       10008540 f   Newton.obj
 0001:00007560       _NewtonMeshAddFace         10008560 f   Newton.obj
 0001:00007590       _NewtonMeshEndFace         10008590 f   Newton.obj
 0001:000075b0       _NewtonMeshBuildFromVertexListIndexList 100085b0 f   Newton.obj
 0001:00007610       _NewtonMeshGetVertexCount  10008610 f   Newton.obj
 0001:00007630       _NewtonMeshGetVertexStrideInByte 10008630 f   Newton.obj
 0001:00007650       _NewtonMeshGetVertexArray  10008650 f   Newton.obj
 0001:00007670       _NewtonMeshGetPointCount   10008670 f   Newton.obj
 0001:00007690       _NewtonMeshGetPointStrideInByte 10008690 f   Newton.obj
 0001:000076b0       _NewtonMeshGetPointArray   100086b0 f   Newton.obj
 0001:000076d0       _NewtonMeshGetNormalArray  100086d0 f   Newton.obj
 0001:000076f0       _NewtonMeshGetUV0Array     100086f0 f   Newton.obj
 0001:00007710       _NewtonMeshGetUV1Array     10008710 f   Newton.obj
 0001:00007730       _NewtonMeshGetVertexStreams 10008730 f   Newton.obj
 0001:00007770       _NewtonMeshGetIndirectVertexStreams 10008770 f   Newton.obj
 0001:000077d0       _NewtonMeshBeginHandle     100087d0 f   Newton.obj
 0001:000077f0       _NewtonMeshEndHandle       100087f0 f   Newton.obj
 0001:00007810       _NewtonMeshFirstMaterial   10008810 f   Newton.obj
 0001:00007830       _NewtonMeshNextMaterial    10008830 f   Newton.obj
 0001:00007850       _NewtonMeshMaterialGetMaterial 10008850 f   Newton.obj
 0001:00007870       _NewtonMeshMaterialGetIndexCount 10008870 f   Newton.obj
 0001:00007890       _NewtonMeshMaterialGetIndexStream 10008890 f   Newton.obj
 0001:000078c0       _NewtonMeshMaterialGetIndexStreamShort 100088c0 f   Newton.obj
 0001:000078f0       _NewtonMeshCreateFirstSingleSegment 100088f0 f   Newton.obj
 0001:00007980       _NewtonMeshCreateNextSingleSegment 10008980 f   Newton.obj
 0001:00007a50       _NewtonMeshGetTotalFaceCount 10008a50 f   Newton.obj
 0001:00007a60       _NewtonMeshGetTotalIndexCount 10008a60 f   Newton.obj
 0001:00007a70       _NewtonMeshGetFaces        10008a70 f   Newton.obj
 0001:00007a90       _NewtonMeshGetFirstVertex  10008a90 f   Newton.obj
 0001:00007aa0       _NewtonMeshGetNextVertex   10008aa0 f   Newton.obj
 0001:00007ac0       _NewtonMeshGetVertexIndex  10008ac0 f   Newton.obj
 0001:00007ae0       _NewtonMeshGetFirstPoint   10008ae0 f   Newton.obj
 0001:00007af0       _NewtonMeshGetNextPoint    10008af0 f   Newton.obj
 0001:00007b10       _NewtonMeshGetPointIndex   10008b10 f   Newton.obj
 0001:00007b30       _NewtonMeshGetVertexIndexFromPoint 10008b30 f   Newton.obj
 0001:00007b50       _NewtonMeshGetFirstEdge    10008b50 f   Newton.obj
 0001:00007b60       _NewtonMeshGetNextEdge     10008b60 f   Newton.obj
 0001:00007b80       _NewtonMeshGetEdgeIndices  10008b80 f   Newton.obj
 0001:00007ba0       _NewtonMeshGetFirstFace    10008ba0 f   Newton.obj
 0001:00007bb0       _NewtonMeshGetNextFace     10008bb0 f   Newton.obj
 0001:00007bd0       _NewtonMeshIsFaceOpen      10008bd0 f   Newton.obj
 0001:00007bf0       _NewtonMeshGetFaceIndexCount 10008bf0 f   Newton.obj
 0001:00007c10       _NewtonMeshGetFaceMaterial 10008c10 f   Newton.obj
 0001:00007c30       _NewtonMeshGetFaceIndices  10008c30 f   Newton.obj
 0001:00007c50       _NewtonMeshGetFacePointIndices 10008c50 f   Newton.obj
 0001:000095f0       ??2Newton@@SAPAXIQAVdgMemoryAllocator@@@Z 1000a5f0 f i Newton.obj
 0001:00009610       ??_GNewton@@QAEPAXI@Z      1000a610 f i Newton.obj
 0001:00009650       ??3Newton@@SAXPAX@Z        1000a650 f i Newton.obj
 0001:00009670       ??_GdgMemoryAllocator@@QAEPAXI@Z 1000a670 f i Newton.obj
 0001:000096b0       ??0dgVector@@QAE@XZ        1000a6b0 f i Newton.obj
 0001:000096d0       ??0dgVector@@QAE@ABV?$dgTemplateVector@N@@@Z 1000a6d0 f i Newton.obj
 0001:000097c0       ??0dgVector@@QAE@NNNN@Z    1000a7c0 f i Newton.obj
 0001:000098d0       ??0dgContactPoint@@QAE@XZ  1000a8d0 f i Newton.obj
 0001:00009900       ??0dgMatrix@@QAE@ABVdgVector@@@Z 1000a900 f i Newton.obj
 0001:00009d50       ??AdgMatrix@@QAEAAVdgVector@@H@Z 1000ad50 f i Newton.obj
 0001:00009dd0       ?RotateVector@dgMatrix@@QBE?AVdgVector@@ABV2@@Z 1000add0 f i Newton.obj
 0001:00009eb0       ?UnrotateVector@dgMatrix@@QBE?AVdgVector@@ABV2@@Z 1000aeb0 f i Newton.obj
 0001:00009f30       ?TransformVector@dgMatrix@@QBE?AVdgVector@@ABV2@@Z 1000af30 f i Newton.obj
 0001:0000a020       ?UntransformVector@dgMatrix@@QBE?AVdgVector@@ABV2@@Z 1000b020 f i Newton.obj
 0001:0000a090       ?dgPitchMatrix@@YA?AVdgMatrix@@N@Z 1000b090 f i Newton.obj
 0001:0000a1e0       ??0dgMatrix@@QAE@ABVdgVector@@000@Z 1000b1e0 f i Newton.obj
 0001:0000a250       ?dgYawMatrix@@YA?AVdgMatrix@@N@Z 1000b250 f i Newton.obj
 0001:0000a3a0       ?dgRollMatrix@@YA?AVdgMatrix@@N@Z 1000b3a0 f i Newton.obj
 0001:0000a4f0       ??0dgVector@@QAE@PBN@Z     1000b4f0 f i Newton.obj
 0001:0000a5e0       ?GetTagId@dgPolygonSoupDatabase@@QBEIPBH@Z 1000b5e0 f i Newton.obj
 0001:0000a600       ?SetTagId@dgPolygonSoupDatabase@@QBEXPBHI@Z 1000b600 f i Newton.obj
 0001:0000a630       ?GetBody@dgBodyMasterListRow@@QBEPAVdgBody@@XZ 1000b630 f i Newton.obj
 0001:0000a650       ?SetAutoSleep@dgBody@@QAEX_N@Z 1000b650 f i Newton.obj
 0001:0000a6c0       ?GetAutoSleep@dgBody@@QBE_NXZ 1000b6c0 f i Newton.obj
 0001:0000a6e0       ?GetSleepState@dgBody@@QBE_NXZ 1000b6e0 f i Newton.obj
 0001:0000a700       ?GetCollisionWithLinkedBodies@dgBody@@QBE_NXZ 1000b700 f i Newton.obj
 0001:0000a720       ?SetCollisionWithLinkedBodies@dgBody@@QAEX_N@Z 1000b720 f i Newton.obj
 0001:0000a760       ?SetUserData@dgBody@@QAEXQAX@Z 1000b760 f i Newton.obj
 0001:0000a780       ?GetUserData@dgBody@@QBEPAXXZ 1000b780 f i Newton.obj
 0001:0000a7a0       ?GetWorld@dgBody@@QBEPAVdgWorld@@XZ 1000b7a0 f i Newton.obj
 0001:0000a7c0       ?GetGroupID@dgBody@@QBEIXZ 1000b7c0 f i Newton.obj
 0001:0000a7e0       ?SetGroupID@dgBody@@QAEXI@Z 1000b7e0 f i Newton.obj
 0001:0000a800       ?SetDestructorCallback@dgBody@@QAEXP6AXAAV1@@Z@Z 1000b800 f i Newton.obj
 0001:0000a820       ?SetExtForceAndTorqueCallback@dgBody@@QAEXP6AXAAV1@NH@Z@Z 1000b820 f i Newton.obj
 0001:0000a840       ?GetExtForceAndTorqueCallback@dgBody@@QBEP6AXAAV1@NH@ZXZ 1000b840 f i Newton.obj
 0001:0000a860       ?SetMatrixUpdateCallback@dgBody@@QAEXP6AXABV1@ABVdgMatrix@@H@Z@Z 1000b860 f i Newton.obj
 0001:0000a880       ?GetMatrixUpdateCallback@dgBody@@QAEP6AXABV1@ABVdgMatrix@@H@ZXZ 1000b880 f i Newton.obj
 0001:0000a8a0       ?SetOmega@dgBody@@QAEXABVdgVector@@@Z 1000b8a0 f i Newton.obj
 0001:0000a8d0       ?SetVelocity@dgBody@@QAEXABVdgVector@@@Z 1000b8d0 f i Newton.obj
 0001:0000a900       ?SetCentreOfMass@dgBody@@QAEXABVdgVector@@@Z 1000b900 f i Newton.obj
 0001:0000a9b0       ?AddForce@dgBody@@QAEXABVdgVector@@@Z 1000b9b0 f i Newton.obj
 0001:0000aa20       ?AddTorque@dgBody@@QAEXABVdgVector@@@Z 1000ba20 f i Newton.obj
 0001:0000aa90       ?GetAparentMass@dgBody@@QBEABVdgVector@@XZ 1000ba90 f i Newton.obj
 0001:0000aab0       ?GetOmega@dgBody@@QBEABVdgVector@@XZ 1000bab0 f i Newton.obj
 0001:0000aad0       ?GetVelocity@dgBody@@QBEABVdgVector@@XZ 1000bad0 f i Newton.obj
 0001:0000aaf0       ?GetForce@dgBody@@QBEABVdgVector@@XZ 1000baf0 f i Newton.obj
 0001:0000ab10       ?GetTorque@dgBody@@QBEABVdgVector@@XZ 1000bb10 f i Newton.obj
 0001:0000ab30       ?GetNetForce@dgBody@@QBEABVdgVector@@XZ 1000bb30 f i Newton.obj
 0001:0000ab50       ?GetNetTorque@dgBody@@QBEABVdgVector@@XZ 1000bb50 f i Newton.obj
 0001:0000ab70       ?GetCollision@dgBody@@QBEPAVdgCollision@@XZ 1000bb70 f i Newton.obj
 0001:0000ab90       ?GetPosition@dgBody@@QBEABVdgVector@@XZ 1000bb90 f i Newton.obj
 0001:0000abb0       ?GetRotation@dgBody@@QBEABVdgQuaternion@@XZ 1000bbb0 f i Newton.obj
 0001:0000abd0       ?GetMatrix@dgBody@@QBEABVdgMatrix@@XZ 1000bbd0 f i Newton.obj
 0001:0000abf0       ?GetCentreOfMass@dgBody@@QBE?AVdgVector@@XZ 1000bbf0 f i Newton.obj
 0001:0000ac20       ?GetAABB@dgBody@@QBEXAAVdgVector@@0@Z 1000bc20 f i Newton.obj
 0001:0000aca0       ?SetContinuesCollisionMode@dgBody@@QAEX_N@Z 1000bca0 f i Newton.obj
 0001:0000ace0       ?GetContinuesCollisionMode@dgBody@@QBE_NXZ 1000bce0 f i Newton.obj
 0001:0000ad00       ?GetLinearDamping@dgBody@@QBENXZ 1000bd00 f i Newton.obj
 0001:0000ad30       ?GetAngularDamping@dgBody@@QBE?AVdgVector@@XZ 1000bd30 f i Newton.obj
 0001:0000adc0       ?SetLinearDamping@dgBody@@QAEXN@Z 1000bdc0 f i Newton.obj
 0001:0000ae20       ?SetAngularDamping@dgBody@@QAEXABVdgVector@@@Z 1000be20 f i Newton.obj
 0001:0000af20       ?SetForce@dgBody@@QAEXABVdgVector@@@Z 1000bf20 f i Newton.obj
 0001:0000b030       ?SetTorque@dgBody@@QAEXABVdgVector@@@Z 1000c030 f i Newton.obj
 0001:0000b140       ?GetMasterList@dgBody@@QBEPAVdgListNode@?$dgList@VdgBodyMasterListRow@@@@XZ 1000c140 f i Newton.obj
 0001:0000b160       ?GetFreeze@dgBody@@QBE_NXZ 1000c160 f i Newton.obj
 0001:0000b180       ??2dgConstraint@@SAPAXIQAVdgMemoryAllocator@@@Z 1000c180 f i Newton.obj
 0001:0000b1a0       ?BeginConectedSurface@dgPolyhedra@@QBEXXZ 1000c1a0 f i Newton.obj
 0001:0000b1c0       ?IncLRU@dgPolyhedra@@QBEHXZ 1000c1c0 f i Newton.obj
 0001:0000b220       ?EndConectedSurface@dgPolyhedra@@QBEXXZ 1000c220 f i Newton.obj
 0001:0000b230       ?IsCollidable@dgConstraint@@QBE_NXZ 1000c230 f i Newton.obj
 0001:0000b250       ?SetCollidable@dgConstraint@@QAEX_N@Z 1000c250 f i Newton.obj
 0001:0000b290       ?GetId@dgConstraint@@QBEIXZ 1000c290 f i Newton.obj
 0001:0000b2b0       ?GetBody0@dgConstraint@@QBEPAVdgBody@@XZ 1000c2b0 f i Newton.obj
 0001:0000b2d0       ?GetBody1@dgConstraint@@QBEPAVdgBody@@XZ 1000c2d0 f i Newton.obj
 0001:0000b2f0       ?SetCollisionCallback@dgContactMaterial@@QAEXP6A_NABV1@ABVdgBody@@1H@ZP6AXAAVdgContact@@NH@Z@Z 1000c2f0 f i Newton.obj
 0001:0000b320       ??2?$dgTree@VdgEdge@@_J@@SAPAXIQAVdgMemoryAllocator@@@Z 1000c320 f i Newton.obj
 0001:0000b340       ?GetInfo@dgListNode@?$dgList@V?$dgGraphNode@VdgDebriNodeInfo@dgCollisionCompoundBreakable@@VdgSharedNodeMesh@2@@@@@QAEAAV?$dgGraphNode@VdgDebriNodeInfo@dgCollisionCompoundBreakable@@VdgSharedNodeMesh@2@@@XZ 1000c340 f i Newton.obj
 0001:0000b360       ?SetCompoundCollisionCallback@dgContactMaterial@@QAEXP6A_NABV1@ABVdgBody@@1H@Z@Z 1000c360 f i Newton.obj
 0001:0000b380       ?GetInfo@dgListNode@?$dgList@VdgBodyMasterListRow@@@@QAEAAVdgBodyMasterListRow@@XZ 1000c380 f i Newton.obj
 0001:0000b3a0       ?GetUserData@dgContactMaterial@@QBEPAXXZ 1000c3a0 f i Newton.obj
 0001:0000b3c0       ?GetNext@dgListNode@?$dgList@VdgBodyMasterListRow@@@@QBEPAV12@XZ 1000c3c0 f i Newton.obj
 0001:0000b3e0       ?SetUserData@dgContactMaterial@@QAEXQAX@Z 1000c3e0 f i Newton.obj
 0001:0000b400       ?GetInfo@dgListNode@?$dgList@VdgBodyMasterListCell@@@@QAEAAVdgBodyMasterListCell@@XZ 1000c400 f i Newton.obj
 0001:0000b420       ?GetNext@dgListNode@?$dgList@VdgBodyMasterListCell@@@@QBEPAV12@XZ 1000c420 f i Newton.obj
 0001:0000b440       ?GetInfo@dgListNode@?$dgList@VdgSubMesh@dgCollisionCompoundBreakable@@@@QAEAAVdgSubMesh@dgCollisionCompoundBreakable@@XZ 1000c440 f i Newton.obj
 0001:0000b460       ?GetNext@dgListNode@?$dgList@VdgSubMesh@dgCollisionCompoundBreakable@@@@QBEPAV12@XZ 1000c460 f i Newton.obj
 0001:0000b480       ?GetInfo@dgListNode@?$dgList@UdgProxy@dgCollisionScene@@@@QAEAAUdgProxy@dgCollisionScene@@XZ 1000c480 f i Newton.obj
 0001:0000b4a0       ?GetInfo@dgListNode@?$dgList@VdgContactMaterial@@@@QAEAAVdgContactMaterial@@XZ 1000c4a0 f i Newton.obj
 0001:0000b4c0       ?GetNext@dgListNode@?$dgList@VdgContactMaterial@@@@QBEPAV12@XZ 1000c4c0 f i Newton.obj
 0001:0000b4e0       ?GetFirst@?$dgList@VdgBodyMasterListCell@@@@QBEPAVdgListNode@1@XZ 1000c4e0 f i Newton.obj
 0001:0000b500       ?GetFirst@?$dgList@VdgBodyMasterListRow@@@@QBEPAVdgListNode@1@XZ 1000c500 f i Newton.obj
 0001:0000b520       ??0?$dgTree@PAVdgConstraint@@PAV1@@@QAE@QAVdgMemoryAllocator@@@Z 1000c520 f i Newton.obj
 0001:0000b560       ??1?$dgTree@PAVdgConstraint@@PAV1@@@QAE@XZ 1000c560 f i Newton.obj
 0001:0000b580       ?Find@?$dgTree@PAVdgConstraint@@PAV1@@@QBEPAVdgTreeNode@1@PAVdgConstraint@@@Z 1000c580 f i Newton.obj
 0001:0000b6e0       ?IsType@dgCollision@@QBEHW4RTTI@1@@Z 1000c6e0 f i Newton.obj
 0001:0000b710       ?Insert@?$dgTree@PAVdgConstraint@@PAV1@@@QAEPAVdgTreeNode@1@ABQAVdgConstraint@@PAV3@@Z 1000c710 f i Newton.obj
 0001:0000b760       ?GetOffsetMatrix@dgCollision@@QBEABVdgMatrix@@XZ 1000c760 f i Newton.obj
 0001:0000b780       ?GetFirst@?$dgList@VdgSubMesh@dgCollisionCompoundBreakable@@@@QBEPAVdgListNode@1@XZ 1000c780 f i Newton.obj
 0001:0000b7a0       ?GetCount@?$dgList@VdgContactMaterial@@@@QBEHXZ 1000c7a0 f i Newton.obj
 0001:0000b7c0       ?GetFirst@?$dgList@VdgContactMaterial@@@@QBEPAVdgListNode@1@XZ 1000c7c0 f i Newton.obj
 0001:0000b7e0       ?Remove@?$dgList@VdgContactMaterial@@@@QAEXQAVdgListNode@1@@Z 1000c7e0 f i Newton.obj
 0001:0000b840       ?SetUserDataID@dgCollision@@QBEIXZ 1000c840 f i Newton.obj
 0001:0000b860       ?SetUserDataID@dgCollision@@QAEXI@Z 1000c860 f i Newton.obj
 0001:0000b880       ?GetAllocator@?$dgTree@VdgEdge@@_J@@QBEPAVdgMemoryAllocator@@XZ 1000c880 f i Newton.obj
 0001:0000b8a0       ??_GdgListNode@?$dgList@VdgContactMaterial@@@@AAEPAXI@Z 1000c8a0 f i Newton.obj
 0001:0000b8e0       ?AddRef@dgCollision@@QAEPAV1@XZ 1000c8e0 f i Newton.obj
 0001:0000b910       ??3dgListNode@?$dgList@VdgContactMaterial@@@@CAXPAX@Z 1000c910 f i Newton.obj
 0001:0000b930       ??1dgListNode@?$dgList@VdgContactMaterial@@@@AAE@XZ 1000c930 f i Newton.obj
 0001:0000b940       ?GetLeft@dgTreeNode@?$dgTree@PAVdgConstraint@@PAV1@@@ABEPAV12@XZ 1000c940 f i Newton.obj
 0001:0000b960       ?GetRefCount@dgCollision@@QBEHXZ 1000c960 f i Newton.obj
 0001:0000b980       ?GetRight@dgTreeNode@?$dgTree@PAVdgConstraint@@PAV1@@@ABEPAV12@XZ 1000c980 f i Newton.obj
 0001:0000b9a0       ?Insert@?$dgTree@PAVdgConstraint@@PAV1@@@QAEPAVdgTreeNode@1@ABQAVdgConstraint@@PAV3@AA_N@Z 1000c9a0 f i Newton.obj
 0001:0000bc10       ??2dgRedBackNode@@SAPAXIQAVdgMemoryAllocator@@@Z 1000cc10 f i Newton.obj
 0001:0000bc30       ?GetAllocator@dgCollision@@QBEPAVdgMemoryAllocator@@XZ 1000cc30 f i Newton.obj
 0001:0000bc50       ?RemoveAll@?$dgTree@PAVdgConstraint@@PAV1@@@QAEXXZ 1000cc50 f i Newton.obj
 0001:0000bc90       ?CompareKeys@?$dgTree@PAVdgConstraint@@PAV1@@@ABEHABQAVdgConstraint@@0@Z 1000cc90 f i Newton.obj
 0001:0000bcd0       ?Unlink@?$dgList@VdgContactMaterial@@@@QAEXQAVdgListNode@1@@Z 1000ccd0 f i Newton.obj
 0001:0000bdb0       ?Unlink@dgListNode@?$dgList@VdgContactMaterial@@@@AAEXXZ 1000cdb0 f i Newton.obj
 0001:0000be40       ?GetPrev@dgListNode@?$dgList@VdgContactMaterial@@@@QBEPAV12@XZ 1000ce40 f i Newton.obj
 0001:0000be60       ??0dgTreeNode@?$dgTree@PAVdgConstraint@@PAV1@@@AAE@ABQAVdgConstraint@@0PAV01@@Z 1000ce60 f i Newton.obj
 0001:0000bef0       ??0dgRedBackNode@@QAE@QAV0@@Z 1000cef0 f i Newton.obj
 0001:0000bf20       ?Initdata@dgRedBackNode@@QAEXQAV1@@Z 1000cf20 f i Newton.obj
 0001:0000bf70       ?SetColor@dgRedBackNode@@QAEXW4REDBLACK_COLOR@1@@Z 1000cf70 f i Newton.obj
 0001:0000bfa0       ?SetInTreeFlag@dgRedBackNode@@QAEXI@Z 1000cfa0 f i Newton.obj
 0001:0000bfd0       ?dgGetUserLock@dgWorld@@QBEXXZ 1000cfd0 f i Newton.obj
 0001:0000c000       ?dgReleasedUserLock@dgWorld@@QBEXXZ 1000d000 f i Newton.obj
 0001:0000c030       ?GetAllocator@dgWorld@@QBEPAVdgMemoryAllocator@@XZ 1000d030 f i Newton.obj
 0001:0000c050       ?GetVertexStrideInByte@dgMeshEffect@@QBEHXZ 1000d050 f i Newton.obj
 0001:0000c070       ?GetVertexPool@dgMeshEffect@@QBEPANXZ 1000d070 f i Newton.obj
 0001:0000c090       ?GetPropertiesStrideInByte@dgMeshEffect@@QBEHXZ 1000d090 f i Newton.obj
 0001:0000c0b0       ?GetAttributePool@dgMeshEffect@@QBEPANXZ 1000d0b0 f i Newton.obj
 0001:0000c0d0       ?GetNormalPool@dgMeshEffect@@QBEPANXZ 1000d0d0 f i Newton.obj
 0001:0000c0f0       ?GetUV0Pool@dgMeshEffect@@QBEPANXZ 1000d0f0 f i Newton.obj
 0001:0000c110       ?GetUV1Pool@dgMeshEffect@@QBEPANXZ 1000d110 f i Newton.obj
 0001:0000c130       ?GetVertexCount@dgMeshEffect@@QBEHXZ 1000d130 f i Newton.obj
 0001:0000c150       ?GetPropertiesCount@dgMeshEffect@@QBEHXZ 1000d150 f i Newton.obj
 0001:0000c170       ?GetMaterialID@dgMeshEffect@@QAEHPAUdgIndexArray@1@H@Z 1000d170 f i Newton.obj
 0001:0000c190       ?GetMaterialIndexCount@dgMeshEffect@@QAEHPAUdgIndexArray@1@H@Z 1000d190 f i Newton.obj
 0001:0000c1b0       ?GetMainMesh@dgCollisionCompoundBreakable@@QBEPAVdgListNode@?$dgList@V?$dgGraphNode@VdgDebriNodeInfo@dgCollisionCompoundBreakable@@VdgSharedNodeMesh@2@@@@@XZ 1000d1b0 f i Newton.obj
 0001:0000c1d0       ?GetFirstComponentMesh@dgCollisionCompoundBreakable@@QBEPAVdgListNode@?$dgList@V?$dgGraphNode@VdgDebriNodeInfo@dgCollisionCompoundBreakable@@VdgSharedNodeMesh@2@@@@@XZ 1000d1d0 f i Newton.obj
 0001:0000c230       ?GetVertecCount@dgCollisionCompoundBreakable@@QBEHXZ 1000d230 f i Newton.obj
 0001:0000c250       ?GetVertexStreams@dgCollisionCompoundBreakable@@QBEXHPANH0H0@Z 1000d250 f i Newton.obj
 0001:0000c290       ?GetNext@dgListNode@?$dgList@V?$dgGraphNode@VdgDebriNodeInfo@dgCollisionCompoundBreakable@@VdgSharedNodeMesh@2@@@@@QBEPAV12@XZ 1000d290 f i Newton.obj
 0001:0000c2b0       ??0?$dgTemplateVector@N@@QAE@NNNN@Z 1000d2b0 f i Newton.obj
 0001:0000c2f0       ??0?$dgTemplateVector@N@@QAE@PBN@Z 1000d2f0 f i Newton.obj
 0001:0000c340       ??0?$dgTemplateVector@N@@QAE@XZ 1000d340 f i Newton.obj
 0001:0000c360       ?Scale@?$dgTemplateVector@N@@QBE?AV1@N@Z 1000d360 f i Newton.obj
 0001:0000c3d0       ??A?$dgTemplateVector@N@@QAEAANH@Z 1000d3d0 f i Newton.obj
 0001:0000c450       ??H?$dgTemplateVector@N@@QBE?AV0@ABV0@@Z 1000d450 f i Newton.obj
 0001:0000c4c0       ??G?$dgTemplateVector@N@@QBE?AV0@ABV0@@Z 1000d4c0 f i Newton.obj
 0001:0000c530       ??L?$dgTemplateVector@N@@QBENABV0@@Z 1000d530 f i Newton.obj
 0001:0000c570       ??D?$dgTemplateVector@N@@QBE?AV0@ABV0@@Z 1000d570 f i Newton.obj
 0001:0000c610       ??$ClampValue@N@@YANNNN@Z  1000d610 f i Newton.obj
 0001:0000c650       ??$GetMin@N@@YANNN@Z       1000d650 f i Newton.obj
 0001:0000c680       ??$GetMax@N@@YANNN@Z       1000d680 f i Newton.obj
 0001:0000c6b0       ?GetCount@?$dgList@V?$dgGraphNode@VdgDebriNodeInfo@dgCollisionCompoundBreakable@@VdgSharedNodeMesh@2@@@@@QBEHXZ 1000d6b0 f i Newton.obj
 0001:0000c6d0       ?GetLast@?$dgList@V?$dgGraphNode@VdgDebriNodeInfo@dgCollisionCompoundBreakable@@VdgSharedNodeMesh@2@@@@@QBEPAVdgListNode@1@XZ 1000d6d0 f i Newton.obj
 0001:0000c6f0       ?GetFirst@?$dgList@V?$dgGraphNode@VdgDebriNodeInfo@dgCollisionCompoundBreakable@@VdgSharedNodeMesh@2@@@@@QBEPAVdgListNode@1@XZ 1000d6f0 f i Newton.obj
 0001:0000c710       ??0NewtonDeadBodies@@QAE@QAVdgMemoryAllocator@@@Z 1000d710 f   NewtonClass.obj
 0001:0000c750       ?DestroyBodies@NewtonDeadBodies@@QAEXAAVNewton@@@Z 1000d750 f   NewtonClass.obj
 0001:0000c7d0       ??0NewtonDeadJoints@@QAE@QAVdgMemoryAllocator@@@Z 1000d7d0 f   NewtonClass.obj
 0001:0000c810       ?DestroyJoints@NewtonDeadJoints@@QAEXAAVNewton@@@Z 1000d810 f   NewtonClass.obj
 0001:0000c890       ?DefaultAllocMemory@Newton@@SAPAXH@Z 1000d890 f   NewtonClass.obj
 0001:0000c8b0       ?DefaultFreeMemory@Newton@@SAXPAXH@Z 1000d8b0 f   NewtonClass.obj
 0001:0000c8d0       ??0Newton@@QAE@NQAVdgMemoryAllocator@@@Z 1000d8d0 f   NewtonClass.obj
 0001:0000c940       ??1Newton@@QAE@XZ          1000d940 f   NewtonClass.obj
 0001:0000c990       ?UpdatePhysics@Newton@@QAEXN@Z 1000d990 f   NewtonClass.obj
 0001:0000ca20       ?DestroyJoint@Newton@@QAEXPAVdgConstraint@@@Z 1000da20 f   NewtonClass.obj
 0001:0000ca80       ?DestroyBody@Newton@@QAEXPAVdgBody@@@Z 1000da80 f   NewtonClass.obj
 0001:0000cae0       ??0NewtonUserJoint@@QAE@PAVdgWorld@@HP6AXPBUNewtonJoint@@NH@ZP6AX1PAUNewtonJointRecord@@@ZPAVdgBody@@5@Z 1000dae0 f   NewtonClass.obj
 0001:0000cc30       ??1NewtonUserJoint@@UAE@XZ 1000dc30 f   NewtonClass.obj
 0001:0000cc90       ?JacobianDerivative@NewtonUserJoint@@UAEIAAVdgContraintDescritor@@@Z 1000dc90 f   NewtonClass.obj
 0001:0000ccf0       ?AddLinearRowJacobian@NewtonUserJoint@@QAEXABVdgVector@@00@Z 1000dcf0 f   NewtonClass.obj
 0001:0000ce10       ?AddAngularRowJacobian@NewtonUserJoint@@QAEXABVdgVector@@N@Z 1000de10 f   NewtonClass.obj
 0001:0000cf60       ?AddGeneralRowJacobian@NewtonUserJoint@@QAEXPBN0@Z 1000df60 f   NewtonClass.obj
 0001:0000d090       ?SetAcceleration@NewtonUserJoint@@QAEXN@Z 1000e090 f   NewtonClass.obj
 0001:0000d0e0       ?SetSpringDamperAcceleration@NewtonUserJoint@@QAEXNN@Z 1000e0e0 f   NewtonClass.obj
 0001:0000d1b0       ?SetHighFriction@NewtonUserJoint@@QAEXN@Z 1000e1b0 f   NewtonClass.obj
 0001:0000d240       ?SetLowerFriction@NewtonUserJoint@@QAEXN@Z 1000e240 f   NewtonClass.obj
 0001:0000d2d0       ?SetRowStiffness@NewtonUserJoint@@QAEXN@Z 1000e2d0 f   NewtonClass.obj
 0001:0000d350       ?GetRowForce@NewtonUserJoint@@QBENH@Z 1000e350 f   NewtonClass.obj
 0001:0000d390       ?GetInfo@NewtonUserJoint@@UBEXQAVdgConstraintInfo@@@Z 1000e390 f   NewtonClass.obj
 0001:0000d3e0       ?SetUpdateFeedbackFunction@NewtonUserJoint@@QAEXP6AXPBUNewtonJoint@@NH@Z@Z 1000e3e0 f   NewtonClass.obj
 0001:0000d740       ??1NewtonDeadBodies@@QAE@XZ 1000e740 f i NewtonClass.obj
 0001:0000d760       ??1NewtonDeadJoints@@QAE@XZ 1000e760 f i NewtonClass.obj
 0001:0000d780       ??_GNewtonUserJoint@@UAEPAXI@Z 1000e780 f i NewtonClass.obj
 0001:0000d780       ??_ENewtonUserJoint@@UAEPAXI@Z 1000e780 f i NewtonClass.obj
 0001:0000d7c0       ??0dgPointParam@dgConstraint@@QAE@XZ 1000e7c0 f i NewtonClass.obj
 0001:0000d850       ??0Iterator@?$dgTree@PAVdgBody@@PAX@@QAE@ABV1@@Z 1000e850 f i NewtonClass.obj
 0001:0000d880       ??1Iterator@?$dgTree@PAVdgBody@@PAX@@QAE@XZ 1000e880 f i NewtonClass.obj
 0001:0000d890       ?Begin@Iterator@?$dgTree@PAVdgBody@@PAX@@QAEXXZ 1000e890 f i NewtonClass.obj
 0001:0000d8c0       ??BIterator@?$dgTree@PAVdgBody@@PAX@@QBEHXZ 1000e8c0 f i NewtonClass.obj
 0001:0000d8e0       ??EIterator@?$dgTree@PAVdgBody@@PAX@@QAEXH@Z 1000e8e0 f i NewtonClass.obj
 0001:0000d940       ?GetNode@Iterator@?$dgTree@PAVdgBody@@PAX@@QBEPAVdgTreeNode@2@XZ 1000e940 f i NewtonClass.obj
 0001:0000d960       ?GetInfo@dgTreeNode@?$dgTree@PAVdgBody@@PAX@@QAEAAPAVdgBody@@XZ 1000e960 f i NewtonClass.obj
 0001:0000d980       ??0Iterator@?$dgTree@PAVdgConstraint@@PAX@@QAE@ABV1@@Z 1000e980 f i NewtonClass.obj
 0001:0000d9b0       ??1Iterator@?$dgTree@PAVdgConstraint@@PAX@@QAE@XZ 1000e9b0 f i NewtonClass.obj
 0001:0000d9c0       ?Begin@Iterator@?$dgTree@PAVdgConstraint@@PAX@@QAEXXZ 1000e9c0 f i NewtonClass.obj
 0001:0000d9f0       ??BIterator@?$dgTree@PAVdgConstraint@@PAX@@QBEHXZ 1000e9f0 f i NewtonClass.obj
 0001:0000da10       ??EIterator@?$dgTree@PAVdgConstraint@@PAX@@QAEXH@Z 1000ea10 f i NewtonClass.obj
 0001:0000da70       ?GetNode@Iterator@?$dgTree@PAVdgConstraint@@PAX@@QBEPAVdgTreeNode@2@XZ 1000ea70 f i NewtonClass.obj
 0001:0000da90       ?GetInfo@dgTreeNode@?$dgTree@PAVdgConstraint@@PAX@@QAEAAPAVdgConstraint@@XZ 1000ea90 f i NewtonClass.obj
 0001:0000dab0       ??0?$dgTree@PAVdgBody@@PAX@@QAE@QAVdgMemoryAllocator@@@Z 1000eab0 f i NewtonClass.obj
 0001:0000daf0       ??1?$dgTree@PAVdgBody@@PAX@@QAE@XZ 1000eaf0 f i NewtonClass.obj
 0001:0000db10       ?Minimum@?$dgTree@PAVdgBody@@PAX@@QBEPAVdgTreeNode@1@XZ 1000eb10 f i NewtonClass.obj
 0001:0000db50       ?Insert@?$dgTree@PAVdgBody@@PAX@@QAEPAVdgTreeNode@1@ABQAVdgBody@@PAX@Z 1000eb50 f i NewtonClass.obj
 0001:0000dba0       ?Remove@?$dgTree@PAVdgBody@@PAX@@QAEXQAVdgTreeNode@1@@Z 1000eba0 f i NewtonClass.obj
 0001:0000dbe0       ??0?$dgTree@PAVdgConstraint@@PAX@@QAE@QAVdgMemoryAllocator@@@Z 1000ebe0 f i NewtonClass.obj
 0001:0000dc20       ??1?$dgTree@PAVdgConstraint@@PAX@@QAE@XZ 1000ec20 f i NewtonClass.obj
 0001:0000dc40       ?Minimum@?$dgTree@PAVdgConstraint@@PAX@@QBEPAVdgTreeNode@1@XZ 1000ec40 f i NewtonClass.obj
 0001:0000dc80       ?Insert@?$dgTree@PAVdgConstraint@@PAX@@QAEPAVdgTreeNode@1@ABQAVdgConstraint@@PAX@Z 1000ec80 f i NewtonClass.obj
 0001:0000dcd0       ?Remove@?$dgTree@PAVdgConstraint@@PAX@@QAEXQAVdgTreeNode@1@@Z 1000ecd0 f i NewtonClass.obj
 0001:0000dd10       ?Insert@?$dgTree@PAVdgBody@@PAX@@QAEPAVdgTreeNode@1@ABQAVdgBody@@PAXAA_N@Z 1000ed10 f i NewtonClass.obj
 0001:0000df80       ?RemoveAll@?$dgTree@PAVdgBody@@PAX@@QAEXXZ 1000ef80 f i NewtonClass.obj
 0001:0000dfc0       ?Insert@?$dgTree@PAVdgConstraint@@PAX@@QAEPAVdgTreeNode@1@ABQAVdgConstraint@@PAXAA_N@Z 1000efc0 f i NewtonClass.obj
 0001:0000e230       ?RemoveAll@?$dgTree@PAVdgConstraint@@PAX@@QAEXXZ 1000f230 f i NewtonClass.obj
 0001:0000e270       ??0dgTreeNode@?$dgTree@PAVdgBody@@PAX@@AAE@ABQAVdgBody@@ABQAXPAV01@@Z 1000f270 f i NewtonClass.obj
 0001:0000e300       ?GetLeft@dgTreeNode@?$dgTree@PAVdgBody@@PAX@@ABEPAV12@XZ 1000f300 f i NewtonClass.obj
 0001:0000e320       ?GetRight@dgTreeNode@?$dgTree@PAVdgBody@@PAX@@ABEPAV12@XZ 1000f320 f i NewtonClass.obj
 0001:0000e340       ??0dgTreeNode@?$dgTree@PAVdgConstraint@@PAX@@AAE@ABQAVdgConstraint@@ABQAXPAV01@@Z 1000f340 f i NewtonClass.obj
 0001:0000e3d0       ?GetLeft@dgTreeNode@?$dgTree@PAVdgConstraint@@PAX@@ABEPAV12@XZ 1000f3d0 f i NewtonClass.obj
 0001:0000e3f0       ?GetRight@dgTreeNode@?$dgTree@PAVdgConstraint@@PAX@@ABEPAV12@XZ 1000f3f0 f i NewtonClass.obj
 0001:0000e410       ?CompareKeys@?$dgTree@PAVdgBody@@PAX@@ABEHABQAX0@Z 1000f410 f i NewtonClass.obj
 0001:0000e450       ?CompareKeys@?$dgTree@PAVdgConstraint@@PAX@@ABEHABQAX0@Z 1000f450 f i NewtonClass.obj
 0001:0000e490       ??3dgConstraint@@SAXPAX@Z  1000f490 f i NewtonClass.obj
 0001:0000e4b0       ?SetUpdateFeedbackFunction@dgConstraint@@IAEXP6AXABV1@NH@Z@Z 1000f4b0 f i NewtonClass.obj
 0001:0000e4d0       ??_H@YGXPAXIHP6EPAX0@Z@Z   1000f4d0 f i NewtonClass.obj
 0001:0000e500       ?Init@dgBilateralConstraint@@MAEXXZ 1000f500 f i NewtonClass.obj
 0001:0000e540       ?Remove@dgBilateralConstraint@@MAEXPAVdgWorld@@@Z 1000f540 f i NewtonClass.obj
 0001:0000e580       ??0dgWorld@@QAE@QAVdgMemoryAllocator@@@Z 1000f580 f   physics:dgWorld.obj
 0001:0000eb00       ??1dgWorld@@QAE@XZ         1000fb00 f   physics:dgWorld.obj
 0001:0000eca0       ?GetPerformanceCount@dgWorld@@CAIXZ 1000fca0 f   physics:dgWorld.obj
 0001:0000ecb0       ?AddSentinelBody@dgWorld@@AAEXXZ 1000fcb0 f   physics:dgWorld.obj
 0001:0000ed40       ?GetSentinelBody@dgWorld@@QBEPAVdgBody@@XZ 1000fd40 f   physics:dgWorld.obj
 0001:0000ed60       ?SetSolverMode@dgWorld@@QAEXH@Z 1000fd60 f   physics:dgWorld.obj
 0001:0000ed90       ?SetFrictionMode@dgWorld@@QAEXH@Z 1000fd90 f   physics:dgWorld.obj
 0001:0000edb0       ?SetHardwareMode@dgWorld@@QAEXH@Z 1000fdb0 f   physics:dgWorld.obj
 0001:0000ede0       ?GetHardwareMode@dgWorld@@QAEHPAD@Z 1000fde0 f   physics:dgWorld.obj
 0001:0000ee40       ?SetThreadsCount@dgWorld@@QAEXH@Z 1000fe40 f   physics:dgWorld.obj
 0001:0000ee80       ?GetThreadsCount@dgWorld@@QBEHXZ 1000fe80 f   physics:dgWorld.obj
 0001:0000eea0       ?GetMaxThreadsCount@dgWorld@@QBEHXZ 1000fea0 f   physics:dgWorld.obj
 0001:0000eec0       ?EnableThreadOnSingleIsland@dgWorld@@QAEXH@Z 1000fec0 f   physics:dgWorld.obj
 0001:0000eee0       ?GetThreadOnSingleIsland@dgWorld@@QBEHXZ 1000fee0 f   physics:dgWorld.obj
 0001:0000ef00       ?SetFrictionThreshold@dgWorld@@QAEXN@Z 1000ff00 f   physics:dgWorld.obj
 0001:0000ef40       ?RemoveAllGroupID@dgWorld@@QAEXXZ 1000ff40 f   physics:dgWorld.obj
 0001:0000efa0       ?DestroyAllBodies@dgWorld@@QAEXXZ 1000ffa0 f   physics:dgWorld.obj
 0001:0000f0b0       ?CreateBody@dgWorld@@QAEPAVdgBody@@QAVdgCollision@@ABVdgMatrix@@@Z 100100b0 f   physics:dgWorld.obj
 0001:0000f3b0       ?DestroyBody@dgWorld@@QAEXQAVdgBody@@@Z 100103b0 f   physics:dgWorld.obj
 0001:0000f460       ?DestroyConstraint@dgWorld@@QAEXPAVdgConstraint@@@Z 10010460 f   physics:dgWorld.obj
 0001:0000f4b0       ?UpdateCollision@dgWorld@@QAEXXZ 100104b0 f   physics:dgWorld.obj
 0001:0000f5c0       ?Update@dgWorld@@QAEXN@Z   100105c0 f   physics:dgWorld.obj
 0001:0000f750       ?GetPerformaceFuntion@dgWorld@@QBEP6AIXZXZ 10010750 f   physics:dgWorld.obj
 0001:0000f770       ?SetPerfomanceCounter@dgWorld@@QAEXP6AIXZ@Z 10010770 f   physics:dgWorld.obj
 0001:0000f7c0       ?GetPerfomanceTicks@dgWorld@@QBEII@Z 100107c0 f   physics:dgWorld.obj
 0001:0000f7f0       ?GetThreadPerfomanceTicks@dgWorld@@QBEII@Z 100107f0 f   physics:dgWorld.obj
 0001:0000f810       ?SetUserData@dgWorld@@QAEXQAX@Z 10010810 f   physics:dgWorld.obj
 0001:0000f830       ?GetUserData@dgWorld@@QBEPAXXZ 10010830 f   physics:dgWorld.obj
 0001:0000f850       ?SetIslandUpdateCallback@dgWorld@@QAEXP6AIQBV1@PAXH@Z@Z 10010850 f   physics:dgWorld.obj
 0001:0000f870       ?SetDestroyCollisionCallback@dgWorld@@QAEXP6AXQBV1@PAVdgCollision@@@Z@Z 10010870 f   physics:dgWorld.obj
 0001:0000f890       ?SetLeavingWorldCallback@dgWorld@@QAEXP6AXPAVdgBody@@H@Z@Z 10010890 f   physics:dgWorld.obj
 0001:0000f8b0       ?SetBodyDestructionByExeciveForce@dgWorld@@QAEXP6AXQBVdgBody@@PBVdgContact@@@Z@Z 100108b0 f   physics:dgWorld.obj
 0001:0000f8d0       ?CreateBallConstraint@dgWorld@@QAEPAVdgBallConstraint@@ABVdgVector@@QAVdgBody@@PAV4@@Z 100108d0 f   physics:dgWorld.obj
 0001:0000f990       ?CreateHingeConstraint@dgWorld@@QAEPAVdgHingeConstraint@@ABVdgVector@@0QAVdgBody@@PAV4@@Z 10010990 f   physics:dgWorld.obj
 0001:0000fa50       ?CreateUpVectorConstraint@dgWorld@@QAEPAVdgUpVectorConstraint@@ABVdgVector@@PAVdgBody@@@Z 10010a50 f   physics:dgWorld.obj
 0001:0000faf0       ?CreateSlidingConstraint@dgWorld@@QAEPAVdgSlidingConstraint@@ABVdgVector@@0QAVdgBody@@PAV4@@Z 10010af0 f   physics:dgWorld.obj
 0001:0000fbb0       ?CreateCorkscrewConstraint@dgWorld@@QAEPAVdgCorkscrewConstraint@@ABVdgVector@@0QAVdgBody@@PAV4@@Z 10010bb0 f   physics:dgWorld.obj
 0001:0000fc70       ?CreateUniversalConstraint@dgWorld@@QAEPAVdgUniversalConstraint@@ABVdgVector@@00QAVdgBody@@PAV4@@Z 10010c70 f   physics:dgWorld.obj
 0001:0000fd40       ?GetBodiesCount@dgWorld@@QBEHXZ 10010d40 f   physics:dgWorld.obj
 0001:0000fd60       ?GetConstraintsCount@dgWorld@@QBEHXZ 10010d60 f   physics:dgWorld.obj
 0001:0000fd80       ?BodySetMatrix@dgWorld@@QAEXPAVdgBody@@ABVdgMatrix@@@Z 10010d80 f   physics:dgWorld.obj
 0001:00010050       ?AddBodyImpulse@dgWorld@@QAEXPAVdgBody@@ABVdgVector@@1@Z 10011050 f   physics:dgWorld.obj
 0001:00010080       ?AreBodyConnectedByJoints@dgWorld@@AAE_NQAVdgBody@@0@Z 10011080 f   physics:dgWorld.obj
 0001:00010260       ?FlushCache@dgWorld@@QAEXXZ 10011260 f   physics:dgWorld.obj
 0001:000102e0       ??0dgActiveContacts@@QAE@QAVdgMemoryAllocator@@@Z 100112e0 f i physics:dgWorld.obj
 0001:00010300       ??2dgCollision@@SAPAXIQAVdgMemoryAllocator@@@Z 10011300 f i physics:dgWorld.obj
 0001:00010320       ??0dgBodyCollisionList@@QAE@QAVdgMemoryAllocator@@@Z 10011320 f i physics:dgWorld.obj
 0001:00010340       ??0dgBodyMaterialList@@QAE@QAVdgMemoryAllocator@@@Z 10011340 f i physics:dgWorld.obj
 0001:00010360       ??0dgDetroyBodyByForce@dgWorld@@QAE@XZ 10011360 f i physics:dgWorld.obj
 0001:00010380       ??0dgCollisionPoint@@QAE@QAVdgMemoryAllocator@@@Z 10011380 f i physics:dgWorld.obj
 0001:000103c0       ?ModifierGetMatrix@dgCollision@@UBE?AVdgMatrix@@XZ 100113c0 f i physics:dgWorld.obj
 0001:000103f0       ?ModifierSetMatrix@dgCollision@@UAEXABVdgMatrix@@@Z 100113f0 f i physics:dgWorld.obj
 0001:00010400       ?Release@dgCollision@@UAEHXZ 10011400 f i physics:dgWorld.obj
 0001:00010470       ?SetBreakImpulse@dgCollision@@UAEXN@Z 10011470 f i physics:dgWorld.obj
 0001:00010480       ?GetBreakImpulse@dgCollision@@UBENXZ 10011480 f i physics:dgWorld.obj
 0001:000104a0       ??_EdgCollisionPoint@@UAEPAXI@Z 100114a0 f i physics:dgWorld.obj
 0001:000104a0       ??_GdgCollisionPoint@@UAEPAXI@Z 100114a0 f i physics:dgWorld.obj
 0001:000104d0       ??3dgCollision@@SAXPAX@Z   100114d0 f i physics:dgWorld.obj
 0001:000104f0       ??1dgCollisionPoint@@UAE@XZ 100114f0 f i physics:dgWorld.obj
 0001:00010510       ??_I@YGXPAXIHP6EX0@Z@Z     10011510 f i physics:dgWorld.obj
 0001:00010540       ??1dgBodyMaterialList@@QAE@XZ 10011540 f i physics:dgWorld.obj
 0001:00010560       ??1dgBodyCollisionList@@QAE@XZ 10011560 f i physics:dgWorld.obj
 0001:00010580       ??1dgActiveContacts@@QAE@XZ 10011580 f i physics:dgWorld.obj
 0001:000105a0       ??1dgWorldDynamicUpdate@@QAE@XZ 100115a0 f i physics:dgWorld.obj
 0001:000106b0       ??1dgSolverWorlkerThreads@@UAE@XZ 100116b0 f i physics:dgWorld.obj
 0001:000106d0       ??1dgParallelSolverClear@@UAE@XZ 100116d0 f i physics:dgWorld.obj
 0001:000106f0       ??1dgParallelSolverBodyInertia@@UAE@XZ 100116f0 f i physics:dgWorld.obj
 0001:00010710       ??1dgParallelSolverUpdateVeloc@@UAE@XZ 10011710 f i physics:dgWorld.obj
 0001:00010730       ??1dgParallelSolverUpdateForce@@UAE@XZ 10011730 f i physics:dgWorld.obj
 0001:00010750       ??1dgParallelSolverCalculateForces@@UAE@XZ 10011750 f i physics:dgWorld.obj
 0001:00010770       ??1dgParallelSolverInitInternalForces@@UAE@XZ 10011770 f i physics:dgWorld.obj
 0001:00010790       ??1dgParallelSolverBuildJacobianRows@@UAE@XZ 10011790 f i physics:dgWorld.obj
 0001:000107b0       ??1dgParallelSolverJointAcceleration@@UAE@XZ 100117b0 f i physics:dgWorld.obj
 0001:000107d0       ??1dgParallelSolverInitFeedbackUpdate@@UAE@XZ 100117d0 f i physics:dgWorld.obj
 0001:000107f0       ??1dgParallelSolverBuildJacobianMatrix@@UAE@XZ 100117f0 f i physics:dgWorld.obj
 0001:00010810       ??2dgBody@@SAPAXIQAVdgMemoryAllocator@@@Z 10011810 f i physics:dgWorld.obj
 0001:00010830       ??_GdgBody@@QAEPAXI@Z      10011830 f i physics:dgWorld.obj
 0001:00010860       ??3dgBody@@SAXPAX@Z        10011860 f i physics:dgWorld.obj
 0001:00010880       ?GetInfo@dgListNode@?$dgList@PAVdgContact@@@@QAEAAPAVdgContact@@XZ 10011880 f i physics:dgWorld.obj
 0001:00010890       ?Inverse@dgMatrix@@QBE?AV1@XZ 10011890 f i physics:dgWorld.obj
 0001:000109c0       ?GetNext@dgListNode@?$dgList@PAVdgContact@@@@QBEPAV12@XZ 100119c0 f i physics:dgWorld.obj
 0001:000109e0       ?GetCount@?$dgList@VdgBodyMasterListCell@@@@QBEHXZ 100119e0 f i physics:dgWorld.obj
 0001:000109f0       ?GetCount@?$dgList@VdgBodyMasterListRow@@@@QBEHXZ 100119f0 f i physics:dgWorld.obj
 0001:00010a00       ??0?$dgList@PAVdgContact@@@@QAE@QAVdgMemoryAllocator@@@Z 10011a00 f i physics:dgWorld.obj
 0001:00010a40       ??1?$dgList@PAVdgContact@@@@QAE@XZ 10011a40 f i physics:dgWorld.obj
 0001:00010a60       ?GetFirst@?$dgList@PAVdgContact@@@@QBEPAVdgListNode@1@XZ 10011a60 f i physics:dgWorld.obj
 0001:00010a80       ??0?$dgTree@PAVdgCollision@@I@@QAE@QAVdgMemoryAllocator@@@Z 10011a80 f i physics:dgWorld.obj
 0001:00010ab0       ??1?$dgTree@PAVdgCollision@@I@@QAE@XZ 10011ab0 f i physics:dgWorld.obj
 0001:00010ad0       ?GetCount@?$dgTree@PAVdgCollision@@I@@QBEHXZ 10011ad0 f i physics:dgWorld.obj
 0001:00010ae0       ??0?$dgTree@VdgContactMaterial@@I@@QAE@QAVdgMemoryAllocator@@@Z 10011ae0 f i physics:dgWorld.obj
 0001:00010b10       ??1?$dgTree@VdgContactMaterial@@I@@QAE@XZ 10011b10 f i physics:dgWorld.obj
 0001:00010b30       ?GetCount@?$dgTree@VdgContactMaterial@@I@@QBEHXZ 10011b30 f i physics:dgWorld.obj
 0001:00010b40       ?GetRoot@?$dgTree@VdgContactMaterial@@I@@QBEPAVdgTreeNode@1@XZ 10011b40 f i physics:dgWorld.obj
 0001:00010b60       ?Remove@?$dgTree@VdgContactMaterial@@I@@QAEXQAVdgTreeNode@1@@Z 10011b60 f i physics:dgWorld.obj
 0001:00010ba0       ??0?$dgTree@PAXI@@QAE@QAVdgMemoryAllocator@@@Z 10011ba0 f i physics:dgWorld.obj
 0001:00010bd0       ??1?$dgTree@PAXI@@QAE@XZ   10011bd0 f i physics:dgWorld.obj
 0001:00010bf0       ??$GetMax@H@@YAHHH@Z       10011bf0 f i physics:dgWorld.obj
 0001:00010c10       ??$ClampValue@I@@YAIIII@Z  10011c10 f i physics:dgWorld.obj
 0001:00010c40       ??$Swap@PAVdgBody@@@@YAXAAPAVdgBody@@0@Z 10011c40 f i physics:dgWorld.obj
 0001:00010c70       ??1dgWorkerThread@@UAE@XZ  10011c70 f i physics:dgWorld.obj
 0001:00010c90       ?RemoveAll@?$dgList@PAVdgContact@@@@QAEXXZ 10011c90 f i physics:dgWorld.obj
 0001:00010d50       ??_EdgWorkerThread@@UAEPAXI@Z 10011d50 f i physics:dgWorld.obj
 0001:00010d50       ??_GdgWorkerThread@@UAEPAXI@Z 10011d50 f i physics:dgWorld.obj
 0001:00010d80       ?RemoveAll@?$dgTree@PAVdgCollision@@I@@QAEXXZ 10011d80 f i physics:dgWorld.obj
 0001:00010dc0       ?RemoveAll@?$dgTree@VdgContactMaterial@@I@@QAEXXZ 10011dc0 f i physics:dgWorld.obj
 0001:00010e00       ?RemoveAll@?$dgTree@PAXI@@QAEXXZ 10011e00 f i physics:dgWorld.obj
 0001:00010e40       ??_GdgListNode@?$dgList@PAVdgContact@@@@AAEPAXI@Z 10011e40 f i physics:dgWorld.obj
 0001:00010e70       ??3dgListNode@?$dgList@PAVdgContact@@@@CAXPAX@Z 10011e70 f i physics:dgWorld.obj
 0001:00010e90       ??1dgListNode@?$dgList@PAVdgContact@@@@AAE@XZ 10011e90 f i physics:dgWorld.obj
 0001:00010ea0       ?Unlink@dgListNode@?$dgList@PAVdgContact@@@@AAEXXZ 10011ea0 f i physics:dgWorld.obj
 0001:00010ef0       ??0dgSortArray@@QAE@XZ     10011ef0 f   physics:dgBroadPhaseCollision.obj
 0001:00010f20       ??1dgSortArray@@QAE@XZ     10011f20 f   physics:dgBroadPhaseCollision.obj
 0001:00010f60       ?Add@dgSortArray@@QAEXQAVdgBody@@@Z 10011f60 f   physics:dgBroadPhaseCollision.obj
 0001:00010fd0       ?Remove@dgSortArray@@QAEXQAVdgBody@@@Z 10011fd0 f   physics:dgBroadPhaseCollision.obj
 0001:00011040       ?Sort@dgSortArray@@QAENXZ  10012040 f   physics:dgBroadPhaseCollision.obj
 0001:00011190       ?RayCast@dgSortArray@@QBENNABUdgLineBox@@P6ANQBVdgBody@@ABVdgVector@@HQAXN@ZP6AI1QBVdgCollision@@3@Z3@Z 10012190 f   physics:dgBroadPhaseCollision.obj
 0001:000112c0       ?InvalidateCache@dgSortArray@@QAEXXZ 100122c0 f   physics:dgBroadPhaseCollision.obj
 0001:00011370       ?SanityCheck@dgSortArray@@QAE_NXZ 10012370 f   physics:dgBroadPhaseCollision.obj
 0001:000113f0       ??0dgBroadPhaseCell@@QAE@XZ 100123f0 f   physics:dgBroadPhaseCollision.obj
 0001:00011410       ??1dgBroadPhaseCell@@QAE@XZ 10012410 f   physics:dgBroadPhaseCollision.obj
 0001:00011460       ?Init@dgBroadPhaseCell@@AAEXHPAVdgMemoryAllocator@@@Z 10012460 f   physics:dgBroadPhaseCollision.obj
 0001:000114d0       ?Add@dgBroadPhaseCell@@AAEXQAVdgBody@@@Z 100124d0 f   physics:dgBroadPhaseCollision.obj
 0001:00011560       ?Remove@dgBroadPhaseCell@@AAEXQAVdgBody@@@Z 10012560 f   physics:dgBroadPhaseCollision.obj
 0001:00011620       ?Sort@dgBroadPhaseCell@@AAEXXZ 10012620 f   physics:dgBroadPhaseCollision.obj
 0001:000116b0       ?UpdateAutoPair@dgBroadPhaseCell@@AAEXQAVdgWorld@@H@Z 100126b0 f   physics:dgBroadPhaseCollision.obj
 0001:00011830       ??0dgBroadPhaseLayer@@QAE@XZ 10012830 f   physics:dgBroadPhaseCollision.obj
 0001:00011870       ??1dgBroadPhaseLayer@@QAE@XZ 10012870 f   physics:dgBroadPhaseCollision.obj
 0001:000118b0       ?Init@dgBroadPhaseLayer@@AAEXQAVdgWorld@@NH@Z 100128b0 f   physics:dgBroadPhaseCollision.obj
 0001:00011920       ?FindCreate@dgBroadPhaseLayer@@AAEPAVdgBroadPhaseCell@@HH@Z 10012920 f   physics:dgBroadPhaseCollision.obj
 0001:000119b0       ??0dgBroadPhaseCollision@@AAE@PAVdgMemoryAllocator@@@Z 100129b0 f   physics:dgBroadPhaseCollision.obj
 0001:00011b80       ??1dgBroadPhaseCollision@@AAE@XZ 10012b80 f   physics:dgBroadPhaseCollision.obj
 0001:00011c10       ?Init@dgBroadPhaseCollision@@AAEXXZ 10012c10 f   physics:dgBroadPhaseCollision.obj
 0001:00011c70       ?GetWorldSize@dgBroadPhaseCollision@@QBEXAAVdgVector@@0@Z 10012c70 f   physics:dgBroadPhaseCollision.obj
 0001:00011cb0       ?SetWorldSize@dgBroadPhaseCollision@@QAEXABVdgVector@@0@Z 10012cb0 f   physics:dgBroadPhaseCollision.obj
 0001:000120f0       ?InvalidateCache@dgBroadPhaseCollision@@AAEXXZ 100130f0 f   physics:dgBroadPhaseCollision.obj
 0001:00012180       ?Add@dgBroadPhaseCollision@@AAEXQAVdgBody@@@Z 10013180 f   physics:dgBroadPhaseCollision.obj
 0001:000121e0       ?Remove@dgBroadPhaseCollision@@AAEXQAVdgBody@@@Z 100131e0 f   physics:dgBroadPhaseCollision.obj
 0001:000122b0       ?UpdatePairs@dgBroadPhaseCollision@@ABEXQAVdgBody@@QAVdgListNode@?$dgList@VdgSortArrayEntry@@@@HH@Z 100132b0 f   physics:dgBroadPhaseCollision.obj
 0001:00012400       ?UpdatePairs@dgBroadPhaseCollision@@ABEXAAVdgBroadPhaseCell@@0H@Z 10013400 f   physics:dgBroadPhaseCollision.obj
 0001:000124e0       ?ForEachBodyInAABB@dgBroadPhaseCollision@@QBEXABVdgVector@@0P6AXPAVdgBody@@QAX@Z2@Z 100134e0 f   physics:dgBroadPhaseCollision.obj
 0001:00012760       ?ConvexCast@dgBroadPhaseCollision@@QBEHQAVdgCollision@@ABVdgMatrix@@ABVdgVector@@AANP6AIQBVdgBody@@QBV2@QAX@Z6QAVdgConvexCastReturnInfo@@HH@Z 10013760 f   physics:dgBroadPhaseCollision.obj
 0001:00013290       ?Realloc@dgBroadPhaseCalculateContactsWorkerThread@@QAEXHHH@Z 10014290 f   physics:dgBroadPhaseCollision.obj
 0001:000133f0       ?ThreadExecute@dgBroadPhaseCellPairsWorkerThread@@UAEXXZ 100143f0 f   physics:dgBroadPhaseCollision.obj
 0001:000134b0       ?ThreadExecute@dgBroadPhaseApplyExternalForce@@UAEXXZ 100144b0 f   physics:dgBroadPhaseCollision.obj
 0001:000139a0       ?ThreadExecute@dgBroadPhaseCalculateContactsWorkerThread@@UAEXXZ 100149a0 f   physics:dgBroadPhaseCollision.obj
 0001:00013c10       ?ThreadExecute@dgBroadPhaseMaterialCallbackWorkerThread@@UAEXXZ 10014c10 f   physics:dgBroadPhaseCollision.obj
 0001:00013d60       ?RayCast@dgBroadPhaseCollision@@QBEXABVdgVector@@0P6ANQBVdgBody@@0HQAXN@ZP6AI1QBVdgCollision@@2@Z2@Z 10014d60 f   physics:dgBroadPhaseCollision.obj
 0001:00014760       ?UpdateBodyBroadphase@dgBroadPhaseCollision@@AAEXQAVdgBody@@H@Z 10015760 f   physics:dgBroadPhaseCollision.obj
 0001:00014d50       ?UpdateContactsBroadPhaseBegin@dgBroadPhaseCollision@@AAEIN_NI@Z 10015d50 f   physics:dgBroadPhaseCollision.obj
 0001:00015dc0       ?UpdateContactsBroadPhaseEnd@dgBroadPhaseCollision@@AAEXN@Z 10016dc0 f   physics:dgBroadPhaseCollision.obj
 0001:00015f40       ?UpdateContactsSimd@dgBroadPhaseCollision@@AAEXN_N@Z 10016f40 f   physics:dgBroadPhaseCollision.obj
 0001:00015f50       ?UpdateContacts@dgBroadPhaseCollision@@AAEXN_N@Z 10016f50 f   physics:dgBroadPhaseCollision.obj
 0001:000162d0       ?GetKey@dgBroadPhaseLayer@@ABEIHH@Z 100172d0 f i physics:dgBroadPhaseCollision.obj
 0001:000162f0       ??0dgBroadPhaseApplyExternalForce@@QAE@XZ 100172f0 f i physics:dgBroadPhaseCollision.obj
 0001:00016310       ??0dgBroadPhaseCellPairsWorkerThread@@QAE@XZ 10017310 f i physics:dgBroadPhaseCollision.obj
 0001:00016330       ??0dgBroadPhaseMaterialCallbackWorkerThread@@QAE@XZ 10017330 f i physics:dgBroadPhaseCollision.obj
 0001:00016350       ??0dgBroadPhaseCalculateContactsWorkerThread@@QAE@XZ 10017350 f i physics:dgBroadPhaseCollision.obj
 0001:00016370       ??_EdgBroadPhaseApplyExternalForce@@UAEPAXI@Z 10017370 f i physics:dgBroadPhaseCollision.obj
 0001:00016370       ??_GdgBroadPhaseApplyExternalForce@@UAEPAXI@Z 10017370 f i physics:dgBroadPhaseCollision.obj
 0001:000163a0       ??1dgBroadPhaseApplyExternalForce@@UAE@XZ 100173a0 f i physics:dgBroadPhaseCollision.obj
 0001:000163c0       ??_EdgBroadPhaseCellPairsWorkerThread@@UAEPAXI@Z 100173c0 f i physics:dgBroadPhaseCollision.obj
 0001:000163c0       ??_GdgBroadPhaseCellPairsWorkerThread@@UAEPAXI@Z 100173c0 f i physics:dgBroadPhaseCollision.obj
 0001:000163f0       ??1dgBroadPhaseCellPairsWorkerThread@@UAE@XZ 100173f0 f i physics:dgBroadPhaseCollision.obj
 0001:00016410       ??_GdgBroadPhaseMaterialCallbackWorkerThread@@UAEPAXI@Z 10017410 f i physics:dgBroadPhaseCollision.obj
 0001:00016410       ??_EdgBroadPhaseMaterialCallbackWorkerThread@@UAEPAXI@Z 10017410 f i physics:dgBroadPhaseCollision.obj
 0001:00016440       ??1dgBroadPhaseMaterialCallbackWorkerThread@@UAE@XZ 10017440 f i physics:dgBroadPhaseCollision.obj
 0001:00016460       ??_GdgBroadPhaseCalculateContactsWorkerThread@@UAEPAXI@Z 10017460 f i physics:dgBroadPhaseCollision.obj
 0001:00016460       ??_EdgBroadPhaseCalculateContactsWorkerThread@@UAEPAXI@Z 10017460 f i physics:dgBroadPhaseCollision.obj
 0001:00016490       ??1dgBroadPhaseCalculateContactsWorkerThread@@UAE@XZ 10017490 f i physics:dgBroadPhaseCollision.obj
 0001:000164b0       ?Find@dgBroadPhaseLayer@@ABEPAVdgBroadPhaseCell@@HH@Z 100174b0 f i physics:dgBroadPhaseCollision.obj
 0001:00016500       ?ApplyExtenalForces@dgBody@@AAEXNH@Z 10017500 f i physics:dgBroadPhaseCollision.obj
 0001:000165d0       ?IsInEquelibrium@dgBody@@QBE_NXZ 100175d0 f i physics:dgBroadPhaseCollision.obj
 0001:000167e0       ??0dgWorkerThread@@QAE@XZ  100177e0 f i physics:dgBroadPhaseCollision.obj
 0001:00016810       ?dgOverlapTest@@YAHABVdgVector@@000@Z 10017810 f i physics:dgBroadPhaseCollision.obj
 0001:000168a0       ??0dgLineBox@@QAE@XZ       100178a0 f i physics:dgBroadPhaseCollision.obj
 0001:000168e0       ?GetCollisionPrimityType@dgCollision@@QBE?AW4dgCollisionID@@XZ 100178e0 f i physics:dgBroadPhaseCollision.obj
 0001:00016900       ?KeyToIndex@dgBroadPhaseLayer@@ABEXHAAH0@Z 10017900 f i physics:dgBroadPhaseCollision.obj
 0001:00016930       ?GetKey@dgTreeNode@?$dgTree@VdgBroadPhaseCell@@I@@QBEABIXZ 10017930 f i physics:dgBroadPhaseCollision.obj
 0001:00016950       ?GetInfo@dgTreeNode@?$dgTree@VdgBroadPhaseCell@@I@@QAEAAVdgBroadPhaseCell@@XZ 10017950 f i physics:dgBroadPhaseCollision.obj
 0001:00016970       ?GetInfo@dgListNode@?$dgList@VdgSortArrayEntry@@@@QAEAAVdgSortArrayEntry@@XZ 10017970 f i physics:dgBroadPhaseCollision.obj
 0001:00016980       ?GetNext@dgListNode@?$dgList@VdgSortArrayEntry@@@@QBEPAV12@XZ 10017980 f i physics:dgBroadPhaseCollision.obj
 0001:000169a0       ?GetPrev@dgListNode@?$dgList@VdgSortArrayEntry@@@@QBEPAV12@XZ 100179a0 f i physics:dgBroadPhaseCollision.obj
 0001:000169c0       ??0Iterator@?$dgTree@VdgBroadPhaseCell@@I@@QAE@ABV1@@Z 100179c0 f i physics:dgBroadPhaseCollision.obj
 0001:000169f0       ??1Iterator@?$dgTree@VdgBroadPhaseCell@@I@@QAE@XZ 100179f0 f i physics:dgBroadPhaseCollision.obj
 0001:00016a00       ?Begin@Iterator@?$dgTree@VdgBroadPhaseCell@@I@@QAEXXZ 10017a00 f i physics:dgBroadPhaseCollision.obj
 0001:00016a20       ??BIterator@?$dgTree@VdgBroadPhaseCell@@I@@QBEHXZ 10017a20 f i physics:dgBroadPhaseCollision.obj
 0001:00016a40       ??EIterator@?$dgTree@VdgBroadPhaseCell@@I@@QAEXH@Z 10017a40 f i physics:dgBroadPhaseCollision.obj
 0001:00016a90       ?GetNode@Iterator@?$dgTree@VdgBroadPhaseCell@@I@@QBEPAVdgTreeNode@2@XZ 10017a90 f i physics:dgBroadPhaseCollision.obj
 0001:00016aa0       ??A?$dgTemplateVector@N@@QBEABNH@Z 10017aa0 f i physics:dgBroadPhaseCollision.obj
 0001:00016b10       ??Z?$dgTemplateVector@N@@QAEAAV0@ABV0@@Z 10017b10 f i physics:dgBroadPhaseCollision.obj
 0001:00016bf0       ??0?$dgList@VdgSortArrayEntry@@@@QAE@QAVdgMemoryAllocator@@@Z 10017bf0 f i physics:dgBroadPhaseCollision.obj
 0001:00016c30       ??1?$dgList@VdgSortArrayEntry@@@@QAE@XZ 10017c30 f i physics:dgBroadPhaseCollision.obj
 0001:00016c50       ?SetAllocator@?$dgList@VdgSortArrayEntry@@@@QAEXQAVdgMemoryAllocator@@@Z 10017c50 f i physics:dgBroadPhaseCollision.obj
 0001:00016c80       ?GetCount@?$dgList@VdgSortArrayEntry@@@@QBEHXZ 10017c80 f i physics:dgBroadPhaseCollision.obj
 0001:00016c90       ?GetFirst@?$dgList@VdgSortArrayEntry@@@@QBEPAVdgListNode@1@XZ 10017c90 f i physics:dgBroadPhaseCollision.obj
 0001:00016cb0       ?Append@?$dgList@VdgSortArrayEntry@@@@QAEPAVdgListNode@1@XZ 10017cb0 f i physics:dgBroadPhaseCollision.obj
 0001:00016d70       ?RotateToBegin@?$dgList@VdgSortArrayEntry@@@@QAEXQAVdgListNode@1@@Z 10017d70 f i physics:dgBroadPhaseCollision.obj
 0001:00016de0       ?InsertAfter@?$dgList@VdgSortArrayEntry@@@@QAEXQAVdgListNode@1@0@Z 10017de0 f i physics:dgBroadPhaseCollision.obj
 0001:00016fb0       ?Remove@?$dgList@VdgSortArrayEntry@@@@QAEXQAVdgListNode@1@@Z 10017fb0 f i physics:dgBroadPhaseCollision.obj
 0001:00017000       ??0?$dgTree@VdgBroadPhaseCell@@I@@QAE@QAVdgMemoryAllocator@@@Z 10018000 f i physics:dgBroadPhaseCollision.obj
 0001:00017030       ??1?$dgTree@VdgBroadPhaseCell@@I@@QAE@XZ 10018030 f i physics:dgBroadPhaseCollision.obj
 0001:00017050       ?SetAllocator@?$dgTree@VdgBroadPhaseCell@@I@@QAEXQAVdgMemoryAllocator@@@Z 10018050 f i physics:dgBroadPhaseCollision.obj
 0001:00017080       ?GetCount@?$dgTree@VdgBroadPhaseCell@@I@@QBEHXZ 10018080 f i physics:dgBroadPhaseCollision.obj
 0001:00017090       ?Minimum@?$dgTree@VdgBroadPhaseCell@@I@@QBEPAVdgTreeNode@1@XZ 10018090 f i physics:dgBroadPhaseCollision.obj
 0001:000170c0       ?Find@?$dgTree@VdgBroadPhaseCell@@I@@QBEPAVdgTreeNode@1@I@Z 100180c0 f i physics:dgBroadPhaseCollision.obj
 0001:000171e0       ?GetNodeFromInfo@?$dgTree@VdgBroadPhaseCell@@I@@QBEPAVdgTreeNode@1@AAVdgBroadPhaseCell@@@Z 100181e0 f i physics:dgBroadPhaseCollision.obj
 0001:00017280       ?IsInTree@dgRedBackNode@@QBEIXZ 10018280 f i physics:dgBroadPhaseCollision.obj
 0001:000172a0       ?Insert@?$dgTree@VdgBroadPhaseCell@@I@@QAEPAVdgTreeNode@1@ABVdgBroadPhaseCell@@I@Z 100182a0 f i physics:dgBroadPhaseCollision.obj
 0001:000172e0       ?Remove@?$dgTree@VdgBroadPhaseCell@@I@@QAEXQAVdgTreeNode@1@@Z 100182e0 f i physics:dgBroadPhaseCollision.obj
 0001:00017320       ??_GdgListNode@?$dgList@VdgSortArrayEntry@@@@AAEPAXI@Z 10018320 f i physics:dgBroadPhaseCollision.obj
 0001:00017350       ?GetLeft@dgTreeNode@?$dgTree@VdgBroadPhaseCell@@I@@ABEPAV12@XZ 10018350 f i physics:dgBroadPhaseCollision.obj
 0001:00017360       ?GetRight@dgTreeNode@?$dgTree@VdgBroadPhaseCell@@I@@ABEPAV12@XZ 10018360 f i physics:dgBroadPhaseCollision.obj
 0001:00017380       ??2dgListNode@?$dgList@VdgSortArrayEntry@@@@CAPAXIQAVdgMemoryAllocator@@@Z 10018380 f i physics:dgBroadPhaseCollision.obj
 0001:000173a0       ??3dgListNode@?$dgList@VdgSortArrayEntry@@@@CAXPAX@Z 100183a0 f i physics:dgBroadPhaseCollision.obj
 0001:000173c0       ??0dgListNode@?$dgList@VdgSortArrayEntry@@@@AAE@QAV01@0@Z 100183c0 f i physics:dgBroadPhaseCollision.obj
 0001:00017460       ??1dgListNode@?$dgList@VdgSortArrayEntry@@@@AAE@XZ 10018460 f i physics:dgBroadPhaseCollision.obj
 0001:00017470       ?Unlink@dgListNode@?$dgList@VdgSortArrayEntry@@@@AAEXXZ 10018470 f i physics:dgBroadPhaseCollision.obj
 0001:000174c0       ?AddFirst@dgListNode@?$dgList@VdgSortArrayEntry@@@@AAEXQAV12@@Z 100184c0 f i physics:dgBroadPhaseCollision.obj
 0001:000174e0       ?RemoveAll@?$dgList@VdgSortArrayEntry@@@@QAEXXZ 100184e0 f i physics:dgBroadPhaseCollision.obj
 0001:000175a0       ?Unlink@?$dgList@VdgSortArrayEntry@@@@QAEXQAVdgListNode@1@@Z 100185a0 f i physics:dgBroadPhaseCollision.obj
 0001:00017650       ?SanityCheck@?$dgList@VdgSortArrayEntry@@@@QBE_NXZ 10018650 f i physics:dgBroadPhaseCollision.obj
 0001:000177d0       ?Insert@?$dgTree@VdgBroadPhaseCell@@I@@QAEPAVdgTreeNode@1@ABVdgBroadPhaseCell@@IAA_N@Z 100187d0 f i physics:dgBroadPhaseCollision.obj
 0001:000179d0       ?RemoveAll@?$dgTree@VdgBroadPhaseCell@@I@@QAEXXZ 100189d0 f i physics:dgBroadPhaseCollision.obj
 0001:00017a10       ?CompareKeys@?$dgTree@VdgBroadPhaseCell@@I@@ABEHABI0@Z 10018a10 f i physics:dgBroadPhaseCollision.obj
 0001:00017a50       ??0dgTreeNode@?$dgTree@VdgBroadPhaseCell@@I@@AAE@ABVdgBroadPhaseCell@@ABIPAV01@@Z 10018a50 f i physics:dgBroadPhaseCollision.obj
 0001:00017ad0       ?GetIslandBody@dgWorld@@QBEPAVdgBody@@QBXH@Z 10018ad0 f   physics:dgWorldDynamicUpdate.obj
 0001:00017b40       ??0dgWorldDynamicUpdate@@AAE@XZ 10018b40 f   physics:dgWorldDynamicUpdate.obj
 0001:00017ca0       ?UpdateDynamics@dgWorldDynamicUpdate@@AAEXQAVdgWorld@@HN@Z 10018ca0 f   physics:dgWorldDynamicUpdate.obj
 0001:00018360       ?ThreadExecute@dgSolverWorlkerThreads@@UAEXXZ 10019360 f   physics:dgWorldDynamicUpdate.obj
 0001:00019140       ?ReallocBodyMemory@dgWorldDynamicUpdate@@AAEXH@Z 1001a140 f   physics:dgWorldDynamicUpdate.obj
 0001:000192a0       ?ReallocIslandMemory@dgWorldDynamicUpdate@@AAEXH@Z 1001a2a0 f   physics:dgWorldDynamicUpdate.obj
 0001:00019400       ?ReallocJointsMemory@dgWorldDynamicUpdate@@AAEXH@Z 1001a400 f   physics:dgWorldDynamicUpdate.obj
 0001:00019560       ?ReallocJacobiansMemory@dgWorldDynamicUpdate@@AAEXHH@Z 1001a560 f   physics:dgWorldDynamicUpdate.obj
 0001:00019e00       ?ReallocIntenalForcesMemory@dgWorldDynamicUpdate@@AAEXHH@Z 1001ae00 f   physics:dgWorldDynamicUpdate.obj
 0001:0001a060       ?BuildIsland@dgWorldDynamicUpdate@@AAEXAAV?$dgQueue@PAVdgBody@@@@HHH@Z 1001b060 f   physics:dgWorldDynamicUpdate.obj
 0001:0001a5b0       ?SpanningTree@dgWorldDynamicUpdate@@AAEXQAVdgBody@@@Z 1001b5b0 f   physics:dgWorldDynamicUpdate.obj
 0001:0001b020       ?IntegrateArray@dgWorldDynamicUpdate@@ABEXPBVdgBodyInfo@@HNNH_N@Z 1001c020 f   physics:dgWorldDynamicUpdate.obj
 0001:0001b7c0       ?GetJacobialDerivatives@dgWorldDynamicUpdate@@AAEHABVdgIsland@@H_NHN@Z 1001c7c0 f   physics:dgWorldDynamicUpdate.obj
 0001:0001bf90       ?BuildJacobianMatrixSimd@dgWorldDynamicUpdate@@AAEXABVdgIsland@@HN@Z 1001cf90 f   physics:dgWorldDynamicUpdate.obj
 0001:0001bfa0       ?BuildJacobianMatrix@dgWorldDynamicUpdate@@AAEXABVdgIsland@@HN@Z 1001cfa0 f   physics:dgWorldDynamicUpdate.obj
 0001:0001c970       ?CalculateReactionsForcesSimd@dgJacobianMemory@@QBEXHN@Z 1001d970 f   physics:dgWorldDynamicUpdate.obj
 0001:0001c980       ?CalculateReactionsForces@dgJacobianMemory@@QBEXHN@Z 1001d980 f   physics:dgWorldDynamicUpdate.obj
 0001:0001ca10       ?ApplyExternalForcesAndAccelerationSimd@dgJacobianMemory@@QBEXN@Z 1001da10 f   physics:dgWorldDynamicUpdate.obj
 0001:0001ca20       ?ApplyExternalForcesAndAcceleration@dgJacobianMemory@@QBEXN@Z 1001da20 f   physics:dgWorldDynamicUpdate.obj
 0001:0001d040       ?SwapRowsSimd@dgJacobianMemory@@QBEXHH@Z 1001e040 f   physics:dgWorldDynamicUpdate.obj
 0001:0001d050       ?SwapRows@dgJacobianMemory@@QBEXHH@Z 1001e050 f   physics:dgWorldDynamicUpdate.obj
 0001:0001d240       ?CalculateSimpleBodyReactionsForcesSimd@dgJacobianMemory@@QBEXN@Z 1001e240 f   physics:dgWorldDynamicUpdate.obj
 0001:0001d250       ?CalculateSimpleBodyReactionsForces@dgJacobianMemory@@QBEXN@Z 1001e250 f   physics:dgWorldDynamicUpdate.obj
 0001:0001e4d0       ?CalculateForcesSimulationModeSimd@dgJacobianMemory@@QBEXN@Z 1001f4d0 f   physics:dgWorldDynamicUpdate.obj
 0001:0001e4e0       ?CalculateForcesSimulationMode@dgJacobianMemory@@QBEXN@Z 1001f4e0 f   physics:dgWorldDynamicUpdate.obj
 0001:00020b00       ?CalculateJointForcesSimd@dgJacobianMemory@@QBENHPANN@Z 10021b00 f   physics:dgWorldDynamicUpdate.obj
 0001:00020b10       ?CalculateJointForces@dgJacobianMemory@@QBENHPANN@Z 10021b10 f   physics:dgWorldDynamicUpdate.obj
 0001:00021e00       ?CalculateForcesGameModeSimd@dgJacobianMemory@@QBEXHN@Z 10022e00 f   physics:dgWorldDynamicUpdate.obj
 0001:00021e10       ?CalculateForcesGameMode@dgJacobianMemory@@QBEXHN@Z 10022e10 f   physics:dgWorldDynamicUpdate.obj
 0001:00023010       ?ThreadExecute@dgParallelSolverBodyInertia@@UAEXXZ 10024010 f   physics:dgWorldDynamicUpdate.obj
 0001:00023110       ?ThreadExecute@dgParallelSolverBuildJacobianRows@@UAEXXZ 10024110 f   physics:dgWorldDynamicUpdate.obj
 0001:00023700       ?ThreadExecute@dgParallelSolverBuildJacobianMatrix@@UAEXXZ 10024700 f   physics:dgWorldDynamicUpdate.obj
 0001:00023f00       ?GetJacobialDerivativesParallel@dgWorldDynamicUpdate@@AAEHABVdgIsland@@_NHN@Z 10024f00 f   physics:dgWorldDynamicUpdate.obj
 0001:000240a0       ?BuildJacobianMatrixParallel@dgWorldDynamicUpdate@@AAEXABVdgIsland@@NH@Z 100250a0 f   physics:dgWorldDynamicUpdate.obj
 0001:000246c0       ?ThreadExecute@dgParallelSolverClear@@UAEXXZ 100256c0 f   physics:dgWorldDynamicUpdate.obj
 0001:000247f0       ?ThreadExecute@dgParallelSolverInitInternalForces@@UAEXXZ 100257f0 f   physics:dgWorldDynamicUpdate.obj
 0001:00024b60       ?ThreadExecute@dgParallelSolverJointAcceleration@@UAEXXZ 10025b60 f   physics:dgWorldDynamicUpdate.obj
 0001:00024e60       ?ThreadExecute@dgParallelSolverUpdateVeloc@@UAEXXZ 10025e60 f   physics:dgWorldDynamicUpdate.obj
 0001:00025000       ?ThreadExecute@dgParallelSolverUpdateForce@@UAEXXZ 10026000 f   physics:dgWorldDynamicUpdate.obj
 0001:00025300       ?ThreadExecute@dgParallelSolverInitFeedbackUpdate@@UAEXXZ 10026300 f   physics:dgWorldDynamicUpdate.obj
 0001:00025400       ?ThreadExecute@dgParallelSolverCalculateForces@@UAEXXZ 10026400 f   physics:dgWorldDynamicUpdate.obj
 0001:00025980       ?CalculateForcesGameModeParallel@dgJacobianMemory@@QBEXHNH@Z 10026980 f   physics:dgWorldDynamicUpdate.obj
 0001:00026940       ?CalculateReactionsForcesParallel@dgJacobianMemory@@QBEXHNH@Z 10027940 f   physics:dgWorldDynamicUpdate.obj
 0001:000269a0       ??0dgSolverWorlkerThreads@@QAE@XZ 100279a0 f i physics:dgWorldDynamicUpdate.obj
 0001:000269c0       ??0dgParallelSolverClear@@QAE@XZ 100279c0 f i physics:dgWorldDynamicUpdate.obj
 0001:000269e0       ??0dgParallelSolverBodyInertia@@QAE@XZ 100279e0 f i physics:dgWorldDynamicUpdate.obj
 0001:00026a00       ??0dgParallelSolverUpdateVeloc@@QAE@XZ 10027a00 f i physics:dgWorldDynamicUpdate.obj
 0001:00026a20       ??0dgParallelSolverUpdateForce@@QAE@XZ 10027a20 f i physics:dgWorldDynamicUpdate.obj
 0001:00026a40       ??0dgParallelSolverCalculateForces@@QAE@XZ 10027a40 f i physics:dgWorldDynamicUpdate.obj
 0001:00026a60       ??0dgParallelSolverInitInternalForces@@QAE@XZ 10027a60 f i physics:dgWorldDynamicUpdate.obj
 0001:00026a80       ??0dgParallelSolverBuildJacobianRows@@QAE@XZ 10027a80 f i physics:dgWorldDynamicUpdate.obj
 0001:00026aa0       ??0dgParallelSolverJointAcceleration@@QAE@XZ 10027aa0 f i physics:dgWorldDynamicUpdate.obj
 0001:00026ac0       ??0dgParallelSolverInitFeedbackUpdate@@QAE@XZ 10027ac0 f i physics:dgWorldDynamicUpdate.obj
 0001:00026ae0       ??0dgParallelSolverBuildJacobianMatrix@@QAE@XZ 10027ae0 f i physics:dgWorldDynamicUpdate.obj
 0001:00026b00       ??_EdgSolverWorlkerThreads@@UAEPAXI@Z 10027b00 f i physics:dgWorldDynamicUpdate.obj
 0001:00026b00       ??_GdgSolverWorlkerThreads@@UAEPAXI@Z 10027b00 f i physics:dgWorldDynamicUpdate.obj
 0001:00026b30       ??_GdgParallelSolverClear@@UAEPAXI@Z 10027b30 f i physics:dgWorldDynamicUpdate.obj
 0001:00026b30       ??_EdgParallelSolverClear@@UAEPAXI@Z 10027b30 f i physics:dgWorldDynamicUpdate.obj
 0001:00026b60       ??_GdgParallelSolverBodyInertia@@UAEPAXI@Z 10027b60 f i physics:dgWorldDynamicUpdate.obj
 0001:00026b60       ??_EdgParallelSolverBodyInertia@@UAEPAXI@Z 10027b60 f i physics:dgWorldDynamicUpdate.obj
 0001:00026b90       ??_EdgParallelSolverUpdateVeloc@@UAEPAXI@Z 10027b90 f i physics:dgWorldDynamicUpdate.obj
 0001:00026b90       ??_GdgParallelSolverUpdateVeloc@@UAEPAXI@Z 10027b90 f i physics:dgWorldDynamicUpdate.obj
 0001:00026bc0       ??_GdgParallelSolverUpdateForce@@UAEPAXI@Z 10027bc0 f i physics:dgWorldDynamicUpdate.obj
 0001:00026bc0       ??_EdgParallelSolverUpdateForce@@UAEPAXI@Z 10027bc0 f i physics:dgWorldDynamicUpdate.obj
 0001:00026bf0       ??_EdgParallelSolverCalculateForces@@UAEPAXI@Z 10027bf0 f i physics:dgWorldDynamicUpdate.obj
 0001:00026bf0       ??_GdgParallelSolverCalculateForces@@UAEPAXI@Z 10027bf0 f i physics:dgWorldDynamicUpdate.obj
 0001:00026c20       ??_GdgParallelSolverInitInternalForces@@UAEPAXI@Z 10027c20 f i physics:dgWorldDynamicUpdate.obj
 0001:00026c20       ??_EdgParallelSolverInitInternalForces@@UAEPAXI@Z 10027c20 f i physics:dgWorldDynamicUpdate.obj
 0001:00026c50       ??_EdgParallelSolverBuildJacobianRows@@UAEPAXI@Z 10027c50 f i physics:dgWorldDynamicUpdate.obj
 0001:00026c50       ??_GdgParallelSolverBuildJacobianRows@@UAEPAXI@Z 10027c50 f i physics:dgWorldDynamicUpdate.obj
 0001:00026c80       ??_GdgParallelSolverJointAcceleration@@UAEPAXI@Z 10027c80 f i physics:dgWorldDynamicUpdate.obj
 0001:00026c80       ??_EdgParallelSolverJointAcceleration@@UAEPAXI@Z 10027c80 f i physics:dgWorldDynamicUpdate.obj
 0001:00026cb0       ??_GdgParallelSolverInitFeedbackUpdate@@UAEPAXI@Z 10027cb0 f i physics:dgWorldDynamicUpdate.obj
 0001:00026cb0       ??_EdgParallelSolverInitFeedbackUpdate@@UAEPAXI@Z 10027cb0 f i physics:dgWorldDynamicUpdate.obj
 0001:00026ce0       ??_GdgParallelSolverBuildJacobianMatrix@@UAEPAXI@Z 10027ce0 f i physics:dgWorldDynamicUpdate.obj
 0001:00026ce0       ??_EdgParallelSolverBuildJacobianMatrix@@UAEPAXI@Z 10027ce0 f i physics:dgWorldDynamicUpdate.obj
 0001:00026d10       ??0dgContraintDescritor@@QAE@XZ 10027d10 f i physics:dgWorldDynamicUpdate.obj
 0001:00026d40       ??0dgJacobianPair@@QAE@XZ  10027d40 f i physics:dgWorldDynamicUpdate.obj
 0001:00026d70       ??0dgJacobian@@QAE@XZ      10027d70 f i physics:dgWorldDynamicUpdate.obj
 0001:00026da0       ?AddDamingAcceleration@dgBody@@AAEXXZ 10027da0 f i physics:dgWorldDynamicUpdate.obj
 0001:00026e60       ?dgGetIndirectLock@dgWorld@@QAEXPAH@Z 10027e60 f i physics:dgWorldDynamicUpdate.obj
 0001:00026e80       ?dgReleaseIndirectLock@dgWorld@@QAEXPAH@Z 10027e80 f i physics:dgWorldDynamicUpdate.obj
 0001:00026ea0       ?GetPrev@dgListNode@?$dgList@VdgBodyMasterListRow@@@@QBEPAV12@XZ 10027ea0 f i physics:dgWorldDynamicUpdate.obj
 0001:00026ec0       ??0?$dgQueue@PAVdgBody@@@@QAE@PAPAVdgBody@@H@Z 10027ec0 f i physics:dgWorldDynamicUpdate.obj
 0001:00026f00       ?Insert@?$dgQueue@PAVdgBody@@@@QAEXPAVdgBody@@@Z 10027f00 f i physics:dgWorldDynamicUpdate.obj
 0001:00026f80       ?Reset@?$dgQueue@PAVdgBody@@@@QAEXXZ 10027f80 f i physics:dgWorldDynamicUpdate.obj
 0001:00026fa0       ?IsEmpty@?$dgQueue@PAVdgBody@@@@QBE_NXZ 10027fa0 f i physics:dgWorldDynamicUpdate.obj
 0001:00026fc0       ?GetLast@?$dgList@VdgBodyMasterListRow@@@@QBEPAVdgListNode@1@XZ 10027fc0 f i physics:dgWorldDynamicUpdate.obj
 0001:00026fe0       ??Y?$dgTemplateVector@N@@QAEAAV0@ABV0@@Z 10027fe0 f i physics:dgWorldDynamicUpdate.obj
 0001:000270c0       ?CompProduct@?$dgTemplateVector@N@@QBE?AV1@ABV1@@Z 100280c0 f i physics:dgWorldDynamicUpdate.obj
 0001:00027120       ??$dgSort@VdgIsland@@@@YAXQAVdgIsland@@HP6AHQBV0@1QAX@Z2@Z 10028120 f i physics:dgWorldDynamicUpdate.obj
 0001:000275a0       ??$GetMin@H@@YAHHH@Z       100285a0 f i physics:dgWorldDynamicUpdate.obj
 0001:000275c0       ??$Swap@VdgJacobianPair@@@@YAXAAVdgJacobianPair@@0@Z 100285c0 f i physics:dgWorldDynamicUpdate.obj
 0001:00027610       ??$Swap@N@@YAXAAN0@Z       10028610 f i physics:dgWorldDynamicUpdate.obj
 0001:00027640       ??$Swap@H@@YAXAAH0@Z       10028640 f i physics:dgWorldDynamicUpdate.obj
 0001:00027670       ??$Swap@PAN@@YAXAAPAN0@Z   10028670 f i physics:dgWorldDynamicUpdate.obj
 0001:000276a0       ?CreateNull@dgWorld@@QAEPAVdgCollision@@XZ 100286a0 f   physics:dgNarrowPhaseCollision.obj
 0001:00027750       ?CreateBox@dgWorld@@QAEPAVdgCollision@@NNNHABVdgMatrix@@@Z 10028750 f   physics:dgNarrowPhaseCollision.obj
 0001:00027950       ?CreateSphere@dgWorld@@QAEPAVdgCollision@@NHABVdgMatrix@@@Z 10028950 f   physics:dgNarrowPhaseCollision.obj
 0001:00027ad0       ?CreateEllipse@dgWorld@@QAEPAVdgCollision@@NNNHABVdgMatrix@@@Z 10028ad0 f   physics:dgNarrowPhaseCollision.obj
 0001:00027cc0       ?CreateCapsule@dgWorld@@QAEPAVdgCollision@@NNHABVdgMatrix@@@Z 10028cc0 f   physics:dgNarrowPhaseCollision.obj
 0001:00027e80       ?CreateCone@dgWorld@@QAEPAVdgCollision@@NNHABVdgMatrix@@@Z 10028e80 f   physics:dgNarrowPhaseCollision.obj
 0001:00028040       ?CreateCylinder@dgWorld@@QAEPAVdgCollision@@NNHABVdgMatrix@@@Z 10029040 f   physics:dgNarrowPhaseCollision.obj
 0001:00028200       ?CreateChamferCylinder@dgWorld@@QAEPAVdgCollision@@NNHABVdgMatrix@@@Z 10029200 f   physics:dgNarrowPhaseCollision.obj
 0001:000283c0       ?CreateConvexHull@dgWorld@@QAEPAVdgCollision@@HPBNHNHABVdgMatrix@@@Z 100293c0 f   physics:dgNarrowPhaseCollision.obj
 0001:00028650       ?CreateConvexModifier@dgWorld@@QAEPAVdgCollision@@PAV2@@Z 10029650 f   physics:dgNarrowPhaseCollision.obj
 0001:000286d0       ?CreateCollisionCompound@dgWorld@@QAEPAVdgCollision@@HQBQAV2@@Z 100296d0 f   physics:dgNarrowPhaseCollision.obj
 0001:00028730       ?CreateCollisionCompoundBreakable@dgWorld@@QAEPAVdgCollision@@HQBQBVdgMeshEffect@@QBHQBN1HN@Z 10029730 f   physics:dgNarrowPhaseCollision.obj
 0001:000287a0       ?CreateBVH@dgWorld@@QAEPAVdgCollision@@XZ 100297a0 f   physics:dgNarrowPhaseCollision.obj
 0001:000287f0       ?CreateStaticUserMesh@dgWorld@@QAEPAVdgCollision@@ABVdgVector@@0ABVdgUserMeshCreation@@@Z 100297f0 f   physics:dgNarrowPhaseCollision.obj
 0001:00028850       ?CreateBVHFieldCollision@dgWorld@@QAEPAVdgCollision@@HHHQBGQBDNN@Z 10029850 f   physics:dgNarrowPhaseCollision.obj
 0001:000288c0       ?CreateScene@dgWorld@@QAEPAVdgCollision@@XZ 100298c0 f   physics:dgNarrowPhaseCollision.obj
 0001:00028910       ?Serialize@dgWorld@@QBEXPAVdgCollision@@P6AXPAXPBXI@ZQAX@Z 10029910 f   physics:dgNarrowPhaseCollision.obj
 0001:00028980       ?CreateFromSerialization@dgWorld@@QAEPAVdgCollision@@P6AXPAX0I@ZQAX@Z 10029980 f   physics:dgNarrowPhaseCollision.obj
 0001:000290e0       ?GetMaterial@dgWorld@@QBEPAVdgContactMaterial@@II@Z 1002a0e0 f   physics:dgNarrowPhaseCollision.obj
 0001:00029150       ?GetFirstMaterial@dgWorld@@QBEPAVdgContactMaterial@@XZ 1002a150 f   physics:dgNarrowPhaseCollision.obj
 0001:000291a0       ?GetNextMaterial@dgWorld@@QBEPAVdgContactMaterial@@PAV2@@Z 1002a1a0 f   physics:dgNarrowPhaseCollision.obj
 0001:00029210       ?GetDefualtBodyGroupID@dgWorld@@QBEIXZ 1002a210 f   physics:dgNarrowPhaseCollision.obj
 0001:00029230       ?CreateBodyGroupID@dgWorld@@QAEIXZ 1002a230 f   physics:dgNarrowPhaseCollision.obj
 0001:00029300       ?RemoveFromCache@dgWorld@@QAEXQAVdgCollision@@@Z 1002a300 f   physics:dgNarrowPhaseCollision.obj
 0001:00029390       ?ReleaseCollision@dgWorld@@QAEXQAVdgCollision@@@Z 1002a390 f   physics:dgNarrowPhaseCollision.obj
 0001:00029480       ?ClosestPoint@dgWorld@@QBEHAAVdgTriplex@@QAVdgCollision@@ABVdgMatrix@@00H@Z 1002a480 f   physics:dgNarrowPhaseCollision.obj
 0001:00029540       ?ClosestPoint@dgWorld@@QBEHQAVdgCollision@@ABVdgMatrix@@01AAVdgTriplex@@22H@Z 1002a540 f   physics:dgNarrowPhaseCollision.obj
 0001:000298c0       ?ClosestCompoundPoint@dgWorld@@ABEHQAVdgBody@@0AAVdgTriplex@@11H@Z 1002a8c0 f   physics:dgNarrowPhaseCollision.obj
 0001:00029930       ?SortContacts@dgWorld@@ABEXQAVdgContactPoint@@H@Z 1002a930 f   physics:dgNarrowPhaseCollision.obj
 0001:000299c0       ?ReduceContacts@dgWorld@@ABEHHQAVdgContactPoint@@HNH@Z 1002a9c0 f   physics:dgNarrowPhaseCollision.obj
 0001:00029c90       ?PruneContacts@dgWorld@@ABEHHQAVdgContactPoint@@H@Z 1002ac90 f   physics:dgNarrowPhaseCollision.obj
 0001:00029ef0       ?ProcessCachedContacts@dgWorld@@ABEXQAVdgContact@@QBVdgContactMaterial@@NH@Z 1002aef0 f   physics:dgNarrowPhaseCollision.obj
 0001:0002a320       ?ProcessTriggers@dgWorld@@AAEXQAUdgPair@dgCollidingPairCollector@@NH@Z 1002b320 f   physics:dgNarrowPhaseCollision.obj
 0001:0002a5c0       ?ProcessContacts@dgWorld@@AAEXQAUdgPair@dgCollidingPairCollector@@NH@Z 1002b5c0 f   physics:dgNarrowPhaseCollision.obj
 0001:0002bbf0       ?ValidateContactCache@dgWorld@@ABEHQAVdgBody@@0QAVdgContact@@@Z 1002cbf0 f   physics:dgNarrowPhaseCollision.obj
 0001:0002bf80       ?CompoundContactsSimd@dgWorld@@ABEXQAUdgPair@dgCollidingPairCollector@@AAVdgCollisionParamProxi@@@Z 1002cf80 f   physics:dgNarrowPhaseCollision.obj
 0001:0002c070       ?CompoundContacts@dgWorld@@ABEXQAUdgPair@dgCollidingPairCollector@@AAVdgCollisionParamProxi@@@Z 1002d070 f   physics:dgNarrowPhaseCollision.obj
 0001:0002c160       ?ConvexContactsSimd@dgWorld@@ABEXQAUdgPair@dgCollidingPairCollector@@AAVdgCollisionParamProxi@@@Z 1002d160 f   physics:dgNarrowPhaseCollision.obj
 0001:0002c4b0       ?ConvexContacts@dgWorld@@ABEXQAUdgPair@dgCollidingPairCollector@@AAVdgCollisionParamProxi@@@Z 1002d4b0 f   physics:dgNarrowPhaseCollision.obj
 0001:0002c800       ?SceneContactsSimd@dgWorld@@ABEXABUdgProxy@dgCollisionScene@@QAUdgPair@dgCollidingPairCollector@@AAVdgCollisionParamProxi@@@Z 1002d800 f   physics:dgNarrowPhaseCollision.obj
 0001:0002ca10       ?SceneContacts@dgWorld@@ABEXABUdgProxy@dgCollisionScene@@QAUdgPair@dgCollidingPairCollector@@AAVdgCollisionParamProxi@@@Z 1002da10 f   physics:dgNarrowPhaseCollision.obj
 0001:0002cc20       ?SceneContacts@dgWorld@@ABEXQAUdgPair@dgCollidingPairCollector@@AAVdgCollisionParamProxi@@@Z 1002dc20 f   physics:dgNarrowPhaseCollision.obj
 0001:0002cdd0       ?SceneContactsSimd@dgWorld@@ABEXQAUdgPair@dgCollidingPairCollector@@AAVdgCollisionParamProxi@@@Z 1002ddd0 f   physics:dgNarrowPhaseCollision.obj
 0001:0002cf80       ?CalculateContactsSimd@dgWorld@@AAEXQAUdgPair@dgCollidingPairCollector@@NH@Z 1002df80 f   physics:dgNarrowPhaseCollision.obj
 0001:0002d200       ?CalculateContacts@dgWorld@@AAEXQAUdgPair@dgCollidingPairCollector@@NH@Z 1002e200 f   physics:dgNarrowPhaseCollision.obj
 0001:0002d480       ?CollideContinueSimd@dgWorld@@QAEHPAVdgCollision@@ABVdgMatrix@@ABVdgVector@@20122AANPAVdgTriplex@@4PANHH@Z 1002e480 f   physics:dgNarrowPhaseCollision.obj
 0001:0002dc70       ?CollideContinue@dgWorld@@QAEHPAVdgCollision@@ABVdgMatrix@@ABVdgVector@@20122AANPAVdgTriplex@@4PANHH@Z 1002ec70 f   physics:dgNarrowPhaseCollision.obj
 0001:0002e450       ?Collide@dgWorld@@QAEHPAVdgCollision@@ABVdgMatrix@@01PAVdgTriplex@@2PANHH@Z 1002f450 f   physics:dgNarrowPhaseCollision.obj
 0001:0002e930       ?GetVertexCount@dgConvexCollision@@QBEHXZ 1002f930 f i physics:dgNarrowPhaseCollision.obj
 0001:0002e950       ?GetSignature@dgCollision@@QBEIXZ 1002f950 f i physics:dgNarrowPhaseCollision.obj
 0001:0002e970       ??0dgCollisionParamProxi@@QAE@H@Z 1002f970 f i physics:dgNarrowPhaseCollision.obj
 0001:0002e9c0       ??0dgMatrix@@QAE@XZ        1002f9c0 f i physics:dgNarrowPhaseCollision.obj
 0001:0002ea00       ??2dgContact@@CAPAXIQAVdgMemoryAllocator@@@Z 1002fa00 f i physics:dgNarrowPhaseCollision.obj
 0001:0002ea20       ?AddToBreakQueue@dgWorld@@QAEXQBVdgContact@@QAVdgBody@@N@Z 1002fa20 f i physics:dgNarrowPhaseCollision.obj
 0001:0002eb30       ?DotProduct@dgQuaternion@@QBENABV1@@Z 1002fb30 f i physics:dgNarrowPhaseCollision.obj
 0001:0002eb80       ??GdgQuaternion@@QBE?AV0@ABV0@@Z 1002fb80 f i physics:dgNarrowPhaseCollision.obj
 0001:0002ebe0       ??0dgQuaternion@@QAE@NNNN@Z 1002fbe0 f i physics:dgNarrowPhaseCollision.obj
 0001:0002ec20       ?GetInfo@dgTreeNode@?$dgTree@PAVdgCollision@@I@@QAEAAPAVdgCollision@@XZ 1002fc20 f i physics:dgNarrowPhaseCollision.obj
 0001:0002ec40       ?GetInfo@dgTreeNode@?$dgTree@VdgContactMaterial@@I@@QAEAAVdgContactMaterial@@XZ 1002fc40 f i physics:dgNarrowPhaseCollision.obj
 0001:0002ec60       ?Append@?$dgList@VdgContactMaterial@@@@QAEPAVdgListNode@1@XZ 1002fc60 f i physics:dgNarrowPhaseCollision.obj
 0001:0002ed20       ?Find@?$dgTree@PAVdgCollision@@I@@QBEPAVdgTreeNode@1@I@Z 1002fd20 f i physics:dgNarrowPhaseCollision.obj
 0001:0002ee40       ?Insert@?$dgTree@PAVdgCollision@@I@@QAEPAVdgTreeNode@1@ABQAVdgCollision@@I@Z 1002fe40 f i physics:dgNarrowPhaseCollision.obj
 0001:0002ee80       ?Remove@?$dgTree@PAVdgCollision@@I@@QAEXQAVdgTreeNode@1@@Z 1002fe80 f i physics:dgNarrowPhaseCollision.obj
 0001:0002eec0       ?Minimum@?$dgTree@VdgContactMaterial@@I@@QBEPAVdgTreeNode@1@XZ 1002fec0 f i physics:dgNarrowPhaseCollision.obj
 0001:0002eef0       ?Find@?$dgTree@VdgContactMaterial@@I@@QBEPAVdgTreeNode@1@I@Z 1002fef0 f i physics:dgNarrowPhaseCollision.obj
 0001:0002f020       ?GetNodeFromInfo@?$dgTree@VdgContactMaterial@@I@@QBEPAVdgTreeNode@1@AAVdgContactMaterial@@@Z 10030020 f i physics:dgNarrowPhaseCollision.obj
 0001:0002f0c0       ?Insert@?$dgTree@VdgContactMaterial@@I@@QAEPAVdgTreeNode@1@ABVdgContactMaterial@@I@Z 100300c0 f i physics:dgNarrowPhaseCollision.obj
 0001:0002f100       ??0?$dgStack@I@@QAE@H@Z    10030100 f i physics:dgNarrowPhaseCollision.obj
 0001:0002f130       ??0dgStackBase@@IAE@H@Z    10030130 f i physics:dgNarrowPhaseCollision.obj
 0001:0002f160       ??1?$dgStack@I@@QAE@XZ     10030160 f i physics:dgNarrowPhaseCollision.obj
 0001:0002f180       ??1dgStackBase@@IAE@XZ     10030180 f i physics:dgNarrowPhaseCollision.obj
 0001:0002f1a0       ?GetSizeInBytes@?$dgStack@I@@QBEHXZ 100301a0 f i physics:dgNarrowPhaseCollision.obj
 0001:0002f1c0       ??A?$dgStack@I@@QAEAAIH@Z  100301c0 f i physics:dgNarrowPhaseCollision.obj
 0001:0002f240       ??$Swap@I@@YAXAAI0@Z       10030240 f i physics:dgNarrowPhaseCollision.obj
 0001:0002f270       ??$dgSort@VdgContactPoint@@@@YAXQAVdgContactPoint@@HP6AHQBV0@1QAX@Z2@Z 10030270 f i physics:dgNarrowPhaseCollision.obj
 0001:0002f640       ??$Swap@PAVdgListNode@?$dgList@VdgBodyMasterListCell@@@@@@YAXAAPAVdgListNode@?$dgList@VdgBodyMasterListCell@@@@0@Z 10030640 f i physics:dgNarrowPhaseCollision.obj
 0001:0002f670       ?GetLeft@dgTreeNode@?$dgTree@PAVdgCollision@@I@@ABEPAV12@XZ 10030670 f i physics:dgNarrowPhaseCollision.obj
 0001:0002f680       ?GetRight@dgTreeNode@?$dgTree@PAVdgCollision@@I@@ABEPAV12@XZ 10030680 f i physics:dgNarrowPhaseCollision.obj
 0001:0002f6a0       ?GetLeft@dgTreeNode@?$dgTree@VdgContactMaterial@@I@@ABEPAV12@XZ 100306a0 f i physics:dgNarrowPhaseCollision.obj
 0001:0002f6b0       ?GetRight@dgTreeNode@?$dgTree@VdgContactMaterial@@I@@ABEPAV12@XZ 100306b0 f i physics:dgNarrowPhaseCollision.obj
 0001:0002f6d0       ??2dgListNode@?$dgList@VdgContactMaterial@@@@CAPAXIQAVdgMemoryAllocator@@@Z 100306d0 f i physics:dgNarrowPhaseCollision.obj
 0001:0002f6f0       ??0dgListNode@?$dgList@VdgContactMaterial@@@@AAE@QAV01@0@Z 100306f0 f i physics:dgNarrowPhaseCollision.obj
 0001:0002f7a0       ?Insert@?$dgTree@PAVdgCollision@@I@@QAEPAVdgTreeNode@1@ABQAVdgCollision@@IAA_N@Z 100307a0 f i physics:dgNarrowPhaseCollision.obj
 0001:0002f9a0       ?CompareKeys@?$dgTree@PAVdgCollision@@I@@ABEHABI0@Z 100309a0 f i physics:dgNarrowPhaseCollision.obj
 0001:0002f9e0       ?Insert@?$dgTree@VdgContactMaterial@@I@@QAEPAVdgTreeNode@1@ABVdgContactMaterial@@IAA_N@Z 100309e0 f i physics:dgNarrowPhaseCollision.obj
 0001:0002fbf0       ?CompareKeys@?$dgTree@VdgContactMaterial@@I@@ABEHABI0@Z 10030bf0 f i physics:dgNarrowPhaseCollision.obj
 0001:0002fc30       ??0dgTreeNode@?$dgTree@PAVdgCollision@@I@@AAE@ABQAVdgCollision@@ABIPAV01@@Z 10030c30 f i physics:dgNarrowPhaseCollision.obj
 0001:0002fca0       ??0dgTreeNode@?$dgTree@VdgContactMaterial@@I@@AAE@ABVdgContactMaterial@@ABIPAV01@@Z 10030ca0 f i physics:dgNarrowPhaseCollision.obj
 0001:0002fd20       ??0dgMeshEffect@@QAE@QAVdgMemoryAllocator@@_N@Z 10030d20 f   physics:dgMeshEffect.obj
 0001:0002fd70       ??0dgMeshEffect@@QAE@QAVdgMemoryAllocator@@ABVdgMatrix@@NNH11@Z 10030d70 f   physics:dgMeshEffect.obj
 0001:0002fdd0       ??0dgMeshEffect@@QAE@AAVdgPolyhedra@@ABV0@@Z 10030dd0 f   physics:dgMeshEffect.obj
 0001:0002fed0       ??0dgMeshEffect@@QAE@ABV0@@Z 10030ed0 f   physics:dgMeshEffect.obj
 0001:0002ffd0       ??0dgMeshEffect@@QAE@QAVdgCollision@@@Z 10030fd0 f   physics:dgMeshEffect.obj
 0001:000302c0       ??1dgMeshEffect@@UAE@XZ    100312c0 f   physics:dgMeshEffect.obj
 0001:00030330       ?Init@dgMeshEffect@@AAEX_N@Z 10031330 f   physics:dgMeshEffect.obj
 0001:000303e0       ?Triangulate@dgMeshEffect@@QAEXXZ 100313e0 f   physics:dgMeshEffect.obj
 0001:00030740       ?ConvertToPolygons@dgMeshEffect@@QAEXXZ 10031740 f   physics:dgMeshEffect.obj
 0001:00030aa0       ?RemoveUnusedVertices@dgMeshEffect@@QAEXQAH@Z 10031aa0 f   physics:dgMeshEffect.obj
 0001:00030f70       ?CalculateOOBB@dgMeshEffect@@QBE?AVdgMatrix@@AAVdgVector@@@Z 10031f70 f   physics:dgMeshEffect.obj
 0001:00031100       ?CalculateAABB@dgMeshEffect@@QBEXAAVdgVector@@0@Z 10032100 f   physics:dgMeshEffect.obj
 0001:000312e0       ?EnumerateAttributeArray@dgMeshEffect@@AAEXPAUdgVertexAtribute@1@@Z 100322e0 f   physics:dgMeshEffect.obj
 0001:00031390       ?ApplyAttributeArray@dgMeshEffect@@AAEXPAUdgVertexAtribute@1@@Z 10032390 f   physics:dgMeshEffect.obj
 0001:00031530       ?GetOrigin@dgMeshEffect@@ABE?AVdgVector@@XZ 10032530 f   physics:dgMeshEffect.obj
 0001:00031570       ?FixCylindricalMapping@dgMeshEffect@@ABEXPAUdgVertexAtribute@1@@Z 10032570 f   physics:dgMeshEffect.obj
 0001:00031760       ?SphericalMapping@dgMeshEffect@@QAEXH@Z 10032760 f   physics:dgMeshEffect.obj
 0001:00031aa0       ?CylindricalMapping@dgMeshEffect@@QAEXHH@Z 10032aa0 f   physics:dgMeshEffect.obj
 0001:00032130       ?BoxMapping@dgMeshEffect@@QAEXHHH@Z 10033130 f   physics:dgMeshEffect.obj
 0001:000325f0       ?CalculateNormals@dgMeshEffect@@QAEXN@Z 100335f0 f   physics:dgMeshEffect.obj
 0001:00032ab0       ?BeginPolygon@dgMeshEffect@@QAEXXZ 10033ab0 f   physics:dgMeshEffect.obj
 0001:00032af0       ?AddAtribute@dgMeshEffect@@AAEXABUdgVertexAtribute@1@@Z 10033af0 f   physics:dgMeshEffect.obj
 0001:00032c20       ?AddVertex@dgMeshEffect@@AAEXABVdgVector@@@Z 10033c20 f   physics:dgMeshEffect.obj
 0001:00032d30       ?AddPoint@dgMeshEffect@@AAEXPBNH@Z 10033d30 f   physics:dgMeshEffect.obj
 0001:00032e60       ?PackVertexArrays@dgMeshEffect@@QAEXXZ 10033e60 f   physics:dgMeshEffect.obj
 0001:00032f70       ?AddPolygon@dgMeshEffect@@QAEXHPBNHH@Z 10033f70 f   physics:dgMeshEffect.obj
 0001:00033130       ?EndPolygon@dgMeshEffect@@QAEXXZ 10034130 f   physics:dgMeshEffect.obj
 0001:00033830       ?BuildFromVertexListIndexList@dgMeshEffect@@QAEXHQBH0QBNH01H01H01H0@Z 10034830 f   physics:dgMeshEffect.obj
 0001:00033ef0       ?GetTotalFaceCount@dgMeshEffect@@QBEHXZ 10034ef0 f   physics:dgMeshEffect.obj
 0001:00033f10       ?GetTotalIndexCount@dgMeshEffect@@QBEHXZ 10034f10 f   physics:dgMeshEffect.obj
 0001:00033fe0       ?GetFaces@dgMeshEffect@@QBEXQAH0QAPAX@Z 10034fe0 f   physics:dgMeshEffect.obj
 0001:00034110       ?GetFirstVertex@dgMeshEffect@@QAEPAXXZ 10035110 f   physics:dgMeshEffect.obj
 0001:000341c0       ?GetNextVertex@dgMeshEffect@@QAEPAXPBX@Z 100351c0 f   physics:dgMeshEffect.obj
 0001:000342b0       ?GetVertexIndex@dgMeshEffect@@QBEHPBX@Z 100352b0 f   physics:dgMeshEffect.obj
 0001:000342e0       ?GetFirstPoint@dgMeshEffect@@QAEPAXXZ 100352e0 f   physics:dgMeshEffect.obj
 0001:000343b0       ?GetNextPoint@dgMeshEffect@@QAEPAXPBX@Z 100353b0 f   physics:dgMeshEffect.obj
 0001:000344b0       ?GetPointIndex@dgMeshEffect@@QBEHPBX@Z 100354b0 f   physics:dgMeshEffect.obj
 0001:000344e0       ?GetVertexIndexFromPoint@dgMeshEffect@@QBEHPBX@Z 100354e0 f   physics:dgMeshEffect.obj
 0001:00034500       ?ConectVertex@dgMeshEffect@@QAEPAVdgEdge@@QAV2@0@Z 10035500 f   physics:dgMeshEffect.obj
 0001:00034630       ?GetFirstEdge@dgMeshEffect@@QAEPAXXZ 10035630 f   physics:dgMeshEffect.obj
 0001:000346d0       ?GetNextEdge@dgMeshEffect@@QAEPAXPBX@Z 100356d0 f   physics:dgMeshEffect.obj
 0001:000347b0       ?GetEdgeIndex@dgMeshEffect@@QBEXPBXAAH1@Z 100357b0 f   physics:dgMeshEffect.obj
 0001:000347f0       ?GetFirstFace@dgMeshEffect@@QAEPAXXZ 100357f0 f   physics:dgMeshEffect.obj
 0001:00034890       ?GetNextFace@dgMeshEffect@@QAEPAXPBX@Z 10035890 f   physics:dgMeshEffect.obj
 0001:00034980       ?IsFaceOpen@dgMeshEffect@@QBEHPBX@Z 10035980 f   physics:dgMeshEffect.obj
 0001:000349b0       ?GetFaceMaterial@dgMeshEffect@@QBEHPBX@Z 100359b0 f   physics:dgMeshEffect.obj
 0001:000349f0       ?GetFaceIndexCount@dgMeshEffect@@QBEHPBX@Z 100359f0 f   physics:dgMeshEffect.obj
 0001:00034a40       ?GetFaceIndex@dgMeshEffect@@QBEXPBXPAH@Z 10035a40 f   physics:dgMeshEffect.obj
 0001:00034aa0       ?GetFaceAttributeIndex@dgMeshEffect@@QBEXPBXPAH@Z 10035aa0 f   physics:dgMeshEffect.obj
 0001:00034b00       ?GetVertexStreams@dgMeshEffect@@QAEXHPANH0H0H0@Z 10035b00 f   physics:dgMeshEffect.obj
 0001:00034c90       ?GetIndirectVertexStreams@dgMeshEffect@@QAEXHPANPAH1H011H011H011@Z 10035c90 f   physics:dgMeshEffect.obj
 0001:00034f40       ?MaterialGeomteryBegin@dgMeshEffect@@QAEPAUdgIndexArray@1@XZ 10035f40 f   physics:dgMeshEffect.obj
 0001:000352c0       ?MaterialGeomteryEnd@dgMeshEffect@@QAEXPAUdgIndexArray@1@@Z 100362c0 f   physics:dgMeshEffect.obj
 0001:000352f0       ?GetFirstMaterial@dgMeshEffect@@QAEHPAUdgIndexArray@1@@Z 100362f0 f   physics:dgMeshEffect.obj
 0001:00035310       ?GetNextMaterial@dgMeshEffect@@QAEHPAUdgIndexArray@1@H@Z 10036310 f   physics:dgMeshEffect.obj
 0001:00035340       ?GetMaterialGetIndexStream@dgMeshEffect@@QAEXPAUdgIndexArray@1@HPAH@Z 10036340 f   physics:dgMeshEffect.obj
 0001:00035400       ?GetMaterialGetIndexStreamShort@dgMeshEffect@@QAEXPAUdgIndexArray@1@HPAF@Z 10036400 f   physics:dgMeshEffect.obj
 0001:000354d0       ?CreateConvexCollision@dgMeshEffect@@QBEPAVdgCollision@@NHABVdgMatrix@@@Z 100364d0 f   physics:dgMeshEffect.obj
 0001:00035980       ?TransformMesh@dgMeshEffect@@QAEXABVdgMatrix@@@Z 10036980 f   physics:dgMeshEffect.obj
 0001:000359c0       ?InterpolateEdge@dgMeshEffect@@ABE?AUdgVertexAtribute@1@QAVdgEdge@@N@Z 100369c0 f   physics:dgMeshEffect.obj
 0001:00035be0       ?Sanity@dgMeshEffect@@QBE_NXZ 10036be0 f   physics:dgMeshEffect.obj
 0001:00035df0       ?InsertEdgeVertex@dgMeshEffect@@QAEPAVdgEdge@@QAV2@N@Z 10036df0 f   physics:dgMeshEffect.obj
 0001:00035f50       ?InterpolateVertex@dgMeshEffect@@ABE?AUdgVertexAtribute@1@ABVdgVector@@QAVdgEdge@@@Z 10036f50 f   physics:dgMeshEffect.obj
 0001:00036820       ?MergeFaces@dgMeshEffect@@AAEXPAV1@@Z 10037820 f   physics:dgMeshEffect.obj
 0001:00036860       ?ReverseMergeFaces@dgMeshEffect@@AAEXPAV1@@Z 10037860 f   physics:dgMeshEffect.obj
 0001:000368a0       ?ClipFace@dgMeshEffect@@ABEXABVdgBigPlane@@PAVdgMeshTreeCSGFace@@PAPAV3@2AAVdgMeshTreeCSGPointsPool@@@Z 100378a0 f   physics:dgMeshEffect.obj
 0001:00036eb0       ?CopyCGSFace@dgMeshEffect@@AAEXABV1@QAVdgEdge@@@Z 10037eb0 f   physics:dgMeshEffect.obj
 0001:00036ef0       ?Union@dgMeshEffect@@QBEPAV1@ABVdgMatrix@@PBV1@@Z 10037ef0 f   physics:dgMeshEffect.obj
 0001:00037110       ?Difference@dgMeshEffect@@QBEPAV1@ABVdgMatrix@@PBV1@@Z 10038110 f   physics:dgMeshEffect.obj
 0001:00037330       ?Intersection@dgMeshEffect@@QBEPAV1@ABVdgMatrix@@PBV1@@Z 10038330 f   physics:dgMeshEffect.obj
 0001:00037550       ?ClipMesh@dgMeshEffect@@QBEXABVdgMatrix@@PBV1@PAPAV1@2@Z 10038550 f   physics:dgMeshEffect.obj
 0001:00037820       ?AddCGSFace@dgMeshEffect@@AAEXABV1@QAVdgEdge@@HQAPAVdgMeshTreeCSGFace@@ABVdgMeshTreeCSGPointsPool@@@Z 10038820 f   physics:dgMeshEffect.obj
 0001:00037860       ?CreateSolidTree@dgMeshEffect@@QBEPAVdgMeshEffectSolidTree@@XZ 10038860 f   physics:dgMeshEffect.obj
 0001:000378a0       ?DestroySolidTree@dgMeshEffect@@SAXPAVdgMeshEffectSolidTree@@@Z 100388a0 f   physics:dgMeshEffect.obj
 0001:000378e0       ?ClipMesh@dgMeshEffect@@ABEXPBV1@PAPAV1@1@Z 100388e0 f   physics:dgMeshEffect.obj
 0001:00037920       ?CheckIntersection@dgMeshEffect@@SA_NQBV1@QBVdgMeshEffectSolidTree@@01N@Z 10038920 f   physics:dgMeshEffect.obj
 0001:00037980       ?CheckIntersection@dgMeshEffect@@QBE_NQBVdgMeshEffectSolidTree@@N@Z 10038980 f   physics:dgMeshEffect.obj
 0001:000379c0       ?PlaneClipMesh@dgMeshEffect@@ABEXPBV1@PAPAV1@1@Z 100389c0 f   physics:dgMeshEffect.obj
 0001:00037a00       ?PlaneClipMesh@dgMeshEffect@@QAEXABVdgPlane@@PAPAV1@1@Z 10038a00 f   physics:dgMeshEffect.obj
 0001:00037a40       ?CheckSingleMesh@dgMeshEffect@@ABE_NXZ 10038a40 f   physics:dgMeshEffect.obj
 0001:00037a80       ?PlaneApplyCap@dgMeshEffect@@AAEHPBV1@ABVdgPlane@@@Z 10038a80 f   physics:dgMeshEffect.obj
 0001:00037ac0       ?HasOpenEdges@dgMeshEffect@@QBE_NXZ 10038ac0 f   physics:dgMeshEffect.obj
 0001:00037b50       ?SeparateDuplicateLoops@dgMeshEffect@@QAE_NQAVdgEdge@@@Z 10038b50 f   physics:dgMeshEffect.obj
 0001:00037bf0       ?WeldTJoints@dgMeshEffect@@QAEXXZ 10038bf0 f   physics:dgMeshEffect.obj
 0001:00038310       ?CalculateVolume@dgMeshEffect@@QBENXZ 10039310 f   physics:dgMeshEffect.obj
 0001:000384f0       ??_EdgMeshEffect@@UAEPAXI@Z 100394f0 f i physics:dgMeshEffect.obj
 0001:000384f0       ??_GdgMeshEffect@@UAEPAXI@Z 100394f0 f i physics:dgMeshEffect.obj
 0001:00038520       ??0dgMeshEffectBuilder@@QAE@XZ 10039520 f i physics:dgMeshEffect.obj
 0001:00038590       ??1dgMeshEffectBuilder@@QAE@XZ 10039590 f i physics:dgMeshEffect.obj
 0001:000385c0       ?GetShapeFromCollision@dgMeshEffectBuilder@@SAXPAXHPBNH@Z 100395c0 f i physics:dgMeshEffect.obj
 0001:00038770       ??0dgCollisionInfo@@QAE@XZ 10039770 f i physics:dgMeshEffect.obj
 0001:00038790       ??4dgSphere@@QAEAAV0@ABVdgMatrix@@@Z 10039790 f i physics:dgMeshEffect.obj
 0001:000387f0       ?SetLRU@dgPolyhedra@@QBEXH@Z 100397f0 f i physics:dgMeshEffect.obj
 0001:00038820       ?AddFace@dgPolyhedra@@QAEPAVdgEdge@@HQBH@Z 10039820 f i physics:dgMeshEffect.obj
 0001:00038840       ??0dgRefCounter@@QAE@XZ    10039840 f i physics:dgMeshEffect.obj
 0001:00038870       ??_GdgRefCounter@@MAEPAXI@Z 10039870 f i physics:dgMeshEffect.obj
 0001:00038870       ??_EdgRefCounter@@MAEPAXI@Z 10039870 f i physics:dgMeshEffect.obj
 0001:000388a0       ??1dgRefCounter@@MAE@XZ    100398a0 f i physics:dgMeshEffect.obj
 0001:000388e0       ??0dgVertexAtribute@dgMeshEffect@@QAE@XZ 100398e0 f i physics:dgMeshEffect.obj
 0001:00038900       ?AddPoint@dgMeshTreeCSGPointsPool@@QAEHABVdgBigVector@@@Z 10039900 f i physics:dgMeshEffect.obj
 0001:00038970       ??2dgMeshTreeCSGFace@@SAPAXIQAVdgMemoryAllocator@@@Z 10039970 f i physics:dgMeshEffect.obj
 0001:00038990       ??0dgMeshTreeCSGFace@@QAE@QAVdgMemoryAllocator@@@Z 10039990 f i physics:dgMeshEffect.obj
 0001:000389d0       ?AddPoint@dgMeshTreeCSGFace@@QAEXH@Z 100399d0 f i physics:dgMeshEffect.obj
 0001:00038a90       ??2CSGLinearEdge@dgMeshTreeCSGFace@@SAPAXIQAVdgMemoryAllocator@@@Z 10039a90 f i physics:dgMeshEffect.obj
 0001:00038ab0       ??0CSGLinearEdge@dgMeshTreeCSGFace@@QAE@H@Z 10039ab0 f i physics:dgMeshEffect.obj
 0001:00038ae0       ??0CSGLinearEdge@dgMeshTreeCSGFace@@QAE@HPAV01@@Z 10039ae0 f i physics:dgMeshEffect.obj
 0001:00038b10       ??_EdgMeshTreeCSGFace@@UAEPAXI@Z 10039b10 f i physics:dgMeshEffect.obj
 0001:00038b10       ??_GdgMeshTreeCSGFace@@UAEPAXI@Z 10039b10 f i physics:dgMeshEffect.obj
 0001:00038b40       ??3dgMeshTreeCSGFace@@SAXPAX@Z 10039b40 f i physics:dgMeshEffect.obj
 0001:00038b60       ??1dgMeshTreeCSGFace@@UAE@XZ 10039b60 f i physics:dgMeshEffect.obj
 0001:00038bc0       ??3CSGLinearEdge@dgMeshTreeCSGFace@@SAXPAX@Z 10039bc0 f i physics:dgMeshEffect.obj
 0001:00038be0       ??0dgBigVector@@QAE@ABV?$dgTemplateVector@N@@@Z 10039be0 f i physics:dgMeshEffect.obj
 0001:00038ca0       ?Evalue@dgBigPlane@@QBENABVdgBigVector@@@Z 10039ca0 f i physics:dgMeshEffect.obj
 0001:00038ce0       ?AddRef@dgRefCounter@@QAEXXZ 10039ce0 f i physics:dgMeshEffect.obj
 0001:00038d00       ??_GdgMeshEffectSolidTree@@QAEPAXI@Z 10039d00 f i physics:dgMeshEffect.obj
 0001:00038d30       ??3dgMeshEffectSolidTree@@SAXPAX@Z 10039d30 f i physics:dgMeshEffect.obj
 0001:00038d50       ??1dgMeshEffectSolidTree@@QAE@XZ 10039d50 f i physics:dgMeshEffect.obj
 0001:00038dd0       ??0dgBigVector@@QAE@ABVdgVector@@@Z 10039dd0 f i physics:dgMeshEffect.obj
 0001:00038eb0       ??3?$dgTree@VdgEdge@@_J@@SAXPAX@Z 10039eb0 f i physics:dgMeshEffect.obj
 0001:00038ed0       ??0Iterator@?$dgTree@VdgEdge@@_J@@QAE@ABV1@@Z 10039ed0 f i physics:dgMeshEffect.obj
 0001:00038f00       ??1Iterator@?$dgTree@VdgEdge@@_J@@QAE@XZ 10039f00 f i physics:dgMeshEffect.obj
 0001:00038f10       ?Begin@Iterator@?$dgTree@VdgEdge@@_J@@QAEXXZ 10039f10 f i physics:dgMeshEffect.obj
 0001:00038f30       ?Set@Iterator@?$dgTree@VdgEdge@@_J@@QAEXQAVdgTreeNode@2@@Z 10039f30 f i physics:dgMeshEffect.obj
 0001:00038f50       ??BIterator@?$dgTree@VdgEdge@@_J@@QBEHXZ 10039f50 f i physics:dgMeshEffect.obj
 0001:00038f70       ??EIterator@?$dgTree@VdgEdge@@_J@@QAEXH@Z 10039f70 f i physics:dgMeshEffect.obj
 0001:00038fc0       ??DIterator@?$dgTree@VdgEdge@@_J@@QBEAAVdgEdge@@XZ 10039fc0 f i physics:dgMeshEffect.obj
 0001:00038fe0       ?GetNode@Iterator@?$dgTree@VdgEdge@@_J@@QBEPAVdgTreeNode@2@XZ 10039fe0 f i physics:dgMeshEffect.obj
 0001:00038ff0       ?GetInfo@dgTreeNode@?$dgTree@VdgEdge@@_J@@QAEAAVdgEdge@@XZ 10039ff0 f i physics:dgMeshEffect.obj
 0001:00039010       ?GetCount@?$dgTree@VdgEdge@@_J@@QBEHXZ 1003a010 f i physics:dgMeshEffect.obj
 0001:00039020       ?Minimum@?$dgTree@VdgEdge@@_J@@QBEPAVdgTreeNode@1@XZ 1003a020 f i physics:dgMeshEffect.obj
 0001:00039050       ?GetNodeFromInfo@?$dgTree@VdgEdge@@_J@@QBEPAVdgTreeNode@1@AAVdgEdge@@@Z 1003a050 f i physics:dgMeshEffect.obj
 0001:000390f0       ?RemoveAll@?$dgTree@VdgEdge@@_J@@QAEXXZ 1003a0f0 f i physics:dgMeshEffect.obj
 0001:00039130       ??0?$dgStack@H@@QAE@H@Z    1003a130 f i physics:dgMeshEffect.obj
 0001:00039160       ??1?$dgStack@H@@QAE@XZ     1003a160 f i physics:dgMeshEffect.obj
 0001:00039180       ?GetSizeInBytes@?$dgStack@H@@QBEHXZ 1003a180 f i physics:dgMeshEffect.obj
 0001:000391a0       ??A?$dgStack@H@@QAEAAHH@Z  1003a1a0 f i physics:dgMeshEffect.obj
 0001:00039220       ??0?$dgStack@VdgVector@@@@QAE@H@Z 1003a220 f i physics:dgMeshEffect.obj
 0001:00039250       ??1?$dgStack@VdgVector@@@@QAE@XZ 1003a250 f i physics:dgMeshEffect.obj
 0001:00039270       ?GetElementsCount@?$dgStack@VdgVector@@@@QBEHXZ 1003a270 f i physics:dgMeshEffect.obj
 0001:00039290       ??A?$dgStack@VdgVector@@@@QAEAAVdgVector@@H@Z 1003a290 f i physics:dgMeshEffect.obj
 0001:00039310       ??0?$dgStack@UdgVertexAtribute@dgMeshEffect@@@@QAE@H@Z 1003a310 f i physics:dgMeshEffect.obj
 0001:00039340       ??1?$dgStack@UdgVertexAtribute@dgMeshEffect@@@@QAE@XZ 1003a340 f i physics:dgMeshEffect.obj
 0001:00039360       ??A?$dgStack@UdgVertexAtribute@dgMeshEffect@@@@QAEAAUdgVertexAtribute@dgMeshEffect@@H@Z 1003a360 f i physics:dgMeshEffect.obj
 0001:000393e0       ??0?$dgStack@D@@QAE@H@Z    1003a3e0 f i physics:dgMeshEffect.obj
 0001:00039410       ??1?$dgStack@D@@QAE@XZ     1003a410 f i physics:dgMeshEffect.obj
 0001:00039430       ?GetSizeInBytes@?$dgStack@D@@QBEHXZ 1003a430 f i physics:dgMeshEffect.obj
 0001:00039450       ??A?$dgStack@D@@QAEAADH@Z  1003a450 f i physics:dgMeshEffect.obj
 0001:000394d0       ??_EdgMeshEffect@@WBM@AEPAXI@Z 1003a4d0 f i physics:dgMeshEffect.obj
 0001:000394e0       ??0dgMeshEffect@@QAE@QAVdgMemoryAllocator@@QBNHHN@Z 1003a4e0 f   physics:dgMeshEffect2.obj
 0001:00039870       ?CreateConvexApproximationCollision@dgMeshEffect@@QBEPAVdgCollision@@QAVdgWorld@@HHH@Z 1003a870 f   physics:dgMeshEffect2.obj
 0001:00039f50       ??0Tetrahedralization@@QAE@AAVdgMeshEffect@@@Z 1003af50 f i physics:dgMeshEffect2.obj
 0001:0003a030       ??0dgMissingEdges@Tetrahedralization@@QAE@QAVdgMemoryAllocator@@@Z 1003b030 f i physics:dgMeshEffect2.obj
 0001:0003a050       ??0dgEdgeMap@Tetrahedralization@@QAE@QAVdgMemoryAllocator@@@Z 1003b050 f i physics:dgMeshEffect2.obj
 0001:0003a070       ??1Tetrahedralization@@UAE@XZ 1003b070 f i physics:dgMeshEffect2.obj
 0001:0003a0b0       ??1dgMissingEdges@Tetrahedralization@@QAE@XZ 1003b0b0 f i physics:dgMeshEffect2.obj
 0001:0003a0d0       ??1dgEdgeMap@Tetrahedralization@@QAE@XZ 1003b0d0 f i physics:dgMeshEffect2.obj
 0001:0003a120       ?BuildTetrahedraEdgeList@Tetrahedralization@@QAEXXZ 1003b120 f i physics:dgMeshEffect2.obj
 0001:0003a160       ?RecoverEdges@Tetrahedralization@@QAEXXZ 1003b160 f i physics:dgMeshEffect2.obj
 0001:0003a600       ?CreateIndexMap@Tetrahedralization@@QAEXXZ 1003b600 f i physics:dgMeshEffect2.obj
 0001:0003a6a0       ?ConvexCompareIndex@Tetrahedralization@@SAHQBVdgIndexMapPair@1@0QAX@Z 1003b6a0 f i physics:dgMeshEffect2.obj
 0001:0003a6d0       ?GetKey@Tetrahedralization@@QBE_KHH@Z 1003b6d0 f i physics:dgMeshEffect2.obj
 0001:0003a730       ?AddEdges@Tetrahedralization@@QAEXQAVdgListNode@?$dgList@VdgConvexHull4dTetraherum@@@@@Z 1003b730 f i physics:dgMeshEffect2.obj
 0001:0003a800       ?InsertNewNode@Tetrahedralization@@QAEXHHQAVdgListNode@?$dgList@VdgConvexHull4dTetraherum@@@@@Z 1003b800 f i physics:dgMeshEffect2.obj
 0001:0003a8e0       ??0dgEdgeSharedTetras@Tetrahedralization@@QAE@QAVdgMemoryAllocator@@@Z 1003b8e0 f i physics:dgMeshEffect2.obj
 0001:0003a900       ??1dgEdgeSharedTetras@Tetrahedralization@@QAE@XZ 1003b900 f i physics:dgMeshEffect2.obj
 0001:0003a920       ?AddFace@Tetrahedralization@@UAEPAVdgListNode@?$dgList@VdgConvexHull4dTetraherum@@@@HHHH@Z 1003b920 f i physics:dgMeshEffect2.obj
 0001:0003a960       ?DeleteFace@Tetrahedralization@@UAEXQAVdgListNode@?$dgList@VdgConvexHull4dTetraherum@@@@@Z 1003b960 f i physics:dgMeshEffect2.obj
 0001:0003aa10       ?RemoveEdges@Tetrahedralization@@QAEXQAVdgListNode@?$dgList@VdgConvexHull4dTetraherum@@@@@Z 1003ba10 f i physics:dgMeshEffect2.obj
 0001:0003aac0       ?RemoveNode@Tetrahedralization@@QAEXHHQAVdgListNode@?$dgList@VdgConvexHull4dTetraherum@@@@@Z 1003bac0 f i physics:dgMeshEffect2.obj
 0001:0003abc0       ?RecoverFaces@Tetrahedralization@@QAEXXZ 1003bbc0 f i physics:dgMeshEffect2.obj
 0001:0003b4c0       ??0dgEdgeFaceKey@Tetrahedralization@@QAE@HHH@Z 1003c4c0 f i physics:dgMeshEffect2.obj
 0001:0003b530       ??0dgFaceKeyMap@Tetrahedralization@@QAE@QAVdgMemoryAllocator@@@Z 1003c530 f i physics:dgMeshEffect2.obj
 0001:0003b550       ?RemoveDegeneratedTetras@Tetrahedralization@@QAEXXZ 1003c550 f i physics:dgMeshEffect2.obj
 0001:0003b7a0       ?RecoverFace@Tetrahedralization@@QBEXAAVdgMeshEffect@@QAVdgEdge@@HHAAV?$dgTree@PAVdgEdge@@PAV1@@@@Z 1003c7a0 f i physics:dgMeshEffect2.obj
 0001:0003bff0       ?MatchFace@Tetrahedralization@@QBE_NAAVdgMeshEffect@@QAVdgEdge@@H@Z 1003cff0 f i physics:dgMeshEffect2.obj
 0001:0003c4a0       ??_ETetrahedralization@@UAEPAXI@Z 1003d4a0 f i physics:dgMeshEffect2.obj
 0001:0003c4a0       ??_GTetrahedralization@@UAEPAXI@Z 1003d4a0 f i physics:dgMeshEffect2.obj
 0001:0003c4d0       ??1dgFaceKeyMap@Tetrahedralization@@QAE@XZ 1003d4d0 f i physics:dgMeshEffect2.obj
 0001:0003c4f0       ??3?$dgList@VdgConvexHull4dTetraherum@@@@SAXPAX@Z 1003d4f0 f i physics:dgMeshEffect2.obj
 0001:0003c510       ?GetInfo@dgListNode@?$dgList@VdgConvexHull3DFace@@@@QAEAAVdgConvexHull3DFace@@XZ 1003d510 f i physics:dgMeshEffect2.obj
 0001:0003c520       ?GetNext@dgListNode@?$dgList@VdgConvexHull3DFace@@@@QBEPAV12@XZ 1003d520 f i physics:dgMeshEffect2.obj
 0001:0003c540       ?GetInfo@dgTreeNode@?$dgTree@VdgEdgeSharedTetras@Tetrahedralization@@_K@@QAEAAVdgEdgeSharedTetras@Tetrahedralization@@XZ 1003d540 f i physics:dgMeshEffect2.obj
 0001:0003c560       ?GetInfo@dgListNode@?$dgList@VdgConvexHull4dTetraherum@@@@QAEAAVdgConvexHull4dTetraherum@@XZ 1003d560 f i physics:dgMeshEffect2.obj
 0001:0003c570       ?GetNext@dgListNode@?$dgList@VdgConvexHull4dTetraherum@@@@QBEPAV12@XZ 1003d570 f i physics:dgMeshEffect2.obj
 0001:0003c590       ?GetVertexCount@dgConvexHull3d@@QBEHXZ 1003d590 f i physics:dgMeshEffect2.obj
 0001:0003c5b0       ?GetVertex@dgConvexHull3d@@QBEABVdgVector@@H@Z 1003d5b0 f i physics:dgMeshEffect2.obj
 0001:0003c5d0       ?GetMark@dgConvexHull4dTetraherum@@QBEHXZ 1003d5d0 f i physics:dgMeshEffect2.obj
 0001:0003c5f0       ?GetInfo@dgListNode@?$dgList@PAVdgTreeNode@?$dgTree@VdgEdge@@_J@@@@QAEAAPAVdgTreeNode@?$dgTree@VdgEdge@@_J@@XZ 1003d5f0 f i physics:dgMeshEffect2.obj
 0001:0003c600       ?SetMark@dgConvexHull4dTetraherum@@QAEXH@Z 1003d600 f i physics:dgMeshEffect2.obj
 0001:0003c620       ?GetInfo@dgListNode@?$dgList@PAVdgListNode@?$dgList@VdgConvexHull4dTetraherum@@@@@@QAEAAPAV1?$dgList@VdgConvexHull4dTetraherum@@@@XZ 1003d620 f i physics:dgMeshEffect2.obj
 0001:0003c630       ?IncMark@dgConvexHull4d@@QAEHXZ 1003d630 f i physics:dgMeshEffect2.obj
 0001:0003c650       ?GetNext@dgListNode@?$dgList@PAVdgListNode@?$dgList@VdgConvexHull4dTetraherum@@@@@@QBEPAV12@XZ 1003d650 f i physics:dgMeshEffect2.obj
 0001:0003c670       ??0Iterator@?$dgTree@PAVdgEdge@@PAV1@@@QAE@ABV1@@Z 1003d670 f i physics:dgMeshEffect2.obj
 0001:0003c6a0       ?GetVertexCount@dgConvexHull4d@@QBEHXZ 1003d6a0 f i physics:dgMeshEffect2.obj
 0001:0003c6c0       ?GetVertexIndex@dgConvexHull4d@@QBEHH@Z 1003d6c0 f i physics:dgMeshEffect2.obj
 0001:0003c740       ??1Iterator@?$dgTree@PAVdgEdge@@PAV1@@@QAE@XZ 1003d740 f i physics:dgMeshEffect2.obj
 0001:0003c750       ?Begin@Iterator@?$dgTree@PAVdgEdge@@PAV1@@@QAEXXZ 1003d750 f i physics:dgMeshEffect2.obj
 0001:0003c770       ??BIterator@?$dgTree@PAVdgEdge@@PAV1@@@QBEHXZ 1003d770 f i physics:dgMeshEffect2.obj
 0001:0003c790       ?GetVertex@dgConvexHull4d@@QBEABVdgBigVector@@H@Z 1003d790 f i physics:dgMeshEffect2.obj
 0001:0003c800       ??EIterator@?$dgTree@PAVdgEdge@@PAV1@@@QAEXH@Z 1003d800 f i physics:dgMeshEffect2.obj
 0001:0003c850       ?GetNode@Iterator@?$dgTree@PAVdgEdge@@PAV1@@@QBEPAVdgTreeNode@2@XZ 1003d850 f i physics:dgMeshEffect2.obj
 0001:0003c860       ?GetInfo@dgTreeNode@?$dgTree@PAVdgEdge@@PAV1@@@QAEAAPAVdgEdge@@XZ 1003d860 f i physics:dgMeshEffect2.obj
 0001:0003c880       ?Scale4@?$dgTemplateVector@N@@QBE?AV1@N@Z 1003d880 f i physics:dgMeshEffect2.obj
 0001:0003c8e0       ?Add4@?$dgTemplateVector@N@@QBE?AV1@ABV1@@Z 1003d8e0 f i physics:dgMeshEffect2.obj
 0001:0003c940       ?GetCount@?$dgList@VdgConvexHull3DFace@@@@QBEHXZ 1003d940 f i physics:dgMeshEffect2.obj
 0001:0003c950       ?GetFirst@?$dgList@VdgConvexHull3DFace@@@@QBEPAVdgListNode@1@XZ 1003d950 f i physics:dgMeshEffect2.obj
 0001:0003c970       ??0?$dgList@PAVdgTreeNode@?$dgTree@VdgEdge@@_J@@@@QAE@QAVdgMemoryAllocator@@@Z 1003d970 f i physics:dgMeshEffect2.obj
 0001:0003c9b0       ??1?$dgList@PAVdgTreeNode@?$dgTree@VdgEdge@@_J@@@@QAE@XZ 1003d9b0 f i physics:dgMeshEffect2.obj
 0001:0003c9d0       ?GetCount@?$dgList@PAVdgTreeNode@?$dgTree@VdgEdge@@_J@@@@QBEHXZ 1003d9d0 f i physics:dgMeshEffect2.obj
 0001:0003c9e0       ?GetFirst@?$dgList@PAVdgTreeNode@?$dgTree@VdgEdge@@_J@@@@QBEPAVdgListNode@1@XZ 1003d9e0 f i physics:dgMeshEffect2.obj
 0001:0003ca00       ?Append@?$dgList@PAVdgTreeNode@?$dgTree@VdgEdge@@_J@@@@QAEPAVdgListNode@1@ABQAVdgTreeNode@?$dgTree@VdgEdge@@_J@@@Z 1003da00 f i physics:dgMeshEffect2.obj
 0001:0003cac0       ?Remove@?$dgList@PAVdgTreeNode@?$dgTree@VdgEdge@@_J@@@@QAEXQAVdgListNode@1@@Z 1003dac0 f i physics:dgMeshEffect2.obj
 0001:0003cb10       ??0?$dgList@PAVdgListNode@?$dgList@VdgConvexHull4dTetraherum@@@@@@QAE@QAVdgMemoryAllocator@@@Z 1003db10 f i physics:dgMeshEffect2.obj
 0001:0003cb50       ??1?$dgList@PAVdgListNode@?$dgList@VdgConvexHull4dTetraherum@@@@@@QAE@XZ 1003db50 f i physics:dgMeshEffect2.obj
 0001:0003cb70       ?GetCount@?$dgList@PAVdgListNode@?$dgList@VdgConvexHull4dTetraherum@@@@@@QBEHXZ 1003db70 f i physics:dgMeshEffect2.obj
 0001:0003cb80       ??A?$dgArray@VdgVector@@@@QBEABVdgVector@@H@Z 1003db80 f i physics:dgMeshEffect2.obj
 0001:0003cbe0       ?GetFirst@?$dgList@PAVdgListNode@?$dgList@VdgConvexHull4dTetraherum@@@@@@QBEPAVdgListNode@1@XZ 1003dbe0 f i physics:dgMeshEffect2.obj
 0001:0003cc00       ?Append@?$dgList@PAVdgListNode@?$dgList@VdgConvexHull4dTetraherum@@@@@@QAEPAVdgListNode@1@ABQAV2?$dgList@VdgConvexHull4dTetraherum@@@@@Z 1003dc00 f i physics:dgMeshEffect2.obj
 0001:0003ccc0       ??A?$dgArray@VdgHullVector@@@@QBEABVdgHullVector@@H@Z 1003dcc0 f i physics:dgMeshEffect2.obj
 0001:0003cd20       ?Remove@?$dgList@PAVdgListNode@?$dgList@VdgConvexHull4dTetraherum@@@@@@QAEXQAVdgListNode@1@@Z 1003dd20 f i physics:dgMeshEffect2.obj
 0001:0003cd70       ?RemoveAll@?$dgList@PAVdgListNode@?$dgList@VdgConvexHull4dTetraherum@@@@@@QAEXXZ 1003dd70 f i physics:dgMeshEffect2.obj
 0001:0003ce30       ?Resize@?$dgArray@VdgVector@@@@QBEXH@Z 1003de30 f i physics:dgMeshEffect2.obj
 0001:0003cfa0       ??0?$dgTree@VdgEdgeSharedTetras@Tetrahedralization@@_K@@QAE@QAVdgMemoryAllocator@@@Z 1003dfa0 f i physics:dgMeshEffect2.obj
 0001:0003cfd0       ??1?$dgTree@VdgEdgeSharedTetras@Tetrahedralization@@_K@@QAE@XZ 1003dfd0 f i physics:dgMeshEffect2.obj
 0001:0003cff0       ?GetRoot@?$dgTree@VdgEdgeSharedTetras@Tetrahedralization@@_K@@QBEPAVdgTreeNode@1@XZ 1003dff0 f i physics:dgMeshEffect2.obj
 0001:0003d010       ?Find@?$dgTree@VdgEdgeSharedTetras@Tetrahedralization@@_K@@QBEPAVdgTreeNode@1@_K@Z 1003e010 f i physics:dgMeshEffect2.obj
 0001:0003d150       ?Resize@?$dgArray@VdgHullVector@@@@QBEXH@Z 1003e150 f i physics:dgMeshEffect2.obj
 0001:0003d2c0       ?Insert@?$dgTree@VdgEdgeSharedTetras@Tetrahedralization@@_K@@QAEPAVdgTreeNode@1@ABVdgEdgeSharedTetras@Tetrahedralization@@_K@Z 1003e2c0 f i physics:dgMeshEffect2.obj
 0001:0003d300       ?Remove@?$dgTree@VdgEdgeSharedTetras@Tetrahedralization@@_K@@QAEXQAVdgTreeNode@1@@Z 1003e300 f i physics:dgMeshEffect2.obj
 0001:0003d340       ??0?$dgTree@PAVdgListNode@?$dgList@VdgConvexHull4dTetraherum@@@@VdgEdgeFaceKey@Tetrahedralization@@@@QAE@QAVdgMemoryAllocator@@@Z 1003e340 f i physics:dgMeshEffect2.obj
 0001:0003d370       ??1?$dgTree@PAVdgListNode@?$dgList@VdgConvexHull4dTetraherum@@@@VdgEdgeFaceKey@Tetrahedralization@@@@QAE@XZ 1003e370 f i physics:dgMeshEffect2.obj
 0001:0003d390       ?Find@?$dgTree@PAVdgListNode@?$dgList@VdgConvexHull4dTetraherum@@@@VdgEdgeFaceKey@Tetrahedralization@@@@QBEPAVdgTreeNode@1@VdgEdgeFaceKey@Tetrahedralization@@@Z 1003e390 f i physics:dgMeshEffect2.obj
 0001:0003d4c0       ??MdgEdgeFaceKey@Tetrahedralization@@QBE_NABV01@@Z 1003e4c0 f i physics:dgMeshEffect2.obj
 0001:0003d4f0       ?Compared@dgEdgeFaceKey@Tetrahedralization@@QBEHABV12@@Z 1003e4f0 f i physics:dgMeshEffect2.obj
 0001:0003d560       ??OdgEdgeFaceKey@Tetrahedralization@@QBE_NABV01@@Z 1003e560 f i physics:dgMeshEffect2.obj
 0001:0003d590       ?Insert@?$dgTree@PAVdgListNode@?$dgList@VdgConvexHull4dTetraherum@@@@VdgEdgeFaceKey@Tetrahedralization@@@@QAEPAVdgTreeNode@1@ABQAVdgListNode@?$dgList@VdgConvexHull4dTetraherum@@@@VdgEdgeFaceKey@Tetrahedralization@@@Z 1003e590 f i physics:dgMeshEffect2.obj
 0001:0003d5e0       ??0?$dgArray@VdgIndexMapPair@Tetrahedralization@@@@QAE@HQAVdgMemoryAllocator@@@Z 1003e5e0 f i physics:dgMeshEffect2.obj
 0001:0003d620       ??1?$dgArray@VdgIndexMapPair@Tetrahedralization@@@@QAE@XZ 1003e620 f i physics:dgMeshEffect2.obj
 0001:0003d650       ??A?$dgArray@VdgIndexMapPair@Tetrahedralization@@@@QBEABVdgIndexMapPair@Tetrahedralization@@H@Z 1003e650 f i physics:dgMeshEffect2.obj
 0001:0003d6b0       ??A?$dgArray@VdgIndexMapPair@Tetrahedralization@@@@QAEAAVdgIndexMapPair@Tetrahedralization@@H@Z 1003e6b0 f i physics:dgMeshEffect2.obj
 0001:0003d710       ?GetAllocator@?$dgList@VdgConvexHull4dTetraherum@@@@QBEPAVdgMemoryAllocator@@XZ 1003e710 f i physics:dgMeshEffect2.obj
 0001:0003d730       ?GetCount@?$dgList@VdgConvexHull4dTetraherum@@@@QBEHXZ 1003e730 f i physics:dgMeshEffect2.obj
 0001:0003d740       ?GetFirst@?$dgList@VdgConvexHull4dTetraherum@@@@QBEPAVdgListNode@1@XZ 1003e740 f i physics:dgMeshEffect2.obj
 0001:0003d760       ??0?$dgTree@PAVdgEdge@@PAV1@@@QAE@QAVdgMemoryAllocator@@@Z 1003e760 f i physics:dgMeshEffect2.obj
 0001:0003d790       ??1?$dgTree@PAVdgEdge@@PAV1@@@QAE@XZ 1003e790 f i physics:dgMeshEffect2.obj
 0001:0003d7b0       ?GetCount@?$dgTree@PAVdgEdge@@PAV1@@@QBEHXZ 1003e7b0 f i physics:dgMeshEffect2.obj
 0001:0003d7c0       ?Minimum@?$dgTree@PAVdgEdge@@PAV1@@@QBEPAVdgTreeNode@1@XZ 1003e7c0 f i physics:dgMeshEffect2.obj
 0001:0003d7f0       ?Find@?$dgTree@PAVdgEdge@@PAV1@@@QBEPAVdgTreeNode@1@PAVdgEdge@@@Z 1003e7f0 f i physics:dgMeshEffect2.obj
 0001:0003d910       ?Insert@?$dgTree@PAVdgEdge@@PAV1@@@QAEPAVdgTreeNode@1@ABQAVdgEdge@@PAV3@@Z 1003e910 f i physics:dgMeshEffect2.obj
 0001:0003d950       ??$dgSort@VdgIndexMapPair@Tetrahedralization@@@@YAXQAVdgIndexMapPair@Tetrahedralization@@HP6AHQBV01@1QAX@Z2@Z 1003e950 f i physics:dgMeshEffect2.obj
 0001:0003dd20       ??0?$dgStack@PAVdgCollision@@@@QAE@H@Z 1003ed20 f i physics:dgMeshEffect2.obj
 0001:0003dd50       ??1?$dgStack@PAVdgCollision@@@@QAE@XZ 1003ed50 f i physics:dgMeshEffect2.obj
 0001:0003dd70       ??A?$dgStack@PAVdgCollision@@@@QAEAAPAVdgCollision@@H@Z 1003ed70 f i physics:dgMeshEffect2.obj
 0001:0003ddf0       ??_GdgListNode@?$dgList@PAVdgTreeNode@?$dgTree@VdgEdge@@_J@@@@AAEPAXI@Z 1003edf0 f i physics:dgMeshEffect2.obj
 0001:0003de20       ??_GdgListNode@?$dgList@PAVdgListNode@?$dgList@VdgConvexHull4dTetraherum@@@@@@AAEPAXI@Z 1003ee20 f i physics:dgMeshEffect2.obj
 0001:0003de50       ?GetLeft@dgTreeNode@?$dgTree@VdgEdgeSharedTetras@Tetrahedralization@@_K@@ABEPAV12@XZ 1003ee50 f i physics:dgMeshEffect2.obj
 0001:0003de60       ?GetRight@dgTreeNode@?$dgTree@VdgEdgeSharedTetras@Tetrahedralization@@_K@@ABEPAV12@XZ 1003ee60 f i physics:dgMeshEffect2.obj
 0001:0003de80       ??2dgListNode@?$dgList@PAVdgTreeNode@?$dgTree@VdgEdge@@_J@@@@CAPAXIQAVdgMemoryAllocator@@@Z 1003ee80 f i physics:dgMeshEffect2.obj
 0001:0003dea0       ??3dgListNode@?$dgList@PAVdgTreeNode@?$dgTree@VdgEdge@@_J@@@@CAXPAX@Z 1003eea0 f i physics:dgMeshEffect2.obj
 0001:0003dec0       ??0dgListNode@?$dgList@PAVdgTreeNode@?$dgTree@VdgEdge@@_J@@@@AAE@ABQAVdgTreeNode@?$dgTree@VdgEdge@@_J@@QAV01@1@Z 1003eec0 f i physics:dgMeshEffect2.obj
 0001:0003df50       ??1dgListNode@?$dgList@PAVdgTreeNode@?$dgTree@VdgEdge@@_J@@@@AAE@XZ 1003ef50 f i physics:dgMeshEffect2.obj
 0001:0003df60       ??2dgListNode@?$dgList@PAVdgListNode@?$dgList@VdgConvexHull4dTetraherum@@@@@@CAPAXIQAVdgMemoryAllocator@@@Z 1003ef60 f i physics:dgMeshEffect2.obj
 0001:0003df80       ??3dgListNode@?$dgList@PAVdgListNode@?$dgList@VdgConvexHull4dTetraherum@@@@@@CAXPAX@Z 1003ef80 f i physics:dgMeshEffect2.obj
 0001:0003dfa0       ??0dgListNode@?$dgList@PAVdgListNode@?$dgList@VdgConvexHull4dTetraherum@@@@@@AAE@ABQAV0?$dgList@VdgConvexHull4dTetraherum@@@@QAV01@1@Z 1003efa0 f i physics:dgMeshEffect2.obj
 0001:0003e030       ??1dgListNode@?$dgList@PAVdgListNode@?$dgList@VdgConvexHull4dTetraherum@@@@@@AAE@XZ 1003f030 f i physics:dgMeshEffect2.obj
 0001:0003e040       ?Unlink@dgListNode@?$dgList@PAVdgListNode@?$dgList@VdgConvexHull4dTetraherum@@@@@@AAEXXZ 1003f040 f i physics:dgMeshEffect2.obj
 0001:0003e090       ?GetLeft@dgTreeNode@?$dgTree@PAVdgEdge@@PAV1@@@ABEPAV12@XZ 1003f090 f i physics:dgMeshEffect2.obj
 0001:0003e0a0       ?GetRight@dgTreeNode@?$dgTree@PAVdgEdge@@PAV1@@@ABEPAV12@XZ 1003f0a0 f i physics:dgMeshEffect2.obj
 0001:0003e0c0       ?GetLeft@dgTreeNode@?$dgTree@PAVdgListNode@?$dgList@VdgConvexHull4dTetraherum@@@@VdgEdgeFaceKey@Tetrahedralization@@@@ABEPAV12@XZ 1003f0c0 f i physics:dgMeshEffect2.obj
 0001:0003e0d0       ?GetRight@dgTreeNode@?$dgTree@PAVdgListNode@?$dgList@VdgConvexHull4dTetraherum@@@@VdgEdgeFaceKey@Tetrahedralization@@@@ABEPAV12@XZ 1003f0d0 f i physics:dgMeshEffect2.obj
 0001:0003e0f0       ?RemoveAll@?$dgList@PAVdgTreeNode@?$dgTree@VdgEdge@@_J@@@@QAEXXZ 1003f0f0 f i physics:dgMeshEffect2.obj
 0001:0003e1b0       ?Unlink@?$dgList@PAVdgTreeNode@?$dgTree@VdgEdge@@_J@@@@QAEXQAVdgListNode@1@@Z 1003f1b0 f i physics:dgMeshEffect2.obj
 0001:0003e260       ?Unlink@?$dgList@PAVdgListNode@?$dgList@VdgConvexHull4dTetraherum@@@@@@QAEXQAVdgListNode@1@@Z 1003f260 f i physics:dgMeshEffect2.obj
 0001:0003e310       ?Insert@?$dgTree@VdgEdgeSharedTetras@Tetrahedralization@@_K@@QAEPAVdgTreeNode@1@ABVdgEdgeSharedTetras@Tetrahedralization@@_KAA_N@Z 1003f310 f i physics:dgMeshEffect2.obj
 0001:0003e530       ?RemoveAll@?$dgTree@VdgEdgeSharedTetras@Tetrahedralization@@_K@@QAEXXZ 1003f530 f i physics:dgMeshEffect2.obj
 0001:0003e570       ?CompareKeys@?$dgTree@VdgEdgeSharedTetras@Tetrahedralization@@_K@@ABEHAB_K0@Z 1003f570 f i physics:dgMeshEffect2.obj
 0001:0003e5e0       ?Insert@?$dgTree@PAVdgListNode@?$dgList@VdgConvexHull4dTetraherum@@@@VdgEdgeFaceKey@Tetrahedralization@@@@QAEPAVdgTreeNode@1@ABQAVdgListNode@?$dgList@VdgConvexHull4dTetraherum@@@@VdgEdgeFaceKey@Tetrahedralization@@AA_N@Z 1003f5e0 f i physics:dgMeshEffect2.obj
 0001:0003e7f0       ?RemoveAll@?$dgTree@PAVdgListNode@?$dgList@VdgConvexHull4dTetraherum@@@@VdgEdgeFaceKey@Tetrahedralization@@@@QAEXXZ 1003f7f0 f i physics:dgMeshEffect2.obj
 0001:0003e830       ?CompareKeys@?$dgTree@PAVdgListNode@?$dgList@VdgConvexHull4dTetraherum@@@@VdgEdgeFaceKey@Tetrahedralization@@@@ABEHABVdgEdgeFaceKey@Tetrahedralization@@0@Z 1003f830 f i physics:dgMeshEffect2.obj
 0001:0003e880       ?Resize@?$dgArray@VdgIndexMapPair@Tetrahedralization@@@@QBEXH@Z 1003f880 f i physics:dgMeshEffect2.obj
 0001:0003e9f0       ?Insert@?$dgTree@PAVdgEdge@@PAV1@@@QAEPAVdgTreeNode@1@ABQAVdgEdge@@PAV3@AA_N@Z 1003f9f0 f i physics:dgMeshEffect2.obj
 0001:0003ebf0       ?RemoveAll@?$dgTree@PAVdgEdge@@PAV1@@@QAEXXZ 1003fbf0 f i physics:dgMeshEffect2.obj
 0001:0003ec30       ?CompareKeys@?$dgTree@PAVdgEdge@@PAV1@@@ABEHABQAVdgEdge@@0@Z 1003fc30 f i physics:dgMeshEffect2.obj
 0001:0003ec70       ??0dgTreeNode@?$dgTree@VdgEdgeSharedTetras@Tetrahedralization@@_K@@AAE@ABVdgEdgeSharedTetras@Tetrahedralization@@AB_KPAV01@@Z 1003fc70 f i physics:dgMeshEffect2.obj
 0001:0003ecf0       ??0dgEdgeSharedTetras@Tetrahedralization@@QAE@ABV01@@Z 1003fcf0 f i physics:dgMeshEffect2.obj
 0001:0003ed20       ?GetAllocator@?$dgList@PAVdgListNode@?$dgList@VdgConvexHull4dTetraherum@@@@@@QBEPAVdgMemoryAllocator@@XZ 1003fd20 f i physics:dgMeshEffect2.obj
 0001:0003ed40       ?Unlink@dgListNode@?$dgList@PAVdgTreeNode@?$dgTree@VdgEdge@@_J@@@@AAEXXZ 1003fd40 f i physics:dgMeshEffect2.obj
 0001:0003ed90       ?GetNext@dgListNode@?$dgList@PAVdgTreeNode@?$dgTree@VdgEdge@@_J@@@@QBEPAV12@XZ 1003fd90 f i physics:dgMeshEffect2.obj
 0001:0003edb0       ?GetPrev@dgListNode@?$dgList@PAVdgTreeNode@?$dgTree@VdgEdge@@_J@@@@QBEPAV12@XZ 1003fdb0 f i physics:dgMeshEffect2.obj
 0001:0003edd0       ?GetPrev@dgListNode@?$dgList@PAVdgListNode@?$dgList@VdgConvexHull4dTetraherum@@@@@@QBEPAV12@XZ 1003fdd0 f i physics:dgMeshEffect2.obj
 0001:0003edf0       ??0dgTreeNode@?$dgTree@PAVdgEdge@@PAV1@@@AAE@ABQAVdgEdge@@0PAV01@@Z 1003fdf0 f i physics:dgMeshEffect2.obj
 0001:0003ee60       ??0dgTreeNode@?$dgTree@PAVdgListNode@?$dgList@VdgConvexHull4dTetraherum@@@@VdgEdgeFaceKey@Tetrahedralization@@@@AAE@ABQAVdgListNode@?$dgList@VdgConvexHull4dTetraherum@@@@ABVdgEdgeFaceKey@Tetrahedralization@@PAV01@@Z 1003fe60 f i physics:dgMeshEffect2.obj
 0001:0003eee0       ??0dgCollisionConvexIntance@dgCollisionCompoundBreakable@@QAE@PAVdgConvexCollision@@PAVdgListNode@?$dgList@V?$dgGraphNode@VdgDebriNodeInfo@dgCollisionCompoundBreakable@@VdgSharedNodeMesh@2@@@@@N@Z 1003fee0 f   physics:dgCollisionCompoundBreakable.obj
 0001:0003f040       ??0dgCollisionConvexIntance@dgCollisionCompoundBreakable@@QAE@ABV01@PAVdgListNode@?$dgList@V?$dgGraphNode@VdgDebriNodeInfo@dgCollisionCompoundBreakable@@VdgSharedNodeMesh@2@@@@@@Z 10040040 f   physics:dgCollisionCompoundBreakable.obj
 0001:0003f110       ??0dgCollisionConvexIntance@dgCollisionCompoundBreakable@@QAE@QAVdgWorld@@P6AXPAX1I@ZQAX@Z 10040110 f   physics:dgCollisionCompoundBreakable.obj
 0001:0003f210       ??1dgCollisionConvexIntance@dgCollisionCompoundBreakable@@UAE@XZ 10040210 f   physics:dgCollisionCompoundBreakable.obj
 0001:0003f250       ?GetVolume@dgCollisionConvexIntance@dgCollisionCompoundBreakable@@MBENXZ 10040250 f   physics:dgCollisionCompoundBreakable.obj
 0001:0003f280       ?OOBBTest@dgCollisionConvexIntance@dgCollisionCompoundBreakable@@MBE_NABVdgMatrix@@QBVdgConvexCollision@@QAX@Z 10040280 f   physics:dgCollisionCompoundBreakable.obj
 0001:0003f2c0       ?SupportVertex@dgCollisionConvexIntance@dgCollisionCompoundBreakable@@MBE?AVdgVector@@ABV3@@Z 100402c0 f   physics:dgCollisionCompoundBreakable.obj
 0001:0003f300       ?SupportVertexSimd@dgCollisionConvexIntance@dgCollisionCompoundBreakable@@MBE?AVdgVector@@ABV3@@Z 10040300 f   physics:dgCollisionCompoundBreakable.obj
 0001:0003f340       ?CalcAABB@dgCollisionConvexIntance@dgCollisionCompoundBreakable@@MBEXABVdgMatrix@@AAVdgVector@@1@Z 10040340 f   physics:dgCollisionCompoundBreakable.obj
 0001:0003f380       ?CalcAABBSimd@dgCollisionConvexIntance@dgCollisionCompoundBreakable@@MBEXABVdgMatrix@@AAVdgVector@@1@Z 10040380 f   physics:dgCollisionCompoundBreakable.obj
 0001:0003f3c0       ?DebugCollision@dgCollisionConvexIntance@dgCollisionCompoundBreakable@@MBEXABVdgMatrix@@P6AXPAXHPBNH@ZQAX@Z 100403c0 f   physics:dgCollisionCompoundBreakable.obj
 0001:0003f400       ?RayCast@dgCollisionConvexIntance@dgCollisionCompoundBreakable@@MBENABVdgVector@@0AAVdgContactPoint@@P6AIQBVdgBody@@QBVdgCollision@@QAX@Z24@Z 10040400 f   physics:dgCollisionCompoundBreakable.obj
 0001:0003f440       ?RayCastSimd@dgCollisionConvexIntance@dgCollisionCompoundBreakable@@MBENABVdgVector@@0AAVdgContactPoint@@P6AIQBVdgBody@@QBVdgCollision@@QAX@Z24@Z 10040440 f   physics:dgCollisionCompoundBreakable.obj
 0001:0003f480       ?CalculateVolumeIntegral@dgCollisionConvexIntance@dgCollisionCompoundBreakable@@MBE?AVdgVector@@ABVdgMatrix@@P6AIPAX10AAVdgPlane@@@ZQAX@Z 10040480 f   physics:dgCollisionCompoundBreakable.obj
 0001:0003f4c0       ?CalculateSignature@dgCollisionConvexIntance@dgCollisionCompoundBreakable@@EBEHXZ 100404c0 f   physics:dgCollisionCompoundBreakable.obj
 0001:0003f4d0       ?SetCollisionBBox@dgCollisionConvexIntance@dgCollisionCompoundBreakable@@EAEXABVdgVector@@0@Z 100404d0 f   physics:dgCollisionCompoundBreakable.obj
 0001:0003f500       ?GetBoxMinRadius@dgCollisionConvexIntance@dgCollisionCompoundBreakable@@EBENXZ 10040500 f   physics:dgCollisionCompoundBreakable.obj
 0001:0003f530       ?GetBoxMaxRadius@dgCollisionConvexIntance@dgCollisionCompoundBreakable@@EBENXZ 10040530 f   physics:dgCollisionCompoundBreakable.obj
 0001:0003f560       ?CalculatePlaneIntersection@dgCollisionConvexIntance@dgCollisionCompoundBreakable@@EBEHABVdgVector@@0QAV3@@Z 10040560 f   physics:dgCollisionCompoundBreakable.obj
 0001:0003f5a0       ?CalculatePlaneIntersectionSimd@dgCollisionConvexIntance@dgCollisionCompoundBreakable@@EBEHABVdgVector@@0QAV3@@Z 100405a0 f   physics:dgCollisionCompoundBreakable.obj
 0001:0003f5e0       ?GetCollisionInfo@dgCollisionConvexIntance@dgCollisionCompoundBreakable@@EBEXPAVdgCollisionInfo@@@Z 100405e0 f   physics:dgCollisionCompoundBreakable.obj
 0001:0003f610       ?Serialize@dgCollisionConvexIntance@dgCollisionCompoundBreakable@@EBEXP6AXPAXPBXI@ZQAX@Z 10040610 f   physics:dgCollisionCompoundBreakable.obj
 0001:0003f6a0       ?SetBreakImpulse@dgCollisionConvexIntance@dgCollisionCompoundBreakable@@EAEXN@Z 100406a0 f   physics:dgCollisionCompoundBreakable.obj
 0001:0003f6c0       ?GetBreakImpulse@dgCollisionConvexIntance@dgCollisionCompoundBreakable@@EBENXZ 100406c0 f   physics:dgCollisionCompoundBreakable.obj
 0001:0003f6e0       ??0dgVertexBuffer@dgCollisionCompoundBreakable@@QAE@HPAVdgMemoryAllocator@@@Z 100406e0 f   physics:dgCollisionCompoundBreakable.obj
 0001:0003f770       ??1dgVertexBuffer@dgCollisionCompoundBreakable@@UAE@XZ 10040770 f   physics:dgCollisionCompoundBreakable.obj
 0001:0003f7d0       ??0dgVertexBuffer@dgCollisionCompoundBreakable@@QAE@QAVdgMemoryAllocator@@P6AXPAX1I@ZQAX@Z 100407d0 f   physics:dgCollisionCompoundBreakable.obj
 0001:0003f8c0       ?Serialize@dgVertexBuffer@dgCollisionCompoundBreakable@@QBEXP6AXPAXPBXI@ZQAX@Z 100408c0 f   physics:dgCollisionCompoundBreakable.obj
 0001:0003f940       ?GetVertexStreams@dgVertexBuffer@dgCollisionCompoundBreakable@@QBEXHPANH0H0@Z 10040940 f   physics:dgCollisionCompoundBreakable.obj
 0001:0003fa90       ??0dgSubMesh@dgCollisionCompoundBreakable@@QAE@QAVdgMemoryAllocator@@@Z 10040a90 f   physics:dgCollisionCompoundBreakable.obj
 0001:0003fae0       ??1dgSubMesh@dgCollisionCompoundBreakable@@QAE@XZ 10040ae0 f   physics:dgCollisionCompoundBreakable.obj
 0001:0003fb10       ?Serialize@dgSubMesh@dgCollisionCompoundBreakable@@QBEXP6AXPAXPBXI@ZQAX@Z 10040b10 f   physics:dgCollisionCompoundBreakable.obj
 0001:0003fb90       ??0dgMesh@dgCollisionCompoundBreakable@@QAE@QAVdgMemoryAllocator@@@Z 10040b90 f   physics:dgCollisionCompoundBreakable.obj
 0001:0003fbd0       ??1dgMesh@dgCollisionCompoundBreakable@@UAE@XZ 10040bd0 f   physics:dgCollisionCompoundBreakable.obj
 0001:0003fc00       ??0dgMesh@dgCollisionCompoundBreakable@@QAE@QAVdgMemoryAllocator@@P6AXPAX1I@ZQAX@Z 10040c00 f   physics:dgCollisionCompoundBreakable.obj
 0001:0003fd00       ?Serialize@dgMesh@dgCollisionCompoundBreakable@@QBEXP6AXPAXPBXI@ZQAX@Z 10040d00 f   physics:dgCollisionCompoundBreakable.obj
 0001:0003fd80       ?AddgSubMesh@dgMesh@dgCollisionCompoundBreakable@@QAEPAVdgSubMesh@2@HH@Z 10040d80 f   physics:dgCollisionCompoundBreakable.obj
 0001:0003fe20       ??0dgDebriNodeInfo@dgCollisionCompoundBreakable@@QAE@XZ 10040e20 f   physics:dgCollisionCompoundBreakable.obj
 0001:0003fe60       ??1dgDebriNodeInfo@dgCollisionCompoundBreakable@@QAE@XZ 10040e60 f   physics:dgCollisionCompoundBreakable.obj
 0001:0003fea0       ??0dgSharedNodeMesh@dgCollisionCompoundBreakable@@QAE@XZ 10040ea0 f   physics:dgCollisionCompoundBreakable.obj
 0001:0003feb0       ??1dgSharedNodeMesh@dgCollisionCompoundBreakable@@QAE@XZ 10040eb0 f   physics:dgCollisionCompoundBreakable.obj
 0001:0003fec0       ??0dgDebriGraph@dgCollisionCompoundBreakable@@QAE@QAVdgMemoryAllocator@@@Z 10040ec0 f   physics:dgCollisionCompoundBreakable.obj
 0001:0003fee0       ??0dgDebriGraph@dgCollisionCompoundBreakable@@QAE@QAVdgMemoryAllocator@@P6AXPAX1I@ZQAX@Z 10040ee0 f   physics:dgCollisionCompoundBreakable.obj
 0001:000400c0       ??0dgDebriGraph@dgCollisionCompoundBreakable@@QAE@ABV01@@Z 100410c0 f   physics:dgCollisionCompoundBreakable.obj
 0001:00040280       ??1dgDebriGraph@dgCollisionCompoundBreakable@@QAE@XZ 10041280 f   physics:dgCollisionCompoundBreakable.obj
 0001:000402a0       ?Serialize@dgDebriGraph@dgCollisionCompoundBreakable@@QBEXP6AXPAXPBXI@ZQAX@Z 100412a0 f   physics:dgCollisionCompoundBreakable.obj
 0001:000404c0       ?AddNode@dgDebriGraph@dgCollisionCompoundBreakable@@QAEXAAVdgFlatVertexArray@2@PAVdgMeshEffect@@HHNN@Z 100414c0 f   physics:dgCollisionCompoundBreakable.obj
 0001:00040500       ?AddMeshes@dgDebriGraph@dgCollisionCompoundBreakable@@QAEXAAVdgFlatVertexArray@2@HQBQBVdgMeshEffect@@QBHQBN2N@Z 10041500 f   physics:dgCollisionCompoundBreakable.obj
 0001:00040580       ??0dgCollisionCompoundBreakable@@QAE@HQBQBVdgMeshEffect@@QBHQBN1HNPAVdgWorld@@@Z 10041580 f   physics:dgCollisionCompoundBreakable.obj
 0001:00041310       ??0dgCollisionCompoundBreakable@@QAE@ABV0@@Z 10042310 f   physics:dgCollisionCompoundBreakable.obj
 0001:000418b0       ??0dgCollisionCompoundBreakable@@QAE@QAVdgWorld@@P6AXPAX1I@ZQAX@Z 100428b0 f   physics:dgCollisionCompoundBreakable.obj
 0001:00041ae0       ??1dgCollisionCompoundBreakable@@UAE@XZ 10042ae0 f   physics:dgCollisionCompoundBreakable.obj
 0001:00041b70       ?LinkNodes@dgCollisionCompoundBreakable@@AAEXXZ 10042b70 f   physics:dgCollisionCompoundBreakable.obj
 0001:00041c90       ?Serialize@dgCollisionCompoundBreakable@@EBEXP6AXPAXPBXI@ZQAX@Z 10042c90 f   physics:dgCollisionCompoundBreakable.obj
 0001:00041d60       ?GetCollisionInfo@dgCollisionCompoundBreakable@@EBEXPAVdgCollisionInfo@@@Z 10042d60 f   physics:dgCollisionCompoundBreakable.obj
 0001:00041d90       ?GetSegmentIndexStreamShort@dgCollisionCompoundBreakable@@QBEHQAVdgListNode@?$dgList@V?$dgGraphNode@VdgDebriNodeInfo@dgCollisionCompoundBreakable@@VdgSharedNodeMesh@2@@@@@PAV2?$dgList@VdgSubMesh@dgCollisionCompoundBreakable@@@@QAF@Z 10042d90 f   physics:dgCollisionCompoundBreakable.obj
 0001:00041ed0       ?GetSegmentIndexStream@dgCollisionCompoundBreakable@@QBEHQAVdgListNode@?$dgList@V?$dgGraphNode@VdgDebriNodeInfo@dgCollisionCompoundBreakable@@VdgSharedNodeMesh@2@@@@@PAV2?$dgList@VdgSubMesh@dgCollisionCompoundBreakable@@@@QAH@Z 10042ed0 f   physics:dgCollisionCompoundBreakable.obj
 0001:00042000       ?GetSegmentsInRadius@dgCollisionCompoundBreakable@@QAEHABVdgVector@@NPAPAVdgListNode@?$dgList@V?$dgGraphNode@VdgDebriNodeInfo@dgCollisionCompoundBreakable@@VdgSharedNodeMesh@2@@@@@H@Z 10043000 f   physics:dgCollisionCompoundBreakable.obj
 0001:00042380       ?EnumerateIslands@dgCollisionCompoundBreakable@@QAEXXZ 10043380 f   physics:dgCollisionCompoundBreakable.obj
 0001:00042580       ?ResetAnchor@dgCollisionCompoundBreakable@@QAEXXZ 10043580 f   physics:dgCollisionCompoundBreakable.obj
 0001:000425f0       ?SetAnchoredParts@dgCollisionCompoundBreakable@@QAEXHQBVdgMatrix@@PAPBVdgCollision@@@Z 100435f0 f   physics:dgCollisionCompoundBreakable.obj
 0001:00042960       ?DeleteComponent@dgCollisionCompoundBreakable@@QAEXPAVdgListNode@?$dgList@V?$dgGraphNode@VdgDebriNodeInfo@dgCollisionCompoundBreakable@@VdgSharedNodeMesh@2@@@@@@Z 10043960 f   physics:dgCollisionCompoundBreakable.obj
 0001:00042c00       ?CreateComponentBody@dgCollisionCompoundBreakable@@QBEPAVdgBody@@PAVdgListNode@?$dgList@V?$dgGraphNode@VdgDebriNodeInfo@dgCollisionCompoundBreakable@@VdgSharedNodeMesh@2@@@@@@Z 10043c00 f   physics:dgCollisionCompoundBreakable.obj
 0001:00042c40       ?DeleteComponentBegin@dgCollisionCompoundBreakable@@QAEXXZ 10043c40 f   physics:dgCollisionCompoundBreakable.obj
 0001:00042c70       ?DeleteComponentEnd@dgCollisionCompoundBreakable@@QAEXXZ 10043c70 f   physics:dgCollisionCompoundBreakable.obj
 0001:00043130       ??_EdgCollisionConvexIntance@dgCollisionCompoundBreakable@@UAEPAXI@Z 10044130 f i physics:dgCollisionCompoundBreakable.obj
 0001:00043130       ??_GdgCollisionConvexIntance@dgCollisionCompoundBreakable@@UAEPAXI@Z 10044130 f i physics:dgCollisionCompoundBreakable.obj
 0001:00043160       ??_GdgVertexBuffer@dgCollisionCompoundBreakable@@UAEPAXI@Z 10044160 f i physics:dgCollisionCompoundBreakable.obj
 0001:00043160       ??_EdgVertexBuffer@dgCollisionCompoundBreakable@@UAEPAXI@Z 10044160 f i physics:dgCollisionCompoundBreakable.obj
 0001:00043190       ??3dgVertexBuffer@dgCollisionCompoundBreakable@@SAXPAX@Z 10044190 f i physics:dgCollisionCompoundBreakable.obj
 0001:000431b0       ??_EdgMesh@dgCollisionCompoundBreakable@@UAEPAXI@Z 100441b0 f i physics:dgCollisionCompoundBreakable.obj
 0001:000431b0       ??_GdgMesh@dgCollisionCompoundBreakable@@UAEPAXI@Z 100441b0 f i physics:dgCollisionCompoundBreakable.obj
 0001:000431e0       ?SetAsTriggerVolume@dgCollision@@UAEX_N@Z 100441e0 f i physics:dgCollisionCompoundBreakable.obj
 0001:000431f0       ?IsTriggerVolume@dgCollision@@UBE_NXZ 100441f0 f i physics:dgCollisionCompoundBreakable.obj
 0001:00043200       ??0dgFlatVertexArray@dgCollisionCompoundBreakable@@QAE@QAVdgMemoryAllocator@@@Z 10044200 f i physics:dgCollisionCompoundBreakable.obj
 0001:00043230       ??2dgVertexBuffer@dgCollisionCompoundBreakable@@SAPAXIQAVdgMemoryAllocator@@@Z 10044230 f i physics:dgCollisionCompoundBreakable.obj
 0001:00043250       ??0dgIsland@dgCollisionCompoundBreakable@@QAE@QAVdgMemoryAllocator@@@Z 10044250 f i physics:dgCollisionCompoundBreakable.obj
 0001:00043270       ??_EdgCollisionCompoundBreakable@@UAEPAXI@Z 10044270 f i physics:dgCollisionCompoundBreakable.obj
 0001:00043270       ??_GdgCollisionCompoundBreakable@@UAEPAXI@Z 10044270 f i physics:dgCollisionCompoundBreakable.obj
 0001:000432a0       ??1dgFlatVertexArray@dgCollisionCompoundBreakable@@QAE@XZ 100442a0 f i physics:dgCollisionCompoundBreakable.obj
 0001:000432c0       ?Release@dgRefCounter@@QAEHXZ 100442c0 f i physics:dgCollisionCompoundBreakable.obj
 0001:00043320       ??1dgIsland@dgCollisionCompoundBreakable@@QAE@XZ 10044320 f i physics:dgCollisionCompoundBreakable.obj
 0001:00043340       ??2?$dgList@VdgSubMesh@dgCollisionCompoundBreakable@@@@SAPAXIQAVdgMemoryAllocator@@@Z 10044340 f i physics:dgCollisionCompoundBreakable.obj
 0001:00043360       ??3?$dgList@VdgSubMesh@dgCollisionCompoundBreakable@@@@SAXPAX@Z 10044360 f i physics:dgCollisionCompoundBreakable.obj
 0001:00043380       ?GetInfo@dgTreeNode@?$dgTree@PAVdgListNode@?$dgList@V?$dgGraphNode@VdgDebriNodeInfo@dgCollisionCompoundBreakable@@VdgSharedNodeMesh@2@@@@@PAV12@@@QAEAAPAVdgListNode@?$dgList@V?$dgGraphNode@VdgDebriNodeInfo@dgCollisionCompoundBreakable@@VdgSharedNodeMesh@2@@@@@XZ 10044380 f i physics:dgCollisionCompoundBreakable.obj
 0001:000433a0       ?GetInfo@dgListNode@?$dgList@V?$dgGraphEdge@VdgDebriNodeInfo@dgCollisionCompoundBreakable@@VdgSharedNodeMesh@2@@@@@QAEAAV?$dgGraphEdge@VdgDebriNodeInfo@dgCollisionCompoundBreakable@@VdgSharedNodeMesh@2@@@XZ 100443a0 f i physics:dgCollisionCompoundBreakable.obj
 0001:000433b0       ?GetNext@dgListNode@?$dgList@V?$dgGraphEdge@VdgDebriNodeInfo@dgCollisionCompoundBreakable@@VdgSharedNodeMesh@2@@@@@QBEPAV12@XZ 100443b0 f i physics:dgCollisionCompoundBreakable.obj
 0001:000433d0       ?GetInfo@dgTreeNode@?$dgTree@HPAVdgListNode@?$dgList@V?$dgGraphNode@VdgDebriNodeInfo@dgCollisionCompoundBreakable@@VdgSharedNodeMesh@2@@@@@@@QAEAAHXZ 100443d0 f i physics:dgCollisionCompoundBreakable.obj
 0001:000433f0       ?GetInfo@dgTreeNode@?$dgTree@VdgCompoundBreakableFilterData@dgCollisionCompoundBreakable@@PAVdgConvexCollision@@@@QAEAAVdgCompoundBreakableFilterData@dgCollisionCompoundBreakable@@XZ 100443f0 f i physics:dgCollisionCompoundBreakable.obj
 0001:00043410       ?GetInfo@dgListNode@?$dgList@PAVdgListNode@?$dgList@V?$dgGraphNode@VdgDebriNodeInfo@dgCollisionCompoundBreakable@@VdgSharedNodeMesh@2@@@@@@@QAEAAPAV1?$dgList@V?$dgGraphNode@VdgDebriNodeInfo@dgCollisionCompoundBreakable@@VdgSharedNodeMesh@2@@@@@XZ 10044410 f i physics:dgCollisionCompoundBreakable.obj
 0001:00043420       ?GetNext@dgListNode@?$dgList@PAVdgListNode@?$dgList@V?$dgGraphNode@VdgDebriNodeInfo@dgCollisionCompoundBreakable@@VdgSharedNodeMesh@2@@@@@@@QBEPAV12@XZ 10044420 f i physics:dgCollisionCompoundBreakable.obj
 0001:00043440       ??0?$dgArray@VdgFlatVertex@dgCollisionCompoundBreakable@@@@QAE@HQAVdgMemoryAllocator@@@Z 10044440 f i physics:dgCollisionCompoundBreakable.obj
 0001:00043480       ??1?$dgArray@VdgFlatVertex@dgCollisionCompoundBreakable@@@@QAE@XZ 10044480 f i physics:dgCollisionCompoundBreakable.obj
 0001:000434b0       ??A?$dgArray@VdgFlatVertex@dgCollisionCompoundBreakable@@@@QAEAAVdgFlatVertex@dgCollisionCompoundBreakable@@H@Z 100444b0 f i physics:dgCollisionCompoundBreakable.obj
 0001:00043510       ??0?$dgList@VdgSubMesh@dgCollisionCompoundBreakable@@@@QAE@QAVdgMemoryAllocator@@@Z 10044510 f i physics:dgCollisionCompoundBreakable.obj
 0001:00043550       ??1?$dgList@VdgSubMesh@dgCollisionCompoundBreakable@@@@QAE@XZ 10044550 f i physics:dgCollisionCompoundBreakable.obj
 0001:00043570       ?GetAllocator@?$dgList@VdgSubMesh@dgCollisionCompoundBreakable@@@@QBEPAVdgMemoryAllocator@@XZ 10044570 f i physics:dgCollisionCompoundBreakable.obj
 0001:00043590       ?GetCount@?$dgList@VdgSubMesh@dgCollisionCompoundBreakable@@@@QBEHXZ 10044590 f i physics:dgCollisionCompoundBreakable.obj
 0001:000435a0       ?Append@?$dgList@VdgSubMesh@dgCollisionCompoundBreakable@@@@QAEPAVdgListNode@1@ABVdgSubMesh@dgCollisionCompoundBreakable@@@Z 100445a0 f i physics:dgCollisionCompoundBreakable.obj
 0001:00043660       ?GetAllocator@?$dgList@V?$dgGraphNode@VdgDebriNodeInfo@dgCollisionCompoundBreakable@@VdgSharedNodeMesh@2@@@@@QBEPAVdgMemoryAllocator@@XZ 10044660 f i physics:dgCollisionCompoundBreakable.obj
 0001:00043680       ??0?$dgGraph@VdgDebriNodeInfo@dgCollisionCompoundBreakable@@VdgSharedNodeMesh@2@@@QAE@QAVdgMemoryAllocator@@@Z 10044680 f i physics:dgCollisionCompoundBreakable.obj
 0001:000436b0       ??1?$dgGraph@VdgDebriNodeInfo@dgCollisionCompoundBreakable@@VdgSharedNodeMesh@2@@@QAE@XZ 100446b0 f i physics:dgCollisionCompoundBreakable.obj
 0001:000436d0       ?AddNode@?$dgGraph@VdgDebriNodeInfo@dgCollisionCompoundBreakable@@VdgSharedNodeMesh@2@@@QAEPAVdgListNode@?$dgList@V?$dgGraphNode@VdgDebriNodeInfo@dgCollisionCompoundBreakable@@VdgSharedNodeMesh@2@@@@@XZ 100446d0 f i physics:dgCollisionCompoundBreakable.obj
 0001:00043730       ?DeleteNode@?$dgGraph@VdgDebriNodeInfo@dgCollisionCompoundBreakable@@VdgSharedNodeMesh@2@@@QAEXQAVdgListNode@?$dgList@V?$dgGraphNode@VdgDebriNodeInfo@dgCollisionCompoundBreakable@@VdgSharedNodeMesh@2@@@@@@Z 10044730 f i physics:dgCollisionCompoundBreakable.obj
 0001:000437d0       ??0?$dgList@PAVdgListNode@?$dgList@V?$dgGraphNode@VdgDebriNodeInfo@dgCollisionCompoundBreakable@@VdgSharedNodeMesh@2@@@@@@@QAE@QAVdgMemoryAllocator@@@Z 100447d0 f i physics:dgCollisionCompoundBreakable.obj
 0001:00043810       ??1?$dgList@PAVdgListNode@?$dgList@V?$dgGraphNode@VdgDebriNodeInfo@dgCollisionCompoundBreakable@@VdgSharedNodeMesh@2@@@@@@@QAE@XZ 10044810 f i physics:dgCollisionCompoundBreakable.obj
 0001:00043830       ?GetFirst@?$dgList@PAVdgListNode@?$dgList@V?$dgGraphNode@VdgDebriNodeInfo@dgCollisionCompoundBreakable@@VdgSharedNodeMesh@2@@@@@@@QBEPAVdgListNode@1@XZ 10044830 f i physics:dgCollisionCompoundBreakable.obj
 0001:00043850       ?Append@?$dgList@PAVdgListNode@?$dgList@V?$dgGraphNode@VdgDebriNodeInfo@dgCollisionCompoundBreakable@@VdgSharedNodeMesh@2@@@@@@@QAEPAVdgListNode@1@ABQAV2?$dgList@V?$dgGraphNode@VdgDebriNodeInfo@dgCollisionCompoundBreakable@@VdgSharedNodeMesh@2@@@@@@Z 10044850 f i physics:dgCollisionCompoundBreakable.obj
 0001:00043910       ?Remove@?$dgList@PAVdgListNode@?$dgList@V?$dgGraphNode@VdgDebriNodeInfo@dgCollisionCompoundBreakable@@VdgSharedNodeMesh@2@@@@@@@QAEXABQAVdgListNode@?$dgList@V?$dgGraphNode@VdgDebriNodeInfo@dgCollisionCompoundBreakable@@VdgSharedNodeMesh@2@@@@@@Z 10044910 f i physics:dgCollisionCompoundBreakable.obj
 0001:00043940       ?Remove@?$dgList@PAVdgListNode@?$dgList@V?$dgGraphNode@VdgDebriNodeInfo@dgCollisionCompoundBreakable@@VdgSharedNodeMesh@2@@@@@@@QAEXQAVdgListNode@1@@Z 10044940 f i physics:dgCollisionCompoundBreakable.obj
 0001:00043990       ?RemoveAll@?$dgList@PAVdgListNode@?$dgList@V?$dgGraphNode@VdgDebriNodeInfo@dgCollisionCompoundBreakable@@VdgSharedNodeMesh@2@@@@@@@QAEXXZ 10044990 f i physics:dgCollisionCompoundBreakable.obj
 0001:00043a50       ?GetCount@?$dgList@V?$dgGraphEdge@VdgDebriNodeInfo@dgCollisionCompoundBreakable@@VdgSharedNodeMesh@2@@@@@QBEHXZ 10044a50 f i physics:dgCollisionCompoundBreakable.obj
 0001:00043a60       ?GetFirst@?$dgList@V?$dgGraphEdge@VdgDebriNodeInfo@dgCollisionCompoundBreakable@@VdgSharedNodeMesh@2@@@@@QBEPAVdgListNode@1@XZ 10044a60 f i physics:dgCollisionCompoundBreakable.obj
 0001:00043a80       ?AddEdge@?$dgGraphNode@VdgDebriNodeInfo@dgCollisionCompoundBreakable@@VdgSharedNodeMesh@2@@@QAEPAVdgListNode@?$dgList@V?$dgGraphEdge@VdgDebriNodeInfo@dgCollisionCompoundBreakable@@VdgSharedNodeMesh@2@@@@@QAV2?$dgList@V?$dgGraphNode@VdgDebriNodeInfo@dgCollisionCompoundBreakable@@VdgSharedNodeMesh@2@@@@@@Z 10044a80 f i physics:dgCollisionCompoundBreakable.obj
 0001:00043ab0       ?DeleteEdge@?$dgGraphNode@VdgDebriNodeInfo@dgCollisionCompoundBreakable@@VdgSharedNodeMesh@2@@@QAEXQAVdgListNode@?$dgList@V?$dgGraphEdge@VdgDebriNodeInfo@dgCollisionCompoundBreakable@@VdgSharedNodeMesh@2@@@@@@Z 10044ab0 f i physics:dgCollisionCompoundBreakable.obj
 0001:00043b30       ??0?$dgStack@PAVdgListNode@?$dgList@V?$dgGraphNode@VdgDebriNodeInfo@dgCollisionCompoundBreakable@@VdgSharedNodeMesh@2@@@@@@@QAE@H@Z 10044b30 f i physics:dgCollisionCompoundBreakable.obj
 0001:00043b60       ??1?$dgStack@PAVdgListNode@?$dgList@V?$dgGraphNode@VdgDebriNodeInfo@dgCollisionCompoundBreakable@@VdgSharedNodeMesh@2@@@@@@@QAE@XZ 10044b60 f i physics:dgCollisionCompoundBreakable.obj
 0001:00043b80       ??A?$dgStack@PAVdgListNode@?$dgList@V?$dgGraphNode@VdgDebriNodeInfo@dgCollisionCompoundBreakable@@VdgSharedNodeMesh@2@@@@@@@QAEAAPAVdgListNode@?$dgList@V?$dgGraphNode@VdgDebriNodeInfo@dgCollisionCompoundBreakable@@VdgSharedNodeMesh@2@@@@@H@Z 10044b80 f i physics:dgCollisionCompoundBreakable.obj
 0001:00043c00       ??0?$dgTree@PAVdgListNode@?$dgList@V?$dgGraphNode@VdgDebriNodeInfo@dgCollisionCompoundBreakable@@VdgSharedNodeMesh@2@@@@@PAV12@@@QAE@QAVdgMemoryAllocator@@@Z 10044c00 f i physics:dgCollisionCompoundBreakable.obj
 0001:00043c30       ??1?$dgTree@PAVdgListNode@?$dgList@V?$dgGraphNode@VdgDebriNodeInfo@dgCollisionCompoundBreakable@@VdgSharedNodeMesh@2@@@@@PAV12@@@QAE@XZ 10044c30 f i physics:dgCollisionCompoundBreakable.obj
 0001:00043c50       ?Find@?$dgTree@PAVdgListNode@?$dgList@V?$dgGraphNode@VdgDebriNodeInfo@dgCollisionCompoundBreakable@@VdgSharedNodeMesh@2@@@@@PAV12@@@QBEPAVdgTreeNode@1@PAVdgListNode@?$dgList@V?$dgGraphNode@VdgDebriNodeInfo@dgCollisionCompoundBreakable@@VdgSharedNodeMesh@2@@@@@@Z 10044c50 f i physics:dgCollisionCompoundBreakable.obj
 0001:00043d70       ?Insert@?$dgTree@PAVdgListNode@?$dgList@V?$dgGraphNode@VdgDebriNodeInfo@dgCollisionCompoundBreakable@@VdgSharedNodeMesh@2@@@@@PAV12@@@QAEPAVdgTreeNode@1@ABQAVdgListNode@?$dgList@V?$dgGraphNode@VdgDebriNodeInfo@dgCollisionCompoundBreakable@@VdgSharedNodeMesh@2@@@@@PAV34@@Z 10044d70 f i physics:dgCollisionCompoundBreakable.obj
 0001:00043db0       ??0?$dgTree@HPAVdgListNode@?$dgList@V?$dgGraphNode@VdgDebriNodeInfo@dgCollisionCompoundBreakable@@VdgSharedNodeMesh@2@@@@@@@QAE@QAVdgMemoryAllocator@@@Z 10044db0 f i physics:dgCollisionCompoundBreakable.obj
 0001:00043de0       ??1?$dgTree@HPAVdgListNode@?$dgList@V?$dgGraphNode@VdgDebriNodeInfo@dgCollisionCompoundBreakable@@VdgSharedNodeMesh@2@@@@@@@QAE@XZ 10044de0 f i physics:dgCollisionCompoundBreakable.obj
 0001:00043e00       ?Find@?$dgTree@HPAVdgListNode@?$dgList@V?$dgGraphNode@VdgDebriNodeInfo@dgCollisionCompoundBreakable@@VdgSharedNodeMesh@2@@@@@@@QBEPAVdgTreeNode@1@PAVdgListNode@?$dgList@V?$dgGraphNode@VdgDebriNodeInfo@dgCollisionCompoundBreakable@@VdgSharedNodeMesh@2@@@@@@Z 10044e00 f i physics:dgCollisionCompoundBreakable.obj
 0001:00043f20       ?Insert@?$dgTree@HPAVdgListNode@?$dgList@V?$dgGraphNode@VdgDebriNodeInfo@dgCollisionCompoundBreakable@@VdgSharedNodeMesh@2@@@@@@@QAEPAVdgTreeNode@1@ABHPAVdgListNode@?$dgList@V?$dgGraphNode@VdgDebriNodeInfo@dgCollisionCompoundBreakable@@VdgSharedNodeMesh@2@@@@@@Z 10044f20 f i physics:dgCollisionCompoundBreakable.obj
 0001:00043f60       ??0?$dgStack@PAVdgConvexCollision@@@@QAE@H@Z 10044f60 f i physics:dgCollisionCompoundBreakable.obj
 0001:00043f90       ??1?$dgStack@PAVdgConvexCollision@@@@QAE@XZ 10044f90 f i physics:dgCollisionCompoundBreakable.obj
 0001:00043fb0       ??A?$dgStack@PAVdgConvexCollision@@@@QAEAAPAVdgConvexCollision@@H@Z 10044fb0 f i physics:dgCollisionCompoundBreakable.obj
 0001:00044030       ??0?$dgTree@VdgCompoundBreakableFilterData@dgCollisionCompoundBreakable@@PAVdgConvexCollision@@@@QAE@QAVdgMemoryAllocator@@@Z 10045030 f i physics:dgCollisionCompoundBreakable.obj
 0001:00044060       ??1?$dgTree@VdgCompoundBreakableFilterData@dgCollisionCompoundBreakable@@PAVdgConvexCollision@@@@QAE@XZ 10045060 f i physics:dgCollisionCompoundBreakable.obj
 0001:00044080       ?Find@?$dgTree@VdgCompoundBreakableFilterData@dgCollisionCompoundBreakable@@PAVdgConvexCollision@@@@QBEPAVdgTreeNode@1@PAVdgConvexCollision@@@Z 10045080 f i physics:dgCollisionCompoundBreakable.obj
 0001:000441a0       ?Insert@?$dgTree@VdgCompoundBreakableFilterData@dgCollisionCompoundBreakable@@PAVdgConvexCollision@@@@QAEPAVdgTreeNode@1@ABVdgCompoundBreakableFilterData@dgCollisionCompoundBreakable@@PAVdgConvexCollision@@@Z 100451a0 f i physics:dgCollisionCompoundBreakable.obj
 0001:000441e0       ??_GdgListNode@?$dgList@PAVdgListNode@?$dgList@V?$dgGraphNode@VdgDebriNodeInfo@dgCollisionCompoundBreakable@@VdgSharedNodeMesh@2@@@@@@@AAEPAXI@Z 100451e0 f i physics:dgCollisionCompoundBreakable.obj
 0001:00044210       ??2dgListNode@?$dgList@VdgSubMesh@dgCollisionCompoundBreakable@@@@CAPAXIQAVdgMemoryAllocator@@@Z 10045210 f i physics:dgCollisionCompoundBreakable.obj
 0001:00044230       ??0dgListNode@?$dgList@VdgSubMesh@dgCollisionCompoundBreakable@@@@AAE@ABVdgSubMesh@dgCollisionCompoundBreakable@@QAV01@1@Z 10045230 f i physics:dgCollisionCompoundBreakable.obj
 0001:000442e0       ?GetLeft@dgTreeNode@?$dgTree@PAVdgListNode@?$dgList@V?$dgGraphNode@VdgDebriNodeInfo@dgCollisionCompoundBreakable@@VdgSharedNodeMesh@2@@@@@PAV12@@@ABEPAV12@XZ 100452e0 f i physics:dgCollisionCompoundBreakable.obj
 0001:000442f0       ?GetRight@dgTreeNode@?$dgTree@PAVdgListNode@?$dgList@V?$dgGraphNode@VdgDebriNodeInfo@dgCollisionCompoundBreakable@@VdgSharedNodeMesh@2@@@@@PAV12@@@ABEPAV12@XZ 100452f0 f i physics:dgCollisionCompoundBreakable.obj
 0001:00044310       ?GetLeft@dgTreeNode@?$dgTree@HPAVdgListNode@?$dgList@V?$dgGraphNode@VdgDebriNodeInfo@dgCollisionCompoundBreakable@@VdgSharedNodeMesh@2@@@@@@@ABEPAV12@XZ 10045310 f i physics:dgCollisionCompoundBreakable.obj
 0001:00044320       ?GetRight@dgTreeNode@?$dgTree@HPAVdgListNode@?$dgList@V?$dgGraphNode@VdgDebriNodeInfo@dgCollisionCompoundBreakable@@VdgSharedNodeMesh@2@@@@@@@ABEPAV12@XZ 10045320 f i physics:dgCollisionCompoundBreakable.obj
 0001:00044340       ?GetLeft@dgTreeNode@?$dgTree@VdgCompoundBreakableFilterData@dgCollisionCompoundBreakable@@PAVdgConvexCollision@@@@ABEPAV12@XZ 10045340 f i physics:dgCollisionCompoundBreakable.obj
 0001:00044350       ?GetRight@dgTreeNode@?$dgTree@VdgCompoundBreakableFilterData@dgCollisionCompoundBreakable@@PAVdgConvexCollision@@@@ABEPAV12@XZ 10045350 f i physics:dgCollisionCompoundBreakable.obj
 0001:00044370       ??2dgListNode@?$dgList@PAVdgListNode@?$dgList@V?$dgGraphNode@VdgDebriNodeInfo@dgCollisionCompoundBreakable@@VdgSharedNodeMesh@2@@@@@@@CAPAXIQAVdgMemoryAllocator@@@Z 10045370 f i physics:dgCollisionCompoundBreakable.obj
 0001:00044390       ??3dgListNode@?$dgList@PAVdgListNode@?$dgList@V?$dgGraphNode@VdgDebriNodeInfo@dgCollisionCompoundBreakable@@VdgSharedNodeMesh@2@@@@@@@CAXPAX@Z 10045390 f i physics:dgCollisionCompoundBreakable.obj
 0001:000443b0       ??0dgListNode@?$dgList@PAVdgListNode@?$dgList@V?$dgGraphNode@VdgDebriNodeInfo@dgCollisionCompoundBreakable@@VdgSharedNodeMesh@2@@@@@@@AAE@ABQAV0?$dgList@V?$dgGraphNode@VdgDebriNodeInfo@dgCollisionCompoundBreakable@@VdgSharedNodeMesh@2@@@@@QAV01@1@Z 100453b0 f i physics:dgCollisionCompoundBreakable.obj
 0001:00044440       ??1dgListNode@?$dgList@PAVdgListNode@?$dgList@V?$dgGraphNode@VdgDebriNodeInfo@dgCollisionCompoundBreakable@@VdgSharedNodeMesh@2@@@@@@@AAE@XZ 10045440 f i physics:dgCollisionCompoundBreakable.obj
 0001:00044450       ?Unlink@dgListNode@?$dgList@PAVdgListNode@?$dgList@V?$dgGraphNode@VdgDebriNodeInfo@dgCollisionCompoundBreakable@@VdgSharedNodeMesh@2@@@@@@@AAEXXZ 10045450 f i physics:dgCollisionCompoundBreakable.obj
 0001:000444a0       ?Resize@?$dgArray@VdgFlatVertex@dgCollisionCompoundBreakable@@@@QBEXH@Z 100454a0 f i physics:dgCollisionCompoundBreakable.obj
 0001:00044610       ?RemoveAll@?$dgList@VdgSubMesh@dgCollisionCompoundBreakable@@@@QAEXXZ 10045610 f i physics:dgCollisionCompoundBreakable.obj
 0001:000446d0       ??0?$dgList@V?$dgGraphNode@VdgDebriNodeInfo@dgCollisionCompoundBreakable@@VdgSharedNodeMesh@2@@@@@QAE@QAVdgMemoryAllocator@@@Z 100456d0 f i physics:dgCollisionCompoundBreakable.obj
 0001:00044710       ??1?$dgList@V?$dgGraphNode@VdgDebriNodeInfo@dgCollisionCompoundBreakable@@VdgSharedNodeMesh@2@@@@@QAE@XZ 10045710 f i physics:dgCollisionCompoundBreakable.obj
 0001:00044730       ?Append@?$dgList@V?$dgGraphNode@VdgDebriNodeInfo@dgCollisionCompoundBreakable@@VdgSharedNodeMesh@2@@@@@QAEPAVdgListNode@1@XZ 10045730 f i physics:dgCollisionCompoundBreakable.obj
 0001:000447f0       ?Remove@?$dgList@V?$dgGraphNode@VdgDebriNodeInfo@dgCollisionCompoundBreakable@@VdgSharedNodeMesh@2@@@@@QAEXQAVdgListNode@1@@Z 100457f0 f i physics:dgCollisionCompoundBreakable.obj
 0001:00044840       ?SetAllocator@?$dgList@V?$dgGraphEdge@VdgDebriNodeInfo@dgCollisionCompoundBreakable@@VdgSharedNodeMesh@2@@@@@QAEXQAVdgMemoryAllocator@@@Z 10045840 f i physics:dgCollisionCompoundBreakable.obj
 0001:00044870       ?Append@?$dgList@V?$dgGraphEdge@VdgDebriNodeInfo@dgCollisionCompoundBreakable@@VdgSharedNodeMesh@2@@@@@QAEPAVdgListNode@1@XZ 10045870 f i physics:dgCollisionCompoundBreakable.obj
 0001:00044930       ?Remove@?$dgList@V?$dgGraphEdge@VdgDebriNodeInfo@dgCollisionCompoundBreakable@@VdgSharedNodeMesh@2@@@@@QAEXQAVdgListNode@1@@Z 10045930 f i physics:dgCollisionCompoundBreakable.obj
 0001:00044980       ?Find@?$dgList@PAVdgListNode@?$dgList@V?$dgGraphNode@VdgDebriNodeInfo@dgCollisionCompoundBreakable@@VdgSharedNodeMesh@2@@@@@@@QBEPAVdgListNode@1@ABQAV2?$dgList@V?$dgGraphNode@VdgDebriNodeInfo@dgCollisionCompoundBreakable@@VdgSharedNodeMesh@2@@@@@@Z 10045980 f i physics:dgCollisionCompoundBreakable.obj
 0001:000449c0       ?Unlink@?$dgList@PAVdgListNode@?$dgList@V?$dgGraphNode@VdgDebriNodeInfo@dgCollisionCompoundBreakable@@VdgSharedNodeMesh@2@@@@@@@QAEXQAVdgListNode@1@@Z 100459c0 f i physics:dgCollisionCompoundBreakable.obj
 0001:00044a70       ?DeleteHalfEdge@?$dgGraphNode@VdgDebriNodeInfo@dgCollisionCompoundBreakable@@VdgSharedNodeMesh@2@@@QAEXQAVdgListNode@?$dgList@V?$dgGraphEdge@VdgDebriNodeInfo@dgCollisionCompoundBreakable@@VdgSharedNodeMesh@2@@@@@@Z 10045a70 f i physics:dgCollisionCompoundBreakable.obj
 0001:00044a90       ?Insert@?$dgTree@PAVdgListNode@?$dgList@V?$dgGraphNode@VdgDebriNodeInfo@dgCollisionCompoundBreakable@@VdgSharedNodeMesh@2@@@@@PAV12@@@QAEPAVdgTreeNode@1@ABQAVdgListNode@?$dgList@V?$dgGraphNode@VdgDebriNodeInfo@dgCollisionCompoundBreakable@@VdgSharedNodeMesh@2@@@@@PAV34@AA_N@Z 10045a90 f i physics:dgCollisionCompoundBreakable.obj
 0001:00044c90       ?RemoveAll@?$dgTree@PAVdgListNode@?$dgList@V?$dgGraphNode@VdgDebriNodeInfo@dgCollisionCompoundBreakable@@VdgSharedNodeMesh@2@@@@@PAV12@@@QAEXXZ 10045c90 f i physics:dgCollisionCompoundBreakable.obj
 0001:00044cd0       ?CompareKeys@?$dgTree@PAVdgListNode@?$dgList@V?$dgGraphNode@VdgDebriNodeInfo@dgCollisionCompoundBreakable@@VdgSharedNodeMesh@2@@@@@PAV12@@@ABEHABQAVdgListNode@?$dgList@V?$dgGraphNode@VdgDebriNodeInfo@dgCollisionCompoundBreakable@@VdgSharedNodeMesh@2@@@@@0@Z 10045cd0 f i physics:dgCollisionCompoundBreakable.obj
 0001:00044d10       ?Insert@?$dgTree@HPAVdgListNode@?$dgList@V?$dgGraphNode@VdgDebriNodeInfo@dgCollisionCompoundBreakable@@VdgSharedNodeMesh@2@@@@@@@QAEPAVdgTreeNode@1@ABHPAVdgListNode@?$dgList@V?$dgGraphNode@VdgDebriNodeInfo@dgCollisionCompoundBreakable@@VdgSharedNodeMesh@2@@@@@AA_N@Z 10045d10 f i physics:dgCollisionCompoundBreakable.obj
 0001:00044f10       ?RemoveAll@?$dgTree@HPAVdgListNode@?$dgList@V?$dgGraphNode@VdgDebriNodeInfo@dgCollisionCompoundBreakable@@VdgSharedNodeMesh@2@@@@@@@QAEXXZ 10045f10 f i physics:dgCollisionCompoundBreakable.obj
 0001:00044f50       ?CompareKeys@?$dgTree@HPAVdgListNode@?$dgList@V?$dgGraphNode@VdgDebriNodeInfo@dgCollisionCompoundBreakable@@VdgSharedNodeMesh@2@@@@@@@ABEHABQAVdgListNode@?$dgList@V?$dgGraphNode@VdgDebriNodeInfo@dgCollisionCompoundBreakable@@VdgSharedNodeMesh@2@@@@@0@Z 10045f50 f i physics:dgCollisionCompoundBreakable.obj
 0001:00044f90       ?Insert@?$dgTree@VdgCompoundBreakableFilterData@dgCollisionCompoundBreakable@@PAVdgConvexCollision@@@@QAEPAVdgTreeNode@1@ABVdgCompoundBreakableFilterData@dgCollisionCompoundBreakable@@PAVdgConvexCollision@@AA_N@Z 10045f90 f i physics:dgCollisionCompoundBreakable.obj
 0001:00045190       ?RemoveAll@?$dgTree@VdgCompoundBreakableFilterData@dgCollisionCompoundBreakable@@PAVdgConvexCollision@@@@QAEXXZ 10046190 f i physics:dgCollisionCompoundBreakable.obj
 0001:000451d0       ?CompareKeys@?$dgTree@VdgCompoundBreakableFilterData@dgCollisionCompoundBreakable@@PAVdgConvexCollision@@@@ABEHABQAVdgConvexCollision@@0@Z 100461d0 f i physics:dgCollisionCompoundBreakable.obj
 0001:00045210       ??_GdgListNode@?$dgList@VdgSubMesh@dgCollisionCompoundBreakable@@@@AAEPAXI@Z 10046210 f i physics:dgCollisionCompoundBreakable.obj
 0001:00045240       ??_GdgListNode@?$dgList@V?$dgGraphNode@VdgDebriNodeInfo@dgCollisionCompoundBreakable@@VdgSharedNodeMesh@2@@@@@AAEPAXI@Z 10046240 f i physics:dgCollisionCompoundBreakable.obj
 0001:00045270       ??_GdgListNode@?$dgList@V?$dgGraphEdge@VdgDebriNodeInfo@dgCollisionCompoundBreakable@@VdgSharedNodeMesh@2@@@@@AAEPAXI@Z 10046270 f i physics:dgCollisionCompoundBreakable.obj
 0001:000452a0       ??2dgListNode@?$dgList@V?$dgGraphNode@VdgDebriNodeInfo@dgCollisionCompoundBreakable@@VdgSharedNodeMesh@2@@@@@CAPAXIQAVdgMemoryAllocator@@@Z 100462a0 f i physics:dgCollisionCompoundBreakable.obj
 0001:000452c0       ??3dgListNode@?$dgList@V?$dgGraphNode@VdgDebriNodeInfo@dgCollisionCompoundBreakable@@VdgSharedNodeMesh@2@@@@@CAXPAX@Z 100462c0 f i physics:dgCollisionCompoundBreakable.obj
 0001:000452e0       ??0dgListNode@?$dgList@V?$dgGraphNode@VdgDebriNodeInfo@dgCollisionCompoundBreakable@@VdgSharedNodeMesh@2@@@@@AAE@QAV01@0@Z 100462e0 f i physics:dgCollisionCompoundBreakable.obj
 0001:00045370       ??1dgListNode@?$dgList@V?$dgGraphNode@VdgDebriNodeInfo@dgCollisionCompoundBreakable@@VdgSharedNodeMesh@2@@@@@AAE@XZ 10046370 f i physics:dgCollisionCompoundBreakable.obj
 0001:00045390       ??3dgListNode@?$dgList@VdgSubMesh@dgCollisionCompoundBreakable@@@@CAXPAX@Z 10046390 f i physics:dgCollisionCompoundBreakable.obj
 0001:000453b0       ??1dgListNode@?$dgList@VdgSubMesh@dgCollisionCompoundBreakable@@@@AAE@XZ 100463b0 f i physics:dgCollisionCompoundBreakable.obj
 0001:000453d0       ?Unlink@dgListNode@?$dgList@VdgSubMesh@dgCollisionCompoundBreakable@@@@AAEXXZ 100463d0 f i physics:dgCollisionCompoundBreakable.obj
 0001:00045420       ??0dgTreeNode@?$dgTree@PAVdgListNode@?$dgList@V?$dgGraphNode@VdgDebriNodeInfo@dgCollisionCompoundBreakable@@VdgSharedNodeMesh@2@@@@@PAV12@@@AAE@ABQAVdgListNode@?$dgList@V?$dgGraphNode@VdgDebriNodeInfo@dgCollisionCompoundBreakable@@VdgSharedNodeMesh@2@@@@@0PAV01@@Z 10046420 f i physics:dgCollisionCompoundBreakable.obj
 0001:00045490       ??2dgListNode@?$dgList@V?$dgGraphEdge@VdgDebriNodeInfo@dgCollisionCompoundBreakable@@VdgSharedNodeMesh@2@@@@@CAPAXIQAVdgMemoryAllocator@@@Z 10046490 f i physics:dgCollisionCompoundBreakable.obj
 0001:000454b0       ??3dgListNode@?$dgList@V?$dgGraphEdge@VdgDebriNodeInfo@dgCollisionCompoundBreakable@@VdgSharedNodeMesh@2@@@@@CAXPAX@Z 100464b0 f i physics:dgCollisionCompoundBreakable.obj
 0001:000454d0       ??0dgListNode@?$dgList@V?$dgGraphEdge@VdgDebriNodeInfo@dgCollisionCompoundBreakable@@VdgSharedNodeMesh@2@@@@@AAE@QAV01@0@Z 100464d0 f i physics:dgCollisionCompoundBreakable.obj
 0001:00045560       ??1dgListNode@?$dgList@V?$dgGraphEdge@VdgDebriNodeInfo@dgCollisionCompoundBreakable@@VdgSharedNodeMesh@2@@@@@AAE@XZ 10046560 f i physics:dgCollisionCompoundBreakable.obj
 0001:00045580       ??0dgTreeNode@?$dgTree@HPAVdgListNode@?$dgList@V?$dgGraphNode@VdgDebriNodeInfo@dgCollisionCompoundBreakable@@VdgSharedNodeMesh@2@@@@@@@AAE@ABHABQAVdgListNode@?$dgList@V?$dgGraphNode@VdgDebriNodeInfo@dgCollisionCompoundBreakable@@VdgSharedNodeMesh@2@@@@@PAV01@@Z 10046580 f i physics:dgCollisionCompoundBreakable.obj
 0001:000455f0       ??0dgTreeNode@?$dgTree@VdgCompoundBreakableFilterData@dgCollisionCompoundBreakable@@PAVdgConvexCollision@@@@AAE@ABVdgCompoundBreakableFilterData@dgCollisionCompoundBreakable@@ABQAVdgConvexCollision@@PAV01@@Z 100465f0 f i physics:dgCollisionCompoundBreakable.obj
 0001:00045670       ?GetPrev@dgListNode@?$dgList@PAVdgListNode@?$dgList@V?$dgGraphNode@VdgDebriNodeInfo@dgCollisionCompoundBreakable@@VdgSharedNodeMesh@2@@@@@@@QBEPAV12@XZ 10046670 f i physics:dgCollisionCompoundBreakable.obj
 0001:00045690       ?RemoveAll@?$dgList@V?$dgGraphNode@VdgDebriNodeInfo@dgCollisionCompoundBreakable@@VdgSharedNodeMesh@2@@@@@QAEXXZ 10046690 f i physics:dgCollisionCompoundBreakable.obj
 0001:00045750       ?Unlink@?$dgList@V?$dgGraphNode@VdgDebriNodeInfo@dgCollisionCompoundBreakable@@VdgSharedNodeMesh@2@@@@@QAEXQAVdgListNode@1@@Z 10046750 f i physics:dgCollisionCompoundBreakable.obj
 0001:00045800       ?Unlink@?$dgList@V?$dgGraphEdge@VdgDebriNodeInfo@dgCollisionCompoundBreakable@@VdgSharedNodeMesh@2@@@@@QAEXQAVdgListNode@1@@Z 10046800 f i physics:dgCollisionCompoundBreakable.obj
 0001:000458b0       ??0?$dgGraphNode@VdgDebriNodeInfo@dgCollisionCompoundBreakable@@VdgSharedNodeMesh@2@@@QAE@XZ 100468b0 f i physics:dgCollisionCompoundBreakable.obj
 0001:000458e0       ??1?$dgGraphNode@VdgDebriNodeInfo@dgCollisionCompoundBreakable@@VdgSharedNodeMesh@2@@@QAE@XZ 100468e0 f i physics:dgCollisionCompoundBreakable.obj
 0001:00045900       ??0?$dgGraphEdge@VdgDebriNodeInfo@dgCollisionCompoundBreakable@@VdgSharedNodeMesh@2@@@QAE@XZ 10046900 f i physics:dgCollisionCompoundBreakable.obj
 0001:00045920       ??1?$dgGraphEdge@VdgDebriNodeInfo@dgCollisionCompoundBreakable@@VdgSharedNodeMesh@2@@@QAE@XZ 10046920 f i physics:dgCollisionCompoundBreakable.obj
 0001:00045940       ?Unlink@dgListNode@?$dgList@V?$dgGraphNode@VdgDebriNodeInfo@dgCollisionCompoundBreakable@@VdgSharedNodeMesh@2@@@@@AAEXXZ 10046940 f i physics:dgCollisionCompoundBreakable.obj
 0001:00045990       ?GetPrev@dgListNode@?$dgList@V?$dgGraphNode@VdgDebriNodeInfo@dgCollisionCompoundBreakable@@VdgSharedNodeMesh@2@@@@@QBEPAV12@XZ 10046990 f i physics:dgCollisionCompoundBreakable.obj
 0001:000459b0       ?Unlink@dgListNode@?$dgList@V?$dgGraphEdge@VdgDebriNodeInfo@dgCollisionCompoundBreakable@@VdgSharedNodeMesh@2@@@@@AAEXXZ 100469b0 f i physics:dgCollisionCompoundBreakable.obj
 0001:00045a00       ?GetPrev@dgListNode@?$dgList@V?$dgGraphEdge@VdgDebriNodeInfo@dgCollisionCompoundBreakable@@VdgSharedNodeMesh@2@@@@@QBEPAV12@XZ 10046a00 f i physics:dgCollisionCompoundBreakable.obj
 0001:00045a20       ??0?$dgList@V?$dgGraphEdge@VdgDebriNodeInfo@dgCollisionCompoundBreakable@@VdgSharedNodeMesh@2@@@@@QAE@QAVdgMemoryAllocator@@@Z 10046a20 f i physics:dgCollisionCompoundBreakable.obj
 0001:00045a60       ??1?$dgList@V?$dgGraphEdge@VdgDebriNodeInfo@dgCollisionCompoundBreakable@@VdgSharedNodeMesh@2@@@@@QAE@XZ 10046a60 f i physics:dgCollisionCompoundBreakable.obj
 0001:00045a80       ?RemoveAll@?$dgList@V?$dgGraphEdge@VdgDebriNodeInfo@dgCollisionCompoundBreakable@@VdgSharedNodeMesh@2@@@@@QAEXXZ 10046a80 f i physics:dgCollisionCompoundBreakable.obj
 0001:00045b40       ??0dgCollisionConvexHull@@QAE@QAVdgMemoryAllocator@@IHHNPBNABVdgMatrix@@@Z 10046b40 f   physics:dgCollisionConvexHull.obj
 0001:000460e0       ??0dgCollisionConvexHull@@QAE@QAVdgWorld@@P6AXPAX1I@ZQAX@Z 100470e0 f   physics:dgCollisionConvexHull.obj
 0001:00046350       ??1dgCollisionConvexHull@@UAE@XZ 10047350 f   physics:dgCollisionConvexHull.obj
 0001:00046390       ?GetFaceIndices@dgCollisionConvexHull@@QBEHHPAH@Z 10047390 f   physics:dgCollisionConvexHull.obj
 0001:000463f0       ?FaceNormal@dgCollisionConvexHull@@ABE?AVdgBigVector@@PBVdgEdge@@QBVdgVector@@@Z 100473f0 f   physics:dgCollisionConvexHull.obj
 0001:00046710       ?RemoveCoplanarEdge@dgCollisionConvexHull@@ABE_NAAVdgPolyhedra@@QAVdgVector@@@Z 10047710 f   physics:dgCollisionConvexHull.obj
 0001:00046d90       ?CheckConvex@dgCollisionConvexHull@@ABE_NAAVdgPolyhedra@@PBVdgVector@@@Z 10047d90 f   physics:dgCollisionConvexHull.obj
 0001:00047070       ?Create@dgCollisionConvexHull@@AAE_NHHQBNN@Z 10048070 f   physics:dgCollisionConvexHull.obj
 0001:00047880       ?CalculateSignature@dgCollisionConvexHull@@EBEHXZ 10048880 f   physics:dgCollisionConvexHull.obj
 0001:000478c0       ?SetBreakImpulse@dgCollisionConvexHull@@EAEXN@Z 100488c0 f   physics:dgCollisionConvexHull.obj
 0001:000478e0       ?GetBreakImpulse@dgCollisionConvexHull@@EBENXZ 100488e0 f   physics:dgCollisionConvexHull.obj
 0001:00047900       ?SetCollisionBBox@dgCollisionConvexHull@@EAEXABVdgVector@@0@Z 10048900 f   physics:dgCollisionConvexHull.obj
 0001:00047940       ?DebugCollision@dgCollisionConvexHull@@EBEXABVdgMatrix@@P6AXPAXHPBNH@ZQAX@Z 10048940 f   physics:dgCollisionConvexHull.obj
 0001:00047ac0       ?GetCollisionInfo@dgCollisionConvexHull@@EBEXPAVdgCollisionInfo@@@Z 10048ac0 f   physics:dgCollisionConvexHull.obj
 0001:00047b50       ?Serialize@dgCollisionConvexHull@@EBEXP6AXPAXPBXI@ZQAX@Z 10048b50 f   physics:dgCollisionConvexHull.obj
 0001:00047d20       ?OOBBTest@dgCollisionConvexHull@@EBE_NABVdgMatrix@@QBVdgConvexCollision@@QAX@Z 10048d20 f   physics:dgCollisionConvexHull.obj
 0001:00048100       ??_EdgCollisionConvexHull@@UAEPAXI@Z 10049100 f i physics:dgCollisionConvexHull.obj
 0001:00048100       ??_GdgCollisionConvexHull@@UAEPAXI@Z 10049100 f i physics:dgCollisionConvexHull.obj
 0001:00048130       ??0dgPlaneLocation@@QAE@XZ 10049130 f i physics:dgCollisionConvexHull.obj
 0001:00048150       ??0dgBigVector@@QAE@PBN@Z  10049150 f i physics:dgCollisionConvexHull.obj
 0001:00048230       ??0dgBigVector@@QAE@NNNN@Z 10049230 f i physics:dgCollisionConvexHull.obj
 0001:00048310       ??0dgPlane@@QAE@XZ         10049310 f i physics:dgCollisionConvexHull.obj
 0001:00048330       ??0dgPlane@@QAE@ABVdgVector@@N@Z 10049330 f i physics:dgCollisionConvexHull.obj
 0001:00048360       ??0dgBigPlane@@QAE@ABVdgBigVector@@N@Z 10049360 f i physics:dgCollisionConvexHull.obj
 0001:00048390       ?Evalue@dgBigPlane@@QBENABVdgVector@@@Z 10049390 f i physics:dgCollisionConvexHull.obj
 0001:000483d0       ?Scale@dgPlane@@QBE?AV1@N@Z 100493d0 f i physics:dgCollisionConvexHull.obj
 0001:00048430       ??0dgPlane@@QAE@NNNN@Z     10049430 f i physics:dgCollisionConvexHull.obj
 0001:00048470       ?Evalue@dgPlane@@QBENABVdgVector@@@Z 10049470 f i physics:dgCollisionConvexHull.obj
 0001:000484b0       ??$Swap@PAVdgConvexSimplexEdge@@@@YAXAAPAVdgConvexSimplexEdge@@0@Z 100494b0 f i physics:dgCollisionConvexHull.obj
 0001:000484e0       ?GetRoot@?$dgTree@VdgEdge@@_J@@QBEPAVdgTreeNode@1@XZ 100494e0 f i physics:dgCollisionConvexHull.obj
 0001:00048500       ??0?$dgStack@PAVdgEdge@@@@QAE@H@Z 10049500 f i physics:dgCollisionConvexHull.obj
 0001:00048530       ??1?$dgStack@PAVdgEdge@@@@QAE@XZ 10049530 f i physics:dgCollisionConvexHull.obj
 0001:00048550       ??A?$dgStack@PAVdgEdge@@@@QAEAAPAVdgEdge@@H@Z 10049550 f i physics:dgCollisionConvexHull.obj
 0001:000485d0       ??0?$dgStack@PAVdgConvexSimplexEdge@@@@QAE@H@Z 100495d0 f i physics:dgCollisionConvexHull.obj
 0001:00048600       ??1?$dgStack@PAVdgConvexSimplexEdge@@@@QAE@XZ 10049600 f i physics:dgCollisionConvexHull.obj
 0001:00048620       ??A?$dgStack@PAVdgConvexSimplexEdge@@@@QAEAAPAVdgConvexSimplexEdge@@H@Z 10049620 f i physics:dgCollisionConvexHull.obj
 0001:000486a0       ??0?$dgStack@VdgTriplex@@@@QAE@H@Z 100496a0 f i physics:dgCollisionConvexHull.obj
 0001:000486d0       ??1?$dgStack@VdgTriplex@@@@QAE@XZ 100496d0 f i physics:dgCollisionConvexHull.obj
 0001:000486f0       ??A?$dgStack@VdgTriplex@@@@QAEAAVdgTriplex@@H@Z 100496f0 f i physics:dgCollisionConvexHull.obj
 0001:00048770       ?GetVertexPool@dgConvexHull3d@@QBEPBVdgVector@@XZ 10049770 f i physics:dgCollisionConvexHull.obj
 0001:00048790       ??0dgCollisionScene@@QAE@PAVdgWorld@@@Z 10049790 f   physics:dgCollisionScene.obj
 0001:000488a0       ??0dgCollisionScene@@QAE@QAVdgWorld@@P6AXPAX1I@ZQAX@Z 100498a0 f   physics:dgCollisionScene.obj
 0001:00048e10       ??1dgCollisionScene@@UAE@XZ 10049e10 f   physics:dgCollisionScene.obj
 0001:00048ec0       ?Serialize@dgCollisionScene@@EBEXP6AXPAXPBXI@ZQAX@Z 10049ec0 f   physics:dgCollisionScene.obj
 0001:000494a0       ?AddProxy@dgCollisionScene@@QAEPAXPAVdgCollision@@@Z 1004a4a0 f   physics:dgCollisionScene.obj
 0001:00049520       ?RemoveProxy@dgCollisionScene@@QAEXPAX@Z 1004a520 f   physics:dgCollisionScene.obj
 0001:00049570       ?SetProxyMatrix@dgCollisionScene@@QAEXPAXABVdgMatrix@@@Z 1004a570 f   physics:dgCollisionScene.obj
 0001:00049640       ?SetCollisionCallback@dgCollisionScene@@QAEXP6AXPBVdgBody@@QBV2@HHPBNH@Z@Z 1004a640 f   physics:dgCollisionScene.obj
 0001:000496b0       ?GetProxyMatrix@dgCollisionScene@@QAE?AVdgMatrix@@PAX@Z 1004a6b0 f   physics:dgCollisionScene.obj
 0001:00049720       ?CalcAABB@dgCollisionScene@@EBEXABVdgMatrix@@AAVdgVector@@1@Z 1004a720 f   physics:dgCollisionScene.obj
 0001:000499b0       ?CalcAABBSimd@dgCollisionScene@@EBEXABVdgMatrix@@AAVdgVector@@1@Z 1004a9b0 f   physics:dgCollisionScene.obj
 0001:000499e0       ?GetFirstProxy@dgCollisionScene@@QBEPAXXZ 1004a9e0 f   physics:dgCollisionScene.obj
 0001:00049a00       ?GetNextProxy@dgCollisionScene@@QBEPAXPAX@Z 1004aa00 f   physics:dgCollisionScene.obj
 0001:00049a20       ?DebugCollision@dgCollisionScene@@EBEXABVdgMatrix@@P6AXPAXHPBNH@ZQAX@Z 1004aa20 f   physics:dgCollisionScene.obj
 0001:00049ae0       ?GetVolume@dgCollisionScene@@EBENXZ 1004aae0 f   physics:dgCollisionScene.obj
 0001:00049b20       ?CalculateSignature@dgCollisionScene@@EBEHXZ 1004ab20 f   physics:dgCollisionScene.obj
 0001:00049b60       ?GetBoxMinRadius@dgCollisionScene@@EBENXZ 1004ab60 f   physics:dgCollisionScene.obj
 0001:00049b70       ?GetBoxMaxRadius@dgCollisionScene@@EBENXZ 1004ab70 f   physics:dgCollisionScene.obj
 0001:00049b80       ?SetCollisionBBox@dgCollisionScene@@EAEXABVdgVector@@0@Z 1004ab80 f   physics:dgCollisionScene.obj
 0001:00049ce0       ?CalculateInertia@dgCollisionScene@@EBEXAAVdgVector@@0@Z 1004ace0 f   physics:dgCollisionScene.obj
 0001:00049d20       ?CalculateVolumeIntegral@dgCollisionScene@@EBE?AVdgVector@@ABVdgMatrix@@P6AIPAX10AAVdgPlane@@@ZQAX@Z 1004ad20 f   physics:dgCollisionScene.obj
 0001:00049d80       ?GetCollisionInfo@dgCollisionScene@@EBEXPAVdgCollisionInfo@@@Z 1004ad80 f   physics:dgCollisionScene.obj
 0001:00049dd0       ?OOBBTest@dgCollisionScene@@EBE_NABVdgMatrix@@QBVdgConvexCollision@@QAX@Z 1004add0 f   physics:dgCollisionScene.obj
 0001:00049e10       ?BuildAABB@dgCollisionScene@@ABEXQAPAVdgListNode@?$dgList@UdgProxy@dgCollisionScene@@@@HAAVdgVector@@1@Z 1004ae10 f   physics:dgCollisionScene.obj
 0001:00049fd0       ?GetAxis@dgCollisionScene@@ABEHQAPAVdgListNode@?$dgList@UdgProxy@dgCollisionScene@@@@H@Z 1004afd0 f   physics:dgCollisionScene.obj
 0001:0004a1b0       ?RayCastSimd@dgCollisionScene@@EBENABVdgVector@@0AAVdgContactPoint@@P6AIQBVdgBody@@QBVdgCollision@@QAX@Z24@Z 1004b1b0 f   physics:dgCollisionScene.obj
 0001:0004a610       ?SupportVertex@dgCollisionScene@@EBE?AVdgVector@@ABV2@@Z 1004b610 f   physics:dgCollisionScene.obj
 0001:0004a670       ?RayCast@dgCollisionScene@@EBENABVdgVector@@0AAVdgContactPoint@@P6AIQBVdgBody@@QBVdgCollision@@QAX@Z24@Z 1004b670 f   physics:dgCollisionScene.obj
 0001:0004aac0       ?CollidePairSimd@dgCollisionScene@@QBEXQAUdgPair@dgCollidingPairCollector@@AAVdgCollisionParamProxi@@@Z 1004bac0 f   physics:dgCollisionScene.obj
 0001:0004afa0       ?CollidePair@dgCollisionScene@@QBEXQAUdgPair@dgCollidingPairCollector@@AAVdgCollisionParamProxi@@@Z 1004bfa0 f   physics:dgCollisionScene.obj
 0001:0004b480       ?CompareProxy@dgCollisionScene@@CAHQBVdgListNode@?$dgList@UdgProxy@dgCollisionScene@@@@0PAX@Z 1004c480 f   physics:dgCollisionScene.obj
 0001:0004b520       ?SortAABBBoxes@dgCollisionScene@@ABEHQAPAVdgListNode@?$dgList@UdgProxy@dgCollisionScene@@@@H@Z 1004c520 f   physics:dgCollisionScene.obj
 0001:0004b5f0       ?SortAndSpliteSplite@dgCollisionScene@@ABEHQAPAVdgListNode@?$dgList@UdgProxy@dgCollisionScene@@@@H@Z 1004c5f0 f   physics:dgCollisionScene.obj
 0001:0004b9d0       ?BuildTree@dgCollisionScene@@AAEPAUdgNode@1@PAU21@QAPAVdgListNode@?$dgList@UdgProxy@dgCollisionScene@@@@HH@Z 1004c9d0 f   physics:dgCollisionScene.obj
 0001:0004bc60       ?BuildTree@dgCollisionScene@@QAEXXZ 1004cc60 f   physics:dgCollisionScene.obj
 0001:0004be00       ??_GdgCollisionScene@@UAEPAXI@Z 1004ce00 f i physics:dgCollisionScene.obj
 0001:0004be00       ??_EdgCollisionScene@@UAEPAXI@Z 1004ce00 f i physics:dgCollisionScene.obj
 0001:0004be30       ??2dgNode@dgCollisionScene@@SAPAXIQAVdgMemoryAllocator@@@Z 1004ce30 f i physics:dgCollisionScene.obj
 0001:0004be50       ??0dgNode@dgCollisionScene@@QAE@XZ 1004ce50 f i physics:dgCollisionScene.obj
 0001:0004be80       ??_GdgNode@dgCollisionScene@@QAEPAXI@Z 1004ce80 f i physics:dgCollisionScene.obj
 0001:0004beb0       ??3dgNode@dgCollisionScene@@SAXPAX@Z 1004ceb0 f i physics:dgCollisionScene.obj
 0001:0004bed0       ??1dgNode@dgCollisionScene@@QAE@XZ 1004ced0 f i physics:dgCollisionScene.obj
 0001:0004bf50       ??AdgMatrix@@QBEABVdgVector@@H@Z 1004cf50 f i physics:dgCollisionScene.obj
 0001:0004bfc0       ?UpdateAABB@dgNode@dgCollisionScene@@QAEXABVdgVector@@0@Z 1004cfc0 f i physics:dgCollisionScene.obj
 0001:0004c0b0       ?GetNext@dgListNode@?$dgList@UdgProxy@dgCollisionScene@@@@QBEPAV12@XZ 1004d0b0 f i physics:dgCollisionScene.obj
 0001:0004c0d0       ??0?$dgList@UdgProxy@dgCollisionScene@@@@QAE@QAVdgMemoryAllocator@@@Z 1004d0d0 f i physics:dgCollisionScene.obj
 0001:0004c110       ??1?$dgList@UdgProxy@dgCollisionScene@@@@QAE@XZ 1004d110 f i physics:dgCollisionScene.obj
 0001:0004c130       ?GetCount@?$dgList@UdgProxy@dgCollisionScene@@@@QBEHXZ 1004d130 f i physics:dgCollisionScene.obj
 0001:0004c140       ?GetFirst@?$dgList@UdgProxy@dgCollisionScene@@@@QBEPAVdgListNode@1@XZ 1004d140 f i physics:dgCollisionScene.obj
 0001:0004c160       ?Reset@FastRayTest@@QAEXN@Z 1004d160 f i physics:dgCollisionScene.obj
 0001:0004c1c0       ?Append@?$dgList@UdgProxy@dgCollisionScene@@@@QAEPAVdgListNode@1@XZ 1004d1c0 f i physics:dgCollisionScene.obj
 0001:0004c280       ?Remove@?$dgList@UdgProxy@dgCollisionScene@@@@QAEXQAVdgListNode@1@@Z 1004d280 f i physics:dgCollisionScene.obj
 0001:0004c2d0       ?dgOverlapTestSimd@@YAHABVdgVector@@000@Z 1004d2d0 f i physics:dgCollisionScene.obj
 0001:0004c2e0       ??0?$dgStack@PAVdgListNode@?$dgList@UdgProxy@dgCollisionScene@@@@@@QAE@H@Z 1004d2e0 f i physics:dgCollisionScene.obj
 0001:0004c310       ??1?$dgStack@PAVdgListNode@?$dgList@UdgProxy@dgCollisionScene@@@@@@QAE@XZ 1004d310 f i physics:dgCollisionScene.obj
 0001:0004c330       ??A?$dgStack@PAVdgListNode@?$dgList@UdgProxy@dgCollisionScene@@@@@@QAEAAPAVdgListNode@?$dgList@UdgProxy@dgCollisionScene@@@@H@Z 1004d330 f i physics:dgCollisionScene.obj
 0001:0004c3b0       ??$dgSortIndirect@VdgListNode@?$dgList@UdgProxy@dgCollisionScene@@@@@@YAXQAPAVdgListNode@?$dgList@UdgProxy@dgCollisionScene@@@@HP6AHQBV01@1QAX@Z2@Z 1004d3b0 f i physics:dgCollisionScene.obj
 0001:0004c730       ??$Swap@PAVdgListNode@?$dgList@UdgProxy@dgCollisionScene@@@@@@YAXAAPAVdgListNode@?$dgList@UdgProxy@dgCollisionScene@@@@0@Z 1004d730 f i physics:dgCollisionScene.obj
 0001:0004c760       ??_GdgListNode@?$dgList@UdgProxy@dgCollisionScene@@@@AAEPAXI@Z 1004d760 f i physics:dgCollisionScene.obj
 0001:0004c790       ??2dgListNode@?$dgList@UdgProxy@dgCollisionScene@@@@CAPAXIQAVdgMemoryAllocator@@@Z 1004d790 f i physics:dgCollisionScene.obj
 0001:0004c7b0       ??3dgListNode@?$dgList@UdgProxy@dgCollisionScene@@@@CAXPAX@Z 1004d7b0 f i physics:dgCollisionScene.obj
 0001:0004c7d0       ??0dgListNode@?$dgList@UdgProxy@dgCollisionScene@@@@AAE@QAV01@0@Z 1004d7d0 f i physics:dgCollisionScene.obj
 0001:0004c890       ??1dgListNode@?$dgList@UdgProxy@dgCollisionScene@@@@AAE@XZ 1004d890 f i physics:dgCollisionScene.obj
 0001:0004c8a0       ??0dgProxy@dgCollisionScene@@QAE@XZ 1004d8a0 f i physics:dgCollisionScene.obj
 0001:0004c8e0       ?RemoveAll@?$dgList@UdgProxy@dgCollisionScene@@@@QAEXXZ 1004d8e0 f i physics:dgCollisionScene.obj
 0001:0004c9a0       ?Unlink@?$dgList@UdgProxy@dgCollisionScene@@@@QAEXQAVdgListNode@1@@Z 1004d9a0 f i physics:dgCollisionScene.obj
 0001:0004ca50       ?Unlink@dgListNode@?$dgList@UdgProxy@dgCollisionScene@@@@AAEXXZ 1004da50 f i physics:dgCollisionScene.obj
 0001:0004cac0       ?GetPrev@dgListNode@?$dgList@UdgProxy@dgCollisionScene@@@@QBEPAV12@XZ 1004dac0 f i physics:dgCollisionScene.obj
 0001:0004cae0       ??0dgCollisionConvexPolygon@dgCollisionMesh@@QAE@QAVdgMemoryAllocator@@@Z 1004dae0 f   physics:dgCollisionMesh.obj
 0001:0004cc20       ??1dgCollisionConvexPolygon@dgCollisionMesh@@UAE@XZ 1004dc20 f   physics:dgCollisionMesh.obj
 0001:0004cc40       ?CalculateSignature@dgCollisionConvexPolygon@dgCollisionMesh@@UBEHXZ 1004dc40 f   physics:dgCollisionMesh.obj
 0001:0004cc50       ?SetCollisionBBox@dgCollisionConvexPolygon@dgCollisionMesh@@UAEXABVdgVector@@0@Z 1004dc50 f   physics:dgCollisionMesh.obj
 0001:0004cc80       ?Serialize@dgCollisionConvexPolygon@dgCollisionMesh@@UBEXP6AXPAXPBXI@ZQAX@Z 1004dc80 f   physics:dgCollisionMesh.obj
 0001:0004ccb0       ?RayCast@dgCollisionConvexPolygon@dgCollisionMesh@@UBENABVdgVector@@0AAVdgContactPoint@@P6AIQBVdgBody@@QBVdgCollision@@QAX@Z24@Z 1004dcb0 f   physics:dgCollisionMesh.obj
 0001:0004ccf0       ?GetVolume@dgCollisionConvexPolygon@dgCollisionMesh@@UBENXZ 1004dcf0 f   physics:dgCollisionMesh.obj
 0001:0004cd20       ?GetBoxMinRadius@dgCollisionConvexPolygon@dgCollisionMesh@@UBENXZ 1004dd20 f   physics:dgCollisionMesh.obj
 0001:0004cd50       ?GetBoxMaxRadius@dgCollisionConvexPolygon@dgCollisionMesh@@UBENXZ 1004dd50 f   physics:dgCollisionMesh.obj
 0001:0004cd80       ?OOBBTest@dgCollisionConvexPolygon@dgCollisionMesh@@UBE_NABVdgMatrix@@QBVdgConvexCollision@@QAX@Z 1004dd80 f   physics:dgCollisionMesh.obj
 0001:0004cdc0       ?CalculateInertia@dgCollisionConvexPolygon@dgCollisionMesh@@UBEXAAVdgVector@@0@Z 1004ddc0 f   physics:dgCollisionMesh.obj
 0001:0004ce00       ?SupportVertex@dgCollisionConvexPolygon@dgCollisionMesh@@UBE?AVdgVector@@ABV3@@Z 1004de00 f   physics:dgCollisionMesh.obj
 0001:0004cef0       ?SupportVertexSimd@dgCollisionConvexPolygon@dgCollisionMesh@@UBE?AVdgVector@@ABV3@@Z 1004def0 f   physics:dgCollisionMesh.obj
 0001:0004cf30       ?CalculateNormalSimd@dgCollisionConvexPolygon@dgCollisionMesh@@QAEXXZ 1004df30 f   physics:dgCollisionMesh.obj
 0001:0004cf40       ?CalculateNormal@dgCollisionConvexPolygon@dgCollisionMesh@@QAEXXZ 1004df40 f   physics:dgCollisionMesh.obj
 0001:0004d0d0       ?QuickTestContinueSimd@dgCollisionConvexPolygon@dgCollisionMesh@@QAEHPBVdgConvexCollision@@ABVdgMatrix@@@Z 1004e0d0 f   physics:dgCollisionMesh.obj
 0001:0004d0e0       ?QuickTestContinue@dgCollisionConvexPolygon@dgCollisionMesh@@QAEHPBVdgConvexCollision@@ABVdgMatrix@@@Z 1004e0e0 f   physics:dgCollisionMesh.obj
 0001:0004d330       ?QuickTestSimd@dgCollisionConvexPolygon@dgCollisionMesh@@QAEHPBVdgConvexCollision@@ABVdgMatrix@@@Z 1004e330 f   physics:dgCollisionMesh.obj
 0001:0004d340       ?QuickTest@dgCollisionConvexPolygon@dgCollisionMesh@@QAEHPBVdgConvexCollision@@ABVdgMatrix@@@Z 1004e340 f   physics:dgCollisionMesh.obj
 0001:0004d630       ?ClipContacts@dgCollisionConvexPolygon@dgCollisionMesh@@QBEHHQAVdgContactPoint@@ABVdgMatrix@@@Z 1004e630 f   physics:dgCollisionMesh.obj
 0001:0004db10       ?BeamClippingSimd@dgCollisionConvexPolygon@dgCollisionMesh@@QAEXPBVdgConvexCollision@@ABVdgMatrix@@N@Z 1004eb10 f   physics:dgCollisionMesh.obj
 0001:0004dd80       ?BeamClipping@dgCollisionConvexPolygon@dgCollisionMesh@@QAEXPBVdgConvexCollision@@ABVdgMatrix@@N@Z 1004ed80 f   physics:dgCollisionMesh.obj
 0001:0004ea00       ?ClosestDistanceToTriangle@dgCollisionConvexPolygon@dgCollisionMesh@@QBE?AVdgVector@@ABV3@000@Z 1004fa00 f   physics:dgCollisionMesh.obj
 0001:0004f0b0       ?PointToPolygonDistance@dgCollisionConvexPolygon@dgCollisionMesh@@QAE_NABVdgVector@@NAAV3@@Z 100500b0 f   physics:dgCollisionMesh.obj
 0001:0004f2d0       ?DistanceToOrigen@dgCollisionConvexPolygon@dgCollisionMesh@@QAE_NABVdgMatrix@@ABVdgVector@@NAAV4@@Z 100502d0 f   physics:dgCollisionMesh.obj
 0001:0004f7a0       ?MovingPointToPolygonContact@dgCollisionConvexPolygon@dgCollisionMesh@@QAENABVdgVector@@0NAAVdgContactPoint@@@Z 100507a0 f   physics:dgCollisionMesh.obj
 0001:000500a0       ?CalculatePlaneIntersection@dgCollisionConvexPolygon@dgCollisionMesh@@UBEHABVdgVector@@0QAV3@@Z 100510a0 f   physics:dgCollisionMesh.obj
 0001:00050bc0       ?CalculatePlaneIntersectionSimd@dgCollisionConvexPolygon@dgCollisionMesh@@UBEHABVdgVector@@0QAV3@@Z 10051bc0 f   physics:dgCollisionMesh.obj
 0001:00050bd0       ??0dgCollisionMesh@@QAE@QAVdgMemoryAllocator@@W4dgCollisionID@@@Z 10051bd0 f   physics:dgCollisionMesh.obj
 0001:00050d20       ??0dgCollisionMesh@@QAE@QAVdgWorld@@P6AXPAX1I@ZQAX@Z 10051d20 f   physics:dgCollisionMesh.obj
 0001:00050e70       ??1dgCollisionMesh@@UAE@XZ 10051e70 f   physics:dgCollisionMesh.obj
 0001:00050ed0       ?SetCollisionBBox@dgCollisionMesh@@MAEXABVdgVector@@0@Z 10051ed0 f   physics:dgCollisionMesh.obj
 0001:00051030       ?CalculateSignature@dgCollisionMesh@@EBEHXZ 10052030 f   physics:dgCollisionMesh.obj
 0001:00051070       ?GetUserData@dgCollisionMesh@@UBEPAXXZ 10052070 f   physics:dgCollisionMesh.obj
 0001:00051080       ?SetCollisionCallback@dgCollisionMesh@@QAEXP6AXPBVdgBody@@QBV2@HHPBNH@Z@Z 10052080 f   physics:dgCollisionMesh.obj
 0001:000510a0       ?CalcAABB@dgCollisionMesh@@EBEXABVdgMatrix@@AAVdgVector@@1@Z 100520a0 f   physics:dgCollisionMesh.obj
 0001:00051330       ?CalcAABBSimd@dgCollisionMesh@@EBEXABVdgMatrix@@AAVdgVector@@1@Z 10052330 f   physics:dgCollisionMesh.obj
 0001:00051360       ?CalculatePlaneIntersection@dgCollisionMesh@@ABEHPBNPBHHHABVdgPlane@@QAVdgVector@@@Z 10052360 f   physics:dgCollisionMesh.obj
 0001:000516e0       ?CalculateVolumeIntegral@dgCollisionMesh@@EBE?AVdgVector@@ABVdgMatrix@@P6AIPAX10AAVdgPlane@@@ZQAX@Z 100526e0 f   physics:dgCollisionMesh.obj
 0001:00051720       ?DebugCollision@dgCollisionMesh@@EBEXABVdgMatrix@@P6AXPAXHPBNH@ZQAX@Z 10052720 f   physics:dgCollisionMesh.obj
 0001:00051760       ?GetVolume@dgCollisionMesh@@UBENXZ 10052760 f   physics:dgCollisionMesh.obj
 0001:00051770       ?GetBoxMinRadius@dgCollisionMesh@@UBENXZ 10052770 f   physics:dgCollisionMesh.obj
 0001:00051780       ?GetBoxMaxRadius@dgCollisionMesh@@UBENXZ 10052780 f   physics:dgCollisionMesh.obj
 0001:00051790       ?CalculateInertia@dgCollisionMesh@@UBEXAAVdgVector@@0@Z 10052790 f   physics:dgCollisionMesh.obj
 0001:000517d0       ?GetCollisionInfo@dgCollisionMesh@@EBEXPAVdgCollisionInfo@@@Z 100527d0 f   physics:dgCollisionMesh.obj
 0001:00051810       ?Serialize@dgCollisionMesh@@EBEXP6AXPAXPBXI@ZQAX@Z 10052810 f   physics:dgCollisionMesh.obj
 0001:00051850       ?SupportVertex@dgCollisionMesh@@EBE?AVdgVector@@ABV2@@Z 10052850 f   physics:dgCollisionMesh.obj
 0001:000518b0       ?OOBBTest@dgCollisionMesh@@EBE_NABVdgMatrix@@QBVdgConvexCollision@@QAX@Z 100528b0 f   physics:dgCollisionMesh.obj
 0001:000518f0       ??_GdgCollisionConvexPolygon@dgCollisionMesh@@UAEPAXI@Z 100528f0 f i physics:dgCollisionMesh.obj
 0001:000518f0       ??_EdgCollisionConvexPolygon@dgCollisionMesh@@UAEPAXI@Z 100528f0 f i physics:dgCollisionMesh.obj
 0001:00051920       ??_EdgCollisionMesh@@UAEPAXI@Z 10052920 f i physics:dgCollisionMesh.obj
 0001:00051920       ??_GdgCollisionMesh@@UAEPAXI@Z 10052920 f i physics:dgCollisionMesh.obj
 0001:00051950       ??$GetSign@N@@YANN@Z       10052950 f i physics:dgCollisionMesh.obj
 0001:00051980       ??0dgCollisionBVH@@QAE@QAVdgMemoryAllocator@@@Z 10052980 f   physics:dgCollisionBVH.obj
 0001:00051a00       ??0dgCollisionBVH@@QAE@QAVdgWorld@@P6AXPAX1I@ZQAX@Z 10052a00 f   physics:dgCollisionBVH.obj
 0001:00051ae0       ??1dgCollisionBVH@@UAE@XZ  10052ae0 f   physics:dgCollisionBVH.obj
 0001:00051b20       ?Serialize@dgCollisionBVH@@EBEXP6AXPAXPBXI@ZQAX@Z 10052b20 f   physics:dgCollisionBVH.obj
 0001:00051b60       ?BeginBuild@dgCollisionBVH@@QAEXXZ 10052b60 f   physics:dgCollisionBVH.obj
 0001:00051bd0       ?AddFace@dgCollisionBVH@@QAEXHQBNHH@Z 10052bd0 f   physics:dgCollisionBVH.obj
 0001:00051c90       ?SetCollisionRayCastCallback@dgCollisionBVH@@QAEXP6ANQBVdgBody@@QBV1@NPANHPAX@Z@Z 10052c90 f   physics:dgCollisionBVH.obj
 0001:00051cb0       ?EndBuild@dgCollisionBVH@@QAEXH@Z 10052cb0 f   physics:dgCollisionBVH.obj
 0001:00051d90       ?GetCollisionInfo@dgCollisionBVH@@EBEXPAVdgCollisionInfo@@@Z 10052d90 f   physics:dgCollisionBVH.obj
 0001:00051ec0       ?CollectVertexListIndexList@dgCollisionBVH@@CA?AW4dgIntersectStatus@@PAXQBNHQBHH@Z 10052ec0 f   physics:dgCollisionBVH.obj
 0001:00052010       ?GetTriangleCount@dgCollisionBVH@@CA?AW4dgIntersectStatus@@PAXQBNHQBHH@Z 10053010 f   physics:dgCollisionBVH.obj
 0001:00052090       ?GetVertexListIndexList@dgCollisionBVH@@UBEXABVdgVector@@0AAVdgGetVertexListIndexList@dgCollisionMesh@@@Z 10053090 f   physics:dgCollisionBVH.obj
 0001:00052110       ?RayHitSimd@dgCollisionBVH@@CANPAXQBNHQBHH@Z 10053110 f   physics:dgCollisionBVH.obj
 0001:00052290       ?RayHit@dgCollisionBVH@@CANPAXQBNHQBHH@Z 10053290 f   physics:dgCollisionBVH.obj
 0001:00052410       ?RayHitUserSimd@dgCollisionBVH@@CANPAXQBNHQBHH@Z 10053410 f   physics:dgCollisionBVH.obj
 0001:00052570       ?RayHitUser@dgCollisionBVH@@CANPAXQBNHQBHH@Z 10053570 f   physics:dgCollisionBVH.obj
 0001:000526d0       ?RayCastSimd@dgCollisionBVH@@EBENABVdgVector@@0AAVdgContactPoint@@P6AIQBVdgBody@@QBVdgCollision@@QAX@Z24@Z 100536d0 f   physics:dgCollisionBVH.obj
 0001:000528d0       ?RayCast@dgCollisionBVH@@EBENABVdgVector@@0AAVdgContactPoint@@P6AIQBVdgBody@@QBVdgCollision@@QAX@Z24@Z 100538d0 f   physics:dgCollisionBVH.obj
 0001:00052ad0       ?GetPolygon@dgCollisionBVH@@CA?AW4dgIntersectStatus@@PAXQBNHQBHH@Z 10053ad0 f   physics:dgCollisionBVH.obj
 0001:00052d80       ?GetCollidingFacesSimd@dgCollisionBVH@@EBEXQAVdgPolygonMeshDesc@@@Z 10053d80 f   physics:dgCollisionBVH.obj
 0001:00052e60       ?GetCollidingFaces@dgCollisionBVH@@EBEXQAVdgPolygonMeshDesc@@@Z 10053e60 f   physics:dgCollisionBVH.obj
 0001:00052f40       ?SupportVertex@dgCollisionBVH@@EBE?AVdgVector@@ABV2@@Z 10053f40 f   physics:dgCollisionBVH.obj
 0001:00052f70       ?ShowDebugPolygon@dgCollisionBVH@@CA?AW4dgIntersectStatus@@PAXQBNHQBHH@Z 10053f70 f   physics:dgCollisionBVH.obj
 0001:00053060       ?DebugCollision@dgCollisionBVH@@EBEXABVdgMatrix@@P6AXPAXHPBNH@ZQAX@Z 10054060 f   physics:dgCollisionBVH.obj
 0001:00053160       ??_GdgCollisionBVH@@UAEPAXI@Z 10054160 f i physics:dgCollisionBVH.obj
 0001:00053160       ??_EdgCollisionBVH@@UAEPAXI@Z 10054160 f i physics:dgCollisionBVH.obj
 0001:00053190       ??_GdgPolygonSoupDatabaseBuilder@@QAEPAXI@Z 10054190 f i physics:dgCollisionBVH.obj
 0001:000531c0       ?GetDebugRayCastCallback@dgCollisionBVH@@QBEP6ANQBVdgBody@@QBV1@NPANHPAX@ZXZ 100541c0 f i physics:dgCollisionBVH.obj
 0001:000531e0       ??0dgBVHRay@dgCollisionBVH@@QAE@ABVdgVector@@0@Z 100541e0 f i physics:dgCollisionBVH.obj
 0001:00053220       ?GetCollisionMatrix@dgBody@@QBEABVdgMatrix@@XZ 10054220 f i physics:dgCollisionBVH.obj
 0001:00053240       ?GetDebugCollisionCallback@dgCollisionMesh@@QBEP6AXPBVdgBody@@QBV2@HHPBNH@ZXZ 10054240 f i physics:dgCollisionBVH.obj
 0001:00053260       ??0dgCollisionBVHShowPolyContext@@QAE@XZ 10054260 f i physics:dgCollisionBVH.obj
 0001:00053280       ??_EdgCollisionBVH@@WBCA@AEPAXI@Z 10054280 f i physics:dgCollisionBVH.obj
 0001:00053290       ?Serialize@dgCollisionBVH@@GBCA@BEXP6AXPAXPBXI@ZQAX@Z 10054290 f i physics:dgCollisionBVH.obj
 0001:000532a0       ?RotateVectorSimd@dgMatrix@@QBE?AVdgVector@@ABV2@@Z 100542a0 f i physics:dgCollisionBVH.obj
 0001:000532e0       ?GetVertexCount@dgPolygonSoupDatabase@@QBEHXZ 100542e0 f i physics:dgCollisionBVH.obj
 0001:00053300       ?GetLocalVertexPool@dgPolygonSoupDatabase@@QBEPANXZ 10054300 f i physics:dgCollisionBVH.obj
 0001:00053320       ?GetStrideInBytes@dgPolygonSoupDatabase@@QBEHXZ 10054320 f i physics:dgCollisionBVH.obj
 0001:00053340       ??2dgPolygonSoupDatabaseBuilder@@SAPAXIQAVdgMemoryAllocator@@@Z 10054340 f i physics:dgCollisionBVH.obj
 0001:00053360       ??3dgPolygonSoupDatabaseBuilder@@SAXPAX@Z 10054360 f i physics:dgCollisionBVH.obj
 0001:00053380       ??0dgCollisionHeightField@@QAE@QAVdgWorld@@HHHQBGQBDNN@Z 10054380 f   physics:dgCollisionHeightField.obj
 0001:00053740       ??0dgCollisionHeightField@@QAE@QAVdgWorld@@P6AXPAX1I@ZQAX@Z 10054740 f   physics:dgCollisionHeightField.obj
 0001:00053a10       ??1dgCollisionHeightField@@UAE@XZ 10054a10 f   physics:dgCollisionHeightField.obj
 0001:00053af0       ?Serialize@dgCollisionHeightField@@EBEXP6AXPAXPBXI@ZQAX@Z 10054af0 f   physics:dgCollisionHeightField.obj
 0001:00053c00       ?SetCollisionRayCastCallback@dgCollisionHeightField@@QAEXP6ANQBVdgBody@@QBV1@NHHQAVdgVector@@HQAX@Z@Z 10054c00 f   physics:dgCollisionHeightField.obj
 0001:00053c20       ?AllocateVertex@dgCollisionHeightField@@ABEXQAVdgWorld@@H@Z 10054c20 f   physics:dgCollisionHeightField.obj
 0001:00053cf0       ?GetCollisionInfo@dgCollisionHeightField@@EBEXPAVdgCollisionInfo@@@Z 10054cf0 f   physics:dgCollisionHeightField.obj
 0001:00053db0       ?CalculateMinExtend2d@dgCollisionHeightField@@ABEXABVdgVector@@0AAV2@1@Z 10054db0 f   physics:dgCollisionHeightField.obj
 0001:00053fd0       ?CalculateMinExtend3d@dgCollisionHeightField@@ABEXABVdgVector@@0AAV2@1@Z 10054fd0 f   physics:dgCollisionHeightField.obj
 0001:00054210       ?RayCastCellSimd@dgCollisionHeightField@@ABENABVFastRayTest@@HHAAVdgVector@@@Z 10055210 f   physics:dgCollisionHeightField.obj
 0001:00054820       ?RayCastCell@dgCollisionHeightField@@ABENABVFastRayTest@@HHAAVdgVector@@@Z 10055820 f   physics:dgCollisionHeightField.obj
 0001:00054e30       ?RayCastSimd@dgCollisionHeightField@@EBENABVdgVector@@0AAVdgContactPoint@@P6AIQBVdgBody@@QBVdgCollision@@QAX@Z24@Z 10055e30 f   physics:dgCollisionHeightField.obj
 0001:00055420       ?RayCast@dgCollisionHeightField@@EBENABVdgVector@@0AAVdgContactPoint@@P6AIQBVdgBody@@QBVdgCollision@@QAX@Z24@Z 10056420 f   physics:dgCollisionHeightField.obj
 0001:00055950       ?GetVertexListIndexList@dgCollisionHeightField@@EBEXABVdgVector@@0AAVdgGetVertexListIndexList@dgCollisionMesh@@@Z 10056950 f   physics:dgCollisionHeightField.obj
 0001:00055990       ?DebugCollision@dgCollisionHeightField@@EBEXABVdgMatrix@@P6AXPAXHPBNH@ZQAX@Z 10056990 f   physics:dgCollisionHeightField.obj
 0001:00055f00       ?GetLocalAABB@dgCollisionHeightField@@ABEXABVdgVector@@0AAV2@1@Z 10056f00 f   physics:dgCollisionHeightField.obj
 0001:00056060       ?GetCollidingFacesSimd@dgCollisionHeightField@@EBEXQAVdgPolygonMeshDesc@@@Z 10057060 f   physics:dgCollisionHeightField.obj
 0001:00056080       ?GetCollidingFaces@dgCollisionHeightField@@EBEXQAVdgPolygonMeshDesc@@@Z 10057080 f   physics:dgCollisionHeightField.obj
 0001:000578c0       ??_EdgCollisionHeightField@@UAEPAXI@Z 100588c0 f i physics:dgCollisionHeightField.obj
 0001:000578c0       ??_GdgCollisionHeightField@@UAEPAXI@Z 100588c0 f i physics:dgCollisionHeightField.obj
 0001:000578f0       ?GetInfo@dgTreeNode@?$dgTree@PAXI@@QAEAAPAXXZ 100588f0 f i physics:dgCollisionHeightField.obj
 0001:00057910       ?Find@?$dgTree@PAXI@@QBEPAVdgTreeNode@1@I@Z 10058910 f i physics:dgCollisionHeightField.obj
 0001:00057a30       ?Insert@?$dgTree@PAXI@@QAEPAVdgTreeNode@1@ABQAXI@Z 10058a30 f i physics:dgCollisionHeightField.obj
 0001:00057a70       ?Remove@?$dgTree@PAXI@@QAEXI@Z 10058a70 f i physics:dgCollisionHeightField.obj
 0001:00057ab0       ?GetLeft@dgTreeNode@?$dgTree@PAXI@@ABEPAV12@XZ 10058ab0 f i physics:dgCollisionHeightField.obj
 0001:00057ac0       ?GetRight@dgTreeNode@?$dgTree@PAXI@@ABEPAV12@XZ 10058ac0 f i physics:dgCollisionHeightField.obj
 0001:00057ae0       ?Insert@?$dgTree@PAXI@@QAEPAVdgTreeNode@1@ABQAXIAA_N@Z 10058ae0 f i physics:dgCollisionHeightField.obj
 0001:00057ce0       ?Remove@?$dgTree@PAXI@@QAEXQAVdgTreeNode@1@@Z 10058ce0 f i physics:dgCollisionHeightField.obj
 0001:00057d20       ?CompareKeys@?$dgTree@PAXI@@ABEHABI0@Z 10058d20 f i physics:dgCollisionHeightField.obj
 0001:00057d60       ??0dgTreeNode@?$dgTree@PAXI@@AAE@ABQAXABIPAV01@@Z 10058d60 f i physics:dgCollisionHeightField.obj
 0001:00057dd0       ??0dgBody@@QAE@XZ          10058dd0 f   physics:dgBody.obj
 0001:00057ef0       ??1dgBody@@QAE@XZ          10058ef0 f   physics:dgBody.obj
 0001:00057f00       ?SetAparentMassMatrix@dgBody@@QAEXABVdgVector@@@Z 10058f00 f   physics:dgBody.obj
 0001:00057fa0       ?SetMassMatrix@dgBody@@QAEXNNNN@Z 10058fa0 f   physics:dgBody.obj
 0001:00058250       ?AttachCollision@dgBody@@QAEXPAVdgCollision@@@Z 10059250 f   physics:dgBody.obj
 0001:00058450       ?SetMatrix@dgBody@@QAEXABVdgMatrix@@@Z 10059450 f   physics:dgBody.obj
 0001:000584c0       ?SetMatrixIgnoreSleep@dgBody@@QAEXABVdgMatrix@@@Z 100594c0 f   physics:dgBody.obj
 0001:00058590       ?UpdateCollisionMatrixSimd@dgBody@@AAEXNH@Z 10059590 f   physics:dgBody.obj
 0001:000585a0       ?UpdateCollisionMatrix@dgBody@@AAEXNH@Z 100595a0 f   physics:dgBody.obj
 0001:00058cc0       ?RayCast@dgBody@@QBENABUdgLineBox@@P6ANQBV1@ABVdgVector@@HQAXN@ZP6AI1QBVdgCollision@@3@Z3N@Z 10059cc0 f   physics:dgBody.obj
 0001:00059000       ?AddBuoyancyForce@dgBody@@QAEXNNNABVdgVector@@P6AIPAX1ABVdgMatrix@@AAVdgPlane@@@ZQAX@Z 1005a000 f   physics:dgBody.obj
 0001:00059260       ?CalcInvInertiaMatrix@dgBody@@QAEXXZ 1005a260 f   physics:dgBody.obj
 0001:000597d0       ?CalcInvInertiaMatrixSimd@dgBody@@QAEXXZ 1005a7d0 f   physics:dgBody.obj
 0001:000597e0       ?UpdateMatrix@dgBody@@AAEXNH@Z 1005a7e0 f   physics:dgBody.obj
 0001:00059830       ?IntegrateVelocity@dgBody@@AAEXN@Z 1005a830 f   physics:dgBody.obj
 0001:00059cc0       ?CalculateContinueVelocity@dgBody@@ABEXNAAVdgVector@@0@Z 1005acc0 f   physics:dgBody.obj
 0001:00059de0       ?CalculateContinueVelocitySimd@dgBody@@ABEXNAAVdgVector@@0@Z 1005ade0 f   physics:dgBody.obj
 0001:00059df0       ?GetTrajectory@dgBody@@ABE?AVdgVector@@ABV2@0@Z 1005adf0 f   physics:dgBody.obj
 0001:00059e50       ?CalculateInverseDynamicForce@dgBody@@QBE?AVdgVector@@ABV2@N@Z 1005ae50 f   physics:dgBody.obj
 0001:00059ee0       ?GetFirstJoint@dgBody@@QBEPAVdgConstraint@@XZ 1005aee0 f   physics:dgBody.obj
 0001:00059f40       ?GetNextJoint@dgBody@@QBEPAVdgConstraint@@PAV2@@Z 1005af40 f   physics:dgBody.obj
 0001:00059fd0       ?GetFirstContact@dgBody@@QBEPAVdgConstraint@@XZ 1005afd0 f   physics:dgBody.obj
 0001:0005a030       ?GetNextContact@dgBody@@QBEPAVdgConstraint@@PAV2@@Z 1005b030 f   physics:dgBody.obj
 0001:0005a0c0       ?SetFreeze@dgBody@@QAEX_N@Z 1005b0c0 f   physics:dgBody.obj
 0001:0005a0f0       ?Freeze@dgBody@@QAEXXZ     1005b0f0 f   physics:dgBody.obj
 0001:0005a180       ?Unfreeze@dgBody@@QAEXXZ   1005b180 f   physics:dgBody.obj
 0001:0005a210       ?AddImpulse@dgBody@@AAEXABVdgVector@@0@Z 1005b210 f   physics:dgBody.obj
 0001:0005aa70       ?InvalidateCache@dgBody@@QAEXXZ 1005ba70 f   physics:dgBody.obj
 0001:0005ab80       ?SetMatrixOriginAndRotation@dgBody@@AAEXABVdgMatrix@@@Z 1005bb80 f i physics:dgBody.obj
 0001:0005adf0       ?GetLink0@dgConstraint@@QBEPAVdgListNode@?$dgList@VdgBodyMasterListCell@@@@XZ 1005bdf0 f i physics:dgBody.obj
 0001:0005ae10       ?GetLink1@dgConstraint@@QBEPAVdgListNode@?$dgList@VdgBodyMasterListCell@@@@XZ 1005be10 f i physics:dgBody.obj
 0001:0005ae30       ??0dgQuaternion@@QAE@XZ    1005be30 f i physics:dgBody.obj
 0001:0005ae60       ?Scale@dgQuaternion@@QAEXN@Z 1005be60 f i physics:dgBody.obj
 0001:0005aeb0       ??DdgQuaternion@@QBE?AV0@ABV0@@Z 1005beb0 f i physics:dgBody.obj
 0001:0005afb0       ?RotateToEnd@?$dgList@VdgBodyMasterListRow@@@@QAEXQAVdgListNode@1@@Z 1005bfb0 f i physics:dgBody.obj
 0001:0005b020       ?InsertAfter@?$dgList@VdgBodyMasterListRow@@@@QAEXQAVdgListNode@1@0@Z 1005c020 f i physics:dgBody.obj
 0001:0005b1f0       ?Unlink@dgListNode@?$dgList@VdgBodyMasterListRow@@@@AAEXXZ 1005c1f0 f i physics:dgBody.obj
 0001:0005b240       ?AddLast@dgListNode@?$dgList@VdgBodyMasterListRow@@@@AAEXQAV12@@Z 1005c240 f i physics:dgBody.obj
 0001:0005b260       ?SanityCheck@?$dgList@VdgBodyMasterListRow@@@@QBE_NXZ 1005c260 f i physics:dgBody.obj
 0001:0005b3e0       ??0dgBallConstraint@@AAE@XZ 1005c3e0 f   physics:dgBallConstraint.obj
 0001:0005b4e0       ??1dgBallConstraint@@EAE@XZ 1005c4e0 f   physics:dgBallConstraint.obj
 0001:0005b500       ?SetJointParameterCallBack@dgBallConstraint@@QAEXP6AIABV1@N@Z@Z 1005c500 f   physics:dgBallConstraint.obj
 0001:0005b520       ?GetJointAngle@dgBallConstraint@@QBE?AVdgVector@@XZ 1005c520 f   physics:dgBallConstraint.obj
 0001:0005b550       ?GetJointOmega@dgBallConstraint@@QBE?AVdgVector@@XZ 1005c550 f   physics:dgBallConstraint.obj
 0001:0005b6b0       ?GetJointForce@dgBallConstraint@@QBE?AVdgVector@@XZ 1005c6b0 f   physics:dgBallConstraint.obj
 0001:0005b7a0       ?GetTwistLimitState@dgBallConstraint@@QBE_NXZ 1005c7a0 f   physics:dgBallConstraint.obj
 0001:0005b7c0       ?GetConeLimitState@dgBallConstraint@@QBE_NXZ 1005c7c0 f   physics:dgBallConstraint.obj
 0001:0005b7e0       ?GetLatealLimitState@dgBallConstraint@@QBE_NXZ 1005c7e0 f   physics:dgBallConstraint.obj
 0001:0005b800       ?SetTwistLimitState@dgBallConstraint@@QAEX_N@Z 1005c800 f   physics:dgBallConstraint.obj
 0001:0005b830       ?SetConeLimitState@dgBallConstraint@@QAEX_N@Z 1005c830 f   physics:dgBallConstraint.obj
 0001:0005b860       ?SetLatealLimitState@dgBallConstraint@@QAEX_N@Z 1005c860 f   physics:dgBallConstraint.obj
 0001:0005b890       ?SetPivotPoint@dgBallConstraint@@AAEXABVdgVector@@@Z 1005c890 f   physics:dgBallConstraint.obj
 0001:0005b9f0       ?SetLimits@dgBallConstraint@@QAEXABVdgVector@@NNN0NN@Z 1005c9f0 f   physics:dgBallConstraint.obj
 0001:0005bde0       ?JacobianDerivative@dgBallConstraint@@EAEIAAVdgContraintDescritor@@@Z 1005cde0 f   physics:dgBallConstraint.obj
 0001:0005c6e0       ??_EdgBallConstraint@@EAEPAXI@Z 1005d6e0 f i physics:dgBallConstraint.obj
 0001:0005c6e0       ??_GdgBallConstraint@@EAEPAXI@Z 1005d6e0 f i physics:dgBallConstraint.obj
 0001:0005c710       ??0dgHingeConstraint@@AAE@XZ 1005d710 f   physics:dgHingeConstraint.obj
 0001:0005c7c0       ??1dgHingeConstraint@@EAE@XZ 1005d7c0 f   physics:dgHingeConstraint.obj
 0001:0005c7e0       ?SetJointParameterCallBack@dgHingeConstraint@@QAEXP6AIABV1@PAVdgJointCallBackParam@@@Z@Z 1005d7e0 f   physics:dgHingeConstraint.obj
 0001:0005c800       ?GetJointAngle@dgHingeConstraint@@QBENXZ 1005d800 f   physics:dgHingeConstraint.obj
 0001:0005c820       ?GetJointOmega@dgHingeConstraint@@QBENXZ 1005d820 f   physics:dgHingeConstraint.obj
 0001:0005c8f0       ?CalculateStopAlpha@dgHingeConstraint@@QBENNPBVdgJointCallBackParam@@@Z 1005d8f0 f   physics:dgHingeConstraint.obj
 0001:0005c9d0       ?GetJointForce@dgHingeConstraint@@QBE?AVdgVector@@XZ 1005d9d0 f   physics:dgHingeConstraint.obj
 0001:0005cb10       ?JacobianDerivative@dgHingeConstraint@@EAEIAAVdgContraintDescritor@@@Z 1005db10 f   physics:dgHingeConstraint.obj
 0001:0005cf60       ??_GdgHingeConstraint@@EAEPAXI@Z 1005df60 f i physics:dgHingeConstraint.obj
 0001:0005cf60       ??_EdgHingeConstraint@@EAEPAXI@Z 1005df60 f i physics:dgHingeConstraint.obj
 0001:0005cf90       ??0dgSlidingConstraint@@AAE@XZ 1005df90 f   physics:dgSlidingConstraint.obj
 0001:0005d040       ??1dgSlidingConstraint@@EAE@XZ 1005e040 f   physics:dgSlidingConstraint.obj
 0001:0005d060       ?SetJointParameterCallBack@dgSlidingConstraint@@QAEXP6AIABV1@PAVdgJointCallBackParam@@@Z@Z 1005e060 f   physics:dgSlidingConstraint.obj
 0001:0005d080       ?GetJointPosit@dgSlidingConstraint@@QBENXZ 1005e080 f   physics:dgSlidingConstraint.obj
 0001:0005d0a0       ?GetJointVeloc@dgSlidingConstraint@@QBENXZ 1005e0a0 f   physics:dgSlidingConstraint.obj
 0001:0005d170       ?CalculateStopAccel@dgSlidingConstraint@@QBENNPBVdgJointCallBackParam@@@Z 1005e170 f   physics:dgSlidingConstraint.obj
 0001:0005d270       ?GetJointForce@dgSlidingConstraint@@QBE?AVdgVector@@XZ 1005e270 f   physics:dgSlidingConstraint.obj
 0001:0005d3b0       ?JacobianDerivative@dgSlidingConstraint@@EAEIAAVdgContraintDescritor@@@Z 1005e3b0 f   physics:dgSlidingConstraint.obj
 0001:0005d930       ??_EdgSlidingConstraint@@EAEPAXI@Z 1005e930 f i physics:dgSlidingConstraint.obj
 0001:0005d930       ??_GdgSlidingConstraint@@EAEPAXI@Z 1005e930 f i physics:dgSlidingConstraint.obj
 0001:0005d960       ??0dgCorkscrewConstraint@@AAE@XZ 1005e960 f   physics:dgCorkscrewConstraint.obj
 0001:0005da10       ??1dgCorkscrewConstraint@@EAE@XZ 1005ea10 f   physics:dgCorkscrewConstraint.obj
 0001:0005da30       ?SetJointParameterCallBack@dgCorkscrewConstraint@@QAEXP6AIABV1@PAVdgJointCallBackParam@@@Z@Z 1005ea30 f   physics:dgCorkscrewConstraint.obj
 0001:0005da50       ?GetJointAngle@dgCorkscrewConstraint@@QBENXZ 1005ea50 f   physics:dgCorkscrewConstraint.obj
 0001:0005da70       ?GetJointPosit@dgCorkscrewConstraint@@QBENXZ 1005ea70 f   physics:dgCorkscrewConstraint.obj
 0001:0005da90       ?GetJointOmega@dgCorkscrewConstraint@@QBENXZ 1005ea90 f   physics:dgCorkscrewConstraint.obj
 0001:0005db60       ?GetJointVeloc@dgCorkscrewConstraint@@QBENXZ 1005eb60 f   physics:dgCorkscrewConstraint.obj
 0001:0005dc30       ?CalculateStopAlpha@dgCorkscrewConstraint@@QBENNPBVdgJointCallBackParam@@@Z 1005ec30 f   physics:dgCorkscrewConstraint.obj
 0001:0005dd00       ?CalculateStopAccel@dgCorkscrewConstraint@@QBENNPBVdgJointCallBackParam@@@Z 1005ed00 f   physics:dgCorkscrewConstraint.obj
 0001:0005de00       ?GetJointForce@dgCorkscrewConstraint@@QBE?AVdgVector@@XZ 1005ee00 f   physics:dgCorkscrewConstraint.obj
 0001:0005df10       ?JacobianDerivative@dgCorkscrewConstraint@@EAEIAAVdgContraintDescritor@@@Z 1005ef10 f   physics:dgCorkscrewConstraint.obj
 0001:0005e530       ??_EdgCorkscrewConstraint@@EAEPAXI@Z 1005f530 f i physics:dgCorkscrewConstraint.obj
 0001:0005e530       ??_GdgCorkscrewConstraint@@EAEPAXI@Z 1005f530 f i physics:dgCorkscrewConstraint.obj
 0001:0005e560       ??0dgUniversalConstraint@@AAE@XZ 1005f560 f   physics:dgUniversalConstraint.obj
 0001:0005e610       ??1dgUniversalConstraint@@EAE@XZ 1005f610 f   physics:dgUniversalConstraint.obj
 0001:0005e630       ?SetJointParameterCallBack@dgUniversalConstraint@@QAEXP6AIABV1@PAVdgJointCallBackParam@@@Z@Z 1005f630 f   physics:dgUniversalConstraint.obj
 0001:0005e650       ?GetJointAngle0@dgUniversalConstraint@@QBENXZ 1005f650 f   physics:dgUniversalConstraint.obj
 0001:0005e670       ?GetJointAngle1@dgUniversalConstraint@@QBENXZ 1005f670 f   physics:dgUniversalConstraint.obj
 0001:0005e690       ?GetJointOmega0@dgUniversalConstraint@@QBENXZ 1005f690 f   physics:dgUniversalConstraint.obj
 0001:0005e760       ?GetJointOmega1@dgUniversalConstraint@@QBENXZ 1005f760 f   physics:dgUniversalConstraint.obj
 0001:0005e830       ?CalculateStopAlpha0@dgUniversalConstraint@@QBENNPBVdgJointCallBackParam@@@Z 1005f830 f   physics:dgUniversalConstraint.obj
 0001:0005e900       ?CalculateStopAlpha1@dgUniversalConstraint@@QBENNPBVdgJointCallBackParam@@@Z 1005f900 f   physics:dgUniversalConstraint.obj
 0001:0005e9d0       ?GetJointForce@dgUniversalConstraint@@QBE?AVdgVector@@XZ 1005f9d0 f   physics:dgUniversalConstraint.obj
 0001:0005eae0       ?JacobianDerivative@dgUniversalConstraint@@EAEIAAVdgContraintDescritor@@@Z 1005fae0 f   physics:dgUniversalConstraint.obj
 0001:0005f0e0       ??_GdgUniversalConstraint@@EAEPAXI@Z 100600e0 f i physics:dgUniversalConstraint.obj
 0001:0005f0e0       ??_EdgUniversalConstraint@@EAEPAXI@Z 100600e0 f i physics:dgUniversalConstraint.obj
 0001:0005f110       ??0dgUpVectorConstraint@@AAE@XZ 10060110 f   physics:dgUpVectorConstraint.obj
 0001:0005f1c0       ??1dgUpVectorConstraint@@EAE@XZ 100601c0 f   physics:dgUpVectorConstraint.obj
 0001:0005f1e0       ?IsBilateral@dgUpVectorConstraint@@UBE_NXZ 100601e0 f   physics:dgUpVectorConstraint.obj
 0001:0005f1f0       ?InitPinDir@dgUpVectorConstraint@@QAEXABVdgVector@@@Z 100601f0 f   physics:dgUpVectorConstraint.obj
 0001:0005f250       ?SetPinDir@dgUpVectorConstraint@@QAEXABVdgVector@@@Z 10060250 f   physics:dgUpVectorConstraint.obj
 0001:0005f2a0       ?GetPinDir@dgUpVectorConstraint@@QBE?AVdgVector@@XZ 100602a0 f   physics:dgUpVectorConstraint.obj
 0001:0005f2d0       ?SetJointParameterCallBack@dgUpVectorConstraint@@QAEXP6AIABV1@@Z@Z 100602d0 f   physics:dgUpVectorConstraint.obj
 0001:0005f2f0       ?JacobianDerivative@dgUpVectorConstraint@@EAEIAAVdgContraintDescritor@@@Z 100602f0 f   physics:dgUpVectorConstraint.obj
 0001:0005f540       ??_EdgUpVectorConstraint@@EAEPAXI@Z 10060540 f i physics:dgUpVectorConstraint.obj
 0001:0005f540       ??_GdgUpVectorConstraint@@EAEPAXI@Z 10060540 f i physics:dgUpVectorConstraint.obj
 0001:0005f570       ?GetUserData@dgConstraint@@QBEPAXXZ 10060570 f   physics:dgConstraint.obj
 0001:0005f590       ?SetUserData@dgConstraint@@QAEXPAX@Z 10060590 f   physics:dgConstraint.obj
 0001:0005f5b0       ?IsBilateral@dgConstraint@@MBE_NXZ 100605b0 f   physics:dgConstraint.obj
 0001:0005f5c0       ?InitPointParam@dgConstraint@@IBEXAAVdgPointParam@1@NABVdgVector@@1@Z 100605c0 f   physics:dgConstraint.obj
 0001:0005f810       ?InitInfo@dgConstraint@@IBEXPAVdgConstraintInfo@@@Z 10060810 f   physics:dgConstraint.obj
 0001:0005f900       ?GetInfo@dgConstraint@@UBEXQAVdgConstraintInfo@@@Z 10060900 f   physics:dgConstraint.obj
 0001:0005f930       ??0dgUserConstraint@@IAE@QAVdgWorld@@QAVdgBody@@1H@Z 10060930 f   physics:dgUserConstraint.obj
 0001:0005f9e0       ??1dgUserConstraint@@MAE@XZ 100609e0 f   physics:dgUserConstraint.obj
 0001:0005fa00       ?GetInfo@dgUserConstraint@@MBEXQAVdgConstraintInfo@@@Z 10060a00 f   physics:dgUserConstraint.obj
 0001:0005fa20       ??_EdgUserConstraint@@MAEPAXI@Z 10060a20 f i physics:dgUserConstraint.obj
 0001:0005fa20       ??_GdgUserConstraint@@MAEPAXI@Z 10060a20 f i physics:dgUserConstraint.obj
 0001:0005fa50       ??0dgBilateralConstraint@@IAE@XZ 10060a50 f   physics:dgBilateralConstraint.obj
 0001:0005fb80       ??1dgBilateralConstraint@@MAE@XZ 10060b80 f   physics:dgBilateralConstraint.obj
 0001:0005fbc0       ?IsBilateral@dgBilateralConstraint@@MBE_NXZ 10060bc0 f   physics:dgBilateralConstraint.obj
 0001:0005fbd0       ?GetStiffness@dgBilateralConstraint@@MBENXZ 10060bd0 f   physics:dgBilateralConstraint.obj
 0001:0005fbf0       ?SetStiffness@dgBilateralConstraint@@MAEXN@Z 10060bf0 f   physics:dgBilateralConstraint.obj
 0001:0005fc40       ?SetDestructorCallback@dgBilateralConstraint@@UAEXP6AXAAVdgConstraint@@@Z@Z 10060c40 f   physics:dgBilateralConstraint.obj
 0001:0005fc60       ?CalculateMatrixOffset@dgBilateralConstraint@@IAEXABVdgVector@@0AAVdgMatrix@@1@Z 10060c60 f   physics:dgBilateralConstraint.obj
 0001:0005fe10       ?SetPivotAndPinDir@dgBilateralConstraint@@IAEXABVdgVector@@0@Z 10060e10 f   physics:dgBilateralConstraint.obj
 0001:0005fe40       ?SetPivotAndPinDir@dgBilateralConstraint@@IAEXABVdgVector@@00@Z 10060e40 f   physics:dgBilateralConstraint.obj
 0001:000600c0       ?CalculateGlobalMatrixAndAngle@dgBilateralConstraint@@IBE?AVdgVector@@AAVdgMatrix@@0@Z 100610c0 f   physics:dgBilateralConstraint.obj
 0001:000602d0       ?SetMotorAcceleration@dgBilateralConstraint@@IAEXHNAAVdgContraintDescritor@@@Z 100612d0 f   physics:dgBilateralConstraint.obj
 0001:00060320       ?SetJacobianDerivative@dgBilateralConstraint@@IAEXHAAVdgContraintDescritor@@PBN1PAN@Z 10061320 f   physics:dgBilateralConstraint.obj
 0001:000604f0       ?CalculateSpringDamperAcceleration@dgBilateralConstraint@@IAENHABVdgContraintDescritor@@NABVdgVector@@1NN@Z 100614f0 f   physics:dgBilateralConstraint.obj
 0001:00060710       ?CalculateAngularDerivative@dgBilateralConstraint@@IAEXHAAVdgContraintDescritor@@ABVdgVector@@NNPAN@Z 10061710 f   physics:dgBilateralConstraint.obj
 0001:00060a90       ?CalculatePointDerivative@dgBilateralConstraint@@IAEXHAAVdgContraintDescritor@@ABVdgVector@@ABVdgPointParam@dgConstraint@@PAN@Z 10061a90 f   physics:dgBilateralConstraint.obj
 0001:00060f10       ?JointAccelerationsSimd@dgBilateralConstraint@@MAEXABVdgJointAccelerationDecriptor@@@Z 10061f10 f   physics:dgBilateralConstraint.obj
 0001:00060f20       ?JointAccelerations@dgBilateralConstraint@@MAEXABVdgJointAccelerationDecriptor@@@Z 10061f20 f   physics:dgBilateralConstraint.obj
 0001:00061180       ?JointVelocityCorrection@dgBilateralConstraint@@MAEXABVdgJointAccelerationDecriptor@@@Z 10062180 f   physics:dgBilateralConstraint.obj
 0001:00061190       ??0dgConstraint@@IAE@XZ    10062190 f i physics:dgBilateralConstraint.obj
 0001:00061280       ??_GdgConstraint@@MAEPAXI@Z 10062280 f i physics:dgBilateralConstraint.obj
 0001:00061280       ??_EdgConstraint@@MAEPAXI@Z 10062280 f i physics:dgBilateralConstraint.obj
 0001:000612b0       ??1dgConstraint@@MAE@XZ    100622b0 f i physics:dgBilateralConstraint.obj
 0001:000612d0       ?GetStiffness@dgConstraint@@UBENXZ 100622d0 f i physics:dgBilateralConstraint.obj
 0001:000612e0       ?SetStiffness@dgConstraint@@UAEXN@Z 100622e0 f i physics:dgBilateralConstraint.obj
 0001:000612f0       ??_GdgBilateralConstraint@@MAEPAXI@Z 100622f0 f i physics:dgBilateralConstraint.obj
 0001:000612f0       ??_EdgBilateralConstraint@@MAEPAXI@Z 100622f0 f i physics:dgBilateralConstraint.obj
 0001:00061320       ??0dgContactMaterial@@QAE@XZ 10062320 f   physics:dgContact.obj
 0001:00061440       ??0dgContact@@AAE@PAVdgWorld@@@Z 10062440 f   physics:dgContact.obj
 0001:00061580       ?GetInfo@dgContact@@EBEXQAVdgConstraintInfo@@@Z 10062580 f   physics:dgContact.obj
 0001:000615e0       ?CalculatePointDerivative@dgContact@@ABEXHAAVdgContraintDescritor@@ABVdgVector@@ABVdgPointParam@dgConstraint@@@Z 100625e0 f   physics:dgContact.obj
 0001:00061810       ?JacobianDerivative@dgContact@@EAEIAAVdgContraintDescritor@@@Z 10062810 f   physics:dgContact.obj
 0001:000618a0       ?JacobianContactDerivative@dgContact@@AAEXAAVdgContraintDescritor@@ABVdgContactMaterial@@HAAH@Z 100628a0 f   physics:dgContact.obj
 0001:00061f50       ?JointAccelerationsSimd@dgContact@@EAEXABVdgJointAccelerationDecriptor@@@Z 10062f50 f   physics:dgContact.obj
 0001:00061f60       ?JointAccelerations@dgContact@@EAEXABVdgJointAccelerationDecriptor@@@Z 10062f60 f   physics:dgContact.obj
 0001:00062220       ?JointVelocityCorrection@dgContact@@EAEXABVdgJointAccelerationDecriptor@@@Z 10063220 f   physics:dgContact.obj
 0001:00062260       ??0dgCollidingPairCollector@@QAE@XZ 10063260 f   physics:dgContact.obj
 0001:000622a0       ??1dgCollidingPairCollector@@QAE@XZ 100632a0 f   physics:dgContact.obj
 0001:000622b0       ?Init@dgCollidingPairCollector@@QAEXXZ 100632b0 f   physics:dgContact.obj
 0001:00062310       ?SetCaches@dgCollidingPairCollector@@QAEXQAUdgThreadPairCache@1@@Z 10063310 f   physics:dgContact.obj
 0001:00062360       ?FlushChache@dgCollidingPairCollector@@QAEXQAUdgThreadPairCache@1@@Z 10063360 f   physics:dgContact.obj
 0001:00062490       ?AddPair@dgCollidingPairCollector@@QAEXQAVdgBody@@0H@Z 10063490 f   physics:dgContact.obj
 0001:00062ab0       ?SetDestructorCallback@dgContact@@EAEXP6AXAAVdgConstraint@@@Z@Z 10063ab0 f i physics:dgContact.obj
 0001:00062ac0       ??_EdgContact@@EAEPAXI@Z   10063ac0 f i physics:dgContact.obj
 0001:00062ac0       ??_GdgContact@@EAEPAXI@Z   10063ac0 f i physics:dgContact.obj
 0001:00062af0       ??3dgContact@@CAXPAX@Z     10063af0 f i physics:dgContact.obj
 0001:00062b10       ??1dgContact@@EAE@XZ       10063b10 f i physics:dgContact.obj
 0001:00062b90       ?Append@?$dgList@PAVdgContact@@@@QAEPAVdgListNode@1@ABQAVdgContact@@@Z 10063b90 f i physics:dgContact.obj
 0001:00062c50       ?Remove@?$dgList@PAVdgContact@@@@QAEXQAVdgListNode@1@@Z 10063c50 f i physics:dgContact.obj
 0001:00062ca0       ??0?$dgList@VdgContactMaterial@@@@QAE@QAVdgMemoryAllocator@@@Z 10063ca0 f i physics:dgContact.obj
 0001:00062ce0       ??1?$dgList@VdgContactMaterial@@@@QAE@XZ 10063ce0 f i physics:dgContact.obj
 0001:00062d00       ?RemoveAll@?$dgList@VdgContactMaterial@@@@QAEXXZ 10063d00 f i physics:dgContact.obj
 0001:00062dc0       ??2dgListNode@?$dgList@PAVdgContact@@@@CAPAXIQAVdgMemoryAllocator@@@Z 10063dc0 f i physics:dgContact.obj
 0001:00062de0       ??0dgListNode@?$dgList@PAVdgContact@@@@AAE@ABQAVdgContact@@QAV01@1@Z 10063de0 f i physics:dgContact.obj
 0001:00062e70       ?Unlink@?$dgList@PAVdgContact@@@@QAEXQAVdgListNode@1@@Z 10063e70 f i physics:dgContact.obj
 0001:00062f20       ?GetPrev@dgListNode@?$dgList@PAVdgContact@@@@QBEPAV12@XZ 10063f20 f i physics:dgContact.obj
 0001:00062f40       ??0dgBodyMasterListRow@@QAE@XZ 10063f40 f   physics:dgBodyMasterList.obj
 0001:00062f70       ??1dgBodyMasterListRow@@QAE@XZ 10063f70 f   physics:dgBodyMasterList.obj
 0001:00062fb0       ?AddJoint@dgBodyMasterListRow@@QAEPAVdgListNode@?$dgList@VdgBodyMasterListCell@@@@QAVdgConstraint@@QAVdgBody@@@Z 10063fb0 f   physics:dgBodyMasterList.obj
 0001:00062ff0       ?RemoveAllJoints@dgBodyMasterListRow@@QAEXXZ 10063ff0 f   physics:dgBodyMasterList.obj
 0001:00063050       ?SortList@dgBodyMasterListRow@@QAEXXZ 10064050 f   physics:dgBodyMasterList.obj
 0001:000630d0       ??0dgBodyMasterList@@QAE@QAVdgMemoryAllocator@@@Z 100640d0 f   physics:dgBodyMasterList.obj
 0001:00063100       ??1dgBodyMasterList@@QAE@XZ 10064100 f   physics:dgBodyMasterList.obj
 0001:00063120       ?AddBody@dgBodyMasterList@@QAEXQAVdgBody@@@Z 10064120 f   physics:dgBodyMasterList.obj
 0001:000631a0       ?RemoveBody@dgBodyMasterList@@QAEXQAVdgBody@@@Z 100641a0 f   physics:dgBodyMasterList.obj
 0001:00063240       ?FindConstraintLink@dgBodyMasterList@@QBEPAVdgListNode@?$dgList@VdgBodyMasterListCell@@@@QBVdgBody@@0@Z 10064240 f   physics:dgBodyMasterList.obj
 0001:00063310       ?FindConstraintLinkNext@dgBodyMasterList@@QBEPAVdgListNode@?$dgList@VdgBodyMasterListCell@@@@QBV23@QBVdgBody@@@Z 10064310 f   physics:dgBodyMasterList.obj
 0001:000633a0       ?AttachConstraint@dgBodyMasterList@@QAEXQAVdgConstraint@@QAVdgBody@@1@Z 100643a0 f   physics:dgBodyMasterList.obj
 0001:000634b0       ?RemoveConstraint@dgBodyMasterList@@QAEXQAVdgConstraint@@@Z 100644b0 f   physics:dgBodyMasterList.obj
 0001:00063690       ?SortMasterList@dgBodyMasterList@@QAEXXZ 10064690 f   physics:dgBodyMasterList.obj
 0001:00063840       ?GetPrev@dgListNode@?$dgList@VdgBodyMasterListCell@@@@QBEPAV12@XZ 10064840 f i physics:dgBodyMasterList.obj
 0001:00063860       ??0?$dgList@VdgBodyMasterListCell@@@@QAE@QAVdgMemoryAllocator@@@Z 10064860 f i physics:dgBodyMasterList.obj
 0001:000638a0       ??1?$dgList@VdgBodyMasterListCell@@@@QAE@XZ 100648a0 f i physics:dgBodyMasterList.obj
 0001:000638c0       ?SetAllocator@?$dgList@VdgBodyMasterListCell@@@@QAEXQAVdgMemoryAllocator@@@Z 100648c0 f i physics:dgBodyMasterList.obj
 0001:000638f0       ?Addtop@?$dgList@VdgBodyMasterListCell@@@@QAEPAVdgListNode@1@XZ 100648f0 f i physics:dgBodyMasterList.obj
 0001:000639b0       ?RotateToBegin@?$dgList@VdgBodyMasterListCell@@@@QAEXQAVdgListNode@1@@Z 100649b0 f i physics:dgBodyMasterList.obj
 0001:00063a20       ?InsertAfter@?$dgList@VdgBodyMasterListCell@@@@QAEXQAVdgListNode@1@0@Z 10064a20 f i physics:dgBodyMasterList.obj
 0001:00063bf0       ?Remove@?$dgList@VdgBodyMasterListCell@@@@QAEXQAVdgListNode@1@@Z 10064bf0 f i physics:dgBodyMasterList.obj
 0001:00063c40       ??0?$dgList@VdgBodyMasterListRow@@@@QAE@QAVdgMemoryAllocator@@@Z 10064c40 f i physics:dgBodyMasterList.obj
 0001:00063c80       ??1?$dgList@VdgBodyMasterListRow@@@@QAE@XZ 10064c80 f i physics:dgBodyMasterList.obj
 0001:00063ca0       ?Append@?$dgList@VdgBodyMasterListRow@@@@QAEPAVdgListNode@1@XZ 10064ca0 f i physics:dgBodyMasterList.obj
 0001:00063d60       ?RotateToBegin@?$dgList@VdgBodyMasterListRow@@@@QAEXQAVdgListNode@1@@Z 10064d60 f i physics:dgBodyMasterList.obj
 0001:00063dd0       ?Remove@?$dgList@VdgBodyMasterListRow@@@@QAEXQAVdgListNode@1@@Z 10064dd0 f i physics:dgBodyMasterList.obj
 0001:00063e20       ??_GdgListNode@?$dgList@VdgBodyMasterListCell@@@@AAEPAXI@Z 10064e20 f i physics:dgBodyMasterList.obj
 0001:00063e50       ??_GdgListNode@?$dgList@VdgBodyMasterListRow@@@@AAEPAXI@Z 10064e50 f i physics:dgBodyMasterList.obj
 0001:00063e80       ??2dgListNode@?$dgList@VdgBodyMasterListCell@@@@CAPAXIQAVdgMemoryAllocator@@@Z 10064e80 f i physics:dgBodyMasterList.obj
 0001:00063ea0       ??3dgListNode@?$dgList@VdgBodyMasterListCell@@@@CAXPAX@Z 10064ea0 f i physics:dgBodyMasterList.obj
 0001:00063ec0       ??0dgListNode@?$dgList@VdgBodyMasterListCell@@@@AAE@QAV01@0@Z 10064ec0 f i physics:dgBodyMasterList.obj
 0001:00063f50       ??1dgListNode@?$dgList@VdgBodyMasterListCell@@@@AAE@XZ 10064f50 f i physics:dgBodyMasterList.obj
 0001:00063f60       ?Unlink@dgListNode@?$dgList@VdgBodyMasterListCell@@@@AAEXXZ 10064f60 f i physics:dgBodyMasterList.obj
 0001:00063fb0       ?AddFirst@dgListNode@?$dgList@VdgBodyMasterListCell@@@@AAEXQAV12@@Z 10064fb0 f i physics:dgBodyMasterList.obj
 0001:00063fd0       ??2dgListNode@?$dgList@VdgBodyMasterListRow@@@@CAPAXIQAVdgMemoryAllocator@@@Z 10064fd0 f i physics:dgBodyMasterList.obj
 0001:00063ff0       ??3dgListNode@?$dgList@VdgBodyMasterListRow@@@@CAXPAX@Z 10064ff0 f i physics:dgBodyMasterList.obj
 0001:00064010       ??0dgListNode@?$dgList@VdgBodyMasterListRow@@@@AAE@QAV01@0@Z 10065010 f i physics:dgBodyMasterList.obj
 0001:000640a0       ??1dgListNode@?$dgList@VdgBodyMasterListRow@@@@AAE@XZ 100650a0 f i physics:dgBodyMasterList.obj
 0001:000640c0       ?AddFirst@dgListNode@?$dgList@VdgBodyMasterListRow@@@@AAEXQAV12@@Z 100650c0 f i physics:dgBodyMasterList.obj
 0001:000640e0       ?RemoveAll@?$dgList@VdgBodyMasterListCell@@@@QAEXXZ 100650e0 f i physics:dgBodyMasterList.obj
 0001:000641a0       ?Unlink@?$dgList@VdgBodyMasterListCell@@@@QAEXQAVdgListNode@1@@Z 100651a0 f i physics:dgBodyMasterList.obj
 0001:00064250       ?SanityCheck@?$dgList@VdgBodyMasterListCell@@@@QBE_NXZ 10065250 f i physics:dgBodyMasterList.obj
 0001:000643d0       ?RemoveAll@?$dgList@VdgBodyMasterListRow@@@@QAEXXZ 100653d0 f i physics:dgBodyMasterList.obj
 0001:00064490       ?Unlink@?$dgList@VdgBodyMasterListRow@@@@QAEXQAVdgListNode@1@@Z 10065490 f i physics:dgBodyMasterList.obj
 0001:00064540       ??0dgCollisionSphere@@QAE@PAVdgMemoryAllocator@@INABVdgMatrix@@@Z 10065540 f   physics:dgCollisionSphere.obj
 0001:000645a0       ??0dgCollisionSphere@@QAE@QAVdgWorld@@P6AXPAX1I@ZQAX@Z 100655a0 f   physics:dgCollisionSphere.obj
 0001:00064630       ??1dgCollisionSphere@@UAE@XZ 10065630 f   physics:dgCollisionSphere.obj
 0001:000646a0       ?Init@dgCollisionSphere@@IAEXNPAVdgMemoryAllocator@@@Z 100656a0 f   physics:dgCollisionSphere.obj
 0001:00064e10       ?SupportVertexSimd@dgCollisionSphere@@MBE?AVdgVector@@ABV2@@Z 10065e10 f   physics:dgCollisionSphere.obj
 0001:00064ea0       ?SupportVertex@dgCollisionSphere@@MBE?AVdgVector@@ABV2@@Z 10065ea0 f   physics:dgCollisionSphere.obj
 0001:00064f30       ?TesselateTriangle@dgCollisionSphere@@IBEXHABVdgVector@@00AAHPAV2@@Z 10065f30 f   physics:dgCollisionSphere.obj
 0001:000653b0       ?SetCollisionBBox@dgCollisionSphere@@MAEXABVdgVector@@0@Z 100663b0 f   physics:dgCollisionSphere.obj
 0001:000653f0       ?CalculateSignature@dgCollisionSphere@@MBEHXZ 100663f0 f   physics:dgCollisionSphere.obj
 0001:00065480       ?CalcAABB@dgCollisionSphere@@MBEXABVdgMatrix@@AAVdgVector@@1@Z 10066480 f   physics:dgCollisionSphere.obj
 0001:00065570       ?CalculatePlaneIntersection@dgCollisionSphere@@MBEHABVdgVector@@0QAV2@@Z 10066570 f   physics:dgCollisionSphere.obj
 0001:00065610       ?CalculatePlaneIntersectionSimd@dgCollisionSphere@@MBEHABVdgVector@@0QAV2@@Z 10066610 f   physics:dgCollisionSphere.obj
 0001:00065620       ?DebugCollision@dgCollisionSphere@@MBEXABVdgMatrix@@P6AXPAXHPBNH@ZQAX@Z 10066620 f   physics:dgCollisionSphere.obj
 0001:00065a30       ?GetVolume@dgCollisionPoint@@UBENXZ 10066a30 f   physics:dgCollisionSphere.obj
 0001:00065a70       ?CalculateInertia@dgCollisionPoint@@UBEXAAVdgVector@@0@Z 10066a70 f   physics:dgCollisionSphere.obj
 0001:00065ad0       ?SupportVertex@dgCollisionPoint@@UBE?AVdgVector@@ABV2@@Z 10066ad0 f   physics:dgCollisionSphere.obj
 0001:00065b10       ?SupportVertexSimd@dgCollisionPoint@@UBE?AVdgVector@@ABV2@@Z 10066b10 f   physics:dgCollisionSphere.obj
 0001:00065b70       ?RayCast@dgCollisionSphere@@MBENABVdgVector@@0AAVdgContactPoint@@P6AIQBVdgBody@@QBVdgCollision@@QAX@Z24@Z 10066b70 f   physics:dgCollisionSphere.obj
 0001:00065d70       ?RayCastSimd@dgCollisionSphere@@MBENABVdgVector@@0AAVdgContactPoint@@P6AIQBVdgBody@@QBVdgCollision@@QAX@Z24@Z 10066d70 f   physics:dgCollisionSphere.obj
 0001:00065db0       ?CalculateMassProperties@dgCollisionSphere@@MBENAAVdgVector@@00@Z 10066db0 f   physics:dgCollisionSphere.obj
 0001:00065f00       ?GetCollisionInfo@dgCollisionSphere@@MBEXPAVdgCollisionInfo@@@Z 10066f00 f   physics:dgCollisionSphere.obj
 0001:00065f80       ?Serialize@dgCollisionSphere@@MBEXP6AXPAXPBXI@ZQAX@Z 10066f80 f   physics:dgCollisionSphere.obj
 0001:00066010       ??_EdgCollisionSphere@@UAEPAXI@Z 10067010 f i physics:dgCollisionSphere.obj
 0001:00066010       ??_GdgCollisionSphere@@UAEPAXI@Z 10067010 f i physics:dgCollisionSphere.obj
 0001:00066040       ??0dgConvexCollision@@IAE@QAVdgMemoryAllocator@@IABVdgMatrix@@W4dgCollisionID@@@Z 10067040 f   physics:dgConvexCollision.obj
 0001:00066200       ??0dgConvexCollision@@IAE@QAVdgWorld@@P6AXPAX1I@ZQAX@Z 10067200 f   physics:dgConvexCollision.obj
 0001:00066390       ??1dgConvexCollision@@MAE@XZ 10067390 f   physics:dgConvexCollision.obj
 0001:00066400       ?SerializeLow@dgConvexCollision@@MBEXP6AXPAXPBXI@ZQAX@Z 10067400 f   physics:dgConvexCollision.obj
 0001:00066450       ?GetUserData@dgConvexCollision@@MBEPAXXZ 10067450 f   physics:dgConvexCollision.obj
 0001:00066470       ?SetUserData@dgConvexCollision@@MAEXQAX@Z 10067470 f   physics:dgConvexCollision.obj
 0001:00066490       ?SetVolumeAndCG@dgConvexCollision@@IAEXXZ 10067490 f   physics:dgConvexCollision.obj
 0001:00066c70       ?GetDiscretedAngleStep@dgConvexCollision@@IBENN@Z 10067c70 f   physics:dgConvexCollision.obj
 0001:00066cd0       ?SanityCheck@dgConvexCollision@@IBE_NAAVdgPolyhedra@@@Z 10067cd0 f   physics:dgConvexCollision.obj
 0001:00066e90       ?DebugCollision@dgConvexCollision@@MBEXABVdgMatrix@@P6AXPAXHPBNH@ZQAX@Z 10067e90 f   physics:dgConvexCollision.obj
 0001:00067080       ?CalcAABB@dgConvexCollision@@UBEXABVdgMatrix@@AAVdgVector@@1@Z 10068080 f   physics:dgConvexCollision.obj
 0001:00067310       ?CalcAABBSimd@dgConvexCollision@@UBEXABVdgMatrix@@AAVdgVector@@1@Z 10068310 f   physics:dgConvexCollision.obj
 0001:00067320       ?GetSupportEdge@dgConvexCollision@@IBEPAVdgConvexSimplexEdge@@ABVdgVector@@@Z 10068320 f   physics:dgConvexCollision.obj
 0001:00067410       ?CalculateInertia@dgConvexCollision@@CAXPAXHPBNH@Z 10068410 f   physics:dgConvexCollision.obj
 0001:00067430       ?CalculateMassProperties@dgConvexCollision@@MBENAAVdgVector@@00@Z 10068430 f   physics:dgConvexCollision.obj
 0001:00067480       ?CalculateInertia@dgConvexCollision@@EBEXAAVdgVector@@0@Z 10068480 f   physics:dgConvexCollision.obj
 0001:00067750       ?GetVolume@dgConvexCollision@@EBENXZ 10068750 f   physics:dgConvexCollision.obj
 0001:000677f0       ?GetBoxMinRadius@dgConvexCollision@@EBENXZ 100687f0 f   physics:dgConvexCollision.obj
 0001:00067810       ?GetBoxMaxRadius@dgConvexCollision@@EBENXZ 10068810 f   physics:dgConvexCollision.obj
 0001:00067830       ?RayCastClosestFace@dgConvexCollision@@ABEHPAVdgVector@@ABV2@AAN@Z 10068830 f   physics:dgConvexCollision.obj
 0001:00067e20       ?RayHitBox@dgConvexCollision@@ABE_NABVdgVector@@0@Z 10068e20 f   physics:dgConvexCollision.obj
 0001:00068090       ?CalculateVolumeIntegral@dgConvexCollision@@EBE?AVdgVector@@ABVdgMatrix@@P6AIPAX10AAVdgPlane@@@ZQAX@Z 10069090 f   physics:dgConvexCollision.obj
 0001:00068190       ?CalculateVolumeIntegral@dgConvexCollision@@IBE?AVdgVector@@ABVdgPlane@@@Z 10069190 f   physics:dgConvexCollision.obj
 0001:000689b0       ?SupportVertex@dgConvexCollision@@UBE?AVdgVector@@ABV2@@Z 100699b0 f   physics:dgConvexCollision.obj
 0001:00068c00       ?SupportVertexSimd@dgConvexCollision@@UBE?AVdgVector@@ABV2@@Z 10069c00 f   physics:dgConvexCollision.obj
 0001:00068c40       ?SanityCheck@dgConvexCollision@@IBE_NHABVdgVector@@QAV2@@Z 10069c40 f   physics:dgConvexCollision.obj
 0001:00069000       ?SimplifyClipPolygon@dgConvexCollision@@ABEHHABVdgVector@@QAV2@@Z 1006a000 f   physics:dgConvexCollision.obj
 0001:00069340       ?RectifyConvexSlice@dgConvexCollision@@IBEHHABVdgVector@@QAV2@@Z 1006a340 f   physics:dgConvexCollision.obj
 0001:00069870       ?CalculatePlaneIntersectionSimd@dgConvexCollision@@UBEHABVdgVector@@0QAV2@@Z 1006a870 f   physics:dgConvexCollision.obj
 0001:00069880       ?CalculatePlaneIntersection@dgConvexCollision@@UBEHABVdgVector@@0QAV2@@Z 1006a880 f   physics:dgConvexCollision.obj
 0001:0006a1b0       ?RayCast@dgConvexCollision@@UBENABVdgVector@@0AAVdgContactPoint@@P6AIQBVdgBody@@QBVdgCollision@@QAX@Z24@Z 1006b1b0 f   physics:dgConvexCollision.obj
 0001:0006af90       ?RayCastSimd@dgConvexCollision@@UBENABVdgVector@@0AAVdgContactPoint@@P6AIQBVdgBody@@QBVdgCollision@@QAX@Z24@Z 1006bf90 f   physics:dgConvexCollision.obj
 0001:0006afd0       ?IsTriggerVolume@dgConvexCollision@@UBE_NXZ 1006bfd0 f   physics:dgConvexCollision.obj
 0001:0006aff0       ?SetAsTriggerVolume@dgConvexCollision@@MAEX_N@Z 1006bff0 f   physics:dgConvexCollision.obj
 0001:0006b020       ?OOBBTest@dgConvexCollision@@UBE_NABVdgMatrix@@QBV1@QAX@Z 1006c020 f   physics:dgConvexCollision.obj
 0001:0006b1d0       ??_EdgConvexCollision@@MAEPAXI@Z 1006c1d0 f i physics:dgConvexCollision.obj
 0001:0006b1d0       ??_GdgConvexCollision@@MAEPAXI@Z 1006c1d0 f i physics:dgConvexCollision.obj
 0001:0006b200       ?UntransformPlane@dgMatrix@@QBE?AVdgPlane@@ABV2@@Z 1006c200 f i physics:dgConvexCollision.obj
 0001:0006b260       ??1?$dgUpHeap@HN@@QAE@XZ   1006c260 f i physics:dgConvexCollision.obj
 0001:0006b280       ??$GetMin@N@@YANNNN@Z      1006c280 f i physics:dgConvexCollision.obj
 0001:0006b2c0       ??$Swap@VdgVector@@@@YAXAAVdgVector@@0@Z 1006c2c0 f i physics:dgConvexCollision.obj
 0001:0006b310       ??1?$dgHeapBase@HN@@IAE@XZ 1006c310 f i physics:dgConvexCollision.obj
 0001:0006b340       ?Flush@?$dgHeapBase@HN@@QAEXXZ 1006c340 f i physics:dgConvexCollision.obj
 0001:0006b360       ?GetCount@?$dgHeapBase@HN@@QBEHXZ 1006c360 f i physics:dgConvexCollision.obj
 0001:0006b370       ??A?$dgHeapBase@HN@@QBEABHH@Z 1006c370 f i physics:dgConvexCollision.obj
 0001:0006b3c0       ??0?$dgUpHeap@HN@@QAE@QBXH@Z 1006c3c0 f i physics:dgConvexCollision.obj
 0001:0006b3e0       ?Pop@?$dgUpHeap@HN@@QAEXXZ 1006c3e0 f i physics:dgConvexCollision.obj
 0001:0006b510       ?Push@?$dgUpHeap@HN@@QAEXAAHN@Z 1006c510 f i physics:dgConvexCollision.obj
 0001:0006b630       ??0?$dgHeapBase@HN@@IAE@QBXH@Z 1006c630 f i physics:dgConvexCollision.obj
 0001:0006b670       ??0dgCollisionNull@@QAE@QAVdgMemoryAllocator@@I@Z 1006c670 f   physics:dgCollisionNull.obj
 0001:0006b6c0       ??0dgCollisionNull@@QAE@QAVdgWorld@@P6AXPAX1I@ZQAX@Z 1006c6c0 f   physics:dgCollisionNull.obj
 0001:0006b710       ?Serialize@dgCollisionNull@@EBEXP6AXPAXPBXI@ZQAX@Z 1006c710 f   physics:dgCollisionNull.obj
 0001:0006b740       ??1dgCollisionNull@@UAE@XZ 1006c740 f   physics:dgCollisionNull.obj
 0001:0006b760       ?SetCollisionBBox@dgCollisionNull@@EAEXABVdgVector@@0@Z 1006c760 f   physics:dgCollisionNull.obj
 0001:0006b790       ?DebugCollision@dgCollisionNull@@MBEXABVdgMatrix@@P6AXPAXHPBNH@ZQAX@Z 1006c790 f   physics:dgCollisionNull.obj
 0001:0006b7a0       ?CalculateSignature@dgCollisionNull@@EBEHXZ 1006c7a0 f   physics:dgCollisionNull.obj
 0001:0006b7c0       ?CalcAABB@dgCollisionNull@@MBEXABVdgMatrix@@AAVdgVector@@1@Z 1006c7c0 f   physics:dgCollisionNull.obj
 0001:0006b880       ?CalcAABBSimd@dgCollisionNull@@MBEXABVdgMatrix@@AAVdgVector@@1@Z 1006c880 f   physics:dgCollisionNull.obj
 0001:0006b8b0       ?SupportVertex@dgCollisionNull@@MBE?AVdgVector@@ABV2@@Z 1006c8b0 f   physics:dgCollisionNull.obj
 0001:0006b910       ?SupportVertexSimd@dgCollisionNull@@MBE?AVdgVector@@ABV2@@Z 1006c910 f   physics:dgCollisionNull.obj
 0001:0006b970       ?GetVolume@dgCollisionNull@@MBENXZ 1006c970 f   physics:dgCollisionNull.obj
 0001:0006b980       ?RayCast@dgCollisionNull@@MBENABVdgVector@@0AAVdgContactPoint@@P6AIQBVdgBody@@QBVdgCollision@@QAX@Z24@Z 1006c980 f   physics:dgCollisionNull.obj
 0001:0006b9a0       ?RayCastSimd@dgCollisionNull@@MBENABVdgVector@@0AAVdgContactPoint@@P6AIQBVdgBody@@QBVdgCollision@@QAX@Z24@Z 1006c9a0 f   physics:dgCollisionNull.obj
 0001:0006b9c0       ?CalculateVolumeIntegral@dgCollisionNull@@MBE?AVdgVector@@ABVdgMatrix@@P6AIPAX10AAVdgPlane@@@ZQAX@Z 1006c9c0 f   physics:dgCollisionNull.obj
 0001:0006ba20       ?CalculateInertia@dgCollisionNull@@MBEXAAVdgVector@@0@Z 1006ca20 f   physics:dgCollisionNull.obj
 0001:0006ba60       ??_GdgCollisionNull@@UAEPAXI@Z 1006ca60 f i physics:dgCollisionNull.obj
 0001:0006ba60       ??_EdgCollisionNull@@UAEPAXI@Z 1006ca60 f i physics:dgCollisionNull.obj
 0001:0006ba90       ??0dgCollisionBox@@QAE@QAVdgMemoryAllocator@@INNNABVdgMatrix@@@Z 1006ca90 f   physics:dgCollisionBox.obj
 0001:0006bb40       ??0dgCollisionBox@@QAE@QAVdgWorld@@P6AXPAX1I@ZQAX@Z 1006cb40 f   physics:dgCollisionBox.obj
 0001:0006bc20       ?Init@dgCollisionBox@@IAEXNNN@Z 1006cc20 f   physics:dgCollisionBox.obj
 0001:0006c210       ??1dgCollisionBox@@UAE@XZ  1006d210 f   physics:dgCollisionBox.obj
 0001:0006c250       ?SetCollisionBBox@dgCollisionBox@@MAEXABVdgVector@@0@Z 1006d250 f   physics:dgCollisionBox.obj
 0001:0006c280       ?CalculateSignature@dgCollisionBox@@MBEHXZ 1006d280 f   physics:dgCollisionBox.obj
 0001:0006c350       ?SupportVertexSimd@dgCollisionBox@@MBE?AVdgVector@@ABV2@@Z 1006d350 f   physics:dgCollisionBox.obj
 0001:0006c390       ?SupportVertex@dgCollisionBox@@MBE?AVdgVector@@ABV2@@Z 1006d390 f   physics:dgCollisionBox.obj
 0001:0006c480       ?CalcAABB@dgCollisionBox@@MBEXABVdgMatrix@@AAVdgVector@@1@Z 1006d480 f   physics:dgCollisionBox.obj
 0001:0006c720       ?CalcAABBSimd@dgCollisionBox@@MBEXABVdgMatrix@@AAVdgVector@@1@Z 1006d720 f   physics:dgCollisionBox.obj
 0001:0006c730       ?RayCast@dgCollisionBox@@MBENABVdgVector@@0AAVdgContactPoint@@P6AIQBVdgBody@@QBVdgCollision@@QAX@Z24@Z 1006d730 f   physics:dgCollisionBox.obj
 0001:0006c9e0       ?RayCastSimd@dgCollisionBox@@MBENABVdgVector@@0AAVdgContactPoint@@P6AIQBVdgBody@@QBVdgCollision@@QAX@Z24@Z 1006d9e0 f   physics:dgCollisionBox.obj
 0001:0006ca20       ?CalculateMassProperties@dgCollisionBox@@MBENAAVdgVector@@00@Z 1006da20 f   physics:dgCollisionBox.obj
 0001:0006cd70       ?SetBreakImpulse@dgCollisionBox@@MAEXN@Z 1006dd70 f   physics:dgCollisionBox.obj
 0001:0006cd90       ?GetBreakImpulse@dgCollisionBox@@MBENXZ 1006dd90 f   physics:dgCollisionBox.obj
 0001:0006cdb0       ?CalculatePlaneIntersection@dgCollisionBox@@MBEHABVdgVector@@0QAV2@@Z 1006ddb0 f   physics:dgCollisionBox.obj
 0001:0006d280       ?CalculatePlaneIntersectionSimd@dgCollisionBox@@MBEHABVdgVector@@0QAV2@@Z 1006e280 f   physics:dgCollisionBox.obj
 0001:0006d290       ?GetCollisionInfo@dgCollisionBox@@MBEXPAVdgCollisionInfo@@@Z 1006e290 f   physics:dgCollisionBox.obj
 0001:0006d310       ?Serialize@dgCollisionBox@@MBEXP6AXPAXPBXI@ZQAX@Z 1006e310 f   physics:dgCollisionBox.obj
 0001:0006d390       ??_GdgCollisionBox@@UAEPAXI@Z 1006e390 f i physics:dgCollisionBox.obj
 0001:0006d390       ??_EdgCollisionBox@@UAEPAXI@Z 1006e390 f i physics:dgCollisionBox.obj
 0001:0006d3c0       ??0dgCollision@@IAE@QAVdgMemoryAllocator@@IABVdgMatrix@@W4dgCollisionID@@@Z 1006e3c0 f   physics:dgCollision.obj
 0001:0006d440       ??0dgCollision@@IAE@QAVdgWorld@@P6AXPAX1I@ZQAX@Z 1006e440 f   physics:dgCollision.obj
 0001:0006d4e0       ??1dgCollision@@MAE@XZ     1006e4e0 f   physics:dgCollision.obj
 0001:0006d500       ?Quantize@dgCollision@@SAIN@Z 1006e500 f   physics:dgCollision.obj
 0001:0006d530       ?MakeCRC@dgCollision@@SAIPAXH@Z 1006e530 f   physics:dgCollision.obj
 0001:0006d550       ?SetOffsetMatrix@dgCollision@@QAEXABVdgMatrix@@@Z 1006e550 f   physics:dgCollision.obj
 0001:0006d660       ?GetUserData@dgCollision@@UBEPAXXZ 1006e660 f   physics:dgCollision.obj
 0001:0006d670       ?SetUserData@dgCollision@@UAEXQAX@Z 1006e670 f   physics:dgCollision.obj
 0001:0006d680       ?GetCollisionInfo@dgCollision@@UBEXPAVdgCollisionInfo@@@Z 1006e680 f   physics:dgCollision.obj
 0001:0006d6e0       ?SerializeLow@dgCollision@@UBEXP6AXPAXPBXI@ZQAX@Z 1006e6e0 f   physics:dgCollision.obj
 0001:0006d740       ?RayCastSimd@dgCollision@@UBENABVdgVector@@0AAVdgContactPoint@@P6AIQBVdgBody@@QBV1@QAX@Z24@Z 1006e740 f i physics:dgCollision.obj
 0001:0006d780       ??_EdgCollision@@MAEPAXI@Z 1006e780 f i physics:dgCollision.obj
 0001:0006d780       ??_GdgCollision@@MAEPAXI@Z 1006e780 f i physics:dgCollision.obj
 0001:0006d7b0       ??0dgCollisionEllipse@@QAE@QAVdgMemoryAllocator@@INNNABVdgMatrix@@@Z 1006e7b0 f   physics:dgCollisionEllipse.obj
 0001:0006d870       ??0dgCollisionEllipse@@QAE@QAVdgWorld@@P6AXPAX1I@ZQAX@Z 1006e870 f   physics:dgCollisionEllipse.obj
 0001:0006d950       ??1dgCollisionEllipse@@UAE@XZ 1006e950 f   physics:dgCollisionEllipse.obj
 0001:0006d970       ?CalculateSignature@dgCollisionEllipse@@EBEHXZ 1006e970 f   physics:dgCollisionEllipse.obj
 0001:0006da40       ?SetCollisionBBox@dgCollisionEllipse@@EAEXABVdgVector@@0@Z 1006ea40 f   physics:dgCollisionEllipse.obj
 0001:0006da70       ?CalcAABB@dgCollisionEllipse@@MBEXABVdgMatrix@@AAVdgVector@@1@Z 1006ea70 f   physics:dgCollisionEllipse.obj
 0001:0006db80       ?CalcAABBSimd@dgCollisionEllipse@@MBEXABVdgMatrix@@AAVdgVector@@1@Z 1006eb80 f   physics:dgCollisionEllipse.obj
 0001:0006dc90       ?SupportVertex@dgCollisionEllipse@@MBE?AVdgVector@@ABV2@@Z 1006ec90 f   physics:dgCollisionEllipse.obj
 0001:0006ddf0       ?SupportVertexSimd@dgCollisionEllipse@@MBE?AVdgVector@@ABV2@@Z 1006edf0 f   physics:dgCollisionEllipse.obj
 0001:0006de30       ?CalculatePlaneIntersection@dgCollisionEllipse@@EBEHABVdgVector@@0QAV2@@Z 1006ee30 f   physics:dgCollisionEllipse.obj
 0001:0006df90       ?CalculatePlaneIntersectionSimd@dgCollisionEllipse@@EBEHABVdgVector@@0QAV2@@Z 1006ef90 f   physics:dgCollisionEllipse.obj
 0001:0006dfa0       ?DebugCollision@dgCollisionEllipse@@MBEXABVdgMatrix@@P6AXPAXHPBNH@ZQAX@Z 1006efa0 f   physics:dgCollisionEllipse.obj
 0001:0006e0f0       ?RayCast@dgCollisionEllipse@@MBENABVdgVector@@0AAVdgContactPoint@@P6AIQBVdgBody@@QBVdgCollision@@QAX@Z24@Z 1006f0f0 f   physics:dgCollisionEllipse.obj
 0001:0006e200       ?RayCastSimd@dgCollisionEllipse@@MBENABVdgVector@@0AAVdgContactPoint@@P6AIQBVdgBody@@QBVdgCollision@@QAX@Z24@Z 1006f200 f   physics:dgCollisionEllipse.obj
 0001:0006e310       ?CalculateMassProperties@dgCollisionEllipse@@EBENAAVdgVector@@00@Z 1006f310 f   physics:dgCollisionEllipse.obj
 0001:0006e340       ?GetCollisionInfo@dgCollisionEllipse@@EBEXPAVdgCollisionInfo@@@Z 1006f340 f   physics:dgCollisionEllipse.obj
 0001:0006e3c0       ?Serialize@dgCollisionEllipse@@EBEXP6AXPAXPBXI@ZQAX@Z 1006f3c0 f   physics:dgCollisionEllipse.obj
 0001:0006e400       ??_EdgCollisionEllipse@@UAEPAXI@Z 1006f400 f i physics:dgCollisionEllipse.obj
 0001:0006e400       ??_GdgCollisionEllipse@@UAEPAXI@Z 1006f400 f i physics:dgCollisionEllipse.obj
 0001:0006e430       ??0dgCollisionCapsule@@QAE@QAVdgMemoryAllocator@@INNABVdgMatrix@@@Z 1006f430 f   physics:dgCollisionCapsule.obj
 0001:0006e4b0       ??0dgCollisionCapsule@@QAE@QAVdgWorld@@P6AXPAX1I@ZQAX@Z 1006f4b0 f   physics:dgCollisionCapsule.obj
 0001:0006e560       ??1dgCollisionCapsule@@UAE@XZ 1006f560 f   physics:dgCollisionCapsule.obj
 0001:0006e5d0       ?Init@dgCollisionCapsule@@AAEXNN@Z 1006f5d0 f   physics:dgCollisionCapsule.obj
 0001:0006ee50       ?CalculateSignature@dgCollisionCapsule@@EBEHXZ 1006fe50 f   physics:dgCollisionCapsule.obj
 0001:0006ef00       ?TesselateTriangle@dgCollisionCapsule@@ABEXHNABVdgVector@@00AAHPAV2@@Z 1006ff00 f   physics:dgCollisionCapsule.obj
 0001:0006f480       ?DebugCollision@dgCollisionCapsule@@EBEXABVdgMatrix@@P6AXPAXHPBNH@ZQAX@Z 10070480 f   physics:dgCollisionCapsule.obj
 0001:0006fb10       ?SetCollisionBBox@dgCollisionCapsule@@EAEXABVdgVector@@0@Z 10070b10 f   physics:dgCollisionCapsule.obj
 0001:0006fb50       ?SupportVertexSimd@dgCollisionCapsule@@EBE?AVdgVector@@ABV2@@Z 10070b50 f   physics:dgCollisionCapsule.obj
 0001:0006fb90       ?SupportVertex@dgCollisionCapsule@@EBE?AVdgVector@@ABV2@@Z 10070b90 f   physics:dgCollisionCapsule.obj
 0001:0006fc70       ?RayCast@dgCollisionCapsule@@EBENABVdgVector@@0AAVdgContactPoint@@P6AIQBVdgBody@@QBVdgCollision@@QAX@Z24@Z 10070c70 f   physics:dgCollisionCapsule.obj
 0001:00070890       ?RayCastSimd@dgCollisionCapsule@@EBENABVdgVector@@0AAVdgContactPoint@@P6AIQBVdgBody@@QBVdgCollision@@QAX@Z24@Z 10071890 f   physics:dgCollisionCapsule.obj
 0001:000708d0       ?CalculateMassProperties@dgCollisionCapsule@@EBENAAVdgVector@@00@Z 100718d0 f   physics:dgCollisionCapsule.obj
 0001:00070c20       ?CalculatePlaneIntersectionSimd@dgCollisionCapsule@@EBEHABVdgVector@@0QAV2@@Z 10071c20 f   physics:dgCollisionCapsule.obj
 0001:00070c30       ?CalculatePlaneIntersection@dgCollisionCapsule@@EBEHABVdgVector@@0QAV2@@Z 10071c30 f   physics:dgCollisionCapsule.obj
 0001:000718c0       ?GetCollisionInfo@dgCollisionCapsule@@EBEXPAVdgCollisionInfo@@@Z 100728c0 f   physics:dgCollisionCapsule.obj
 0001:00071950       ?Serialize@dgCollisionCapsule@@EBEXP6AXPAXPBXI@ZQAX@Z 10072950 f   physics:dgCollisionCapsule.obj
 0001:000719e0       ??_GdgCollisionCapsule@@UAEPAXI@Z 100729e0 f i physics:dgCollisionCapsule.obj
 0001:000719e0       ??_EdgCollisionCapsule@@UAEPAXI@Z 100729e0 f i physics:dgCollisionCapsule.obj
 0001:00071a10       ??0dgCollisionCone@@QAE@QAVdgMemoryAllocator@@INNABVdgMatrix@@@Z 10072a10 f   physics:dgCollisionCone.obj
 0001:00071a80       ??0dgCollisionCone@@QAE@QAVdgWorld@@P6AXPAX1I@ZQAX@Z 10072a80 f   physics:dgCollisionCone.obj
 0001:00071b10       ??1dgCollisionCone@@UAE@XZ 10072b10 f   physics:dgCollisionCone.obj
 0001:00071b80       ?Init@dgCollisionCone@@AAEXNN@Z 10072b80 f   physics:dgCollisionCone.obj
 0001:000720a0       ?CalculateSignature@dgCollisionCone@@EBEHXZ 100730a0 f   physics:dgCollisionCone.obj
 0001:00072150       ?DebugCollision@dgCollisionCone@@EBEXABVdgMatrix@@P6AXPAXHPBNH@ZQAX@Z 10073150 f   physics:dgCollisionCone.obj
 0001:00072400       ?SetCollisionBBox@dgCollisionCone@@EAEXABVdgVector@@0@Z 10073400 f   physics:dgCollisionCone.obj
 0001:00072440       ?SupportVertexSimd@dgCollisionCone@@EBE?AVdgVector@@ABV2@@Z 10073440 f   physics:dgCollisionCone.obj
 0001:00072470       ?SupportVertex@dgCollisionCone@@EBE?AVdgVector@@ABV2@@Z 10073470 f   physics:dgCollisionCone.obj
 0001:000725d0       ?CalculateMassProperties@dgCollisionCone@@EBENAAVdgVector@@00@Z 100735d0 f   physics:dgCollisionCone.obj
 0001:000728f0       ?CalculatePlaneIntersection@dgCollisionCone@@EBEHABVdgVector@@0QAV2@@Z 100738f0 f   physics:dgCollisionCone.obj
 0001:00072b10       ?CalculatePlaneIntersectionSimd@dgCollisionCone@@EBEHABVdgVector@@0QAV2@@Z 10073b10 f   physics:dgCollisionCone.obj
 0001:00072b20       ?GetCollisionInfo@dgCollisionCone@@EBEXPAVdgCollisionInfo@@@Z 10073b20 f   physics:dgCollisionCone.obj
 0001:00072b90       ?Serialize@dgCollisionCone@@EBEXP6AXPAXPBXI@ZQAX@Z 10073b90 f   physics:dgCollisionCone.obj
 0001:00072c20       ??_GdgCollisionCone@@UAEPAXI@Z 10073c20 f i physics:dgCollisionCone.obj
 0001:00072c20       ??_EdgCollisionCone@@UAEPAXI@Z 10073c20 f i physics:dgCollisionCone.obj
 0001:00072c50       ??0dgCollisionCylinder@@QAE@QAVdgMemoryAllocator@@INNABVdgMatrix@@@Z 10073c50 f   physics:dgCollisionCylinder.obj
 0001:00072cc0       ??0dgCollisionCylinder@@QAE@QAVdgWorld@@P6AXPAX1I@ZQAX@Z 10073cc0 f   physics:dgCollisionCylinder.obj
 0001:00072d50       ?Init@dgCollisionCylinder@@AAEXNN@Z 10073d50 f   physics:dgCollisionCylinder.obj
 0001:00073290       ??1dgCollisionCylinder@@UAE@XZ 10074290 f   physics:dgCollisionCylinder.obj
 0001:00073300       ?CalculateSignature@dgCollisionCylinder@@EBEHXZ 10074300 f   physics:dgCollisionCylinder.obj
 0001:000733b0       ?SetCollisionBBox@dgCollisionCylinder@@EAEXABVdgVector@@0@Z 100743b0 f   physics:dgCollisionCylinder.obj
 0001:000733f0       ?DebugCollision@dgCollisionCylinder@@EBEXABVdgMatrix@@P6AXPAXHPBNH@ZQAX@Z 100743f0 f   physics:dgCollisionCylinder.obj
 0001:00073770       ?SupportVertexSimd@dgCollisionCylinder@@EBE?AVdgVector@@ABV2@@Z 10074770 f   physics:dgCollisionCylinder.obj
 0001:000737a0       ?SupportVertex@dgCollisionCylinder@@EBE?AVdgVector@@ABV2@@Z 100747a0 f   physics:dgCollisionCylinder.obj
 0001:000738d0       ?CalculateMassProperties@dgCollisionCylinder@@EBENAAVdgVector@@00@Z 100748d0 f   physics:dgCollisionCylinder.obj
 0001:00073bb0       ?CalculatePlaneIntersection@dgCollisionCylinder@@EBEHABVdgVector@@0QAV2@@Z 10074bb0 f   physics:dgCollisionCylinder.obj
 0001:00073dd0       ?CalculatePlaneIntersectionSimd@dgCollisionCylinder@@EBEHABVdgVector@@0QAV2@@Z 10074dd0 f   physics:dgCollisionCylinder.obj
 0001:00073de0       ?RayCast@dgCollisionCylinder@@EBENABVdgVector@@0AAVdgContactPoint@@P6AIQBVdgBody@@QBVdgCollision@@QAX@Z24@Z 10074de0 f   physics:dgCollisionCylinder.obj
 0001:00074540       ?RayCastSimd@dgCollisionCylinder@@EBENABVdgVector@@0AAVdgContactPoint@@P6AIQBVdgBody@@QBVdgCollision@@QAX@Z24@Z 10075540 f   physics:dgCollisionCylinder.obj
 0001:00074580       ?GetCollisionInfo@dgCollisionCylinder@@EBEXPAVdgCollisionInfo@@@Z 10075580 f   physics:dgCollisionCylinder.obj
 0001:00074600       ?Serialize@dgCollisionCylinder@@EBEXP6AXPAXPBXI@ZQAX@Z 10075600 f   physics:dgCollisionCylinder.obj
 0001:00074690       ??_GdgCollisionCylinder@@UAEPAXI@Z 10075690 f i physics:dgCollisionCylinder.obj
 0001:00074690       ??_EdgCollisionCylinder@@UAEPAXI@Z 10075690 f i physics:dgCollisionCylinder.obj
 0001:000746c0       ??0dgCollisionChamferCylinder@@QAE@QAVdgMemoryAllocator@@INNABVdgMatrix@@@Z 100756c0 f   physics:dgCollisionChamferCylinder.obj
 0001:00074740       ??0dgCollisionChamferCylinder@@QAE@QAVdgWorld@@P6AXPAX1I@ZQAX@Z 10075740 f   physics:dgCollisionChamferCylinder.obj
 0001:000747f0       ??1dgCollisionChamferCylinder@@UAE@XZ 100757f0 f   physics:dgCollisionChamferCylinder.obj
 0001:00074860       ?Init@dgCollisionChamferCylinder@@IAEXNN@Z 10075860 f   physics:dgCollisionChamferCylinder.obj
 0001:00075050       ?DebugCollision@dgCollisionChamferCylinder@@MBEXABVdgMatrix@@P6AXPAXHPBNH@ZQAX@Z 10076050 f   physics:dgCollisionChamferCylinder.obj
 0001:00075530       ?CalculateSignature@dgCollisionChamferCylinder@@MBEHXZ 10076530 f   physics:dgCollisionChamferCylinder.obj
 0001:000755e0       ?SetCollisionBBox@dgCollisionChamferCylinder@@MAEXABVdgVector@@0@Z 100765e0 f   physics:dgCollisionChamferCylinder.obj
 0001:00075620       ?SupportVertexSimd@dgCollisionChamferCylinder@@MBE?AVdgVector@@ABV2@@Z 10076620 f   physics:dgCollisionChamferCylinder.obj
 0001:00075650       ?SupportVertex@dgCollisionChamferCylinder@@MBE?AVdgVector@@ABV2@@Z 10076650 f   physics:dgCollisionChamferCylinder.obj
 0001:00075860       ?RayCast@dgCollisionChamferCylinder@@MBENABVdgVector@@0AAVdgContactPoint@@P6AIQBVdgBody@@QBVdgCollision@@QAX@Z24@Z 10076860 f   physics:dgCollisionChamferCylinder.obj
 0001:00075ad0       ?RayCastSimd@dgCollisionChamferCylinder@@MBENABVdgVector@@0AAVdgContactPoint@@P6AIQBVdgBody@@QBVdgCollision@@QAX@Z24@Z 10076ad0 f   physics:dgCollisionChamferCylinder.obj
 0001:00075d40       ?CalculatePlaneIntersectionSimd@dgCollisionChamferCylinder@@MBEHABVdgVector@@0QAV2@@Z 10076d40 f   physics:dgCollisionChamferCylinder.obj
 0001:00075d70       ?CalculatePlaneIntersection@dgCollisionChamferCylinder@@MBEHABVdgVector@@0QAV2@@Z 10076d70 f   physics:dgCollisionChamferCylinder.obj
 0001:000769b0       ?GetCollisionInfo@dgCollisionChamferCylinder@@MBEXPAVdgCollisionInfo@@@Z 100779b0 f   physics:dgCollisionChamferCylinder.obj
 0001:00076a30       ?Serialize@dgCollisionChamferCylinder@@MBEXP6AXPAXPBXI@ZQAX@Z 10077a30 f   physics:dgCollisionChamferCylinder.obj
 0001:00076ac0       ??_EdgCollisionChamferCylinder@@UAEPAXI@Z 10077ac0 f i physics:dgCollisionChamferCylinder.obj
 0001:00076ac0       ??_GdgCollisionChamferCylinder@@UAEPAXI@Z 10077ac0 f i physics:dgCollisionChamferCylinder.obj
 0001:00076af0       ??0dgCollisionConvexModifier@@QAE@PAVdgConvexCollision@@PAVdgWorld@@@Z 10077af0 f   physics:dgCollisionConvexModifier.obj
 0001:00076be0       ??0dgCollisionConvexModifier@@QAE@QAVdgWorld@@P6AXPAX1I@ZQAX@Z 10077be0 f   physics:dgCollisionConvexModifier.obj
 0001:00076d00       ??1dgCollisionConvexModifier@@UAE@XZ 10077d00 f   physics:dgCollisionConvexModifier.obj
 0001:00076d40       ?ModifierGetMatrix@dgCollisionConvexModifier@@UBE?AVdgMatrix@@XZ 10077d40 f   physics:dgCollisionConvexModifier.obj
 0001:00076db0       ?GetBoxMinRadius@dgCollisionConvexModifier@@EBENXZ 10077db0 f   physics:dgCollisionConvexModifier.obj
 0001:00076de0       ?GetBoxMaxRadius@dgCollisionConvexModifier@@EBENXZ 10077de0 f   physics:dgCollisionConvexModifier.obj
 0001:00076e10       ?ModifierSetMatrix@dgCollisionConvexModifier@@UAEXABVdgMatrix@@@Z 10077e10 f   physics:dgCollisionConvexModifier.obj
 0001:00077460       ?CalculateSignature@dgCollisionConvexModifier@@EBEHXZ 10078460 f   physics:dgCollisionConvexModifier.obj
 0001:00077470       ?SetCollisionBBox@dgCollisionConvexModifier@@EAEXABVdgVector@@0@Z 10078470 f   physics:dgCollisionConvexModifier.obj
 0001:000774b0       ?CalcAABB@dgCollisionConvexModifier@@MBEXABVdgMatrix@@AAVdgVector@@1@Z 100784b0 f   physics:dgCollisionConvexModifier.obj
 0001:00077650       ?CalcAABBSimd@dgCollisionConvexModifier@@MBEXABVdgMatrix@@AAVdgVector@@1@Z 10078650 f   physics:dgCollisionConvexModifier.obj
 0001:00077660       ?SupportVertex@dgCollisionConvexModifier@@MBE?AVdgVector@@ABV2@@Z 10078660 f   physics:dgCollisionConvexModifier.obj
 0001:000777c0       ?SupportVertexSimd@dgCollisionConvexModifier@@MBE?AVdgVector@@ABV2@@Z 100787c0 f   physics:dgCollisionConvexModifier.obj
 0001:00077800       ?CalculatePlaneIntersection@dgCollisionConvexModifier@@EBEHABVdgVector@@0QAV2@@Z 10078800 f   physics:dgCollisionConvexModifier.obj
 0001:00077940       ?CalculatePlaneIntersectionSimd@dgCollisionConvexModifier@@EBEHABVdgVector@@0QAV2@@Z 10078940 f   physics:dgCollisionConvexModifier.obj
 0001:00077970       ?DebugCollision@dgCollisionConvexModifier@@MBEXABVdgMatrix@@P6AXPAXHPBNH@ZQAX@Z 10078970 f   physics:dgCollisionConvexModifier.obj
 0001:00077a20       ?RayCast@dgCollisionConvexModifier@@MBENABVdgVector@@0AAVdgContactPoint@@P6AIQBVdgBody@@QBVdgCollision@@QAX@Z24@Z 10078a20 f   physics:dgCollisionConvexModifier.obj
 0001:00077b60       ?RayCastSimd@dgCollisionConvexModifier@@MBENABVdgVector@@0AAVdgContactPoint@@P6AIQBVdgBody@@QBVdgCollision@@QAX@Z24@Z 10078b60 f   physics:dgCollisionConvexModifier.obj
 0001:00077ca0       ?GetVolume@dgCollisionConvexModifier@@MBENXZ 10078ca0 f   physics:dgCollisionConvexModifier.obj
 0001:00077cd0       ?CalculateVolumeIntegral@dgCollisionConvexModifier@@MBE?AVdgVector@@ABVdgMatrix@@P6AIPAX10AAVdgPlane@@@ZQAX@Z 10078cd0 f   physics:dgCollisionConvexModifier.obj
 0001:00077f50       ?GetCollisionInfo@dgCollisionConvexModifier@@EBEXPAVdgCollisionInfo@@@Z 10078f50 f   physics:dgCollisionConvexModifier.obj
 0001:00077fb0       ?Serialize@dgCollisionConvexModifier@@EBEXP6AXPAXPBXI@ZQAX@Z 10078fb0 f   physics:dgCollisionConvexModifier.obj
 0001:00078010       ?OOBBTest@dgCollisionConvexModifier@@MBE_NABVdgMatrix@@QBVdgConvexCollision@@QAX@Z 10079010 f   physics:dgCollisionConvexModifier.obj
 0001:00078020       ??_EdgCollisionConvexModifier@@UAEPAXI@Z 10079020 f i physics:dgCollisionConvexModifier.obj
 0001:00078020       ??_GdgCollisionConvexModifier@@UAEPAXI@Z 10079020 f i physics:dgCollisionConvexModifier.obj
 0001:00078050       ?Transpose@dgMatrix@@QBE?AV1@XZ 10079050 f i physics:dgCollisionConvexModifier.obj
 0001:00078150       ?TransformVectorSimd@dgMatrix@@QBE?AVdgVector@@ABV2@@Z 10079150 f i physics:dgCollisionConvexModifier.obj
 0001:00078190       ??0OOBBTestData@dgCollisionCompound@@QAE@ABVdgMatrix@@@Z 10079190 f   physics:dgCollisionCompound.obj
 0001:000784d0       ??0OOBBTestData@dgCollisionCompound@@QAE@ABVdgMatrix@@ABVdgVector@@1@Z 100794d0 f   physics:dgCollisionCompound.obj
 0001:00078b50       ??0dgNodeBase@dgCollisionCompound@@QAE@PAVdgConvexCollision@@H@Z 10079b50 f   physics:dgCollisionCompound.obj
 0001:00078cf0       ??0dgNodeBase@dgCollisionCompound@@QAE@PAV01@0H@Z 10079cf0 f   physics:dgCollisionCompound.obj
 0001:00078f40       ??1dgNodeBase@dgCollisionCompound@@QAE@XZ 10079f40 f   physics:dgCollisionCompound.obj
 0001:00078ff0       ?BoxTest@dgNodeBase@dgCollisionCompound@@QBE_NABVOOBBTestData@2@QBV12@@Z 10079ff0 f   physics:dgCollisionCompound.obj
 0001:00079380       ?BoxTest@dgNodeBase@dgCollisionCompound@@QBE_NABVOOBBTestData@2@@Z 1007a380 f   physics:dgCollisionCompound.obj
 0001:00079600       ?BoxClosestDistance@dgNodeBase@dgCollisionCompound@@QBENQBVdgVector@@H@Z 1007a600 f   physics:dgCollisionCompound.obj
 0001:00079940       ??0dgCollisionCompound@@QAE@PAVdgWorld@@@Z 1007a940 f   physics:dgCollisionCompound.obj
 0001:000799a0       ??0dgCollisionCompound@@QAE@HQBQAVdgConvexCollision@@PAVdgWorld@@@Z 1007a9a0 f   physics:dgCollisionCompound.obj
 0001:00079a20       ??0dgCollisionCompound@@QAE@ABV0@@Z 1007aa20 f   physics:dgCollisionCompound.obj
 0001:00079cd0       ??0dgCollisionCompound@@QAE@QAVdgWorld@@P6AXPAX1I@ZQAX@Z 1007acd0 f   physics:dgCollisionCompound.obj
 0001:0007a150       ??1dgCollisionCompound@@UAE@XZ 1007b150 f   physics:dgCollisionCompound.obj
 0001:0007a200       ?Init@dgCollisionCompound@@IAEXHQBQAVdgConvexCollision@@@Z 1007b200 f   physics:dgCollisionCompound.obj
 0001:0007a340       ?LinkParentNodes@dgCollisionCompound@@IAEXXZ 1007b340 f   physics:dgCollisionCompound.obj
 0001:0007a430       ?SetCollisionBBox@dgCollisionCompound@@MAEXABVdgVector@@0@Z 1007b430 f   physics:dgCollisionCompound.obj
 0001:0007a470       ?CalculateSignature@dgCollisionCompound@@MBEHXZ 1007b470 f   physics:dgCollisionCompound.obj
 0001:0007a4b0       ?CalcAABB@dgCollisionCompound@@MBEXABVdgMatrix@@AAVdgVector@@1@Z 1007b4b0 f   physics:dgCollisionCompound.obj
 0001:0007a760       ?CalcAABBSimd@dgCollisionCompound@@MBEXABVdgMatrix@@AAVdgVector@@1@Z 1007b760 f   physics:dgCollisionCompound.obj
 0001:0007aa10       ?DebugCollision@dgCollisionCompound@@MBEXABVdgMatrix@@P6AXPAXHPBNH@ZQAX@Z 1007ba10 f   physics:dgCollisionCompound.obj
 0001:0007aa80       ?RayCast@dgCollisionCompound@@MBENABVdgVector@@0AAVdgContactPoint@@P6AIQBVdgBody@@QBVdgCollision@@QAX@Z24@Z 1007ba80 f   physics:dgCollisionCompound.obj
 0001:0007ad30       ?RayCastSimd@dgCollisionCompound@@MBENABVdgVector@@0AAVdgContactPoint@@P6AIQBVdgBody@@QBVdgCollision@@QAX@Z24@Z 1007bd30 f   physics:dgCollisionCompound.obj
 0001:0007afe0       ?GetVolume@dgCollisionCompound@@MBENXZ 1007bfe0 f   physics:dgCollisionCompound.obj
 0001:0007b050       ?GetBoxMinRadius@dgCollisionCompound@@MBENXZ 1007c050 f   physics:dgCollisionCompound.obj
 0001:0007b070       ?GetBoxMaxRadius@dgCollisionCompound@@MBENXZ 1007c070 f   physics:dgCollisionCompound.obj
 0001:0007b090       ?CalculateVolumeIntegral@dgCollisionCompound@@MBE?AVdgVector@@ABVdgMatrix@@P6AIPAX10AAVdgPlane@@@ZQAX@Z 1007c090 f   physics:dgCollisionCompound.obj
 0001:0007b200       ?CalculateInertia@dgCollisionCompound@@MBEXAAVdgVector@@0@Z 1007c200 f   physics:dgCollisionCompound.obj
 0001:0007b560       ?AddCollision@dgCollisionCompound@@QAEXPAVdgConvexCollision@@@Z 1007c560 f   physics:dgCollisionCompound.obj
 0001:0007b5a0       ?RemoveCollision@dgCollisionCompound@@QAEXPAVdgNodeBase@1@@Z 1007c5a0 f   physics:dgCollisionCompound.obj
 0001:0007b8a0       ?SupportVertex@dgCollisionCompound@@MBE?AVdgVector@@ABV2@@Z 1007c8a0 f   physics:dgCollisionCompound.obj
 0001:0007bcf0       ?GetCollisionInfo@dgCollisionCompound@@MBEXPAVdgCollisionInfo@@@Z 1007ccf0 f   physics:dgCollisionCompound.obj
 0001:0007bd60       ?Serialize@dgCollisionCompound@@MBEXP6AXPAXPBXI@ZQAX@Z 1007cd60 f   physics:dgCollisionCompound.obj
 0001:0007bf30       ?OOBBTest@dgCollisionCompound@@MBE_NABVdgMatrix@@QBVdgConvexCollision@@QAX@Z 1007cf30 f   physics:dgCollisionCompound.obj
 0001:0007bf70       ?BuildTopDownTree@dgCollisionCompound@@IAEPAVdgNodeBase@1@HQAPAV21@AAH@Z 1007cf70 f   physics:dgCollisionCompound.obj
 0001:0007c3f0       ?BuildTree@dgCollisionCompound@@IAEPAVdgNodeBase@1@HQBQAVdgConvexCollision@@@Z 1007d3f0 f   physics:dgCollisionCompound.obj
 0001:0007c4b0       ?CalculateContacts@dgCollisionCompound@@IBEHQAUdgPair@dgCollidingPairCollector@@AAVdgCollisionParamProxi@@H@Z 1007d4b0 f   physics:dgCollisionCompound.obj
 0001:0007c640       ?CalculateContactsToSingle@dgCollisionCompound@@IBEHQAUdgPair@dgCollidingPairCollector@@AAVdgCollisionParamProxi@@H@Z 1007d640 f   physics:dgCollisionCompound.obj
 0001:0007cbc0       ?CalculateContactsToCompound@dgCollisionCompound@@IBEHQAUdgPair@dgCollidingPairCollector@@AAVdgCollisionParamProxi@@H@Z 1007dbc0 f   physics:dgCollisionCompound.obj
 0001:0007d3e0       ?CalculateContactsToCollisionTree@dgCollisionCompound@@IBEHQAUdgPair@dgCollidingPairCollector@@AAVdgCollisionParamProxi@@H@Z 1007e3e0 f   physics:dgCollisionCompound.obj
 0001:0007e1c0       ?CalculateContactsToHightField@dgCollisionCompound@@IBEHQAUdgPair@dgCollidingPairCollector@@AAVdgCollisionParamProxi@@H@Z 1007f1c0 f   physics:dgCollisionCompound.obj
 0001:0007e660       ?CalculateContactsBruteForce@dgCollisionCompound@@IBEHQAUdgPair@dgCollidingPairCollector@@AAVdgCollisionParamProxi@@H@Z 1007f660 f   physics:dgCollisionCompound.obj
 0001:0007e920       ?ClosestDitance@dgCollisionCompound@@IBEHQAVdgBody@@AAVdgTriplex@@011@Z 1007f920 f   physics:dgCollisionCompound.obj
 0001:0007eee0       ??_GdgNodeBase@dgCollisionCompound@@QAEPAXI@Z 1007fee0 f i physics:dgCollisionCompound.obj
 0001:0007ef10       ??3dgNodeBase@dgCollisionCompound@@SAXPAX@Z 1007ff10 f i physics:dgCollisionCompound.obj
 0001:0007ef30       ??_GdgCollisionCompound@@UAEPAXI@Z 1007ff30 f i physics:dgCollisionCompound.obj
 0001:0007ef30       ??_EdgCollisionCompound@@UAEPAXI@Z 1007ff30 f i physics:dgCollisionCompound.obj
 0001:0007ef60       ??2dgNodeBase@dgCollisionCompound@@SAPAXIQAVdgMemoryAllocator@@@Z 1007ff60 f i physics:dgCollisionCompound.obj
 0001:0007ef80       ??0dgNodeBase@dgCollisionCompound@@QAE@XZ 1007ff80 f i physics:dgCollisionCompound.obj
 0001:0007efe0       ??$Swap@PAVdgNodeBase@dgCollisionCompound@@@@YAXAAPAVdgNodeBase@dgCollisionCompound@@0@Z 1007ffe0 f i physics:dgCollisionCompound.obj
 0001:0007f010       ??0?$dgStack@PAVdgNodeBase@dgCollisionCompound@@@@QAE@H@Z 10080010 f i physics:dgCollisionCompound.obj
 0001:0007f040       ??1?$dgStack@PAVdgNodeBase@dgCollisionCompound@@@@QAE@XZ 10080040 f i physics:dgCollisionCompound.obj
 0001:0007f060       ??A?$dgStack@PAVdgNodeBase@dgCollisionCompound@@@@QAEAAPAVdgNodeBase@dgCollisionCompound@@H@Z 10080060 f i physics:dgCollisionCompound.obj
 0001:0007f0e0       ??0?$dgTree@PBVdgNodeBase@dgCollisionCompound@@PBV12@@@QAE@QAVdgMemoryAllocator@@@Z 100800e0 f i physics:dgCollisionCompound.obj
 0001:0007f110       ??1?$dgTree@PBVdgNodeBase@dgCollisionCompound@@PBV12@@@QAE@XZ 10080110 f i physics:dgCollisionCompound.obj
 0001:0007f130       ?GetCount@?$dgTree@PBVdgNodeBase@dgCollisionCompound@@PBV12@@@QBEHXZ 10080130 f i physics:dgCollisionCompound.obj
 0001:0007f140       ?Find@?$dgTree@PBVdgNodeBase@dgCollisionCompound@@PBV12@@@QBEPAVdgTreeNode@1@PBVdgNodeBase@dgCollisionCompound@@@Z 10080140 f i physics:dgCollisionCompound.obj
 0001:0007f260       ?Insert@?$dgTree@PBVdgNodeBase@dgCollisionCompound@@PBV12@@@QAEPAVdgTreeNode@1@ABQBVdgNodeBase@dgCollisionCompound@@PBV34@@Z 10080260 f i physics:dgCollisionCompound.obj
 0001:0007f2a0       ?RemoveAll@?$dgTree@PBVdgNodeBase@dgCollisionCompound@@PBV12@@@QAEXXZ 100802a0 f i physics:dgCollisionCompound.obj
 0001:0007f2e0       ?GetLeft@dgTreeNode@?$dgTree@PBVdgNodeBase@dgCollisionCompound@@PBV12@@@ABEPAV12@XZ 100802e0 f i physics:dgCollisionCompound.obj
 0001:0007f2f0       ?GetRight@dgTreeNode@?$dgTree@PBVdgNodeBase@dgCollisionCompound@@PBV12@@@ABEPAV12@XZ 100802f0 f i physics:dgCollisionCompound.obj
 0001:0007f310       ?Insert@?$dgTree@PBVdgNodeBase@dgCollisionCompound@@PBV12@@@QAEPAVdgTreeNode@1@ABQBVdgNodeBase@dgCollisionCompound@@PBV34@AA_N@Z 10080310 f i physics:dgCollisionCompound.obj
 0001:0007f510       ?CompareKeys@?$dgTree@PBVdgNodeBase@dgCollisionCompound@@PBV12@@@ABEHABQBVdgNodeBase@dgCollisionCompound@@0@Z 10080510 f i physics:dgCollisionCompound.obj
 0001:0007f550       ??0dgTreeNode@?$dgTree@PBVdgNodeBase@dgCollisionCompound@@PBV12@@@AAE@ABQBVdgNodeBase@dgCollisionCompound@@0PAV01@@Z 10080550 f i physics:dgCollisionCompound.obj
 0001:0007f5c0       ??0dgCollisionUserMesh@@QAE@PAVdgMemoryAllocator@@ABVdgVector@@1ABVdgUserMeshCreation@@@Z 100805c0 f   physics:dgCollisionUserMesh.obj
 0001:0007f670       ??0dgCollisionUserMesh@@QAE@QAVdgWorld@@P6AXPAX1I@ZQAX@Z 10080670 f   physics:dgCollisionUserMesh.obj
 0001:0007f6e0       ??1dgCollisionUserMesh@@UAE@XZ 100806e0 f   physics:dgCollisionUserMesh.obj
 0001:0007f720       ?Serialize@dgCollisionUserMesh@@EBEXP6AXPAXPBXI@ZQAX@Z 10080720 f   physics:dgCollisionUserMesh.obj
 0001:0007f750       ?GetVertexListIndexList@dgCollisionUserMesh@@UBEXABVdgVector@@0AAVdgGetVertexListIndexList@dgCollisionMesh@@@Z 10080750 f   physics:dgCollisionUserMesh.obj
 0001:0007f7d0       ?GetCollisionInfo@dgCollisionUserMesh@@EBEXPAVdgCollisionInfo@@@Z 100807d0 f   physics:dgCollisionUserMesh.obj
 0001:0007f830       ?RayCastSimd@dgCollisionUserMesh@@EBENABVdgVector@@0AAVdgContactPoint@@P6AIQBVdgBody@@QBVdgCollision@@QAX@Z24@Z 10080830 f   physics:dgCollisionUserMesh.obj
 0001:0007f870       ?RayCast@dgCollisionUserMesh@@EBENABVdgVector@@0AAVdgContactPoint@@P6AIQBVdgBody@@QBVdgCollision@@QAX@Z24@Z 10080870 f   physics:dgCollisionUserMesh.obj
 0001:0007f9b0       ?GetCollidingFacesSimd@dgCollisionUserMesh@@EBEXQAVdgPolygonMeshDesc@@@Z 100809b0 f   physics:dgCollisionUserMesh.obj
 0001:0007f9d0       ?GetCollidingFaces@dgCollisionUserMesh@@EBEXQAVdgPolygonMeshDesc@@@Z 100809d0 f   physics:dgCollisionUserMesh.obj
 0001:0007fa20       ?DebugCollision@dgCollisionUserMesh@@EBEXABVdgMatrix@@P6AXPAXHPBNH@ZQAX@Z 10080a20 f   physics:dgCollisionUserMesh.obj
 0001:0007fa30       ??_EdgCollisionUserMesh@@UAEPAXI@Z 10080a30 f i physics:dgCollisionUserMesh.obj
 0001:0007fa30       ??_GdgCollisionUserMesh@@UAEPAXI@Z 10080a30 f i physics:dgCollisionUserMesh.obj
 0001:0007fa60       ??0dgCollisionMeshRayHitDesc@@QAE@XZ 10080a60 f i physics:dgCollisionUserMesh.obj
 0001:0007fab0       ?InitConvexCollision@dgWorld@@CAXXZ 10080ab0 f   physics:dgMinkowskiConv.obj
 0001:00080390       ?SphereSphereCollision@dgWorld@@ABEHABVdgVector@@N0NAAVdgCollisionParamProxi@@@Z 10081390 f   physics:dgMinkowskiConv.obj
 0001:00080660       ?CalculateSphereToSphereContacts@dgWorld@@ABEHAAVdgCollisionParamProxi@@@Z 10081660 f   physics:dgMinkowskiConv.obj
 0001:00080740       ?CalculateCapsuleToSphereContacts@dgWorld@@ABEHAAVdgCollisionParamProxi@@@Z 10081740 f   physics:dgMinkowskiConv.obj
 0001:000808d0       ?CalculateCapsuleToCapsuleContacts@dgWorld@@ABEHAAVdgCollisionParamProxi@@@Z 100818d0 f   physics:dgMinkowskiConv.obj
 0001:000814d0       ?CalculateBoxToSphereContacts@dgWorld@@ABEHAAVdgCollisionParamProxi@@@Z 100824d0 f   physics:dgMinkowskiConv.obj
 0001:00082f60       ?FilterPolygonEdgeContacts@dgWorld@@ABEHHQAVdgContactPoint@@@Z 10083f60 f   physics:dgMinkowskiConv.obj
 0001:00083230       ?ClosestPoint@dgWorld@@ABEHAAVdgCollisionParamProxi@@@Z 10084230 f   physics:dgMinkowskiConv.obj
 0001:00083320       ?CalculateHullToHullContactsSimd@dgWorld@@ABEHAAVdgCollisionParamProxi@@@Z 10084320 f   physics:dgMinkowskiConv.obj
 0001:00083330       ?CalculateHullToHullContacts@dgWorld@@ABEHAAVdgCollisionParamProxi@@@Z 10084330 f   physics:dgMinkowskiConv.obj
 0001:00083450       ?CalculateConvexToConvexContactsSimd@dgWorld@@ABEHAAVdgCollisionParamProxi@@@Z 10084450 f   physics:dgMinkowskiConv.obj
 0001:00083460       ?CalculateConvexToConvexContacts@dgWorld@@ABEHAAVdgCollisionParamProxi@@@Z 10084460 f   physics:dgMinkowskiConv.obj
 0001:00083ce0       ?CalculatePolySoupToSphereContactsDescrete@dgWorld@@ABEHAAVdgCollisionParamProxi@@@Z 10084ce0 f   physics:dgMinkowskiConv.obj
 0001:000843f0       ?CalculatePolySoupToElipseContactsDescrete@dgWorld@@ABEHAAVdgCollisionParamProxi@@@Z 100853f0 f   physics:dgMinkowskiConv.obj
 0001:00084aa0       ?CalculatePolySoupToSphereContactsContinue@dgWorld@@ABEHAAVdgCollisionParamProxi@@@Z 10085aa0 f   physics:dgMinkowskiConv.obj
 0001:00085100       ?CalculatePolySoupToHullContactsDescreteSimd@dgWorld@@ABEHAAVdgCollisionParamProxi@@@Z 10086100 f   physics:dgMinkowskiConv.obj
 0001:00085110       ?CalculatePolySoupToHullContactsDescrete@dgWorld@@ABEHAAVdgCollisionParamProxi@@@Z 10086110 f   physics:dgMinkowskiConv.obj
 0001:000855d0       ?CalculateConvexToNonConvexContactsContinueSimd@dgWorld@@ABEHAAVdgCollisionParamProxi@@@Z 100865d0 f   physics:dgMinkowskiConv.obj
 0001:000855e0       ?CalculateConvexToNonConvexContactsContinue@dgWorld@@ABEHAAVdgCollisionParamProxi@@@Z 100865e0 f   physics:dgMinkowskiConv.obj
 0001:00085ca0       ?CalculateConvexToNonConvexContactsSimd@dgWorld@@ABEHAAVdgCollisionParamProxi@@@Z 10086ca0 f   physics:dgMinkowskiConv.obj
 0001:00085cb0       ?CalculateConvexToNonConvexContacts@dgWorld@@ABEHAAVdgCollisionParamProxi@@@Z 10086cb0 f   physics:dgMinkowskiConv.obj
 0001:000867b0       ?GetRadius@dgCollisionCapsule@@QBENXZ 100877b0 f i physics:dgMinkowskiConv.obj
 0001:000867d0       ?GetHeight@dgCollisionCapsule@@QBENXZ 100877d0 f i physics:dgMinkowskiConv.obj
 0001:000867f0       ?CalculateClosestPoints@dgContactSolver@@AAEHXZ 100877f0 f i physics:dgMinkowskiConv.obj
 0001:000877b0       ?CalcSupportVertex@dgContactSolver@@AAEXABVdgVector@@H@Z 100887b0 f i physics:dgMinkowskiConv.obj
 0001:00087930       ?ReduceLine@dgContactSolver@@AAE?AVdgVector@@ABV2@@Z 10088930 f i physics:dgMinkowskiConv.obj
 0001:00087ac0       ?ReduceTriangle@dgContactSolver@@AAE?AVdgVector@@ABV2@@Z 10088ac0 f i physics:dgMinkowskiConv.obj
 0001:000882f0       ?ReduceTetrahedrum@dgContactSolver@@AAE?AVdgVector@@ABV2@@Z 100892f0 f i physics:dgMinkowskiConv.obj
 0001:00088660       ?CalcSeparatingPlane@dgContactSolver@@AAE?AW4dgMinkReturnCode@1@AAPAVdgMinkFace@1@ABVdgVector@@@Z 10089660 f i physics:dgMinkowskiConv.obj
 0001:00088fd0       ?CheckTetraHedronVolume@dgContactSolver@@ABE_NXZ 10089fd0 f i physics:dgMinkowskiConv.obj
 0001:000890d0       ?UpdateSeparatingPlane@dgContactSolver@@AAE?AW4dgMinkReturnCode@1@AAPAVdgMinkFace@1@ABVdgVector@@@Z 1008a0d0 f i physics:dgMinkowskiConv.obj
 0001:000899e0       ?UpdateSeparatingPlaneFallbackSolution@dgContactSolver@@AAE?AW4dgMinkReturnCode@1@AAPAVdgMinkFace@1@ABVdgVector@@@Z 1008a9e0 f i physics:dgMinkowskiConv.obj
 0001:0008b470       ??0dgContactSolver@@QAE@AAVdgCollisionParamProxi@@@Z 1008c470 f i physics:dgMinkowskiConv.obj
 0001:0008b6c0       ??0dgMinkFace@dgContactSolver@@QAE@XZ 1008c6c0 f i physics:dgMinkowskiConv.obj
 0001:0008b6e0       ?HullHullContactsLarge@dgContactSolver@@QAEHH@Z 1008c6e0 f i physics:dgMinkowskiConv.obj
 0001:0008bba0       ?CalculateContacts@dgContactSolver@@AAEHQAVdgMinkFace@1@HQAVdgContactPoint@@H@Z 1008cba0 f i physics:dgMinkowskiConv.obj
 0001:0008c820       ?CalculateContactAlternateMethod@dgContactSolver@@AAEHQAVdgMinkFace@1@HQAVdgContactPoint@@H@Z 1008d820 f i physics:dgMinkowskiConv.obj
 0001:0008d3c0       ?CalculateConvexShapeIntersection@dgContactSolver@@ABEHABVdgMatrix@@ABVdgVector@@INHQAV3@H2QAVdgContactPoint@@H@Z 1008e3c0 f i physics:dgMinkowskiConv.obj
 0001:0008dee0       ?CalculateConvexShapeIntersectionLine@dgContactSolver@@ABEHABVdgMatrix@@ABVdgVector@@INHQAV3@H2QAVdgContactPoint@@@Z 1008eee0 f i physics:dgMinkowskiConv.obj
 0001:0008e3b0       ?ReduceContacts@dgContactSolver@@ABEPAUdgPerimenterEdge@1@PAU21@H@Z 1008f3b0 f i physics:dgMinkowskiConv.obj
 0001:0008e690       ?CalcSeparatingPlaneLarge@dgContactSolver@@AAE?AW4dgMinkReturnCode@1@AAPAVdgMinkFace@1@ABVdgBigVector@@@Z 1008f690 f i physics:dgMinkowskiConv.obj
 0001:0008eff0       ?CheckTetraHedronVolumeLarge@dgContactSolver@@ABE_NXZ 1008fff0 f i physics:dgMinkowskiConv.obj
 0001:0008f0f0       ?CalcSupportVertexLarge@dgContactSolver@@AAEXABVdgVector@@H@Z 100900f0 f i physics:dgMinkowskiConv.obj
 0001:0008f290       ??0dgBigVector@@QAE@XZ     10090290 f i physics:dgMinkowskiConv.obj
 0001:0008f2b0       ?UpdateSeparatingPlaneLarge@dgContactSolver@@AAE?AW4dgMinkReturnCode@1@AAPAVdgMinkFace@1@ABVdgBigVector@@@Z 100902b0 f i physics:dgMinkowskiConv.obj
 0001:0008fc40       ?UpdateSeparatingPlaneFallbackSolutionLarge@dgContactSolver@@AAE?AW4dgMinkReturnCode@1@AAPAVdgMinkFace@1@ABVdgBigVector@@@Z 10090c40 f i physics:dgMinkowskiConv.obj
 0001:00091820       ?ReduceLineLarge@dgContactSolver@@AAE?AVdgBigVector@@ABV2@@Z 10092820 f i physics:dgMinkowskiConv.obj
 0001:000919e0       ?ReduceTriangleLarge@dgContactSolver@@AAE?AVdgBigVector@@ABV2@@Z 100929e0 f i physics:dgMinkowskiConv.obj
 0001:00092230       ?ReduceTetrahedrumLarge@dgContactSolver@@AAE?AVdgBigVector@@ABV2@@Z 10093230 f i physics:dgMinkowskiConv.obj
 0001:000925b0       ?CalcFacePlaneLarge@dgContactSolver@@AAE_NQAVdgMinkFace@1@@Z 100935b0 f i physics:dgMinkowskiConv.obj
 0001:000926d0       ??0dgBigPlane@@QAE@ABVdgBigVector@@00@Z 100936d0 f i physics:dgMinkowskiConv.obj
 0001:00092730       ?Scale@dgBigPlane@@QBE?AV1@N@Z 10093730 f i physics:dgMinkowskiConv.obj
 0001:00092790       ??0dgBigPlane@@QAE@NNNN@Z  10093790 f i physics:dgMinkowskiConv.obj
 0001:000927d0       ?CalculateClipPlaneLarge@dgContactSolver@@AAEPAVdgMinkFace@1@XZ 100937d0 f i physics:dgMinkowskiConv.obj
 0001:00093ae0       ??0dgClosestFace@dgContactSolver@@QAE@PAXH@Z 10094ae0 f i physics:dgMinkowskiConv.obj
 0001:00093b00       ?NewFace@dgContactSolver@@AAEPAVdgMinkFace@1@XZ 10094b00 f i physics:dgMinkowskiConv.obj
 0001:00093ba0       ??1?$dgUpHeap@PAUdgPerimenterEdge@dgContactSolver@@N@@QAE@XZ 10094ba0 f i physics:dgMinkowskiConv.obj
 0001:00093bc0       ??1dgClosestFace@dgContactSolver@@QAE@XZ 10094bc0 f i physics:dgMinkowskiConv.obj
 0001:00093be0       ??1?$dgDownHeap@PAVdgMinkFace@dgContactSolver@@N@@QAE@XZ 10094be0 f i physics:dgMinkowskiConv.obj
 0001:00093c00       ?HullHullContinueContacts@dgContactSolver@@QAEHAANQAVdgContactPoint@@HHH@Z 10094c00 f i physics:dgMinkowskiConv.obj
 0001:00094800       ?CalculateContactsContinues@dgContactSolver@@AAEHHQAVdgContactPoint@@HPBVdgVector@@1N@Z 10095800 f i physics:dgMinkowskiConv.obj
 0001:00094a20       ?CalcFacePlane@dgContactSolver@@AAE_NQAVdgMinkFace@1@@Z 10095a20 f i physics:dgMinkowskiConv.obj
 0001:00094b30       ??0dgPlane@@QAE@ABVdgVector@@00@Z 10095b30 f i physics:dgMinkowskiConv.obj
 0001:00094b90       ?CalculateClipPlane@dgContactSolver@@AAEPAVdgMinkFace@1@XZ 10095b90 f i physics:dgMinkowskiConv.obj
 0001:00095d60       ?CalculateVelocities@dgContactSolver@@QAEXN@Z 10096d60 f i physics:dgMinkowskiConv.obj
 0001:00095e50       ??0dgCollisionBoundPlaneCache@@QAE@XZ 10096e50 f i physics:dgMinkowskiConv.obj
 0001:00095e80       ?GetShapeClipSize@dgContactSolver@@ABENQAVdgCollision@@@Z 10096e80 f i physics:dgMinkowskiConv.obj
 0001:00095ec0       ?HullHullContacts@dgContactSolver@@QAEHH@Z 10096ec0 f i physics:dgMinkowskiConv.obj
 0001:000962d0       ??0dgContactSolver@@QAE@AAVdgCollisionParamProxi@@PAVdgCollision@@@Z 100972d0 f i physics:dgMinkowskiConv.obj
 0001:00096510       ??0dgPolygonMeshDesc@@QAE@XZ 10097510 f i physics:dgMinkowskiConv.obj
 0001:00096540       ??1?$dgHeapBase@PAVdgMinkFace@dgContactSolver@@N@@IAE@XZ 10097540 f i physics:dgMinkowskiConv.obj
 0001:00096570       ?GetCount@?$dgHeapBase@PAVdgMinkFace@dgContactSolver@@N@@QBEHXZ 10097570 f i physics:dgMinkowskiConv.obj
 0001:00096580       ??A?$dgHeapBase@PAVdgMinkFace@dgContactSolver@@N@@QBEABQAVdgMinkFace@dgContactSolver@@H@Z 10097580 f i physics:dgMinkowskiConv.obj
 0001:000965d0       ??0?$dgDownHeap@PAVdgMinkFace@dgContactSolver@@N@@QAE@QBXH@Z 100975d0 f i physics:dgMinkowskiConv.obj
 0001:000965f0       ?Pop@?$dgDownHeap@PAVdgMinkFace@dgContactSolver@@N@@QAEXXZ 100975f0 f i physics:dgMinkowskiConv.obj
 0001:00096720       ?Push@?$dgDownHeap@PAVdgMinkFace@dgContactSolver@@N@@QAEXAAPAVdgMinkFace@dgContactSolver@@N@Z 10097720 f i physics:dgMinkowskiConv.obj
 0001:00096840       ??1?$dgHeapBase@PAUdgPerimenterEdge@dgContactSolver@@N@@IAE@XZ 10097840 f i physics:dgMinkowskiConv.obj
 0001:00096870       ?Flush@?$dgHeapBase@PAUdgPerimenterEdge@dgContactSolver@@N@@QAEXXZ 10097870 f i physics:dgMinkowskiConv.obj
 0001:00096890       ?GetCount@?$dgHeapBase@PAUdgPerimenterEdge@dgContactSolver@@N@@QBEHXZ 10097890 f i physics:dgMinkowskiConv.obj
 0001:000968a0       ??A?$dgHeapBase@PAUdgPerimenterEdge@dgContactSolver@@N@@QBEABQAUdgPerimenterEdge@dgContactSolver@@H@Z 100978a0 f i physics:dgMinkowskiConv.obj
 0001:000968f0       ??0?$dgUpHeap@PAUdgPerimenterEdge@dgContactSolver@@N@@QAE@QBXH@Z 100978f0 f i physics:dgMinkowskiConv.obj
 0001:00096910       ?Pop@?$dgUpHeap@PAUdgPerimenterEdge@dgContactSolver@@N@@QAEXXZ 10097910 f i physics:dgMinkowskiConv.obj
 0001:00096a40       ?Push@?$dgUpHeap@PAUdgPerimenterEdge@dgContactSolver@@N@@QAEXAAPAUdgPerimenterEdge@dgContactSolver@@N@Z 10097a40 f i physics:dgMinkowskiConv.obj
 0001:00096b60       ?Remove@?$dgUpHeap@PAUdgPerimenterEdge@dgContactSolver@@N@@QAEXH@Z 10097b60 f i physics:dgMinkowskiConv.obj
 0001:00096c90       ??$Swap@VdgBigVector@@@@YAXAAVdgBigVector@@0@Z 10097c90 f i physics:dgMinkowskiConv.obj
 0001:00096ce0       ??$Swap@VdgContactPoint@@@@YAXAAVdgContactPoint@@0@Z 10097ce0 f i physics:dgMinkowskiConv.obj
 0001:00096d30       ??0?$dgHeapBase@PAVdgMinkFace@dgContactSolver@@N@@IAE@QBXH@Z 10097d30 f i physics:dgMinkowskiConv.obj
 0001:00096d70       ??0?$dgHeapBase@PAUdgPerimenterEdge@dgContactSolver@@N@@IAE@QBXH@Z 10097d70 f i physics:dgMinkowskiConv.obj
 0001:00096db0       ?Flush@?$dgHeapBase@PAVdgMinkFace@dgContactSolver@@N@@QAEXXZ 10097db0 f i physics:dgMinkowskiConv.obj
 0001:00096dd0       ?dgExpandTraceMessage@@YAXPBDZZ 10097dd0 f   corelib:dgDebug.obj
 0001:00096e20       ??0dgMemoryAllocator@@QAE@XZ 10097e20 f   corelib:dgMemory.obj
 0001:00096e90       ??0dgMemoryAllocator@@IAE@P6APAXI@ZP6AXPAXI@Z@Z 10097e90 f   corelib:dgMemory.obj
 0001:00096ee0       ??1dgMemoryAllocator@@QAE@XZ 10097ee0 f   corelib:dgMemory.obj
 0001:00096f30       ??2dgMemoryAllocator@@SAPAXI@Z 10097f30 f   corelib:dgMemory.obj
 0001:00096f50       ??3dgMemoryAllocator@@SAXPAX@Z 10097f50 f   corelib:dgMemory.obj
 0001:00096f70       ?GetMemoryUsed@dgMemoryAllocator@@QBEHXZ 10097f70 f   corelib:dgMemory.obj
 0001:00096f90       ?SetAllocatorsCallback@dgMemoryAllocator@@QAEXP6APAXI@ZP6AXPAXI@Z@Z 10097f90 f   corelib:dgMemory.obj
 0001:00096fb0       ?MallocLow@dgMemoryAllocator@@QAEPAXHH@Z 10097fb0 f   corelib:dgMemory.obj
 0001:000970a0       ?FreeLow@dgMemoryAllocator@@QAEXPAX@Z 100980a0 f   corelib:dgMemory.obj
 0001:00097120       ?Malloc@dgMemoryAllocator@@QAEPAXH@Z 10098120 f   corelib:dgMemory.obj
 0001:00097370       ?Free@dgMemoryAllocator@@QAEXPAX@Z 10098370 f   corelib:dgMemory.obj
 0001:00097580       ?dgSetGlobalAllocators@@YAXP6APAXI@ZP6AXPAXI@Z@Z 10098580 f   corelib:dgMemory.obj
 0001:000975a0       ?dgGetMemoryUsed@@YAHXZ    100985a0 f   corelib:dgMemory.obj
 0001:000975b0       ?dgMallocStack@@YAPAXI@Z   100985b0 f   corelib:dgMemory.obj
 0001:000975d0       ?dgMallocAligned@@YAPAXIH@Z 100985d0 f   corelib:dgMemory.obj
 0001:000975f0       ?dgFreeStack@@YAXPAX@Z     100985f0 f   corelib:dgMemory.obj
 0001:00097610       ?dgMalloc@@YAPAXIQAVdgMemoryAllocator@@@Z 10098610 f   corelib:dgMemory.obj
 0001:00097660       ?dgFree@@YAXPAX@Z          10098660 f   corelib:dgMemory.obj
 0001:000976b0       ?SaveInfo@dgMemoryInfo@dgMemoryAllocator@@QAEXQAV2@QAXHAAH@Z 100986b0 f i corelib:dgMemory.obj
 0001:000976f0       ?GetMemoryUsed@dgGlobalAllocator@@QBEHXZ 100986f0 f i corelib:dgMemory.obj
 0001:00097750       ?GetInfo@dgListNode@?$dgList@PAVdgMemoryAllocator@@@@QAEAAPAVdgMemoryAllocator@@XZ 10098750 f i corelib:dgMemory.obj
 0001:00097760       ?GetNext@dgListNode@?$dgList@PAVdgMemoryAllocator@@@@QBEPAV12@XZ 10098760 f i corelib:dgMemory.obj
 0001:00097780       ?GetFirst@?$dgList@PAVdgMemoryAllocator@@@@QBEPAVdgListNode@1@XZ 10098780 f i corelib:dgMemory.obj
 0001:000977a0       ?Append@?$dgList@PAVdgMemoryAllocator@@@@QAEPAVdgListNode@1@ABQAVdgMemoryAllocator@@@Z 100987a0 f i corelib:dgMemory.obj
 0001:00097860       ?Remove@?$dgList@PAVdgMemoryAllocator@@@@QAEXABQAVdgMemoryAllocator@@@Z 10098860 f i corelib:dgMemory.obj
 0001:00097890       ??2dgListNode@?$dgList@PAVdgMemoryAllocator@@@@CAPAXIQAVdgMemoryAllocator@@@Z 10098890 f i corelib:dgMemory.obj
 0001:000978b0       ??0dgListNode@?$dgList@PAVdgMemoryAllocator@@@@AAE@ABQAVdgMemoryAllocator@@QAV01@1@Z 100988b0 f i corelib:dgMemory.obj
 0001:00097940       ?Find@?$dgList@PAVdgMemoryAllocator@@@@QBEPAVdgListNode@1@ABQAVdgMemoryAllocator@@@Z 10098940 f i corelib:dgMemory.obj
 0001:00097980       ?Remove@?$dgList@PAVdgMemoryAllocator@@@@QAEXQAVdgListNode@1@@Z 10098980 f i corelib:dgMemory.obj
 0001:000979d0       ??_GdgListNode@?$dgList@PAVdgMemoryAllocator@@@@AAEPAXI@Z 100989d0 f i corelib:dgMemory.obj
 0001:00097a00       ??3dgListNode@?$dgList@PAVdgMemoryAllocator@@@@CAXPAX@Z 10098a00 f i corelib:dgMemory.obj
 0001:00097a20       ??1dgListNode@?$dgList@PAVdgMemoryAllocator@@@@AAE@XZ 10098a20 f i corelib:dgMemory.obj
 0001:00097a30       ?Unlink@?$dgList@PAVdgMemoryAllocator@@@@QAEXQAVdgListNode@1@@Z 10098a30 f i corelib:dgMemory.obj
 0001:00097ae0       ?Unlink@dgListNode@?$dgList@PAVdgMemoryAllocator@@@@AAEXXZ 10098ae0 f i corelib:dgMemory.obj
 0001:00097b30       ?GetPrev@dgListNode@?$dgList@PAVdgMemoryAllocator@@@@QBEPAV12@XZ 10098b30 f i corelib:dgMemory.obj
 0001:00097b50       ?dgAtomicAdd@@YAHQAHH@Z    10098b50 f i corelib:dgMemory.obj
 0001:00097b70       ??0dgGlobalAllocator@@QAE@XZ 10098b70 f i corelib:dgMemory.obj
 0001:00097bc0       ?__malloc__@dgGlobalAllocator@@SAPAXI@Z 10098bc0 f i corelib:dgMemory.obj
 0001:00097be0       ?__free__@dgGlobalAllocator@@SAXPAXI@Z 10098be0 f i corelib:dgMemory.obj
 0001:00097c00       ??0?$dgList@PAVdgMemoryAllocator@@@@QAE@QAVdgMemoryAllocator@@@Z 10098c00 f i corelib:dgMemory.obj
 0001:00097c40       ?SetAllocator@?$dgList@PAVdgMemoryAllocator@@@@QAEXQAVdgMemoryAllocator@@@Z 10098c40 f i corelib:dgMemory.obj
 0001:00097c70       ??1dgGlobalAllocator@@QAE@XZ 10098c70 f i corelib:dgMemory.obj
 0001:00097cd0       ??1?$dgList@PAVdgMemoryAllocator@@@@QAE@XZ 10098cd0 f i corelib:dgMemory.obj
 0001:00097cf0       ?GetCount@?$dgList@PAVdgMemoryAllocator@@@@QBEHXZ 10098cf0 f i corelib:dgMemory.obj
 0001:00097d00       ?RemoveAll@?$dgList@PAVdgMemoryAllocator@@@@QAEXXZ 10098d00 f i corelib:dgMemory.obj
 0001:00097dc0       ?DJBHash@InternalCRC@@YAIQBDH@Z 10098dc0 f   corelib:dgCRC.obj
 0001:00097e10       ?dgCRC@@YAIQBD@Z           10098e10 f   corelib:dgCRC.obj
 0001:00097eb0       ?dgCRC@@YAIQBXHI@Z         10098eb0 f   corelib:dgCRC.obj
 0001:00097f40       ?dgInverseCRC@@YAPBDI@Z    10098f40 f   corelib:dgCRC.obj
 0001:00097f70       ?dgHash@@YAIQBXH@Z         10098f70 f   corelib:dgCRC.obj
 0001:00097f90       ?dgAbsf@@YANN@Z            10098f90 f   corelib:dgTypes.obj
 0001:00097fa0       ?dgSqrt@@YANN@Z            10098fa0 f   corelib:dgTypes.obj
 0001:00097fb0       ?dgSin@@YANN@Z             10098fb0 f   corelib:dgTypes.obj
 0001:00097fc0       ?dgCos@@YANN@Z             10098fc0 f   corelib:dgTypes.obj
 0001:00097fd0       ?dgAsin@@YANN@Z            10098fd0 f   corelib:dgTypes.obj
 0001:00097ff0       ?dgAcos@@YANN@Z            10098ff0 f   corelib:dgTypes.obj
 0001:00098010       ?dgAtan2@@YANNN@Z          10099010 f   corelib:dgTypes.obj
 0001:00098030       ?dgFloor@@YANN@Z           10099030 f   corelib:dgTypes.obj
 0001:00098060       ?dgFastInt@@YAHN@Z         10099060 f   corelib:dgTypes.obj
 0001:00098090       ?dgSinCos@@YAXNAAN0@Z      10099090 f   corelib:dgTypes.obj
 0001:000980b0       ?GetMinMax@@YAXAAVdgVector@@0QBNHH@Z 100990b0 f   corelib:dgTypes.obj
 0001:000982a0       ?dgGetCpuType@@YA?AW4dgCpuClass@@XZ 100992a0 f   corelib:dgTypes.obj
 0001:000982f0       ?dgVertexListToIndexList@@YAHQANHHHHQAHN@Z 100992f0 f   corelib:dgTypes.obj
 0001:00099400       ??0?$dgStack@N@@QAE@H@Z    1009a400 f i corelib:dgTypes.obj
 0001:00099430       ??1?$dgStack@N@@QAE@XZ     1009a430 f i corelib:dgTypes.obj
 0001:00099450       ??A?$dgStack@N@@QAEAANH@Z  1009a450 f i corelib:dgTypes.obj
 0001:000994d0       ?dgGetIdentityMatrix@@YAABVdgMatrix@@XZ 1009a4d0 f   corelib:dgMatrix.obj
 0001:000994e0       ?dgGetZeroMatrix@@YAABVdgMatrix@@XZ 1009a4e0 f   corelib:dgMatrix.obj
 0001:000994f0       ??0dgMatrix@@QAE@ABVdgQuaternion@@ABVdgVector@@@Z 1009a4f0 f   corelib:dgMatrix.obj
 0001:00099760       ??DdgMatrix@@QBE?AV0@ABV0@@Z 1009a760 f   corelib:dgMatrix.obj
 0001:0009a530       ?TransformTriplex@dgMatrix@@QBEXQAXHQBXHH@Z 1009b530 f   corelib:dgMatrix.obj
 0001:0009a640       ?TransformBBox@dgMatrix@@QBEXABVdgVector@@0AAV2@1@Z 1009b640 f   corelib:dgMatrix.obj
 0001:0009ab30       ?Symetric3by3Inverse@dgMatrix@@QBE?AV1@XZ 1009bb30 f   corelib:dgMatrix.obj
 0001:0009b240       ?EigenVectors@dgMatrix@@QAEXAAVdgVector@@@Z 1009c240 f   corelib:dgMatrix.obj
 0001:0009c2e0       ?CalcPitchYawRoll@dgMatrix@@QBE?AVdgVector@@XZ 1009d2e0 f   corelib:dgMatrix.obj
 0001:0009c680       ??0dgPolyhedraDescriptor@@QAE@ABVdgPolyhedra@@@Z 1009d680 f   corelib:dgPolyhedra.obj
 0001:0009c6c0       ??1dgPolyhedraDescriptor@@QAE@XZ 1009d6c0 f   corelib:dgPolyhedra.obj
 0001:0009c6e0       ?Update@dgPolyhedraDescriptor@@QAEXABVdgPolyhedra@@@Z 1009d6e0 f   corelib:dgPolyhedra.obj
 0001:0009c8f0       ??0dgPolyhedra@@QAE@QAVdgMemoryAllocator@@@Z 1009d8f0 f   corelib:dgPolyhedra.obj
 0001:0009c940       ??0dgPolyhedra@@QAE@ABV0@@Z 1009d940 f   corelib:dgPolyhedra.obj
 0001:0009cb10       ??1dgPolyhedra@@UAE@XZ     1009db10 f   corelib:dgPolyhedra.obj
 0001:0009cb30       ?DeleteAllFace@dgPolyhedra@@QAEXXZ 1009db30 f   corelib:dgPolyhedra.obj
 0001:0009cb70       ?SanityCheck@dgPolyhedra@@QBE_NXZ 1009db70 f   corelib:dgPolyhedra.obj
 0001:0009cb80       ?BeginFace@dgPolyhedra@@QAEXXZ 1009db80 f   corelib:dgPolyhedra.obj
 0001:0009cb90       ?EndFace@dgPolyhedra@@QAEXXZ 1009db90 f   corelib:dgPolyhedra.obj
 0001:0009ce80       ?AddFace@dgPolyhedra@@QAEPAVdgEdge@@HHH@Z 1009de80 f   corelib:dgPolyhedra.obj
 0001:0009cec0       ?AddFace@dgPolyhedra@@QAEPAVdgEdge@@HQBHQB_J@Z 1009dec0 f   corelib:dgPolyhedra.obj
 0001:0009d3b0       ?DeleteFace@dgPolyhedra@@QAEXQAVdgEdge@@@Z 1009e3b0 f   corelib:dgPolyhedra.obj
 0001:0009d4a0       ?FindVertexNode@dgPolyhedra@@QBEPAVdgEdge@@H@Z 1009e4a0 f   corelib:dgPolyhedra.obj
 0001:0009d510       ?FindEdgeNode@dgPolyhedra@@QBEPAVdgTreeNode@?$dgTree@VdgEdge@@_J@@HH@Z 1009e510 f   corelib:dgPolyhedra.obj
 0001:0009d550       ?FindEdge@dgPolyhedra@@QBEPAVdgEdge@@HH@Z 1009e550 f   corelib:dgPolyhedra.obj
 0001:0009d590       ?AddHalfEdge@dgPolyhedra@@QAEPAVdgEdge@@HH@Z 1009e590 f   corelib:dgPolyhedra.obj
 0001:0009d610       ?DeleteEdge@dgPolyhedra@@QAEXQAVdgEdge@@@Z 1009e610 f   corelib:dgPolyhedra.obj
 0001:0009d710       ?DeleteEdge@dgPolyhedra@@QAEXHH@Z 1009e710 f   corelib:dgPolyhedra.obj
 0001:0009d780       ?CollapseEdge@dgPolyhedra@@QAEPAVdgEdge@@QAV2@@Z 1009e780 f   corelib:dgPolyhedra.obj
 0001:0009dc40       ?ChangeEdgeIncidentVertex@dgPolyhedra@@QAEXQAVdgEdge@@H@Z 1009ec40 f   corelib:dgPolyhedra.obj
 0001:0009dd00       ?FlipEdge@dgPolyhedra@@QAE_NQAVdgEdge@@@Z 1009ed00 f   corelib:dgPolyhedra.obj
 0001:0009df20       ?SpliteEdge@dgPolyhedra@@QAEPAVdgEdge@@HQAV2@@Z 1009ef20 f   corelib:dgPolyhedra.obj
 0001:0009e130       ?SpliteEdgeAndTriangulate@dgPolyhedra@@QAEPAVdgEdge@@HQAV2@@Z 1009f130 f   corelib:dgPolyhedra.obj
 0001:0009e2c0       ?CalculateSphere@dgPolyhedra@@QBE?AVdgSphere@@QBNHQBVdgMatrix@@@Z 1009f2c0 f   corelib:dgPolyhedra.obj
 0001:0009ebe0       ?FaceNormal@dgPolyhedra@@QBE?AVdgVector@@QAVdgEdge@@QBNH@Z 1009fbe0 f   corelib:dgPolyhedra.obj
 0001:0009eda0       ?BigFaceNormal@dgPolyhedra@@QBE?AVdgBigVector@@QAVdgEdge@@QBNH@Z 1009fda0 f   corelib:dgPolyhedra.obj
 0001:0009edd0       ?GetMaxIndex@dgPolyhedra@@QBEHXZ 1009fdd0 f   corelib:dgPolyhedra.obj
 0001:0009ee60       ?GetFaceCount@dgPolyhedra@@QBEHXZ 1009fe60 f   corelib:dgPolyhedra.obj
 0001:0009ef30       ?GetUnboundedFaceCount@dgPolyhedra@@QBEHXZ 1009ff30 f   corelib:dgPolyhedra.obj
 0001:0009f000       ?PackVertex@dgPolyhedra@@QAEHQANQBNH@Z 100a0000 f   corelib:dgPolyhedra.obj
 0001:0009f040       ?GetBadEdges@dgPolyhedra@@QBEXAAV?$dgList@PAVdgEdge@@@@QBNH@Z 100a0040 f   corelib:dgPolyhedra.obj
 0001:0009fb70       ?DeleteDegenerateFaces@dgPolyhedra@@QAEXQBNHN@Z 100a0b70 f   corelib:dgPolyhedra.obj
 0001:0009fd30       ?GetConectedSurface@dgPolyhedra@@QBE_NAAV1@@Z 100a0d30 f   corelib:dgPolyhedra.obj
 0001:000a0020       ?GetCoplanarFaces@dgPolyhedra@@QBEXAAV?$dgList@PAVdgEdge@@@@PAVdgEdge@@QBNHN@Z 100a1020 f   corelib:dgPolyhedra.obj
 0001:000a03e0       ?DeleteOverlapingFaces@dgPolyhedra@@QAEXQBNHN@Z 100a13e0 f   corelib:dgPolyhedra.obj
 0001:000a09f0       ?InvertWinding@dgPolyhedra@@QAEXXZ 100a19f0 f   corelib:dgPolyhedra.obj
 0001:000a0bc0       ?TriangleList@dgPolyhedra@@QBEHQAIHH@Z 100a1bc0 f   corelib:dgPolyhedra.obj
 0001:000a0ef0       ?SwapInfo@dgPolyhedra@@QAEXAAV1@@Z 100a1ef0 f   corelib:dgPolyhedra.obj
 0001:000a0f70       ?GetOpenFaces@dgPolyhedra@@QBEXAAV?$dgList@PAVdgEdge@@@@@Z 100a1f70 f   corelib:dgPolyhedra.obj
 0001:000a1030       ?Optimize@dgPolyhedra@@QAEXQBNHN@Z 100a2030 f   corelib:dgPolyhedra.obj
 0001:000a2b70       ?Triangulate@dgPolyhedra@@QAEXQBNHQAV1@@Z 100a3b70 f   corelib:dgPolyhedra.obj
 0001:000a4510       ?ConvexPartition@dgPolyhedra@@QAEXQBNHQAV1@@Z 100a5510 f   corelib:dgPolyhedra.obj
 0001:000a58b0       ??_EdgPolyhedra@@UAEPAXI@Z 100a68b0 f i corelib:dgPolyhedra.obj
 0001:000a58b0       ??_GdgPolyhedra@@UAEPAXI@Z 100a68b0 f i corelib:dgPolyhedra.obj
 0001:000a58e0       ??0dgEdge@@QAE@HH_K@Z      100a68e0 f i corelib:dgPolyhedra.obj
 0001:000a5940       ??0dgPairKey@dgPolyhedra@@QAE@HH@Z 100a6940 f i corelib:dgPolyhedra.obj
 0001:000a5980       ?GetVal@dgPairKey@dgPolyhedra@@QBE_JXZ 100a6980 f i corelib:dgPolyhedra.obj
 0001:000a59a0       ??1?$dgDownHeap@PAVdgEdge@@N@@QAE@XZ 100a69a0 f i corelib:dgPolyhedra.obj
 0001:000a59c0       ??4dgPolyhedra@@QAEAAV0@ABV0@@Z 100a69c0 f i corelib:dgPolyhedra.obj
 0001:000a5a30       ??0VertexCache@InternalPolyhedra@@QAE@HQAVdgMemoryAllocator@@@Z 100a6a30 f i corelib:dgPolyhedra.obj
 0001:000a5a60       ?IsInCache@VertexCache@InternalPolyhedra@@QBEHPAVdgEdge@@@Z 100a6a60 f i corelib:dgPolyhedra.obj
 0001:000a5b00       ?AddEdge@VertexCache@InternalPolyhedra@@QAEHPAVdgEdge@@@Z 100a6b00 f i corelib:dgPolyhedra.obj
 0001:000a5b60       ?GetEdge@VertexCache@InternalPolyhedra@@QBEPAVdgEdge@@H@Z 100a6b60 f i corelib:dgPolyhedra.obj
 0001:000a5c10       ??1VertexCache@InternalPolyhedra@@QAE@XZ 100a6c10 f i corelib:dgPolyhedra.obj
 0001:000a5c30       ??0EDGE_HANDLE@InternalPolyhedra@@QAE@PAVdgEdge@@@Z 100a6c30 f i corelib:dgPolyhedra.obj
 0001:000a5c60       ??1EDGE_HANDLE@InternalPolyhedra@@QAE@XZ 100a6c60 f i corelib:dgPolyhedra.obj
 0001:000a5cb0       ?Evalue@VERTEX_METRIC_STRUCT@InternalPolyhedra@@QAENAAVdgVector@@@Z 100a6cb0 f i corelib:dgPolyhedra.obj
 0001:000a5d80       ??0dgBigPlane@@QAE@XZ      100a6d80 f i corelib:dgPolyhedra.obj
 0001:000a5da0       ??0VERTEX_METRIC_STRUCT@InternalPolyhedra@@QAE@ABVdgBigPlane@@@Z 100a6da0 f i corelib:dgPolyhedra.obj
 0001:000a5e90       ?Accumulate@VERTEX_METRIC_STRUCT@InternalPolyhedra@@QAEXAAU12@@Z 100a6e90 f i corelib:dgPolyhedra.obj
 0001:000a5f50       ?Clear@VERTEX_METRIC_STRUCT@InternalPolyhedra@@QAEXXZ 100a6f50 f i corelib:dgPolyhedra.obj
 0001:000a5f70       ?Accumulate@VERTEX_METRIC_STRUCT@InternalPolyhedra@@QAEXAAVdgBigPlane@@@Z 100a6f70 f i corelib:dgPolyhedra.obj
 0001:000a6090       ??1?$dgDownHeap@PAVdgListNode@?$dgList@UEDGE_HANDLE@InternalPolyhedra@@@@N@@QAE@XZ 100a7090 f i corelib:dgPolyhedra.obj
 0001:000a60b0       ??0dgDiagonalEdge@InternalPolyhedra@@QAE@QAVdgEdge@@@Z 100a70b0 f i corelib:dgPolyhedra.obj
 0001:000a60e0       ??0Iterator@?$dgList@PAVdgEdge@@@@QAE@ABV1@@Z 100a70e0 f i corelib:dgPolyhedra.obj
 0001:000a6110       ??1Iterator@?$dgList@PAVdgEdge@@@@QAE@XZ 100a7110 f i corelib:dgPolyhedra.obj
 0001:000a6120       ??BIterator@?$dgList@PAVdgEdge@@@@QBEHXZ 100a7120 f i corelib:dgPolyhedra.obj
 0001:000a6140       ?End@Iterator@?$dgList@PAVdgEdge@@@@QAEXXZ 100a7140 f i corelib:dgPolyhedra.obj
 0001:000a6160       ??FIterator@?$dgList@PAVdgEdge@@@@QAEXH@Z 100a7160 f i corelib:dgPolyhedra.obj
 0001:000a61b0       ??DIterator@?$dgList@PAVdgEdge@@@@QBEAAPAVdgEdge@@XZ 100a71b0 f i corelib:dgPolyhedra.obj
 0001:000a61d0       ?GetInfo@dgListNode@?$dgList@VdgDiagonalEdge@InternalPolyhedra@@@@QAEAAVdgDiagonalEdge@InternalPolyhedra@@XZ 100a71d0 f i corelib:dgPolyhedra.obj
 0001:000a61e0       ?GetNext@dgListNode@?$dgList@VdgDiagonalEdge@InternalPolyhedra@@@@QBEPAV12@XZ 100a71e0 f i corelib:dgPolyhedra.obj
 0001:000a6200       ??0Iterator@?$dgTree@PAVdgEdge@@H@@QAE@ABV1@@Z 100a7200 f i corelib:dgPolyhedra.obj
 0001:000a6230       ??1Iterator@?$dgTree@PAVdgEdge@@H@@QAE@XZ 100a7230 f i corelib:dgPolyhedra.obj
 0001:000a6240       ?Begin@Iterator@?$dgTree@PAVdgEdge@@H@@QAEXXZ 100a7240 f i corelib:dgPolyhedra.obj
 0001:000a6260       ??BIterator@?$dgTree@PAVdgEdge@@H@@QBEHXZ 100a7260 f i corelib:dgPolyhedra.obj
 0001:000a6280       ??EIterator@?$dgTree@PAVdgEdge@@H@@QAEXH@Z 100a7280 f i corelib:dgPolyhedra.obj
 0001:000a62d0       ?GetNode@Iterator@?$dgTree@PAVdgEdge@@H@@QBEPAVdgTreeNode@2@XZ 100a72d0 f i corelib:dgPolyhedra.obj
 0001:000a62e0       ?GetInfo@dgTreeNode@?$dgTree@PAVdgEdge@@H@@QAEAAPAVdgEdge@@XZ 100a72e0 f i corelib:dgPolyhedra.obj
 0001:000a6300       ?GetInfo@dgListNode@?$dgList@UEDGE_HANDLE@InternalPolyhedra@@@@QAEAAUEDGE_HANDLE@InternalPolyhedra@@XZ 100a7300 f i corelib:dgPolyhedra.obj
 0001:000a6310       ?GetInfo@dgListNode@?$dgList@PAVdgEdge@@@@QAEAAPAVdgEdge@@XZ 100a7310 f i corelib:dgPolyhedra.obj
 0001:000a6320       ?GetPrev@dgListNode@?$dgList@PAVdgEdge@@@@QBEPAV12@XZ 100a7320 f i corelib:dgPolyhedra.obj
 0001:000a6340       ??0?$dgList@PAVdgEdge@@@@QAE@QAVdgMemoryAllocator@@@Z 100a7340 f i corelib:dgPolyhedra.obj
 0001:000a6380       ??1?$dgList@PAVdgEdge@@@@QAE@XZ 100a7380 f i corelib:dgPolyhedra.obj
 0001:000a63a0       ?GetCount@?$dgList@PAVdgEdge@@@@QBEHXZ 100a73a0 f i corelib:dgPolyhedra.obj
 0001:000a63b0       ?GetLast@?$dgList@PAVdgEdge@@@@QBEPAVdgListNode@1@XZ 100a73b0 f i corelib:dgPolyhedra.obj
 0001:000a63d0       ?Append@?$dgList@PAVdgEdge@@@@QAEPAVdgListNode@1@ABQAVdgEdge@@@Z 100a73d0 f i corelib:dgPolyhedra.obj
 0001:000a6490       ?Addtop@?$dgList@PAVdgEdge@@@@QAEPAVdgListNode@1@ABQAVdgEdge@@@Z 100a7490 f i corelib:dgPolyhedra.obj
 0001:000a6550       ?Remove@?$dgList@PAVdgEdge@@@@QAEXQAVdgListNode@1@@Z 100a7550 f i corelib:dgPolyhedra.obj
 0001:000a65a0       ?RemoveAll@?$dgList@PAVdgEdge@@@@QAEXXZ 100a75a0 f i corelib:dgPolyhedra.obj
 0001:000a6660       ??0?$dgTree@VdgEdge@@_J@@QAE@QAVdgMemoryAllocator@@@Z 100a7660 f i corelib:dgPolyhedra.obj
 0001:000a6690       ??1?$dgTree@VdgEdge@@_J@@QAE@XZ 100a7690 f i corelib:dgPolyhedra.obj
 0001:000a66b0       ?Find@?$dgTree@VdgEdge@@_J@@QBEPAVdgTreeNode@1@_J@Z 100a76b0 f i corelib:dgPolyhedra.obj
 0001:000a67f0       ?FindGreaterEqual@?$dgTree@VdgEdge@@_J@@QBEPAVdgTreeNode@1@_J@Z 100a77f0 f i corelib:dgPolyhedra.obj
 0001:000a68d0       ?Insert@?$dgTree@VdgEdge@@_J@@QAEPAVdgTreeNode@1@ABVdgEdge@@_J@Z 100a78d0 f i corelib:dgPolyhedra.obj
 0001:000a6910       ?Insert@?$dgTree@VdgEdge@@_J@@QAEPAVdgTreeNode@1@ABVdgEdge@@_JAA_N@Z 100a7910 f i corelib:dgPolyhedra.obj
 0001:000a6b30       ?ReplaceKey@?$dgTree@VdgEdge@@_J@@QAEPAVdgTreeNode@1@QAV21@_J@Z 100a7b30 f i corelib:dgPolyhedra.obj
 0001:000a6b90       ?Remove@?$dgTree@VdgEdge@@_J@@QAEXQAVdgTreeNode@1@@Z 100a7b90 f i corelib:dgPolyhedra.obj
 0001:000a6bd0       ?SwapInfo@?$dgTree@VdgEdge@@_J@@QAEXAAV1@@Z 100a7bd0 f i corelib:dgPolyhedra.obj
 0001:000a6c10       ??$GetMax@N@@YANNNN@Z      100a7c10 f i corelib:dgPolyhedra.obj
 0001:000a6c50       ??0?$dgList@VdgDiagonalEdge@InternalPolyhedra@@@@QAE@QAVdgMemoryAllocator@@@Z 100a7c50 f i corelib:dgPolyhedra.obj
 0001:000a6c90       ??1?$dgList@VdgDiagonalEdge@InternalPolyhedra@@@@QAE@XZ 100a7c90 f i corelib:dgPolyhedra.obj
 0001:000a6cb0       ?GetCount@?$dgList@VdgDiagonalEdge@InternalPolyhedra@@@@QBEHXZ 100a7cb0 f i corelib:dgPolyhedra.obj
 0001:000a6cc0       ?GetFirst@?$dgList@VdgDiagonalEdge@InternalPolyhedra@@@@QBEPAVdgListNode@1@XZ 100a7cc0 f i corelib:dgPolyhedra.obj
 0001:000a6ce0       ?Append@?$dgList@VdgDiagonalEdge@InternalPolyhedra@@@@QAEPAVdgListNode@1@ABVdgDiagonalEdge@InternalPolyhedra@@@Z 100a7ce0 f i corelib:dgPolyhedra.obj
 0001:000a6da0       ?Remove@?$dgList@VdgDiagonalEdge@InternalPolyhedra@@@@QAEXQAVdgListNode@1@@Z 100a7da0 f i corelib:dgPolyhedra.obj
 0001:000a6df0       ??1?$dgHeapBase@PAVdgEdge@@N@@IAE@XZ 100a7df0 f i corelib:dgPolyhedra.obj
 0001:000a6e20       ?Flush@?$dgHeapBase@PAVdgEdge@@N@@QAEXXZ 100a7e20 f i corelib:dgPolyhedra.obj
 0001:000a6e40       ?GetCount@?$dgHeapBase@PAVdgEdge@@N@@QBEHXZ 100a7e40 f i corelib:dgPolyhedra.obj
 0001:000a6e50       ??A?$dgHeapBase@PAVdgEdge@@N@@QBEABQAVdgEdge@@H@Z 100a7e50 f i corelib:dgPolyhedra.obj
 0001:000a6ea0       ??0?$dgDownHeap@PAVdgEdge@@N@@QAE@QBXH@Z 100a7ea0 f i corelib:dgPolyhedra.obj
 0001:000a6ec0       ?Pop@?$dgDownHeap@PAVdgEdge@@N@@QAEXXZ 100a7ec0 f i corelib:dgPolyhedra.obj
 0001:000a6ff0       ?Push@?$dgDownHeap@PAVdgEdge@@N@@QAEXAAPAVdgEdge@@N@Z 100a7ff0 f i corelib:dgPolyhedra.obj
 0001:000a7110       ??0?$dgStack@_K@@QAE@H@Z   100a8110 f i corelib:dgPolyhedra.obj
 0001:000a7140       ??1?$dgStack@_K@@QAE@XZ    100a8140 f i corelib:dgPolyhedra.obj
 0001:000a7160       ??A?$dgStack@_K@@QAEAA_KH@Z 100a8160 f i corelib:dgPolyhedra.obj
 0001:000a71e0       ??0?$dgStack@PAVdgTreeNode@?$dgTree@VdgEdge@@_J@@@@QAE@H@Z 100a81e0 f i corelib:dgPolyhedra.obj
 0001:000a7210       ??1?$dgStack@PAVdgTreeNode@?$dgTree@VdgEdge@@_J@@@@QAE@XZ 100a8210 f i corelib:dgPolyhedra.obj
 0001:000a7230       ??A?$dgStack@PAVdgTreeNode@?$dgTree@VdgEdge@@_J@@@@QAEAAPAVdgTreeNode@?$dgTree@VdgEdge@@_J@@H@Z 100a8230 f i corelib:dgPolyhedra.obj
 0001:000a72b0       ??0?$dgStack@VdgPolyhedra@@@@QAE@H@Z 100a82b0 f i corelib:dgPolyhedra.obj
 0001:000a72e0       ??1?$dgStack@VdgPolyhedra@@@@QAE@XZ 100a82e0 f i corelib:dgPolyhedra.obj
 0001:000a7300       ??A?$dgStack@VdgPolyhedra@@@@QAEAAVdgPolyhedra@@H@Z 100a8300 f i corelib:dgPolyhedra.obj
 0001:000a7380       ??0?$dgStack@_J@@QAE@H@Z   100a8380 f i corelib:dgPolyhedra.obj
 0001:000a73b0       ??1?$dgStack@_J@@QAE@XZ    100a83b0 f i corelib:dgPolyhedra.obj
 0001:000a73d0       ??A?$dgStack@_J@@QAEAA_JH@Z 100a83d0 f i corelib:dgPolyhedra.obj
 0001:000a7450       ??0?$dgTree@PAVdgEdge@@H@@QAE@QAVdgMemoryAllocator@@@Z 100a8450 f i corelib:dgPolyhedra.obj
 0001:000a7480       ??1?$dgTree@PAVdgEdge@@H@@QAE@XZ 100a8480 f i corelib:dgPolyhedra.obj
 0001:000a74a0       ?GetCount@?$dgTree@PAVdgEdge@@H@@QBEHXZ 100a84a0 f i corelib:dgPolyhedra.obj
 0001:000a74b0       ?Minimum@?$dgTree@PAVdgEdge@@H@@QBEPAVdgTreeNode@1@XZ 100a84b0 f i corelib:dgPolyhedra.obj
 0001:000a74e0       ?Insert@?$dgTree@PAVdgEdge@@H@@QAEPAVdgTreeNode@1@ABQAVdgEdge@@H@Z 100a84e0 f i corelib:dgPolyhedra.obj
 0001:000a7520       ?Remove@?$dgTree@PAVdgEdge@@H@@QAEXQAVdgTreeNode@1@@Z 100a8520 f i corelib:dgPolyhedra.obj
 0001:000a7560       ??0?$dgList@UEDGE_HANDLE@InternalPolyhedra@@@@QAE@QAVdgMemoryAllocator@@@Z 100a8560 f i corelib:dgPolyhedra.obj
 0001:000a75a0       ??1?$dgList@UEDGE_HANDLE@InternalPolyhedra@@@@QAE@XZ 100a85a0 f i corelib:dgPolyhedra.obj
 0001:000a75c0       ?Addtop@?$dgList@UEDGE_HANDLE@InternalPolyhedra@@@@QAEPAVdgListNode@1@ABUEDGE_HANDLE@InternalPolyhedra@@@Z 100a85c0 f i corelib:dgPolyhedra.obj
 0001:000a7680       ?Remove@?$dgList@UEDGE_HANDLE@InternalPolyhedra@@@@QAEXQAVdgListNode@1@@Z 100a8680 f i corelib:dgPolyhedra.obj
 0001:000a76d0       ??0?$dgStack@UVERTEX_METRIC_STRUCT@InternalPolyhedra@@@@QAE@H@Z 100a86d0 f i corelib:dgPolyhedra.obj
 0001:000a7700       ??1?$dgStack@UVERTEX_METRIC_STRUCT@InternalPolyhedra@@@@QAE@XZ 100a8700 f i corelib:dgPolyhedra.obj
 0001:000a7720       ??A?$dgStack@UVERTEX_METRIC_STRUCT@InternalPolyhedra@@@@QAEAAUVERTEX_METRIC_STRUCT@InternalPolyhedra@@H@Z 100a8720 f i corelib:dgPolyhedra.obj
 0001:000a77a0       ??1?$dgHeapBase@PAVdgListNode@?$dgList@UEDGE_HANDLE@InternalPolyhedra@@@@N@@IAE@XZ 100a87a0 f i corelib:dgPolyhedra.obj
 0001:000a77d0       ?GetCount@?$dgHeapBase@PAVdgListNode@?$dgList@UEDGE_HANDLE@InternalPolyhedra@@@@N@@QBEHXZ 100a87d0 f i corelib:dgPolyhedra.obj
 0001:000a77e0       ??A?$dgHeapBase@PAVdgListNode@?$dgList@UEDGE_HANDLE@InternalPolyhedra@@@@N@@QBEABQAVdgListNode@?$dgList@UEDGE_HANDLE@InternalPolyhedra@@@@H@Z 100a87e0 f i corelib:dgPolyhedra.obj
 0001:000a7830       ??0?$dgDownHeap@PAVdgListNode@?$dgList@UEDGE_HANDLE@InternalPolyhedra@@@@N@@QAE@QBXH@Z 100a8830 f i corelib:dgPolyhedra.obj
 0001:000a7850       ?Pop@?$dgDownHeap@PAVdgListNode@?$dgList@UEDGE_HANDLE@InternalPolyhedra@@@@N@@QAEXXZ 100a8850 f i corelib:dgPolyhedra.obj
 0001:000a7980       ?Push@?$dgDownHeap@PAVdgListNode@?$dgList@UEDGE_HANDLE@InternalPolyhedra@@@@N@@QAEXAAPAVdgListNode@?$dgList@UEDGE_HANDLE@InternalPolyhedra@@@@N@Z 100a8980 f i corelib:dgPolyhedra.obj
 0001:000a7aa0       ??_GdgListNode@?$dgList@PAVdgEdge@@@@AAEPAXI@Z 100a8aa0 f i corelib:dgPolyhedra.obj
 0001:000a7ad0       ??_GdgListNode@?$dgList@VdgDiagonalEdge@InternalPolyhedra@@@@AAEPAXI@Z 100a8ad0 f i corelib:dgPolyhedra.obj
 0001:000a7b00       ??_GdgListNode@?$dgList@UEDGE_HANDLE@InternalPolyhedra@@@@AAEPAXI@Z 100a8b00 f i corelib:dgPolyhedra.obj
 0001:000a7b30       ??2dgListNode@?$dgList@PAVdgEdge@@@@CAPAXIQAVdgMemoryAllocator@@@Z 100a8b30 f i corelib:dgPolyhedra.obj
 0001:000a7b50       ??3dgListNode@?$dgList@PAVdgEdge@@@@CAXPAX@Z 100a8b50 f i corelib:dgPolyhedra.obj
 0001:000a7b70       ??0dgListNode@?$dgList@PAVdgEdge@@@@AAE@ABQAVdgEdge@@QAV01@1@Z 100a8b70 f i corelib:dgPolyhedra.obj
 0001:000a7c00       ??1dgListNode@?$dgList@PAVdgEdge@@@@AAE@XZ 100a8c00 f i corelib:dgPolyhedra.obj
 0001:000a7c10       ?Unlink@dgListNode@?$dgList@PAVdgEdge@@@@AAEXXZ 100a8c10 f i corelib:dgPolyhedra.obj
 0001:000a7c60       ?GetNext@dgListNode@?$dgList@PAVdgEdge@@@@QBEPAV12@XZ 100a8c60 f i corelib:dgPolyhedra.obj
 0001:000a7c80       ??0dgTreeNode@?$dgTree@VdgEdge@@_J@@AAE@ABVdgEdge@@AB_JPAV01@@Z 100a8c80 f i corelib:dgPolyhedra.obj
 0001:000a7d00       ?GetLeft@dgTreeNode@?$dgTree@VdgEdge@@_J@@ABEPAV12@XZ 100a8d00 f i corelib:dgPolyhedra.obj
 0001:000a7d10       ?GetRight@dgTreeNode@?$dgTree@VdgEdge@@_J@@ABEPAV12@XZ 100a8d10 f i corelib:dgPolyhedra.obj
 0001:000a7d30       ?GetParent@dgTreeNode@?$dgTree@VdgEdge@@_J@@AAEPAV12@XZ 100a8d30 f i corelib:dgPolyhedra.obj
 0001:000a7d50       ??2dgListNode@?$dgList@VdgDiagonalEdge@InternalPolyhedra@@@@CAPAXIQAVdgMemoryAllocator@@@Z 100a8d50 f i corelib:dgPolyhedra.obj
 0001:000a7d70       ??3dgListNode@?$dgList@VdgDiagonalEdge@InternalPolyhedra@@@@CAXPAX@Z 100a8d70 f i corelib:dgPolyhedra.obj
 0001:000a7d90       ??0dgListNode@?$dgList@VdgDiagonalEdge@InternalPolyhedra@@@@AAE@ABVdgDiagonalEdge@InternalPolyhedra@@QAV01@1@Z 100a8d90 f i corelib:dgPolyhedra.obj
 0001:000a7e30       ??1dgListNode@?$dgList@VdgDiagonalEdge@InternalPolyhedra@@@@AAE@XZ 100a8e30 f i corelib:dgPolyhedra.obj
 0001:000a7e40       ??2dgListNode@?$dgList@UEDGE_HANDLE@InternalPolyhedra@@@@CAPAXIQAVdgMemoryAllocator@@@Z 100a8e40 f i corelib:dgPolyhedra.obj
 0001:000a7e60       ??3dgListNode@?$dgList@UEDGE_HANDLE@InternalPolyhedra@@@@CAXPAX@Z 100a8e60 f i corelib:dgPolyhedra.obj
 0001:000a7e80       ??0dgListNode@?$dgList@UEDGE_HANDLE@InternalPolyhedra@@@@AAE@ABUEDGE_HANDLE@InternalPolyhedra@@QAV01@1@Z 100a8e80 f i corelib:dgPolyhedra.obj
 0001:000a7f10       ??0EDGE_HANDLE@InternalPolyhedra@@QAE@ABU01@@Z 100a8f10 f i corelib:dgPolyhedra.obj
 0001:000a7f90       ??1dgListNode@?$dgList@UEDGE_HANDLE@InternalPolyhedra@@@@AAE@XZ 100a8f90 f i corelib:dgPolyhedra.obj
 0001:000a7fb0       ?Unlink@?$dgList@PAVdgEdge@@@@QAEXQAVdgListNode@1@@Z 100a8fb0 f i corelib:dgPolyhedra.obj
 0001:000a8060       ?Insert@?$dgTree@VdgEdge@@_J@@QAEPAVdgTreeNode@1@QAV21@_J@Z 100a9060 f i corelib:dgPolyhedra.obj
 0001:000a8220       ?Unlink@?$dgTree@VdgEdge@@_J@@QAEXQAVdgTreeNode@1@@Z 100a9220 f i corelib:dgPolyhedra.obj
 0001:000a8290       ?CompareKeys@?$dgTree@VdgEdge@@_J@@ABEHAB_J0@Z 100a9290 f i corelib:dgPolyhedra.obj
 0001:000a8300       ??$Swap@PAVdgTreeNode@?$dgTree@VdgEdge@@_J@@@@YAXAAPAVdgTreeNode@?$dgTree@VdgEdge@@_J@@0@Z 100a9300 f i corelib:dgPolyhedra.obj
 0001:000a8330       ?RemoveAll@?$dgList@VdgDiagonalEdge@InternalPolyhedra@@@@QAEXXZ 100a9330 f i corelib:dgPolyhedra.obj
 0001:000a83f0       ?Unlink@?$dgList@VdgDiagonalEdge@InternalPolyhedra@@@@QAEXQAVdgListNode@1@@Z 100a93f0 f i corelib:dgPolyhedra.obj
 0001:000a84a0       ??0?$dgHeapBase@PAVdgEdge@@N@@IAE@QBXH@Z 100a94a0 f i corelib:dgPolyhedra.obj
 0001:000a84e0       ?Insert@?$dgTree@PAVdgEdge@@H@@QAEPAVdgTreeNode@1@ABQAVdgEdge@@HAA_N@Z 100a94e0 f i corelib:dgPolyhedra.obj
 0001:000a86e0       ?RemoveAll@?$dgTree@PAVdgEdge@@H@@QAEXXZ 100a96e0 f i corelib:dgPolyhedra.obj
 0001:000a8720       ?RemoveAll@?$dgList@UEDGE_HANDLE@InternalPolyhedra@@@@QAEXXZ 100a9720 f i corelib:dgPolyhedra.obj
 0001:000a87e0       ?Unlink@?$dgList@UEDGE_HANDLE@InternalPolyhedra@@@@QAEXQAVdgListNode@1@@Z 100a97e0 f i corelib:dgPolyhedra.obj
 0001:000a8890       ??0?$dgHeapBase@PAVdgListNode@?$dgList@UEDGE_HANDLE@InternalPolyhedra@@@@N@@IAE@QBXH@Z 100a9890 f i corelib:dgPolyhedra.obj
 0001:000a88d0       ?GetKey@dgTreeNode@?$dgTree@VdgEdge@@_J@@QBEAB_JXZ 100a98d0 f i corelib:dgPolyhedra.obj
 0001:000a88f0       ?Unlink@dgListNode@?$dgList@VdgDiagonalEdge@InternalPolyhedra@@@@AAEXXZ 100a98f0 f i corelib:dgPolyhedra.obj
 0001:000a8940       ?GetPrev@dgListNode@?$dgList@VdgDiagonalEdge@InternalPolyhedra@@@@QBEPAV12@XZ 100a9940 f i corelib:dgPolyhedra.obj
 0001:000a8960       ??0dgTreeNode@?$dgTree@PAVdgEdge@@H@@AAE@ABQAVdgEdge@@ABHPAV01@@Z 100a9960 f i corelib:dgPolyhedra.obj
 0001:000a89d0       ?GetLeft@dgTreeNode@?$dgTree@PAVdgEdge@@H@@ABEPAV12@XZ 100a99d0 f i corelib:dgPolyhedra.obj
 0001:000a89e0       ?GetRight@dgTreeNode@?$dgTree@PAVdgEdge@@H@@ABEPAV12@XZ 100a99e0 f i corelib:dgPolyhedra.obj
 0001:000a8a00       ?Unlink@dgListNode@?$dgList@UEDGE_HANDLE@InternalPolyhedra@@@@AAEXXZ 100a9a00 f i corelib:dgPolyhedra.obj
 0001:000a8a50       ?GetNext@dgListNode@?$dgList@UEDGE_HANDLE@InternalPolyhedra@@@@QBEPAV12@XZ 100a9a50 f i corelib:dgPolyhedra.obj
 0001:000a8a70       ?GetPrev@dgListNode@?$dgList@UEDGE_HANDLE@InternalPolyhedra@@@@QBEPAV12@XZ 100a9a70 f i corelib:dgPolyhedra.obj
 0001:000a8a90       ?CompareKeys@?$dgTree@PAVdgEdge@@H@@ABEHABH0@Z 100a9a90 f i corelib:dgPolyhedra.obj
 0001:000a8ad0       ?Flush@?$dgHeapBase@PAVdgListNode@?$dgList@UEDGE_HANDLE@InternalPolyhedra@@@@N@@QAEXXZ 100a9ad0 f i corelib:dgPolyhedra.obj
 0001:000a8af0       ?Minimum@dgRedBackNode@@QBEPAV1@XZ 100a9af0 f   corelib:dgTree.obj
 0001:000a8b20       ?Maximum@dgRedBackNode@@QBEPAV1@XZ 100a9b20 f   corelib:dgTree.obj
 0001:000a8b50       ?Prev@dgRedBackNode@@QBEPAV1@XZ 100a9b50 f   corelib:dgTree.obj
 0001:000a8bb0       ?Next@dgRedBackNode@@QBEPAV1@XZ 100a9bb0 f   corelib:dgTree.obj
 0001:000a8c10       ?RotateLeft@dgRedBackNode@@QAEXQAPAV1@@Z 100a9c10 f   corelib:dgTree.obj
 0001:000a8cb0       ?RotateRight@dgRedBackNode@@QAEXQAPAV1@@Z 100a9cb0 f   corelib:dgTree.obj
 0001:000a8d60       ?InsertFixup@dgRedBackNode@@QAEXQAPAV1@@Z 100a9d60 f   corelib:dgTree.obj
 0001:000a8f70       ?RemoveFixup@dgRedBackNode@@QAEXQAV1@QAPAV1@@Z 100a9f70 f   corelib:dgTree.obj
 0001:000a9280       ?Unlink@dgRedBackNode@@QAEXQAPAV1@@Z 100aa280 f   corelib:dgTree.obj
 0001:000a9510       ?Remove@dgRedBackNode@@QAEXQAPAV1@@Z 100aa510 f   corelib:dgTree.obj
 0001:000a9560       ?RemoveAllLow@dgRedBackNode@@QAEXXZ 100aa560 f   corelib:dgTree.obj
 0001:000a95d0       ?RemoveAll@dgRedBackNode@@QAEXXZ 100aa5d0 f   corelib:dgTree.obj
 0001:000a9610       ?GetColor@dgRedBackNode@@QBE?AW4REDBLACK_COLOR@1@XZ 100aa610 f i corelib:dgTree.obj
 0001:000a9630       ??_GdgRedBackNode@@QAEPAXI@Z 100aa630 f i corelib:dgTree.obj
 0001:000a9660       ??3dgRedBackNode@@SAXPAX@Z 100aa660 f i corelib:dgTree.obj
 0001:000a9680       ??1dgRedBackNode@@QAE@XZ   100aa680 f i corelib:dgTree.obj
 0001:000a9690       ??0dgThreads@@QAE@XZ       100aa690 f   corelib:dgThreads.obj
 0001:000a9780       ??1dgThreads@@QAE@XZ       100aa780 f   corelib:dgThreads.obj
 0001:000a97a0       ?GetThreadCount@dgThreads@@QBEHXZ 100aa7a0 f   corelib:dgThreads.obj
 0001:000a97d0       ?ClearTimers@dgThreads@@QAEXXZ 100aa7d0 f   corelib:dgThreads.obj
 0001:000a9810       ?SetPerfomanceCounter@dgThreads@@QAEXP6AIXZ@Z 100aa810 f   corelib:dgThreads.obj
 0001:000a9830       ?GetPerfomanceTicks@dgThreads@@QBEII@Z 100aa830 f   corelib:dgThreads.obj
 0001:000a9860       ?CreateThreaded@dgThreads@@QAEXH@Z 100aa860 f   corelib:dgThreads.obj
 0001:000a9970       ?DestroydgThreads@dgThreads@@QAEXXZ 100aa970 f   corelib:dgThreads.obj
 0001:000a9ad0       ?SubmitJob@dgThreads@@QAEHQAVdgWorkerThread@@@Z 100aaad0 f   corelib:dgThreads.obj
 0001:000a9bb0       ?ThreadExecute@dgThreads@@CGIPAX@Z 100aabb0 f   corelib:dgThreads.obj
 0001:000a9be0       ?GetWork@dgThreads@@AAEHPAPAVdgWorkerThread@@@Z 100aabe0 f   corelib:dgThreads.obj
 0001:000a9c80       ?DoWork@dgThreads@@AAEXH@Z 100aac80 f   corelib:dgThreads.obj
 0001:000a9d50       ?SynchronizationBarrier@dgThreads@@QAEXXZ 100aad50 f   corelib:dgThreads.obj
 0001:000a9d80       ?CalculateChunkSizes@dgThreads@@QBEXHQAH@Z 100aad80 f   corelib:dgThreads.obj
 0001:000a9e00       ?dgGetLock@dgThreads@@QBEXXZ 100aae00 f   corelib:dgThreads.obj
 0001:000a9e40       ?dgReleaseLock@dgThreads@@QBEXXZ 100aae40 f   corelib:dgThreads.obj
 0001:000a9e60       ?dgGetIndirectLock@dgThreads@@QAEXPAH@Z 100aae60 f   corelib:dgThreads.obj
 0001:000a9e80       ?dgReleaseIndirectLock@dgThreads@@QAEXPAH@Z 100aae80 f   corelib:dgThreads.obj
 0001:000a9ea0       ?dgSpinUnlock@@YAXPAH@Z    100aaea0 f i corelib:dgThreads.obj
 0001:000a9eb0       ??0FastRayTest@@QAE@ABVdgVector@@0@Z 100aaeb0 f   corelib:dgIntersections.obj
 0001:000aa2a0       ?BoxTestSimd@FastRayTest@@QBEHABVdgVector@@0@Z 100ab2a0 f   corelib:dgIntersections.obj
 0001:000aa2b0       ?BoxTest@FastRayTest@@QBEHABVdgVector@@0@Z 100ab2b0 f   corelib:dgIntersections.obj
 0001:000aa420       ?PolygonIntersectSimd@FastRayTest@@QBENABVdgVector@@QBNHQBHH@Z 100ab420 f   corelib:dgIntersections.obj
 0001:000aa430       ?PolygonIntersect@FastRayTest@@QBENABVdgVector@@QBNHQBHH@Z 100ab430 f   corelib:dgIntersections.obj
 0001:000aa690       ?dgRayBoxClip@@YA_NAAVdgVector@@0ABV1@1@Z 100ab690 f   corelib:dgIntersections.obj
 0001:000aaa10       ?dgPointToRayDistance@@YA?AVdgVector@@ABV1@00@Z 100aba10 f   corelib:dgIntersections.obj
 0001:000aaad0       ?dgRayToRayDistance@@YAXABVdgVector@@000AAV1@1@Z 100abad0 f   corelib:dgIntersections.obj
 0001:000aaf00       ?dgPointToTriangleDistance@@YA?AVdgVector@@ABV1@000@Z 100abf00 f   corelib:dgIntersections.obj
 0001:000ab5a0       ?dgPointToTriangleDistance@@YA?AVdgBigVector@@ABV1@000@Z 100ac5a0 f   corelib:dgIntersections.obj
 0001:000abc40       ?dgPointToPolygonDistance@@YA_NABVdgVector@@QBNHQBHHNAAV1@@Z 100acc40 f   corelib:dgIntersections.obj
 0001:000abe10       ?LineTriangleIntersection@@YA?AVdgBigVector@@ABV1@0000@Z 100ace10 f   corelib:dgIntersections.obj
 0001:000ac4b0       ??0dgHugeVector@@QAE@ABVdgBigVector@@@Z 100ad4b0 f i corelib:dgIntersections.obj
 0001:000ac5c0       ??0dgHugeVector@@QAE@ABV?$dgTemplateVector@VdgGoogol@@@@@Z 100ad5c0 f i corelib:dgIntersections.obj
 0001:000ac5f0       ??1?$dgTemplateVector@VdgGoogol@@@@QAE@XZ 100ad5f0 f i corelib:dgIntersections.obj
 0001:000ac630       ??1dgHugeVector@@QAE@XZ    100ad630 f i corelib:dgIntersections.obj
 0001:000ac650       ??0?$dgTemplateVector@VdgGoogol@@@@QAE@XZ 100ad650 f i corelib:dgIntersections.obj
 0001:000ac690       ??G?$dgTemplateVector@VdgGoogol@@@@QBE?AV0@ABV0@@Z 100ad690 f i corelib:dgIntersections.obj
 0001:000ac780       ??L?$dgTemplateVector@VdgGoogol@@@@QBE?AVdgGoogol@@ABV0@@Z 100ad780 f i corelib:dgIntersections.obj
 0001:000ac840       ??D?$dgTemplateVector@VdgGoogol@@@@QBE?AV0@ABV0@@Z 100ad840 f i corelib:dgIntersections.obj
 0001:000aca00       ??0?$dgTemplateVector@VdgGoogol@@@@QAE@VdgGoogol@@000@Z 100ada00 f i corelib:dgIntersections.obj
 0001:000acac0       ??0dgPolyhedraMassProperties@@QAE@XZ 100adac0 f   corelib:dgPolyhedraMassProperties.obj
 0001:000acae0       ?AddCGFace@dgPolyhedraMassProperties@@QAEXHPBVdgVector@@@Z 100adae0 f   corelib:dgPolyhedraMassProperties.obj
 0001:000acd40       ?AddInertiaFace@dgPolyhedraMassProperties@@QAEXHPBN@Z 100add40 f   corelib:dgPolyhedraMassProperties.obj
 0001:000ad150       ?AddInertiaAndCrossFace@dgPolyhedraMassProperties@@QAEXHPBN@Z 100ae150 f   corelib:dgPolyhedraMassProperties.obj
 0001:000ad6a0       ?MassProperties@dgPolyhedraMassProperties@@QAENAAVdgVector@@00@Z 100ae6a0 f   corelib:dgPolyhedraMassProperties.obj
 0001:000ad790       ??0dgConvexHull3DFace@@QAE@XZ 100ae790 f   corelib:dgConvexHull3d.obj
 0001:000ad7d0       ?Evalue@dgConvexHull3DFace@@ABENQBVdgBigVector@@ABV2@@Z 100ae7d0 f   corelib:dgConvexHull3d.obj
 0001:000adbc0       ?GetPlaneEquation@dgConvexHull3DFace@@ABE?AVdgBigPlane@@QBVdgBigVector@@@Z 100aebc0 f   corelib:dgConvexHull3d.obj
 0001:000adc80       ??0dgConvexHull3d@@IAE@QAVdgMemoryAllocator@@@Z 100aec80 f   corelib:dgConvexHull3d.obj
 0001:000adcd0       ??0dgConvexHull3d@@QAE@QAVdgMemoryAllocator@@QBNHHN@Z 100aecd0 f   corelib:dgConvexHull3d.obj
 0001:000adf00       ??1dgConvexHull3d@@UAE@XZ  100aef00 f   corelib:dgConvexHull3d.obj
 0001:000adf30       ?ConvexCompareVertex@dgConvexHull3d@@KAHQBVdgBigVector@@0QAX@Z 100aef30 f   corelib:dgConvexHull3d.obj
 0001:000adfb0       ?BuildTree@dgConvexHull3d@@IBEPAVdgAABBPointTree3d@@QAV2@QAVdgBigVector@@HHQAPADAAH@Z 100aefb0 f   corelib:dgConvexHull3d.obj
 0001:000ae880       ?InitVertexArray@dgConvexHull3d@@MAEHQAVdgBigVector@@0QBNHHQAXH@Z 100af880 f   corelib:dgConvexHull3d.obj
 0001:000af140       ?TetrahedrumVolume@dgConvexHull3d@@IBENABVdgBigVector@@000@Z 100b0140 f   corelib:dgConvexHull3d.obj
 0001:000af1e0       ?TessellateTriangle@dgConvexHull3d@@IBEXHABVdgVector@@00AAHQAVdgBigVector@@1@Z 100b01e0 f   corelib:dgConvexHull3d.obj
 0001:000af6e0       ?SupportVertex@dgConvexHull3d@@IBEHQAPAVdgAABBPointTree3d@@QBVdgBigVector@@ABV3@@Z 100b06e0 f   corelib:dgConvexHull3d.obj
 0001:000afe50       ?BuildNormalList@dgConvexHull3d@@IBEHQAVdgBigVector@@@Z 100b0e50 f   corelib:dgConvexHull3d.obj
 0001:000b0180       ?AddFace@dgConvexHull3d@@MAEPAVdgListNode@?$dgList@VdgConvexHull3DFace@@@@HHH@Z 100b1180 f   corelib:dgConvexHull3d.obj
 0001:000b01d0       ?DeleteFace@dgConvexHull3d@@MAEXQAVdgListNode@?$dgList@VdgConvexHull3DFace@@@@@Z 100b11d0 f   corelib:dgConvexHull3d.obj
 0001:000b01f0       ?Sanity@dgConvexHull3d@@IBE_NXZ 100b11f0 f   corelib:dgConvexHull3d.obj
 0001:000b0200       ?CalculateConvexHull@dgConvexHull3d@@IAEXPAVdgAABBPointTree3d@@QAVdgBigVector@@1HN@Z 100b1200 f   corelib:dgConvexHull3d.obj
 0001:000b0c50       ??_EdgConvexHull3d@@UAEPAXI@Z 100b1c50 f i corelib:dgConvexHull3d.obj
 0001:000b0c50       ??_GdgConvexHull3d@@UAEPAXI@Z 100b1c50 f i corelib:dgConvexHull3d.obj
 0001:000b0c80       ??2@YAPAXIPAX@Z            100b1c80 f i corelib:dgConvexHull3d.obj
 0001:000b0c90       ??0dgAABBPointTree3d@@QAE@XZ 100b1c90 f i corelib:dgConvexHull3d.obj
 0001:000b0cd0       ??0dgAABBPointTree3dClump@@QAE@XZ 100b1cd0 f i corelib:dgConvexHull3d.obj
 0001:000b0cf0       ??3?$dgList@VdgConvexHull3DFace@@@@SAXPAX@Z 100b1cf0 f i corelib:dgConvexHull3d.obj
 0001:000b0d10       ?GetInfo@dgListNode@?$dgList@PAVdgListNode@?$dgList@VdgConvexHull3DFace@@@@@@QAEAAPAV1?$dgList@VdgConvexHull3DFace@@@@XZ 100b1d10 f i corelib:dgConvexHull3d.obj
 0001:000b0d20       ??0?$dgList@VdgConvexHull3DFace@@@@QAE@QAVdgMemoryAllocator@@@Z 100b1d20 f i corelib:dgConvexHull3d.obj
 0001:000b0d60       ??1?$dgList@VdgConvexHull3DFace@@@@QAE@XZ 100b1d60 f i corelib:dgConvexHull3d.obj
 0001:000b0d80       ?GetAllocator@?$dgList@VdgConvexHull3DFace@@@@QBEPAVdgMemoryAllocator@@XZ 100b1d80 f i corelib:dgConvexHull3d.obj
 0001:000b0da0       ?Append@?$dgList@VdgConvexHull3DFace@@@@QAEPAVdgListNode@1@XZ 100b1da0 f i corelib:dgConvexHull3d.obj
 0001:000b0e60       ?Remove@?$dgList@VdgConvexHull3DFace@@@@QAEXQAVdgListNode@1@@Z 100b1e60 f i corelib:dgConvexHull3d.obj
 0001:000b0eb0       ??0?$dgArray@VdgVector@@@@QAE@HQAVdgMemoryAllocator@@@Z 100b1eb0 f i corelib:dgConvexHull3d.obj
 0001:000b0ef0       ??1?$dgArray@VdgVector@@@@QAE@XZ 100b1ef0 f i corelib:dgConvexHull3d.obj
 0001:000b0f20       ??A?$dgArray@VdgVector@@@@QAEAAVdgVector@@H@Z 100b1f20 f i corelib:dgConvexHull3d.obj
 0001:000b0f80       ??0?$dgStack@VdgBigVector@@@@QAE@H@Z 100b1f80 f i corelib:dgConvexHull3d.obj
 0001:000b0fb0       ??1?$dgStack@VdgBigVector@@@@QAE@XZ 100b1fb0 f i corelib:dgConvexHull3d.obj
 0001:000b0fd0       ??A?$dgStack@VdgBigVector@@@@QAEAAVdgBigVector@@H@Z 100b1fd0 f i corelib:dgConvexHull3d.obj
 0001:000b1050       ??0?$dgStack@VdgAABBPointTree3dClump@@@@QAE@H@Z 100b2050 f i corelib:dgConvexHull3d.obj
 0001:000b1080       ??1?$dgStack@VdgAABBPointTree3dClump@@@@QAE@XZ 100b2080 f i corelib:dgConvexHull3d.obj
 0001:000b10a0       ?GetSizeInBytes@?$dgStack@VdgAABBPointTree3dClump@@@@QBEHXZ 100b20a0 f i corelib:dgConvexHull3d.obj
 0001:000b10c0       ??A?$dgStack@VdgAABBPointTree3dClump@@@@QAEAAVdgAABBPointTree3dClump@@H@Z 100b20c0 f i corelib:dgConvexHull3d.obj
 0001:000b1140       ??$dgSort@VdgBigVector@@@@YAXQAVdgBigVector@@HP6AHQBV0@1QAX@Z2@Z 100b2140 f i corelib:dgConvexHull3d.obj
 0001:000b1510       ??0?$dgList@PAVdgListNode@?$dgList@VdgConvexHull3DFace@@@@@@QAE@QAVdgMemoryAllocator@@@Z 100b2510 f i corelib:dgConvexHull3d.obj
 0001:000b1550       ??1?$dgList@PAVdgListNode@?$dgList@VdgConvexHull3DFace@@@@@@QAE@XZ 100b2550 f i corelib:dgConvexHull3d.obj
 0001:000b1570       ?GetCount@?$dgList@PAVdgListNode@?$dgList@VdgConvexHull3DFace@@@@@@QBEHXZ 100b2570 f i corelib:dgConvexHull3d.obj
 0001:000b1580       ?GetFirst@?$dgList@PAVdgListNode@?$dgList@VdgConvexHull3DFace@@@@@@QBEPAVdgListNode@1@XZ 100b2580 f i corelib:dgConvexHull3d.obj
 0001:000b15a0       ?Append@?$dgList@PAVdgListNode@?$dgList@VdgConvexHull3DFace@@@@@@QAEPAVdgListNode@1@ABQAV2?$dgList@VdgConvexHull3DFace@@@@@Z 100b25a0 f i corelib:dgConvexHull3d.obj
 0001:000b1660       ?Addtop@?$dgList@PAVdgListNode@?$dgList@VdgConvexHull3DFace@@@@@@QAEPAVdgListNode@1@ABQAV2?$dgList@VdgConvexHull3DFace@@@@@Z 100b2660 f i corelib:dgConvexHull3d.obj
 0001:000b1720       ?Remove@?$dgList@PAVdgListNode@?$dgList@VdgConvexHull3DFace@@@@@@QAEXABQAVdgListNode@?$dgList@VdgConvexHull3DFace@@@@@Z 100b2720 f i corelib:dgConvexHull3d.obj
 0001:000b1750       ??0?$dgStack@PAVdgListNode@?$dgList@VdgConvexHull3DFace@@@@@@QAE@H@Z 100b2750 f i corelib:dgConvexHull3d.obj
 0001:000b1780       ??1?$dgStack@PAVdgListNode@?$dgList@VdgConvexHull3DFace@@@@@@QAE@XZ 100b2780 f i corelib:dgConvexHull3d.obj
 0001:000b17a0       ?GetElementsCount@?$dgStack@PAVdgListNode@?$dgList@VdgConvexHull3DFace@@@@@@QBEHXZ 100b27a0 f i corelib:dgConvexHull3d.obj
 0001:000b17c0       ??A?$dgStack@PAVdgListNode@?$dgList@VdgConvexHull3DFace@@@@@@QAEAAPAVdgListNode@?$dgList@VdgConvexHull3DFace@@@@H@Z 100b27c0 f i corelib:dgConvexHull3d.obj
 0001:000b1840       ??_GdgListNode@?$dgList@VdgConvexHull3DFace@@@@AAEPAXI@Z 100b2840 f i corelib:dgConvexHull3d.obj
 0001:000b1870       ??2dgListNode@?$dgList@VdgConvexHull3DFace@@@@CAPAXIQAVdgMemoryAllocator@@@Z 100b2870 f i corelib:dgConvexHull3d.obj
 0001:000b1890       ??3dgListNode@?$dgList@VdgConvexHull3DFace@@@@CAXPAX@Z 100b2890 f i corelib:dgConvexHull3d.obj
 0001:000b18b0       ??0dgListNode@?$dgList@VdgConvexHull3DFace@@@@AAE@QAV01@0@Z 100b28b0 f i corelib:dgConvexHull3d.obj
 0001:000b1940       ??1dgListNode@?$dgList@VdgConvexHull3DFace@@@@AAE@XZ 100b2940 f i corelib:dgConvexHull3d.obj
 0001:000b1950       ??2dgListNode@?$dgList@PAVdgListNode@?$dgList@VdgConvexHull3DFace@@@@@@CAPAXIQAVdgMemoryAllocator@@@Z 100b2950 f i corelib:dgConvexHull3d.obj
 0001:000b1970       ??0dgListNode@?$dgList@PAVdgListNode@?$dgList@VdgConvexHull3DFace@@@@@@AAE@ABQAV0?$dgList@VdgConvexHull3DFace@@@@QAV01@1@Z 100b2970 f i corelib:dgConvexHull3d.obj
 0001:000b1a00       ?RemoveAll@?$dgList@VdgConvexHull3DFace@@@@QAEXXZ 100b2a00 f i corelib:dgConvexHull3d.obj
 0001:000b1ac0       ?Unlink@?$dgList@VdgConvexHull3DFace@@@@QAEXQAVdgListNode@1@@Z 100b2ac0 f i corelib:dgConvexHull3d.obj
 0001:000b1b70       ?Find@?$dgList@PAVdgListNode@?$dgList@VdgConvexHull3DFace@@@@@@QBEPAVdgListNode@1@ABQAV2?$dgList@VdgConvexHull3DFace@@@@@Z 100b2b70 f i corelib:dgConvexHull3d.obj
 0001:000b1bb0       ?Remove@?$dgList@PAVdgListNode@?$dgList@VdgConvexHull3DFace@@@@@@QAEXQAVdgListNode@1@@Z 100b2bb0 f i corelib:dgConvexHull3d.obj
 0001:000b1c00       ?RemoveAll@?$dgList@PAVdgListNode@?$dgList@VdgConvexHull3DFace@@@@@@QAEXXZ 100b2c00 f i corelib:dgConvexHull3d.obj
 0001:000b1cc0       ??_GdgListNode@?$dgList@PAVdgListNode@?$dgList@VdgConvexHull3DFace@@@@@@AAEPAXI@Z 100b2cc0 f i corelib:dgConvexHull3d.obj
 0001:000b1cf0       ?Unlink@dgListNode@?$dgList@VdgConvexHull3DFace@@@@AAEXXZ 100b2cf0 f i corelib:dgConvexHull3d.obj
 0001:000b1d40       ?GetPrev@dgListNode@?$dgList@VdgConvexHull3DFace@@@@QBEPAV12@XZ 100b2d40 f i corelib:dgConvexHull3d.obj
 0001:000b1d60       ??3dgListNode@?$dgList@PAVdgListNode@?$dgList@VdgConvexHull3DFace@@@@@@CAXPAX@Z 100b2d60 f i corelib:dgConvexHull3d.obj
 0001:000b1d80       ??1dgListNode@?$dgList@PAVdgListNode@?$dgList@VdgConvexHull3DFace@@@@@@AAE@XZ 100b2d80 f i corelib:dgConvexHull3d.obj
 0001:000b1d90       ?Unlink@dgListNode@?$dgList@PAVdgListNode@?$dgList@VdgConvexHull3DFace@@@@@@AAEXXZ 100b2d90 f i corelib:dgConvexHull3d.obj
 0001:000b1de0       ?GetNext@dgListNode@?$dgList@PAVdgListNode@?$dgList@VdgConvexHull3DFace@@@@@@QBEPAV12@XZ 100b2de0 f i corelib:dgConvexHull3d.obj
 0001:000b1e00       ?Unlink@?$dgList@PAVdgListNode@?$dgList@VdgConvexHull3DFace@@@@@@QAEXQAVdgListNode@1@@Z 100b2e00 f i corelib:dgConvexHull3d.obj
 0001:000b1eb0       ?GetPrev@dgListNode@?$dgList@PAVdgListNode@?$dgList@VdgConvexHull3DFace@@@@@@QBEPAV12@XZ 100b2eb0 f i corelib:dgConvexHull3d.obj
 0001:000b1ed0       ??0dgDelaunayTetrahedralization@@QAE@QAVdgMemoryAllocator@@QBNHHN@Z 100b2ed0 f   corelib:dgDelaunayTetrahedralization.obj
 0001:000b21a0       ??1dgDelaunayTetrahedralization@@UAE@XZ 100b31a0 f   corelib:dgDelaunayTetrahedralization.obj
 0001:000b21c0       ?AddVertex@dgDelaunayTetrahedralization@@UAEHABVdgBigVector@@@Z 100b31c0 f   corelib:dgDelaunayTetrahedralization.obj
 0001:000b2250       ?CompareVertexByIndex@dgDelaunayTetrahedralization@@KAHQBVdgHullVector@@0QAX@Z 100b3250 f   corelib:dgDelaunayTetrahedralization.obj
 0001:000b2290       ?SortVertexArray@dgDelaunayTetrahedralization@@IAEXXZ 100b3290 f   corelib:dgDelaunayTetrahedralization.obj
 0001:000b2380       ?RemoveUpperHull@dgDelaunayTetrahedralization@@QAEXXZ 100b3380 f   corelib:dgDelaunayTetrahedralization.obj
 0001:000b2430       ?GetTetraVolume@dgDelaunayTetrahedralization@@IBENQBVdgConvexHull4dTetraherum@@@Z 100b3430 f   corelib:dgDelaunayTetrahedralization.obj
 0001:000b2850       ??_EdgDelaunayTetrahedralization@@UAEPAXI@Z 100b3850 f i corelib:dgDelaunayTetrahedralization.obj
 0001:000b2850       ??_GdgDelaunayTetrahedralization@@UAEPAXI@Z 100b3850 f i corelib:dgDelaunayTetrahedralization.obj
 0001:000b2880       ??A?$dgArray@VdgHullVector@@@@QAEAAVdgHullVector@@H@Z 100b3880 f i corelib:dgDelaunayTetrahedralization.obj
 0001:000b28e0       ??$dgSort@VdgHullVector@@@@YAXQAVdgHullVector@@HP6AHQBV0@1QAX@Z2@Z 100b38e0 f i corelib:dgDelaunayTetrahedralization.obj
 0001:000b2cb0       ??0dgTetrahedrumPlane@dgConvexHull4dTetraherum@@QAE@ABVdgBigVector@@000@Z 100b3cb0 f   corelib:dgConvexHull4d.obj
 0001:000b2dd0       ?Evalue@dgTetrahedrumPlane@dgConvexHull4dTetraherum@@QBENABVdgBigVector@@@Z 100b3dd0 f   corelib:dgConvexHull4d.obj
 0001:000b2e00       ??0dgConvexHull4dTetraherum@@QAE@XZ 100b3e00 f   corelib:dgConvexHull4d.obj
 0001:000b2e30       ?Init@dgConvexHull4dTetraherum@@AAEXQBVdgHullVector@@HHHH@Z 100b3e30 f   corelib:dgConvexHull4d.obj
 0001:000b3000       ?Evalue@dgConvexHull4dTetraherum@@QBENQBVdgHullVector@@ABVdgBigVector@@@Z 100b4000 f   corelib:dgConvexHull4d.obj
 0001:000b34d0       ?GetPlaneEquation@dgConvexHull4dTetraherum@@QBE?AVdgTetrahedrumPlane@1@QBVdgHullVector@@@Z 100b44d0 f   corelib:dgConvexHull4d.obj
 0001:000b3540       ??0dgConvexHull4d@@IAE@QAVdgMemoryAllocator@@@Z 100b4540 f   corelib:dgConvexHull4d.obj
 0001:000b35a0       ??0dgConvexHull4d@@QAE@QAVdgMemoryAllocator@@QBVdgBigVector@@HN@Z 100b45a0 f   corelib:dgConvexHull4d.obj
 0001:000b3620       ??1dgConvexHull4d@@UAE@XZ  100b4620 f   corelib:dgConvexHull4d.obj
 0001:000b3650       ?BuildHull@dgConvexHull4d@@IAEXQAVdgMemoryAllocator@@QBVdgBigVector@@HN@Z 100b4650 f   corelib:dgConvexHull4d.obj
 0001:000b3750       ?TessellateTriangle@dgConvexHull4d@@IBEXHABVdgVector@@00AAHQAVdgBigVector@@1@Z 100b4750 f   corelib:dgConvexHull4d.obj
 0001:000b3c50       ?BuildNormalList@dgConvexHull4d@@IBEHQAVdgBigVector@@@Z 100b4c50 f   corelib:dgConvexHull4d.obj
 0001:000b3f80       ?SupportVertex@dgConvexHull4d@@IBEHQAPAVdgAABBPointTree4d@@QBVdgHullVector@@ABVdgBigVector@@@Z 100b4f80 f   corelib:dgConvexHull4d.obj
 0001:000b47b0       ?ConvexCompareVertex@dgConvexHull4d@@KAHQBVdgHullVector@@0QAX@Z 100b57b0 f   corelib:dgConvexHull4d.obj
 0001:000b4830       ?BuildTree@dgConvexHull4d@@IBEPAVdgAABBPointTree4d@@QAV2@QAVdgHullVector@@HHQAPADAAH@Z 100b5830 f   corelib:dgConvexHull4d.obj
 0001:000b51e0       ?InitVertexArray@dgConvexHull4d@@MAEHQAVdgHullVector@@QBVdgBigVector@@HQAXH@Z 100b61e0 f   corelib:dgConvexHull4d.obj
 0001:000b59b0       ?AddFace@dgConvexHull4d@@MAEPAVdgListNode@?$dgList@VdgConvexHull4dTetraherum@@@@HHHH@Z 100b69b0 f   corelib:dgConvexHull4d.obj
 0001:000b5a10       ?DeleteFace@dgConvexHull4d@@MAEXQAVdgListNode@?$dgList@VdgConvexHull4dTetraherum@@@@@Z 100b6a10 f   corelib:dgConvexHull4d.obj
 0001:000b5a30       ?Sanity@dgConvexHull4d@@IBE_NXZ 100b6a30 f   corelib:dgConvexHull4d.obj
 0001:000b5ab0       ?LinkSibling@dgConvexHull4d@@IBEXPAVdgListNode@?$dgList@VdgConvexHull4dTetraherum@@@@0@Z 100b6ab0 f   corelib:dgConvexHull4d.obj
 0001:000b5be0       ?InsertNewVertex@dgConvexHull4d@@IAEXHQAVdgListNode@?$dgList@VdgConvexHull4dTetraherum@@@@AAV?$dgList@PAVdgListNode@?$dgList@VdgConvexHull4dTetraherum@@@@@@1@Z 100b6be0 f   corelib:dgConvexHull4d.obj
 0001:000b60d0       ?CalculateConvexHull@dgConvexHull4d@@IAEXPAVdgAABBPointTree4d@@QAVdgHullVector@@HN@Z 100b70d0 f   corelib:dgConvexHull4d.obj
 0001:000b6380       ?FindFacingNode@dgConvexHull4d@@IAEPAVdgListNode@?$dgList@VdgConvexHull4dTetraherum@@@@ABVdgBigVector@@@Z 100b7380 f   corelib:dgConvexHull4d.obj
 0001:000b66a0       ?AddVertex@dgConvexHull4d@@MAEHABVdgBigVector@@@Z 100b76a0 f   corelib:dgConvexHull4d.obj
 0001:000b67e0       ??_GdgConvexHull4d@@UAEPAXI@Z 100b77e0 f i corelib:dgConvexHull4d.obj
 0001:000b67e0       ??_EdgConvexHull4d@@UAEPAXI@Z 100b77e0 f i corelib:dgConvexHull4d.obj
 0001:000b6810       ??0dgAABBPointTree4d@@QAE@XZ 100b7810 f i corelib:dgConvexHull4d.obj
 0001:000b6850       ??0dgAABBPointTree4dClump@@QAE@XZ 100b7850 f i corelib:dgConvexHull4d.obj
 0001:000b6870       ??4dgHullVector@@QAEXABVdgBigVector@@@Z 100b7870 f i corelib:dgConvexHull4d.obj
 0001:000b68c0       ??1?$dgDownHeap@PAVdgListNode@?$dgList@VdgConvexHull4dTetraherum@@@@N@@QAE@XZ 100b78c0 f i corelib:dgConvexHull4d.obj
 0001:000b68e0       ??0Iterator@?$dgTree@PAVdgListNode@?$dgList@VdgConvexHull4dTetraherum@@@@PAV12@@@QAE@ABV1@@Z 100b78e0 f i corelib:dgConvexHull4d.obj
 0001:000b6910       ??1Iterator@?$dgTree@PAVdgListNode@?$dgList@VdgConvexHull4dTetraherum@@@@PAV12@@@QAE@XZ 100b7910 f i corelib:dgConvexHull4d.obj
 0001:000b6920       ?Begin@Iterator@?$dgTree@PAVdgListNode@?$dgList@VdgConvexHull4dTetraherum@@@@PAV12@@@QAEXXZ 100b7920 f i corelib:dgConvexHull4d.obj
 0001:000b6940       ??BIterator@?$dgTree@PAVdgListNode@?$dgList@VdgConvexHull4dTetraherum@@@@PAV12@@@QBEHXZ 100b7940 f i corelib:dgConvexHull4d.obj
 0001:000b6960       ??EIterator@?$dgTree@PAVdgListNode@?$dgList@VdgConvexHull4dTetraherum@@@@PAV12@@@QAEXH@Z 100b7960 f i corelib:dgConvexHull4d.obj
 0001:000b69b0       ?GetNode@Iterator@?$dgTree@PAVdgListNode@?$dgList@VdgConvexHull4dTetraherum@@@@PAV12@@@QBEPAVdgTreeNode@2@XZ 100b79b0 f i corelib:dgConvexHull4d.obj
 0001:000b69c0       ?GetInfo@dgTreeNode@?$dgTree@PAVdgListNode@?$dgList@VdgConvexHull4dTetraherum@@@@PAV12@@@QAEAAPAVdgListNode@?$dgList@VdgConvexHull4dTetraherum@@@@XZ 100b79c0 f i corelib:dgConvexHull4d.obj
 0001:000b69e0       ?Sub4@?$dgTemplateVector@N@@QBE?AV1@ABV1@@Z 100b79e0 f i corelib:dgConvexHull4d.obj
 0001:000b6a40       ?DotProduct4@?$dgTemplateVector@N@@QBENABV1@@Z 100b7a40 f i corelib:dgConvexHull4d.obj
 0001:000b6a90       ?CrossProduct4@?$dgTemplateVector@N@@QBE?AV1@ABV1@0@Z 100b7a90 f i corelib:dgConvexHull4d.obj
 0001:000b6cd0       ?CompProduct4@?$dgTemplateVector@N@@QBE?AV1@ABV1@@Z 100b7cd0 f i corelib:dgConvexHull4d.obj
 0001:000b6d30       ??0?$dgList@VdgConvexHull4dTetraherum@@@@QAE@QAVdgMemoryAllocator@@@Z 100b7d30 f i corelib:dgConvexHull4d.obj
 0001:000b6d70       ??1?$dgList@VdgConvexHull4dTetraherum@@@@QAE@XZ 100b7d70 f i corelib:dgConvexHull4d.obj
 0001:000b6d90       ?Append@?$dgList@VdgConvexHull4dTetraherum@@@@QAEPAVdgListNode@1@XZ 100b7d90 f i corelib:dgConvexHull4d.obj
 0001:000b6e50       ?Remove@?$dgList@VdgConvexHull4dTetraherum@@@@QAEXQAVdgListNode@1@@Z 100b7e50 f i corelib:dgConvexHull4d.obj
 0001:000b6ea0       ??0?$dgArray@VdgHullVector@@@@QAE@HQAVdgMemoryAllocator@@@Z 100b7ea0 f i corelib:dgConvexHull4d.obj
 0001:000b6ee0       ??1?$dgArray@VdgHullVector@@@@QAE@XZ 100b7ee0 f i corelib:dgConvexHull4d.obj
 0001:000b6f10       ??0?$dgStack@VdgHullVector@@@@QAE@H@Z 100b7f10 f i corelib:dgConvexHull4d.obj
 0001:000b6f40       ??1?$dgStack@VdgHullVector@@@@QAE@XZ 100b7f40 f i corelib:dgConvexHull4d.obj
 0001:000b6f60       ??A?$dgStack@VdgHullVector@@@@QAEAAVdgHullVector@@H@Z 100b7f60 f i corelib:dgConvexHull4d.obj
 0001:000b6fe0       ??0?$dgStack@VdgAABBPointTree4dClump@@@@QAE@H@Z 100b7fe0 f i corelib:dgConvexHull4d.obj
 0001:000b7010       ??1?$dgStack@VdgAABBPointTree4dClump@@@@QAE@XZ 100b8010 f i corelib:dgConvexHull4d.obj
 0001:000b7030       ?GetSizeInBytes@?$dgStack@VdgAABBPointTree4dClump@@@@QBEHXZ 100b8030 f i corelib:dgConvexHull4d.obj
 0001:000b7050       ??A?$dgStack@VdgAABBPointTree4dClump@@@@QAEAAVdgAABBPointTree4dClump@@H@Z 100b8050 f i corelib:dgConvexHull4d.obj
 0001:000b70d0       ??$Swap@VdgHullVector@@@@YAXAAVdgHullVector@@0@Z 100b80d0 f i corelib:dgConvexHull4d.obj
 0001:000b7120       ?GetLast@?$dgList@PAVdgListNode@?$dgList@VdgConvexHull4dTetraherum@@@@@@QBEPAVdgListNode@1@XZ 100b8120 f i corelib:dgConvexHull4d.obj
 0001:000b7140       ?Addtop@?$dgList@PAVdgListNode@?$dgList@VdgConvexHull4dTetraherum@@@@@@QAEPAVdgListNode@1@ABQAV2?$dgList@VdgConvexHull4dTetraherum@@@@@Z 100b8140 f i corelib:dgConvexHull4d.obj
 0001:000b7200       ?Remove@?$dgList@PAVdgListNode@?$dgList@VdgConvexHull4dTetraherum@@@@@@QAEXABQAVdgListNode@?$dgList@VdgConvexHull4dTetraherum@@@@@Z 100b8200 f i corelib:dgConvexHull4d.obj
 0001:000b7230       ??0?$dgTree@PAVdgListNode@?$dgList@VdgConvexHull4dTetraherum@@@@PAV12@@@QAE@QAVdgMemoryAllocator@@@Z 100b8230 f i corelib:dgConvexHull4d.obj
 0001:000b7260       ??1?$dgTree@PAVdgListNode@?$dgList@VdgConvexHull4dTetraherum@@@@PAV12@@@QAE@XZ 100b8260 f i corelib:dgConvexHull4d.obj
 0001:000b7280       ?Minimum@?$dgTree@PAVdgListNode@?$dgList@VdgConvexHull4dTetraherum@@@@PAV12@@@QBEPAVdgTreeNode@1@XZ 100b8280 f i corelib:dgConvexHull4d.obj
 0001:000b72b0       ?Find@?$dgTree@PAVdgListNode@?$dgList@VdgConvexHull4dTetraherum@@@@PAV12@@@QBEPAVdgTreeNode@1@PAVdgListNode@?$dgList@VdgConvexHull4dTetraherum@@@@@Z 100b82b0 f i corelib:dgConvexHull4d.obj
 0001:000b73d0       ?Insert@?$dgTree@PAVdgListNode@?$dgList@VdgConvexHull4dTetraherum@@@@PAV12@@@QAEPAVdgTreeNode@1@ABQAVdgListNode@?$dgList@VdgConvexHull4dTetraherum@@@@PAV34@@Z 100b83d0 f i corelib:dgConvexHull4d.obj
 0001:000b7410       ??1?$dgHeapBase@PAVdgListNode@?$dgList@VdgConvexHull4dTetraherum@@@@N@@IAE@XZ 100b8410 f i corelib:dgConvexHull4d.obj
 0001:000b7440       ?Value@?$dgHeapBase@PAVdgListNode@?$dgList@VdgConvexHull4dTetraherum@@@@N@@QBENH@Z 100b8440 f i corelib:dgConvexHull4d.obj
 0001:000b7460       ?GetCount@?$dgHeapBase@PAVdgListNode@?$dgList@VdgConvexHull4dTetraherum@@@@N@@QBEHXZ 100b8460 f i corelib:dgConvexHull4d.obj
 0001:000b7470       ?GetMaxCount@?$dgHeapBase@PAVdgListNode@?$dgList@VdgConvexHull4dTetraherum@@@@N@@QBEHXZ 100b8470 f i corelib:dgConvexHull4d.obj
 0001:000b7490       ??A?$dgHeapBase@PAVdgListNode@?$dgList@VdgConvexHull4dTetraherum@@@@N@@QBEABQAVdgListNode@?$dgList@VdgConvexHull4dTetraherum@@@@H@Z 100b8490 f i corelib:dgConvexHull4d.obj
 0001:000b74e0       ??0?$dgDownHeap@PAVdgListNode@?$dgList@VdgConvexHull4dTetraherum@@@@N@@QAE@QBXH@Z 100b84e0 f i corelib:dgConvexHull4d.obj
 0001:000b7500       ?Pop@?$dgDownHeap@PAVdgListNode@?$dgList@VdgConvexHull4dTetraherum@@@@N@@QAEXXZ 100b8500 f i corelib:dgConvexHull4d.obj
 0001:000b7630       ?Push@?$dgDownHeap@PAVdgListNode@?$dgList@VdgConvexHull4dTetraherum@@@@N@@QAEXAAPAVdgListNode@?$dgList@VdgConvexHull4dTetraherum@@@@N@Z 100b8630 f i corelib:dgConvexHull4d.obj
 0001:000b7750       ?Remove@?$dgDownHeap@PAVdgListNode@?$dgList@VdgConvexHull4dTetraherum@@@@N@@QAEXH@Z 100b8750 f i corelib:dgConvexHull4d.obj
 0001:000b7880       ??_GdgListNode@?$dgList@VdgConvexHull4dTetraherum@@@@AAEPAXI@Z 100b8880 f i corelib:dgConvexHull4d.obj
 0001:000b78b0       ??2dgListNode@?$dgList@VdgConvexHull4dTetraherum@@@@CAPAXIQAVdgMemoryAllocator@@@Z 100b88b0 f i corelib:dgConvexHull4d.obj
 0001:000b78d0       ??3dgListNode@?$dgList@VdgConvexHull4dTetraherum@@@@CAXPAX@Z 100b88d0 f i corelib:dgConvexHull4d.obj
 0001:000b78f0       ??0dgListNode@?$dgList@VdgConvexHull4dTetraherum@@@@AAE@QAV01@0@Z 100b88f0 f i corelib:dgConvexHull4d.obj
 0001:000b7980       ??1dgListNode@?$dgList@VdgConvexHull4dTetraherum@@@@AAE@XZ 100b8980 f i corelib:dgConvexHull4d.obj
 0001:000b7990       ?GetLeft@dgTreeNode@?$dgTree@PAVdgListNode@?$dgList@VdgConvexHull4dTetraherum@@@@PAV12@@@ABEPAV12@XZ 100b8990 f i corelib:dgConvexHull4d.obj
 0001:000b79a0       ?GetRight@dgTreeNode@?$dgTree@PAVdgListNode@?$dgList@VdgConvexHull4dTetraherum@@@@PAV12@@@ABEPAV12@XZ 100b89a0 f i corelib:dgConvexHull4d.obj
 0001:000b79c0       ?RemoveAll@?$dgList@VdgConvexHull4dTetraherum@@@@QAEXXZ 100b89c0 f i corelib:dgConvexHull4d.obj
 0001:000b7a80       ?Unlink@?$dgList@VdgConvexHull4dTetraherum@@@@QAEXQAVdgListNode@1@@Z 100b8a80 f i corelib:dgConvexHull4d.obj
 0001:000b7b30       ?Find@?$dgList@PAVdgListNode@?$dgList@VdgConvexHull4dTetraherum@@@@@@QBEPAVdgListNode@1@ABQAV2?$dgList@VdgConvexHull4dTetraherum@@@@@Z 100b8b30 f i corelib:dgConvexHull4d.obj
 0001:000b7b70       ?Insert@?$dgTree@PAVdgListNode@?$dgList@VdgConvexHull4dTetraherum@@@@PAV12@@@QAEPAVdgTreeNode@1@ABQAVdgListNode@?$dgList@VdgConvexHull4dTetraherum@@@@PAV34@AA_N@Z 100b8b70 f i corelib:dgConvexHull4d.obj
 0001:000b7d70       ?RemoveAll@?$dgTree@PAVdgListNode@?$dgList@VdgConvexHull4dTetraherum@@@@PAV12@@@QAEXXZ 100b8d70 f i corelib:dgConvexHull4d.obj
 0001:000b7db0       ?CompareKeys@?$dgTree@PAVdgListNode@?$dgList@VdgConvexHull4dTetraherum@@@@PAV12@@@ABEHABQAVdgListNode@?$dgList@VdgConvexHull4dTetraherum@@@@0@Z 100b8db0 f i corelib:dgConvexHull4d.obj
 0001:000b7df0       ??0?$dgHeapBase@PAVdgListNode@?$dgList@VdgConvexHull4dTetraherum@@@@N@@IAE@QBXH@Z 100b8df0 f i corelib:dgConvexHull4d.obj
 0001:000b7e30       ?Unlink@dgListNode@?$dgList@VdgConvexHull4dTetraherum@@@@AAEXXZ 100b8e30 f i corelib:dgConvexHull4d.obj
 0001:000b7e80       ?GetPrev@dgListNode@?$dgList@VdgConvexHull4dTetraherum@@@@QBEPAV12@XZ 100b8e80 f i corelib:dgConvexHull4d.obj
 0001:000b7ea0       ??0dgTreeNode@?$dgTree@PAVdgListNode@?$dgList@VdgConvexHull4dTetraherum@@@@PAV12@@@AAE@ABQAVdgListNode@?$dgList@VdgConvexHull4dTetraherum@@@@0PAV01@@Z 100b8ea0 f i corelib:dgConvexHull4d.obj
 0001:000b7f10       ?Flush@?$dgHeapBase@PAVdgListNode@?$dgList@VdgConvexHull4dTetraherum@@@@N@@QAEXXZ 100b8f10 f i corelib:dgConvexHull4d.obj
 0001:000b8820       ??0dgAABBPolygonSoup@@IAE@XZ 100b9820 f   corelib:dgAABBPolygonSoup.obj
 0001:000b8870       ??1dgAABBPolygonSoup@@MAE@XZ 100b9870 f   corelib:dgAABBPolygonSoup.obj
 0001:000b88c0       ?GetRootNode@dgAABBPolygonSoup@@IBEPAXXZ 100b98c0 f   corelib:dgAABBPolygonSoup.obj
 0001:000b88e0       ?GetBackNode@dgAABBPolygonSoup@@IBEPAXQBX@Z 100b98e0 f   corelib:dgAABBPolygonSoup.obj
 0001:000b8930       ?GetFrontNode@dgAABBPolygonSoup@@IBEPAXQBX@Z 100b9930 f   corelib:dgAABBPolygonSoup.obj
 0001:000b8980       ?GetNodeAABB@dgAABBPolygonSoup@@IBEXQBXAAVdgVector@@1@Z 100b9980 f   corelib:dgAABBPolygonSoup.obj
 0001:000b8a70       ?ForAllSectorsSimd@dgAABBPolygonSoup@@MBEXABVdgVector@@0P6A?AW4dgIntersectStatus@@PAXQBNHQBHH@ZQAX@Z 100b9a70 f   corelib:dgAABBPolygonSoup.obj
 0001:000b8ac0       ?ForAllSectors@dgAABBPolygonSoup@@MBEXABVdgVector@@0P6A?AW4dgIntersectStatus@@PAXQBNHQBHH@ZQAX@Z 100b9ac0 f   corelib:dgAABBPolygonSoup.obj
 0001:000b8b10       ?ForAllSectorsSupportVectex@dgAABBPolygonSoup@@MBE?AVdgVector@@ABV2@@Z 100b9b10 f   corelib:dgAABBPolygonSoup.obj
 0001:000b8b90       ?GetAABB@dgAABBPolygonSoup@@UBEXAAVdgVector@@0@Z 100b9b90 f   corelib:dgAABBPolygonSoup.obj
 0001:000b8c90       ?ForAllSectorsRayHit@dgAABBPolygonSoup@@MBEXABVFastRayTest@@P6ANPAXQBNHQBHH@ZQAX@Z 100b9c90 f   corelib:dgAABBPolygonSoup.obj
 0001:000b8ce0       ?ForAllSectorsRayHitSimd@dgAABBPolygonSoup@@MBEXABVFastRayTest@@P6ANPAXQBNHQBHH@ZQAX@Z 100b9ce0 f   corelib:dgAABBPolygonSoup.obj
 0001:000b8d30       ?Serialize@dgAABBPolygonSoup@@UBEXP6AXPAXPBXI@ZQAX@Z 100b9d30 f   corelib:dgAABBPolygonSoup.obj
 0001:000b8df0       ?Deserialize@dgAABBPolygonSoup@@UAEXP6AXPAX0I@ZQAX@Z 100b9df0 f   corelib:dgAABBPolygonSoup.obj
 0001:000b8f20       ?CalculateThisFaceEdgeNormals@dgAABBPolygonSoup@@CA?AW4dgIntersectStatus@@PAXQBNHQBHH@Z 100b9f20 f   corelib:dgAABBPolygonSoup.obj
 0001:000b90e0       ?CalculateAllFaceEdgeNormals@dgAABBPolygonSoup@@CA?AW4dgIntersectStatus@@PAXQBNHQBHH@Z 100ba0e0 f   corelib:dgAABBPolygonSoup.obj
 0001:000b9380       ?CalculateFaceMaxSize@dgAABBPolygonSoup@@IBENQAVdgTriplex@@HQBH@Z 100ba380 f   corelib:dgAABBPolygonSoup.obj
 0001:000b9650       ?Create@dgAABBPolygonSoup@@IAEXABVdgPolygonSoupDatabaseBuilder@@_N@Z 100ba650 f   corelib:dgAABBPolygonSoup.obj
 0001:000b9c40       ??0dgPolygonSoupDatabase@@IAE@PBD@Z 100bac40 f i corelib:dgAABBPolygonSoup.obj
 0001:000b9c80       ??_GdgPolygonSoupDatabase@@MAEPAXI@Z 100bac80 f i corelib:dgAABBPolygonSoup.obj
 0001:000b9c80       ??_EdgPolygonSoupDatabase@@MAEPAXI@Z 100bac80 f i corelib:dgAABBPolygonSoup.obj
 0001:000b9cb0       ??1dgPolygonSoupDatabase@@MAE@XZ 100bacb0 f i corelib:dgAABBPolygonSoup.obj
 0001:000b9ce0       ?ForAllSectorsSimd@dgPolygonSoupDatabase@@MBEXABVdgVector@@0P6A?AW4dgIntersectStatus@@PAXQBNHQBHH@ZQAX@Z 100bace0 f i corelib:dgAABBPolygonSoup.obj
 0001:000b9d10       ?ForAllSectors@dgPolygonSoupDatabase@@MBEXABVdgVector@@0P6A?AW4dgIntersectStatus@@PAXQBNHQBHH@ZQAX@Z 100bad10 f i corelib:dgAABBPolygonSoup.obj
 0001:000b9d40       ?GetAABB@dgPolygonSoupDatabase@@UBEXAAVdgVector@@0@Z 100bad40 f i corelib:dgAABBPolygonSoup.obj
 0001:000b9d50       ?ForAllSectorsRayHit@dgPolygonSoupDatabase@@MBEXABVFastRayTest@@P6ANPAXQBNHQBHH@ZQAX@Z 100bad50 f i corelib:dgAABBPolygonSoup.obj
 0001:000b9d80       ?ForAllSectorsRayHitSimd@dgPolygonSoupDatabase@@MBEXABVFastRayTest@@P6ANPAXQBNHQBHH@ZQAX@Z 100bad80 f i corelib:dgAABBPolygonSoup.obj
 0001:000b9dc0       ??_EdgAABBPolygonSoup@@MAEPAXI@Z 100badc0 f i corelib:dgAABBPolygonSoup.obj
 0001:000b9dc0       ??_GdgAABBPolygonSoup@@MAEPAXI@Z 100badc0 f i corelib:dgAABBPolygonSoup.obj
 0001:000b9df0       ?IsLeaf@TreeNode@dgAABBTree@@QBEIXZ 100badf0 f i corelib:dgAABBPolygonSoup.obj
 0001:000b9e10       ?GetNode@TreeNode@dgAABBTree@@QBEPAV2@PBX@Z 100bae10 f i corelib:dgAABBPolygonSoup.obj
 0001:000b9e30       ?ForAllSectorsSimd@dgAABBTree@@QBEXQBHQBNABVdgVector@@2P6A?AW4dgIntersectStatus@@PAX1H0H@ZQAX@Z 100bae30 f i corelib:dgAABBPolygonSoup.obj
 0001:000ba060       ?GetCount@TreeNode@dgAABBTree@@QBEIXZ 100bb060 f i corelib:dgAABBPolygonSoup.obj
 0001:000ba0b0       ?GetIndex@TreeNode@dgAABBTree@@QBEIXZ 100bb0b0 f i corelib:dgAABBPolygonSoup.obj
 0001:000ba0f0       ?BoxIntersectSimd@dgAABBTree@@QBEHQBVdgTriplex@@ABVdgVector@@1@Z 100bb0f0 f i corelib:dgAABBPolygonSoup.obj
 0001:000ba100       ?ForAllSectors@dgAABBTree@@QBEXQBHQBNABVdgVector@@2P6A?AW4dgIntersectStatus@@PAX1H0H@ZQAX@Z 100bb100 f i corelib:dgAABBPolygonSoup.obj
 0001:000ba330       ?BoxIntersect@dgAABBTree@@QBEHQBVdgTriplex@@ABVdgVector@@1@Z 100bb330 f i corelib:dgAABBPolygonSoup.obj
 0001:000ba3d0       ?ForAllSectorsSupportVertex@dgAABBTree@@QBE?AVdgVector@@ABV2@QBHQBN@Z 100bb3d0 f i corelib:dgAABBPolygonSoup.obj
 0001:000babe0       ?ForAllSectorsRayHit@dgAABBTree@@QBEXABVFastRayTest@@PBHPBNP6ANPAXQBNHQBHH@ZQAX@Z 100bbbe0 f i corelib:dgAABBPolygonSoup.obj
 0001:000baf00       ?RayTest@dgAABBTree@@QBEHABVFastRayTest@@QBVdgTriplex@@@Z 100bbf00 f i corelib:dgAABBPolygonSoup.obj
 0001:000bb0c0       ?ForAllSectorsRayHitSimd@dgAABBTree@@QBEXABVFastRayTest@@PBHPBNP6ANPAXQBNHQBHH@ZQAX@Z 100bc0c0 f i corelib:dgAABBPolygonSoup.obj
 0001:000bb3e0       ?RayTestSimd@dgAABBTree@@QBEHABVFastRayTest@@QBVdgTriplex@@@Z 100bc3e0 f i corelib:dgAABBPolygonSoup.obj
 0001:000bb3f0       ??0AdjacentdFaces@@QAE@XZ  100bc3f0 f i corelib:dgAABBPolygonSoup.obj
 0001:000bb410       ??0TreeNode@dgAABBTree@@QAE@II@Z 100bc410 f i corelib:dgAABBPolygonSoup.obj
 0001:000bb460       ?CalcExtends@dgAABBTree@@QAEXQAVdgTriplex@@HQBH@Z 100bc460 f i corelib:dgAABBPolygonSoup.obj
 0001:000bb670       ?BuildBottomUp@dgAABBTree@@QAEHQAVdgMemoryAllocator@@HQAV1@QAVdgTriplex@@AAH@Z 100bc670 f i corelib:dgAABBPolygonSoup.obj
 0001:000bbf00       ??2dgConstructionTree@dgAABBTree@@SAPAXIQAVdgMemoryAllocator@@@Z 100bcf00 f i corelib:dgAABBPolygonSoup.obj
 0001:000bbf20       ??0dgConstructionTree@dgAABBTree@@QAE@XZ 100bcf20 f i corelib:dgAABBPolygonSoup.obj
 0001:000bbf50       ??0dgConstructionTree@dgAABBTree@@QAE@QAV01@0@Z 100bcf50 f i corelib:dgAABBPolygonSoup.obj
 0001:000bc0d0       ?BuildTree@dgAABBTree@@QAEHPAVdgConstructionTree@1@QAV1@1QAVdgTriplex@@AAH@Z 100bd0d0 f i corelib:dgAABBPolygonSoup.obj
 0001:000bc340       ??0TreeNode@dgAABBTree@@QAE@I@Z 100bd340 f i corelib:dgAABBPolygonSoup.obj
 0001:000bc390       ?BuildTopDown@dgAABBTree@@QAEHQAVdgMemoryAllocator@@HQAV1@QAVdgTriplex@@AAH@Z 100bd390 f i corelib:dgAABBPolygonSoup.obj
 0001:000bc450       ?BuildTree@dgAABBTree@@QAEPAVdgConstructionTree@1@QAVdgMemoryAllocator@@HHQAV1@QBVdgTriplex@@@Z 100bd450 f i corelib:dgAABBPolygonSoup.obj
 0001:000bc6b0       ?GetAxis@dgAABBTree@@ABEHPAPAVdgConstructionTree@1@H@Z 100bd6b0 f i corelib:dgAABBPolygonSoup.obj
 0001:000bc890       ?CompareBox@dgAABBTree@@CAHQBVdgConstructionTree@1@0QAX@Z 100bd890 f i corelib:dgAABBPolygonSoup.obj
 0001:000bc900       ??_GdgConstructionTree@dgAABBTree@@QAEPAXI@Z 100bd900 f i corelib:dgAABBPolygonSoup.obj
 0001:000bc930       ??3dgConstructionTree@dgAABBTree@@SAXPAX@Z 100bd930 f i corelib:dgAABBPolygonSoup.obj
 0001:000bc950       ??1dgConstructionTree@dgAABBTree@@QAE@XZ 100bd950 f i corelib:dgAABBPolygonSoup.obj
 0001:000bc9d0       ??1?$dgDownHeap@VdgHeapNodePair@dgAABBTree@@N@@QAE@XZ 100bd9d0 f i corelib:dgAABBPolygonSoup.obj
 0001:000bc9f0       ??A?$dgArray@VdgTriplex@@@@QBEABVdgTriplex@@H@Z 100bd9f0 f i corelib:dgAABBPolygonSoup.obj
 0001:000bca50       ??A?$dgArray@H@@QBEABHH@Z  100bda50 f i corelib:dgAABBPolygonSoup.obj
 0001:000bcab0       ??0?$dgStack@VdgAABBTree@@@@QAE@H@Z 100bdab0 f i corelib:dgAABBPolygonSoup.obj
 0001:000bcae0       ??1?$dgStack@VdgAABBTree@@@@QAE@XZ 100bdae0 f i corelib:dgAABBPolygonSoup.obj
 0001:000bcb00       ??A?$dgStack@VdgAABBTree@@@@QAEAAVdgAABBTree@@H@Z 100bdb00 f i corelib:dgAABBPolygonSoup.obj
 0001:000bcb80       ??0?$dgStack@VdgHeapNodePair@dgAABBTree@@@@QAE@H@Z 100bdb80 f i corelib:dgAABBPolygonSoup.obj
 0001:000bcbb0       ??1?$dgStack@VdgHeapNodePair@dgAABBTree@@@@QAE@XZ 100bdbb0 f i corelib:dgAABBPolygonSoup.obj
 0001:000bcbd0       ?GetSizeInBytes@?$dgStack@VdgHeapNodePair@dgAABBTree@@@@QBEHXZ 100bdbd0 f i corelib:dgAABBPolygonSoup.obj
 0001:000bcbf0       ??A?$dgStack@VdgHeapNodePair@dgAABBTree@@@@QAEAAVdgHeapNodePair@dgAABBTree@@H@Z 100bdbf0 f i corelib:dgAABBPolygonSoup.obj
 0001:000bcc70       ??0?$dgStack@PAVdgConstructionTree@dgAABBTree@@@@QAE@H@Z 100bdc70 f i corelib:dgAABBPolygonSoup.obj
 0001:000bcca0       ??1?$dgStack@PAVdgConstructionTree@dgAABBTree@@@@QAE@XZ 100bdca0 f i corelib:dgAABBPolygonSoup.obj
 0001:000bccc0       ??A?$dgStack@PAVdgConstructionTree@dgAABBTree@@@@QAEAAPAVdgConstructionTree@dgAABBTree@@H@Z 100bdcc0 f i corelib:dgAABBPolygonSoup.obj
 0001:000bcd40       ??1?$dgHeapBase@VdgHeapNodePair@dgAABBTree@@N@@IAE@XZ 100bdd40 f i corelib:dgAABBPolygonSoup.obj
 0001:000bcd70       ?Flush@?$dgHeapBase@VdgHeapNodePair@dgAABBTree@@N@@QAEXXZ 100bdd70 f i corelib:dgAABBPolygonSoup.obj
 0001:000bcd90       ?Value@?$dgHeapBase@VdgHeapNodePair@dgAABBTree@@N@@QBENH@Z 100bdd90 f i corelib:dgAABBPolygonSoup.obj
 0001:000bcdb0       ?GetCount@?$dgHeapBase@VdgHeapNodePair@dgAABBTree@@N@@QBEHXZ 100bddb0 f i corelib:dgAABBPolygonSoup.obj
 0001:000bcdc0       ?GetMaxCount@?$dgHeapBase@VdgHeapNodePair@dgAABBTree@@N@@QBEHXZ 100bddc0 f i corelib:dgAABBPolygonSoup.obj
 0001:000bcde0       ??A?$dgHeapBase@VdgHeapNodePair@dgAABBTree@@N@@QBEABVdgHeapNodePair@dgAABBTree@@H@Z 100bdde0 f i corelib:dgAABBPolygonSoup.obj
 0001:000bce30       ??0?$dgDownHeap@VdgHeapNodePair@dgAABBTree@@N@@QAE@QBXH@Z 100bde30 f i corelib:dgAABBPolygonSoup.obj
 0001:000bce50       ?Pop@?$dgDownHeap@VdgHeapNodePair@dgAABBTree@@N@@QAEXXZ 100bde50 f i corelib:dgAABBPolygonSoup.obj
 0001:000bcf80       ?Push@?$dgDownHeap@VdgHeapNodePair@dgAABBTree@@N@@QAEXAAVdgHeapNodePair@dgAABBTree@@N@Z 100bdf80 f i corelib:dgAABBPolygonSoup.obj
 0001:000bd0a0       ?Sort@?$dgDownHeap@VdgHeapNodePair@dgAABBTree@@N@@QAEXXZ 100be0a0 f i corelib:dgAABBPolygonSoup.obj
 0001:000bd210       ??$dgSortIndirect@VdgConstructionTree@dgAABBTree@@@@YAXQAPAVdgConstructionTree@dgAABBTree@@HP6AHQBV01@1QAX@Z2@Z 100be210 f i corelib:dgAABBPolygonSoup.obj
 0001:000bd590       ??$Swap@VdgAABBTree@@@@YAXAAVdgAABBTree@@0@Z 100be590 f i corelib:dgAABBPolygonSoup.obj
 0001:000bd5f0       ?Resize@?$dgArray@VdgTriplex@@@@QBEXH@Z 100be5f0 f i corelib:dgAABBPolygonSoup.obj
 0001:000bd790       ?Resize@?$dgArray@H@@QBEXH@Z 100be790 f i corelib:dgAABBPolygonSoup.obj
 0001:000bd8f0       ??0?$dgHeapBase@VdgHeapNodePair@dgAABBTree@@N@@IAE@QBXH@Z 100be8f0 f i corelib:dgAABBPolygonSoup.obj
 0001:000bd930       ??0dgPolygonSoupDatabaseBuilder@@QAE@QAVdgMemoryAllocator@@@Z 100be930 f   corelib:dgPolygonSoupBuilder.obj
 0001:000bd9c0       ??1dgPolygonSoupDatabaseBuilder@@QAE@XZ 100be9c0 f   corelib:dgPolygonSoupBuilder.obj
 0001:000bda10       ?Begin@dgPolygonSoupDatabaseBuilder@@QAEXXZ 100bea10 f   corelib:dgPolygonSoupBuilder.obj
 0001:000bda50       ?AddMesh@dgPolygonSoupDatabaseBuilder@@QAEXQBNHHHQBH11ABVdgMatrix@@@Z 100bea50 f   corelib:dgPolygonSoupBuilder.obj
 0001:000bdd70       ?SingleFaceFixup@dgPolygonSoupDatabaseBuilder@@QAEXXZ 100bed70 f   corelib:dgPolygonSoupBuilder.obj
 0001:000bde30       ?EndAndOptimize@dgPolygonSoupDatabaseBuilder@@AAEX_N@Z 100bee30 f   corelib:dgPolygonSoupBuilder.obj
 0001:000bdf70       ?OptimizeByGroupID@dgPolygonSoupDatabaseBuilder@@AAEXXZ 100bef70 f   corelib:dgPolygonSoupBuilder.obj
 0001:000be380       ?OptimizeByGroupID@dgPolygonSoupDatabaseBuilder@@AAEXAAV1@HH0@Z 100bf380 f   corelib:dgPolygonSoupBuilder.obj
 0001:000be9b0       ?OptimizeByIndividualFaces@dgPolygonSoupDatabaseBuilder@@AAEXXZ 100bf9b0 f   corelib:dgPolygonSoupBuilder.obj
 0001:000beb10       ?End@dgPolygonSoupDatabaseBuilder@@QAEX_N@Z 100bfb10 f   corelib:dgPolygonSoupBuilder.obj
 0001:000bedf0       ?Optimize@dgPolygonSoupDatabaseBuilder@@AAEX_N@Z 100bfdf0 f   corelib:dgPolygonSoupBuilder.obj
 0001:000bf920       ?FilterFace@dgPolygonSoupDatabaseBuilder@@AAEHHQAH@Z 100c0920 f   corelib:dgPolygonSoupBuilder.obj
 0001:000c0360       ?AddConvexFace@dgPolygonSoupDatabaseBuilder@@AAEHHQAH0@Z 100c1360 f   corelib:dgPolygonSoupBuilder.obj
 0001:000c0d70       ??0VertexArray@dgPolygonSoupDatabaseBuilder@@QAE@QAVdgMemoryAllocator@@@Z 100c1d70 f i corelib:dgPolygonSoupBuilder.obj
 0001:000c0da0       ??0IndexArray@dgPolygonSoupDatabaseBuilder@@QAE@QAVdgMemoryAllocator@@@Z 100c1da0 f i corelib:dgPolygonSoupBuilder.obj
 0001:000c0dd0       ??1IndexArray@dgPolygonSoupDatabaseBuilder@@QAE@XZ 100c1dd0 f i corelib:dgPolygonSoupBuilder.obj
 0001:000c0df0       ??1VertexArray@dgPolygonSoupDatabaseBuilder@@QAE@XZ 100c1df0 f i corelib:dgPolygonSoupBuilder.obj
 0001:000c0e10       ??0dgPolySoupFilterAllocator@@QAE@QAVdgMemoryAllocator@@@Z 100c1e10 f i corelib:dgPolygonSoupBuilder.obj
 0001:000c0e40       ??1dgPolySoupFilterAllocator@@UAE@XZ 100c1e40 f i corelib:dgPolygonSoupBuilder.obj
 0001:000c0e60       ?AddFilterFace@dgPolySoupFilterAllocator@@QAEHIQAH@Z 100c1e60 f i corelib:dgPolygonSoupBuilder.obj
 0001:000c0fb0       ??_GdgPolySoupFilterAllocator@@UAEPAXI@Z 100c1fb0 f i corelib:dgPolygonSoupBuilder.obj
 0001:000c0fb0       ??_EdgPolySoupFilterAllocator@@UAEPAXI@Z 100c1fb0 f i corelib:dgPolygonSoupBuilder.obj
 0001:000c0fe0       ??0?$dgArray@VdgTriplex@@@@QAE@HQAVdgMemoryAllocator@@@Z 100c1fe0 f i corelib:dgPolygonSoupBuilder.obj
 0001:000c1020       ??1?$dgArray@VdgTriplex@@@@QAE@XZ 100c2020 f i corelib:dgPolygonSoupBuilder.obj
 0001:000c1050       ??A?$dgArray@VdgTriplex@@@@QAEAAVdgTriplex@@H@Z 100c2050 f i corelib:dgPolygonSoupBuilder.obj
 0001:000c10b0       ??0?$dgArray@H@@QAE@HQAVdgMemoryAllocator@@@Z 100c20b0 f i corelib:dgPolygonSoupBuilder.obj
 0001:000c10f0       ??1?$dgArray@H@@QAE@XZ     100c20f0 f i corelib:dgPolygonSoupBuilder.obj
 0001:000c1120       ??A?$dgArray@H@@QAEAAHH@Z  100c2120 f i corelib:dgPolygonSoupBuilder.obj
 0001:000c1180       ??0?$dgTree@HH@@QAE@QAVdgMemoryAllocator@@@Z 100c2180 f i corelib:dgPolygonSoupBuilder.obj
 0001:000c11b0       ??1?$dgTree@HH@@QAE@XZ     100c21b0 f i corelib:dgPolygonSoupBuilder.obj
 0001:000c11d0       ?Find@?$dgTree@HH@@QBEPAVdgTreeNode@1@H@Z 100c21d0 f i corelib:dgPolygonSoupBuilder.obj
 0001:000c12f0       ?Insert@?$dgTree@HH@@QAEPAVdgTreeNode@1@ABHH@Z 100c22f0 f i corelib:dgPolygonSoupBuilder.obj
 0001:000c1330       ?GetLeft@dgTreeNode@?$dgTree@HH@@ABEPAV12@XZ 100c2330 f i corelib:dgPolygonSoupBuilder.obj
 0001:000c1340       ?GetRight@dgTreeNode@?$dgTree@HH@@ABEPAV12@XZ 100c2340 f i corelib:dgPolygonSoupBuilder.obj
 0001:000c1360       ?Insert@?$dgTree@HH@@QAEPAVdgTreeNode@1@ABHHAA_N@Z 100c2360 f i corelib:dgPolygonSoupBuilder.obj
 0001:000c1560       ?RemoveAll@?$dgTree@HH@@QAEXXZ 100c2560 f i corelib:dgPolygonSoupBuilder.obj
 0001:000c15a0       ?CompareKeys@?$dgTree@HH@@ABEHABH0@Z 100c25a0 f i corelib:dgPolygonSoupBuilder.obj
 0001:000c15e0       ??0dgTreeNode@?$dgTree@HH@@AAE@ABH0PAV01@@Z 100c25e0 f i corelib:dgPolygonSoupBuilder.obj
 0001:000c1650       ??0dgQuaternion@@QAE@ABVdgMatrix@@@Z 100c2650 f   corelib:dgQuaternion.obj
 0001:000c1ac0       ??0dgQuaternion@@QAE@ABVdgVector@@N@Z 100c2ac0 f   corelib:dgQuaternion.obj
 0001:000c1ba0       ?CalcAverageOmega@dgQuaternion@@QBE?AVdgVector@@ABV1@N@Z 100c2ba0 f   corelib:dgQuaternion.obj
 0001:000c1c00       ?Slerp@dgQuaternion@@QBE?AV1@ABV1@N@Z 100c2c00 f   corelib:dgQuaternion.obj
 0001:000c1c40       ?GetIdentitySphere@@YAABVdgSphere@@XZ 100c2c40 f   corelib:dgSphere.obj
 0001:000c1c50       ??0dgSphere@@QAE@XZ        100c2c50 f   corelib:dgSphere.obj
 0001:000c1cb0       ??0dgSphere@@QAE@ABVdgQuaternion@@ABVdgVector@@1@Z 100c2cb0 f   corelib:dgSphere.obj
 0001:000c1d30       ??0dgSphere@@QAE@ABVdgMatrix@@ABVdgVector@@@Z 100c2d30 f   corelib:dgSphere.obj
 0001:000c1d90       ?SetDimensions@dgSphere@@QAEXQBNHQBHHPBVdgMatrix@@@Z 100c2d90 f   corelib:dgSphere.obj
 0001:000c2ad0       ?SetDimensions@dgSphere@@QAEXQBNHHPBVdgMatrix@@@Z 100c3ad0 f   corelib:dgSphere.obj
 0001:000c3330       ?SetDimensions@dgSphere@@QAEXNNN@Z 100c4330 f i corelib:dgSphere.obj
 0001:000c33d0       ?Determinant2x2@@YANQAY01$$CBNQAN@Z 100c43d0 f   corelib:dgSmallDeterminant.obj
 0001:000c3440       ?Determinant2x2@@YA?AVdgGoogol@@QAY01$$CBV1@@Z 100c4440 f   corelib:dgSmallDeterminant.obj
 0001:000c34c0       ?Determinant3x3@@YANQAY02$$CBNQAN@Z 100c44c0 f   corelib:dgSmallDeterminant.obj
 0001:000c35f0       ?Determinant3x3@@YA?AVdgGoogol@@QAY02$$CBV1@@Z 100c45f0 f   corelib:dgSmallDeterminant.obj
 0001:000c3870       ?Determinant4x4@@YANQAY03$$CBNQAN@Z 100c4870 f   corelib:dgSmallDeterminant.obj
 0001:000c39c0       ?Determinant4x4@@YA?AVdgGoogol@@QAY03$$CBV1@@Z 100c49c0 f   corelib:dgSmallDeterminant.obj
 0001:000c3c60       ??0dgGoogol@@QAE@XZ        100c4c60 f   corelib:dgGoogol.obj
 0001:000c3c90       ??0dgGoogol@@QAE@N@Z       100c4c90 f   corelib:dgGoogol.obj
 0001:000c3cc0       ??1dgGoogol@@QAE@XZ        100c4cc0 f   corelib:dgGoogol.obj
 0001:000c3cd0       ?GetAproximateValue@dgGoogol@@QBENXZ 100c4cd0 f   corelib:dgGoogol.obj
 0001:000c3d20       ?InitFloatFloat@dgGoogol@@QAEXN@Z 100c4d20 f   corelib:dgGoogol.obj
 0001:000c3df0       ??HdgGoogol@@QBE?AV0@ABV0@@Z 100c4df0 f   corelib:dgGoogol.obj
 0001:000c4000       ??GdgGoogol@@QBE?AV0@ABV0@@Z 100c5000 f   corelib:dgGoogol.obj
 0001:000c4090       ??DdgGoogol@@QBE?AV0@ABV0@@Z 100c5090 f   corelib:dgGoogol.obj
 0001:000c4180       ?AddFloat@dgGoogol@@ABEXNNAAN0@Z 100c5180 f i corelib:dgGoogol.obj
 0001:000c41d0       ?PackFloat@dgGoogol@@AAEXXZ 100c51d0 f i corelib:dgGoogol.obj
 0001:000c4410       ?ScaleFloat@dgGoogol@@ABE?AV1@N@Z 100c5410 f i corelib:dgGoogol.obj
 0001:000c4640       ?MulFloat@dgGoogol@@ABEXNNAAN0@Z 100c5640 f i corelib:dgGoogol.obj
 0001:000c46c0       ?SplitFloat@dgGoogol@@ABEXNAAN0@Z 100c56c0 f i corelib:dgGoogol.obj
 0001:000c4700       _strlen                    100c5700 f   LIBCMTD:strlen.obj
 0001:000c4790       __fpmath                   100c5790 f   LIBCMTD:_fpinit_.obj
 0001:000c47c0       __fpclear                  100c57c0 f   LIBCMTD:_fpinit_.obj
 0001:000c47d0       __cfltcvt_init             100c57d0 f   LIBCMTD:_fpinit_.obj
 0001:000c4840       ___setfflag                100c5840 f   LIBCMTD:_fpinit_.obj
 0001:000c4860       _ceil                      100c5860 f   LIBCMTD:_ceil_pentium4_.obj
 0001:000c48a0       __ceil_pentium4            100c58a0 f   LIBCMTD:_ceil_pentium4_.obj
 0001:000c4980       __ftol2_sse                100c5980 f   LIBCMTD:ftol2.obj
 0001:000c4989       __ftol2_pentium4           100c5989 f   LIBCMTD:ftol2.obj
 0001:000c499c       __ftol2_sse_excpt          100c599c f   LIBCMTD:ftol2.obj
 0001:000c49b6       __ftol2                    100c59b6 f   LIBCMTD:ftol2.obj
 0001:000c4a30       __CrtSetReportHookW2       100c5a30 f   LIBCMTD:dbgrptw.obj
 0001:000c4d50       __CrtDbgReportW            100c5d50 f   LIBCMTD:dbgrptw.obj
 0001:000c4d90       __CrtDbgReportWV           100c5d90 f i LIBCMTD:dbgrptw.obj
 0001:000c4dc0       ___crtMessageWindowW       100c5dc0 f   LIBCMTD:dbgrptw.obj
 0001:000c51c0       __invoke_watson_if_error   100c61c0 f i LIBCMTD:dbgrptw.obj
 0001:000c51f0       __invoke_watson_if_oneof   100c61f0 f i LIBCMTD:dbgrptw.obj
 0001:000c5240       ?_CrtDbgReportW@@YAHHPBGH00ZZ 100c6240 f   LIBCMTD:dbgrptw.obj
 0001:000c5280       __copysign                 100c6280 f   LIBCMTD:_ieeemisc_.obj
 0001:000c52c0       __chgsign                  100c62c0 f   LIBCMTD:_ieeemisc_.obj
 0001:000c5300       __scalb                    100c6300 f   LIBCMTD:_ieeemisc_.obj
 0001:000c5320       __logb                     100c6320 f   LIBCMTD:_ieeemisc_.obj
 0001:000c5450       __nextafter                100c6450 f   LIBCMTD:_ieeemisc_.obj
 0001:000c5770       __finite                   100c6770 f   LIBCMTD:_ieeemisc_.obj
 0001:000c5790       __isnan                    100c6790 f   LIBCMTD:_ieeemisc_.obj
 0001:000c57e0       __fpclass                  100c67e0 f   LIBCMTD:_ieeemisc_.obj
 0001:000c58b0       _malloc                    100c68b0 f   LIBCMTD:dbgmalloc.obj
 0001:000c58e0       _free                      100c68e0 f   LIBCMTD:dbgfree.obj
 0001:000c5900       _memset                    100c6900 f   LIBCMTD:memset.obj
 0001:000c5980       __CRT_INIT@12              100c6980 f   LIBCMTD:dllcrt0.obj
 0001:000c5b50       __DllMainCRTStartup@12     100c6b50 f   LIBCMTD:dllcrt0.obj
 0001:000c5d40       _sprintf                   100c6d40 f   LIBCMTD:sprintf.obj
 0001:000c5ec0       __sprintf_l                100c6ec0 f   LIBCMTD:sprintf.obj
 0001:000c5ef0       _sprintf_s                 100c6ef0 f   LIBCMTD:sprintf.obj
 0001:000c5f20       __sprintf_s_l              100c6f20 f   LIBCMTD:sprintf.obj
 0001:000c5f50       __snprintf_s               100c6f50 f   LIBCMTD:sprintf.obj
 0001:000c5f80       __snprintf_s_l             100c6f80 f   LIBCMTD:sprintf.obj
 0001:000c5fb0       __sprintf_p                100c6fb0 f   LIBCMTD:sprintf.obj
 0001:000c5fe0       __sprintf_p_l              100c6fe0 f   LIBCMTD:sprintf.obj
 0001:000c6010       __scprintf                 100c7010 f   LIBCMTD:sprintf.obj
 0001:000c6030       __scprintf_p               100c7030 f   LIBCMTD:sprintf.obj
 0001:000c6050       __scprintf_l               100c7050 f   LIBCMTD:sprintf.obj
 0001:000c6080       __scprintf_p_l             100c7080 f   LIBCMTD:sprintf.obj
 0001:000c60b0       __alloca_probe             100c70b0     LIBCMTD:chkstk.obj
 0001:000c60b0       __chkstk                   100c70b0 f   LIBCMTD:chkstk.obj
 0001:000c60e0       __purecall                 100c70e0 f   LIBCMTD:purevirt.obj
 0001:000c6120       __set_purecall_handler     100c7120 f   LIBCMTD:purevirt.obj
 0001:000c6160       __get_purecall_handler     100c7160 f   LIBCMTD:purevirt.obj
 0001:000c6180       ??3@YAXPAX@Z               100c7180 f   LIBCMTD:dbgdel.obj
 0001:000c6270       _pow                       100c7270 f   LIBCMTD:_pow_.obj
 0001:000c62b0       __CIpow                    100c72b0 f   LIBCMTD:_pow_.obj
 0001:000c62eb       __CIpow_default            100c72eb f   LIBCMTD:_pow_.obj
 0001:000c6304       __pow_default              100c7304     LIBCMTD:_pow_.obj
 0001:000c6500       _log                       100c7500 f   LIBCMTD:_log_.obj
 0001:000c6540       __CIlog                    100c7540 f   LIBCMTD:_log_.obj
 0001:000c657b       __CIlog_default            100c757b f   LIBCMTD:_log_.obj
 0001:000c658f       __log_default              100c758f     LIBCMTD:_log_.obj
 0001:000c6650       _memcpy                    100c7650 f   LIBCMTD:memcpy.obj
 0001:000c69c0       __allmul                   100c79c0 f   LIBCMTD:llmul.obj
 0001:000c6a00       __allshl                   100c7a00 f   LIBCMTD:llshl.obj
 0001:000c6a20       __CIsqrt                   100c7a20 f   LIBCMTD:_sqrt_.obj
 0001:000c6a34       _sqrt                      100c7a34     LIBCMTD:_sqrt_.obj
 0001:000c6ae0       _strcpy                    100c7ae0 f   LIBCMTD:strcat.obj
 0001:000c6af0       _strcat                    100c7af0 f   LIBCMTD:strcat.obj
 0001:000c6be0       _fabs                      100c7be0 f   LIBCMTD:_fabs_.obj
 0001:000c6ce0       __vsprintf_l               100c7ce0 f   LIBCMTD:vsprintf.obj
 0001:000c6e60       _vsprintf                  100c7e60 f   LIBCMTD:vsprintf.obj
 0001:000c6e80       __vscprintf_helper         100c7e80 f   LIBCMTD:vsprintf.obj
 0001:000c6f40       __vscprintf                100c7f40 f   LIBCMTD:vsprintf.obj
 0001:000c6f60       __vscprintf_l              100c7f60 f   LIBCMTD:vsprintf.obj
 0001:000c6f80       __vscprintf_p              100c7f80 f   LIBCMTD:vsprintf.obj
 0001:000c6fa0       __vscprintf_p_l            100c7fa0 f   LIBCMTD:vsprintf.obj
 0001:000c6fc0       __onexit                   100c7fc0 f   LIBCMTD:onexit.obj
 0001:000c7190       _atexit                    100c8190 f   LIBCMTD:onexit.obj
 0001:000c71b0       ___onexitinit              100c81b0 f   LIBCMTD:onexit.obj
 0001:000c7210       __statusfp2                100c8210 f   LIBCMTD:_ieee87_.obj
 0001:000c7250       __statusfp                 100c8250 f   LIBCMTD:_ieee87_.obj
 0001:000c72a0       __clearfp                  100c82a0 f   LIBCMTD:_ieee87_.obj
 0001:000c72f0       ___control87_2             100c82f0 f   LIBCMTD:_ieee87_.obj
 0001:000c73a0       __controlfp                100c83a0 f   LIBCMTD:_ieee87_.obj
 0001:000c73c0       __control87                100c83c0 f i LIBCMTD:_ieee87_.obj
 0001:000c7470       __set_controlfp            100c8470 f   LIBCMTD:_ieee87_.obj
 0001:000c7500       __fpreset                  100c8500 f   LIBCMTD:_ieee87_.obj
 0001:000c7cc0       __beginthreadex            100c8cc0 f   LIBCMTD:threadex.obj
 0001:000c7f60       __endthreadex              100c8f60 f   LIBCMTD:threadex.obj
 0001:000c7fb0       __setdefaultprecision      100c8fb0 f   LIBCMTD:fp8.obj
 0001:000c7ff0       __ms_p5_test_fdiv          100c8ff0 f   LIBCMTD:_testfdiv_.obj
 0001:000c8040       __ms_p5_mp_test_fdiv       100c9040 f   LIBCMTD:_testfdiv_.obj
 0001:000c8090       __forcdecpt                100c9090 f   LIBCMTD:cvt.obj
 0001:000c80b0       __forcdecpt_l              100c90b0 f   LIBCMTD:cvt.obj
 0001:000c8170       ??0_LocaleUpdate@@QAE@PAUlocaleinfo_struct@@@Z 100c9170 f i LIBCMTD:cvt.obj
 0001:000c8250       ??1_LocaleUpdate@@QAE@XZ   100c9250 f i LIBCMTD:cvt.obj
 0001:000c8280       ?GetLocaleT@_LocaleUpdate@@QAEPAUlocaleinfo_struct@@XZ 100c9280 f i LIBCMTD:cvt.obj
 0001:000c8290       __cropzeros                100c9290 f   LIBCMTD:cvt.obj
 0001:000c82b0       __cropzeros_l              100c92b0 f   LIBCMTD:cvt.obj
 0001:000c83c0       __positive                 100c93c0 f   LIBCMTD:cvt.obj
 0001:000c83f0       __fassign_l                100c93f0 f   LIBCMTD:cvt.obj
 0001:000c8450       __fassign                  100c9450 f   LIBCMTD:cvt.obj
 0001:000c8470       __cftoe_l                  100c9470 f   LIBCMTD:cvt.obj
 0001:000c89c0       __cftoe                    100c99c0 f   LIBCMTD:cvt.obj
 0001:000c89f0       __cftoa_l                  100c99f0 f   LIBCMTD:cvt.obj
 0001:000c91d0       ?strrchr@@YAPADPADH@Z      100ca1d0 f i LIBCMTD:cvt.obj
 0001:000c91f0       __cftoa                    100ca1f0 f   LIBCMTD:cvt.obj
 0001:000c9220       __cftof_l                  100ca220 f   LIBCMTD:cvt.obj
 0001:000c9630       __cftof                    100ca630 f   LIBCMTD:cvt.obj
 0001:000c9660       __cftog_l                  100ca660 f   LIBCMTD:cvt.obj
 0001:000c9890       __cftog                    100ca890 f   LIBCMTD:cvt.obj
 0001:000c98c0       __cfltcvt_l                100ca8c0 f   LIBCMTD:cvt.obj
 0001:000c9980       __cfltcvt                  100ca980 f   LIBCMTD:cvt.obj
 0001:000c99e0       __initp_misc_cfltcvt_tab   100ca9e0 f   LIBCMTD:cmiscdat.obj
 0001:000c9a30       ___libm_setusermatherr     100caa30 f   LIBCMTD:_libm_error_.obj
 0001:000c9a70       ___libm_error_support      100caa70 f   LIBCMTD:_libm_error_.obj
 0001:000ca5b0       __sse2_mathfcns_init       100cb5b0 f   LIBCMTD:_mathfcns_.obj
 0001:000ca5d0       __set_SSE2_enable          100cb5d0 f   LIBCMTD:_mathfcns_.obj
 0001:000ca5f0       __ceil_default             100cb5f0 f   LIBCMTD:_ceil_.obj
 0001:000ca730       __mtinitlocks              100cb730 f   LIBCMTD:mlock.obj
 0001:000ca7c0       __mtdeletelocks            100cb7c0 f   LIBCMTD:mlock.obj
 0001:000ca880       __mtinitlocknum            100cb880 f   LIBCMTD:mlock.obj
 0001:000ca9d0       __lock                     100cb9d0 f   LIBCMTD:mlock.obj
 0001:000caa10       __unlock                   100cba10 f   LIBCMTD:mlock.obj
 0001:000caa30       __lockerr_exit             100cba30 f   LIBCMTD:mlock.obj
 0001:000caa50       __malloc_dbg               100cba50 f   LIBCMTD:dbgheap.obj
 0001:000caa80       __nh_malloc                100cba80 f   LIBCMTD:dbgheap.obj
 0001:000caaa0       __nh_malloc_dbg            100cbaa0 f   LIBCMTD:dbgheap.obj
 0001:000cab70       __heap_alloc               100cbb70 f   LIBCMTD:dbgheap.obj
 0001:000caf40       __heap_alloc_dbg           100cbf40 f   LIBCMTD:dbgheap.obj
 0001:000cafa0       __calloc_dbg_impl          100cbfa0 f   LIBCMTD:dbgheap.obj
 0001:000cb070       __calloc_dbg               100cc070 f   LIBCMTD:dbgheap.obj
 0001:000cb0d0       __recalloc                 100cc0d0 f   LIBCMTD:dbgheap.obj
 0001:000cb100       __realloc_dbg              100cc100 f   LIBCMTD:dbgheap.obj
 0001:000cb7a0       __recalloc_dbg             100cc7a0 f   LIBCMTD:dbgheap.obj
 0001:000cb8a0       __expand                   100cc8a0 f   LIBCMTD:dbgheap.obj
 0001:000cb8d0       __expand_dbg               100cc8d0 f   LIBCMTD:dbgheap.obj
 0001:000cb9e0       __free_nolock              100cc9e0 f   LIBCMTD:dbgheap.obj
 0001:000cba00       __free_dbg                 100cca00 f   LIBCMTD:dbgheap.obj
 0001:000cba80       __free_dbg_nolock          100cca80 f   LIBCMTD:dbgheap.obj
 0001:000cbf60       __msize                    100ccf60 f   LIBCMTD:dbgheap.obj
 0001:000cbf80       __msize_dbg                100ccf80 f   LIBCMTD:dbgheap.obj
 0001:000cc170       __CrtSetBreakAlloc         100cd170 f   LIBCMTD:dbgheap.obj
 0001:000cc190       __CrtSetDbgBlockType       100cd190 f   LIBCMTD:dbgheap.obj
 0001:000cc280       __CrtSetAllocHook          100cd280 f   LIBCMTD:dbgheap.obj
 0001:000cc2a0       __CrtGetAllocHook          100cd2a0 f   LIBCMTD:dbgheap.obj
 0001:000cc300       __CrtCheckMemory           100cd300 f   LIBCMTD:dbgheap.obj
 0001:000cc760       __CrtSetDbgFlag            100cd760 f   LIBCMTD:dbgheap.obj
 0001:000cc8b0       __CrtDoForAllClientObjects 100cd8b0 f   LIBCMTD:dbgheap.obj
 0001:000cc9d0       __CrtIsValidPointer        100cd9d0 f   LIBCMTD:dbgheap.obj
 0001:000cc9e0       __CrtIsValidHeapPointer    100cd9e0 f   LIBCMTD:dbgheap.obj
 0001:000cca80       __CrtIsMemoryBlock         100cda80 f   LIBCMTD:dbgheap.obj
 0001:000ccbf0       __CrtReportBlockType       100cdbf0 f   LIBCMTD:dbgheap.obj
 0001:000ccc20       __CrtSetDumpClient         100cdc20 f   LIBCMTD:dbgheap.obj
 0001:000ccc40       __CrtGetDumpClient         100cdc40 f   LIBCMTD:dbgheap.obj
 0001:000ccc50       __CrtMemCheckpoint         100cdc50 f   LIBCMTD:dbgheap.obj
 0001:000cce70       __CrtMemDifference         100cde70 f   LIBCMTD:dbgheap.obj
 0001:000cd090       __CrtMemDumpAllObjectsSince 100ce090 f   LIBCMTD:dbgheap.obj
 0001:000cd580       __CrtDumpMemoryLeaks       100ce580 f   LIBCMTD:dbgheap.obj
 0001:000cd5f0       __CrtMemDumpStatistics     100ce5f0 f   LIBCMTD:dbgheap.obj
 0001:000cd700       __aligned_malloc           100ce700 f   LIBCMTD:dbgheap.obj
 0001:000cd720       __aligned_malloc_dbg       100ce720 f   LIBCMTD:dbgheap.obj
 0001:000cd750       __aligned_realloc          100ce750 f   LIBCMTD:dbgheap.obj
 0001:000cd780       __aligned_recalloc         100ce780 f   LIBCMTD:dbgheap.obj
 0001:000cd7b0       __aligned_realloc_dbg      100ce7b0 f   LIBCMTD:dbgheap.obj
 0001:000cd7e0       __aligned_recalloc_dbg     100ce7e0 f   LIBCMTD:dbgheap.obj
 0001:000cd810       __aligned_offset_malloc    100ce810 f   LIBCMTD:dbgheap.obj
 0001:000cd830       __aligned_offset_malloc_dbg 100ce830 f   LIBCMTD:dbgheap.obj
 0001:000cd9d0       __aligned_offset_realloc   100ce9d0 f   LIBCMTD:dbgheap.obj
 0001:000cda00       __aligned_offset_recalloc  100cea00 f   LIBCMTD:dbgheap.obj
 0001:000cda30       __aligned_offset_realloc_dbg 100cea30 f   LIBCMTD:dbgheap.obj
 0001:000cdd00       __aligned_offset_recalloc_dbg 100ced00 f   LIBCMTD:dbgheap.obj
 0001:000cde10       __aligned_free             100cee10 f   LIBCMTD:dbgheap.obj
 0001:000cde30       __aligned_free_dbg         100cee30 f   LIBCMTD:dbgheap.obj
 0001:000cdee0       __CrtSetDebugFillThreshold 100ceee0 f   LIBCMTD:dbgheap.obj
 0001:000cdf00       __CrtSetCheckCount         100cef00 f   LIBCMTD:dbgheap.obj
 0001:000cdf20       __CrtGetCheckCount         100cef20 f   LIBCMTD:dbgheap.obj
 0001:000cdf30       __aligned_msize            100cef30 f   LIBCMTD:dbgheap.obj
 0001:000cdf50       __aligned_msize_dbg        100cef50 f   LIBCMTD:dbgheap.obj
 0001:000ce060       __CrtDbgBreak              100cf060 f   LIBCMTD:dbgrptt.obj
 0001:000ce070       __CrtSetReportMode         100cf070 f   LIBCMTD:dbgrptt.obj
 0001:000ce1b0       __CrtSetReportFile         100cf1b0 f   LIBCMTD:dbgrptt.obj
 0001:000ce2b0       __CrtSetReportHook         100cf2b0 f   LIBCMTD:dbgrptt.obj
 0001:000ce2d0       __CrtGetReportHook         100cf2d0 f   LIBCMTD:dbgrptt.obj
 0001:000ce2e0       __VCrtDbgReportA           100cf2e0 f   LIBCMTD:dbgrptt.obj
 0001:000ceb10       __VCrtDbgReportW           100cfb10 f   LIBCMTD:dbgrptt.obj
 0001:000cf440       __initp_misc_invarg        100d0440 f   LIBCMTD:invarg.obj
 0001:000cf450       __invalid_parameter        100d0450 f   LIBCMTD:invarg.obj
 0001:000cf4c0       __invoke_watson            100d04c0 f   LIBCMTD:invarg.obj
 0001:000cf610       __set_invalid_parameter_handler 100d0610 f   LIBCMTD:invarg.obj
 0001:000cf660       __get_invalid_parameter_handler 100d0660 f   LIBCMTD:invarg.obj
 0001:000cf690       ?_invalid_parameter@@YAXPBG00II@Z 100d0690 f   LIBCMTD:invarg.obj
 0001:000cf6c0       ?_invoke_watson@@YAXPBG00II@Z 100d06c0 f   LIBCMTD:invarg.obj
 0001:000cf6f0       __dosmaperr                100d06f0 f   LIBCMTD:dosmap.obj
 0001:000cf720       __get_errno_from_oserr     100d0720 f   LIBCMTD:dosmap.obj
 0001:000cf7a0       __set_errno                100d07a0 f   LIBCMTD:dosmap.obj
 0001:000cf7d0       __get_errno                100d07d0 f   LIBCMTD:dosmap.obj
 0001:000cf850       __set_doserrno             100d0850 f   LIBCMTD:dosmap.obj
 0001:000cf880       __get_doserrno             100d0880 f   LIBCMTD:dosmap.obj
 0001:000cf900       __errno                    100d0900 f   LIBCMTD:dosmap.obj
 0001:000cf930       ___doserrno                100d0930 f   LIBCMTD:dosmap.obj
 0001:000cf960       __except_handler4          100d0960 f   LIBCMTD:chandler4.obj
 0001:000cfb80       __crt_waiting_on_module_handle 100d0b80 f   LIBCMTD:crt0dat.obj
 0001:000cfbe0       __cinit                    100d0be0 f   LIBCMTD:crt0dat.obj
 0001:000cfc80       _exit                      100d0c80 f   LIBCMTD:crt0dat.obj
 0001:000cfca0       __exit                     100d0ca0 f   LIBCMTD:crt0dat.obj
 0001:000cfcc0       __cexit                    100d0cc0 f   LIBCMTD:crt0dat.obj
 0001:000cfce0       __c_exit                   100d0ce0 f   LIBCMTD:crt0dat.obj
 0001:000cfd00       __amsg_exit                100d0d00 f   LIBCMTD:crt0dat.obj
 0001:000cfd40       ___freeCrtMemory           100d0d40 f   LIBCMTD:crt0dat.obj
 0001:000d0090       ___crtCorExitProcess       100d1090 f   LIBCMTD:crt0dat.obj
 0001:000d00d0       ___crtExitProcess          100d10d0 f   LIBCMTD:crt0dat.obj
 0001:000d00f0       __lockexit                 100d10f0 f   LIBCMTD:crt0dat.obj
 0001:000d0110       __unlockexit               100d1110 f   LIBCMTD:crt0dat.obj
 0001:000d0130       __init_pointers            100d1130 f   LIBCMTD:crt0dat.obj
 0001:000d01f0       __initterm_e               100d11f0 f   LIBCMTD:crt0dat.obj
 0001:000d0230       __get_wpgmptr              100d1230 f   LIBCMTD:crt0dat.obj
 0001:000d0320       __get_pgmptr               100d1320 f   LIBCMTD:crt0dat.obj
 0001:000d0410       __initp_misc_winsig        100d1410 f   LIBCMTD:winsig.obj
 0001:000d0440       _signal                    100d1440 f   LIBCMTD:winsig.obj
 0001:000d08e0       _raise                     100d18e0 f   LIBCMTD:winsig.obj
 0001:000d0c50       ___get_sigabrt             100d1c50 f   LIBCMTD:winsig.obj
 0001:000d0c70       ___fpecode                 100d1c70 f   LIBCMTD:winsig.obj
 0001:000d0c80       ___pxcptinfoptrs           100d1c80 f   LIBCMTD:winsig.obj
 0001:000d0c90       ___crtMessageBoxW          100d1c90 f   LIBCMTD:crtmboxw.obj
 0001:000d0eb0       __swprintf                 100d1eb0 f   LIBCMTD:swprintf.obj
 0001:000d1080       ___swprintf_l              100d2080 f   LIBCMTD:swprintf.obj
 0001:000d10b0       _swprintf_s                100d20b0 f   LIBCMTD:swprintf.obj
 0001:000d10e0       __snwprintf_s              100d20e0 f   LIBCMTD:swprintf.obj
 0001:000d1110       __swprintf_p               100d2110 f   LIBCMTD:swprintf.obj
 0001:000d1140       __swprintf_s_l             100d2140 f   LIBCMTD:swprintf.obj
 0001:000d1170       __snwprintf_s_l            100d2170 f   LIBCMTD:swprintf.obj
 0001:000d11a0       __swprintf_p_l             100d21a0 f   LIBCMTD:swprintf.obj
 0001:000d11d0       __scwprintf                100d21d0 f   LIBCMTD:swprintf.obj
 0001:000d11f0       __scwprintf_p              100d21f0 f   LIBCMTD:swprintf.obj
 0001:000d1210       __scwprintf_l              100d2210 f   LIBCMTD:swprintf.obj
 0001:000d1240       __scwprintf_p_l            100d2240 f   LIBCMTD:swprintf.obj
 0001:000d1270       _memcpy_s                  100d2270 f   LIBCMTD:memcpy_s.obj
 0001:000d1400       _wcslen                    100d2400 f   LIBCMTD:wcslen.obj
 0001:000d1430       _wcscpy_s                  100d2430 f   LIBCMTD:wcscpy_s.obj
 0001:000d1710       @__security_check_cookie@4 100d2710 f   LIBCMTD:secchk.obj
 0001:000d1720       _ldexp                     100d2720 f   LIBCMTD:_ldexp_.obj
 0001:000d19e0       __set_exp                  100d29e0 f   LIBCMTD:_util_.obj
 0001:000d1a20       __get_exp                  100d2a20 f   LIBCMTD:_util_.obj
 0001:000d1a50       __add_exp                  100d2a50 f   LIBCMTD:_util_.obj
 0001:000d1a90       __set_bexp                 100d2a90 f   LIBCMTD:_util_.obj
 0001:000d1ac0       __sptype                   100d2ac0 f   LIBCMTD:_util_.obj
 0001:000d1b40       __decomp                   100d2b40 f   LIBCMTD:_util_.obj
 0001:000d1c60       __handle_qnan1             100d2c60 f   LIBCMTD:_fpexcept_.obj
 0001:000d1cc0       __handle_qnan2             100d2cc0 f   LIBCMTD:_fpexcept_.obj
 0001:000d1d30       __except1                  100d2d30 f   LIBCMTD:_fpexcept_.obj
 0001:000d1e30       __except2                  100d2e30 f   LIBCMTD:_fpexcept_.obj
 0001:000d1f40       __raise_exc_ex             100d2f40 f   LIBCMTD:_fpexcept_.obj
 0001:000d2470       __raise_exc                100d3470 f   LIBCMTD:_fpexcept_.obj
 0001:000d24a0       __raise_excf               100d34a0 f   LIBCMTD:_fpexcept_.obj
 0001:000d24d0       __handle_exc               100d34d0 f   LIBCMTD:_fpexcept_.obj
 0001:000d27e0       __umatherr                 100d37e0 f   LIBCMTD:_fpexcept_.obj
 0001:000d2880       __set_errno_from_matherr   100d3880 f   LIBCMTD:_fpexcept_.obj
 0001:000d2910       __errcode                  100d3910 f   LIBCMTD:_fpexcept_.obj
 0001:000d2980       __statfp                   100d3980 f   LIBCMTD:_fpctrl_.obj
 0001:000d29a0       __clrfp                    100d39a0 f   LIBCMTD:_fpctrl_.obj
 0001:000d29c0       __ctrlfp                   100d39c0 f   LIBCMTD:_fpctrl_.obj
 0001:000d29f0       __set_statfp               100d39f0 f   LIBCMTD:_fpctrl_.obj
 0001:000d2a60       ___get_fpsr_sse2           100d3a60 f   LIBCMTD:_fpctrl_.obj
 0001:000d2a90       ___set_fpsr_sse2           100d3a90 f   LIBCMTD:_fpctrl_.obj
 0001:000d2b70       ___fclrf_sse2              100d3b70 f   LIBCMTD:_fpctrl_.obj
 0001:000d2b90       ___statfp_sse2             100d3b90 f   LIBCMTD:_fpctrl_.obj
 0001:000d2bc0       ___clrfp_sse2              100d3bc0 f   LIBCMTD:_fpctrl_.obj
 0001:000d2c00       ___ctrlfp_sse2             100d3c00 f   LIBCMTD:_fpctrl_.obj
 0001:000d2c60       ___set_statfp_sse2         100d3c60 f   LIBCMTD:_fpctrl_.obj
 0001:000d2c90       __VEC_memzero              100d3c90 f   LIBCMTD:p4_memset.obj
 0001:000d2d80       __encode_pointer           100d3d80 f   LIBCMTD:tidtable.obj
 0001:000d2e20       __crt_wait_module_handle   100d3e20 f i LIBCMTD:tidtable.obj
 0001:000d2e50       __encoded_null             100d3e50 f   LIBCMTD:tidtable.obj
 0001:000d2e70       __decode_pointer           100d3e70 f   LIBCMTD:tidtable.obj
 0001:000d2f10       ___crtTlsAlloc@4           100d3f10 f   LIBCMTD:tidtable.obj
 0001:000d2f20       ___fls_getvalue@4          100d3f20 f   LIBCMTD:tidtable.obj
 0001:000d2f40       ___get_flsindex            100d3f40 f   LIBCMTD:tidtable.obj
 0001:000d2f50       ___set_flsgetvalue         100d3f50 f   LIBCMTD:tidtable.obj
 0001:000d2fa0       ___fls_setvalue@8          100d3fa0 f   LIBCMTD:tidtable.obj
 0001:000d2fd0       __mtinit                   100d3fd0 f   LIBCMTD:tidtable.obj
 0001:000d31e0       __mtterm                   100d41e0 f   LIBCMTD:tidtable.obj
 0001:000d3240       __initptd                  100d4240 f   LIBCMTD:tidtable.obj
 0001:000d33a0       __getptd_noexit            100d43a0 f   LIBCMTD:tidtable.obj
 0001:000d3460       __getptd                   100d4460 f   LIBCMTD:tidtable.obj
 0001:000d3490       __freefls@4                100d4490 f   LIBCMTD:tidtable.obj
 0001:000d36a0       __freeptd                  100d46a0 f   LIBCMTD:tidtable.obj
 0001:000d3720       ___threadid                100d4720 f   LIBCMTD:tidtable.obj
 0001:000d3730       ___threadhandle            100d4730 f   LIBCMTD:tidtable.obj
 0001:000d3740       __ioinit                   100d4740 f   LIBCMTD:ioinit.obj
 0001:000d3be0       __ioterm                   100d4be0 f   LIBCMTD:ioinit.obj
 0001:000d3c80       __setenvp                  100d4c80 f   LIBCMTD:stdenvp.obj
 0001:000d3e20       __setargv                  100d4e20 f   LIBCMTD:stdargv.obj
 0001:000d3f40       __set_pgmptr               100d4f40 f i LIBCMTD:stdargv.obj
 0001:000d42b0       ___crtGetEnvironmentStringsA 100d52b0 f   LIBCMTD:a_env.obj
 0001:000d44d0       __RTC_Initialize           100d54d0 f   LIBCMTD:_initsect_.obj
 0001:000d4500       __RTC_Terminate            100d5500 f   LIBCMTD:_initsect_.obj
 0001:000d4530       ___heap_select             100d5530 f   LIBCMTD:heapinit.obj
 0001:000d4550       __heap_init                100d5550 f   LIBCMTD:heapinit.obj
 0001:000d45d0       __heap_term                100d55d0 f   LIBCMTD:heapinit.obj
 0001:000d4670       __get_heap_handle          100d5670 f   LIBCMTD:heapinit.obj
 0001:000d46b0       ___security_init_cookie    100d56b0 f   LIBCMTD:gs_support.obj
 0001:000d4790       __initp_misc_winxfltr      100d5790 f   LIBCMTD:winxfltr.obj
 0001:000d47a0       ___CppXcptFilter           100d57a0 f   LIBCMTD:winxfltr.obj
 0001:000d47d0       __XcptFilter               100d57d0 f   LIBCMTD:winxfltr.obj
 0001:000d4a00       __flsbuf                   100d5a00 f   LIBCMTD:_flsbuf.obj
 0001:000d4cc0       __output_l                 100d5cc0 f   LIBCMTD:output.obj
 0001:000d60f0       _get_int_arg               100d70f0 f i LIBCMTD:output.obj
 0001:000d6110       _get_int64_arg             100d7110 f i LIBCMTD:output.obj
 0001:000d6130       _get_short_arg             100d7130 f i LIBCMTD:output.obj
 0001:000d6150       __vsnprintf_helper         100d7150 f   LIBCMTD:vsnprnc.obj
 0001:000d6320       __vsnprintf_c              100d7320 f   LIBCMTD:vsnprnc.obj
 0001:000d6370       __vsnprintf_c_l            100d7370 f   LIBCMTD:vsnprnc.obj
 0001:000d63c0       __vsprintf_s_l             100d73c0 f   LIBCMTD:vsnprnc.obj
 0001:000d6630       _vsprintf_s                100d7630 f   LIBCMTD:vsnprnc.obj
 0001:000d6660       __vsnprintf_s_l            100d7660 f   LIBCMTD:vsnprnc.obj
 0001:000d6a00       __vsnprintf_s              100d7a00 f   LIBCMTD:vsnprnc.obj
 0001:000d6a30       __vsprintf_p               100d7a30 f   LIBCMTD:vsnprnc.obj
 0001:000d6a80       __vsprintf_p_l             100d7a80 f   LIBCMTD:vsnprnc.obj
 0001:000d6ad0       _abort                     100d7ad0 f   LIBCMTD:abort.obj
 0001:000d6c10       __set_abort_behavior       100d7c10 f   LIBCMTD:abort.obj
 0001:000d6c40       __FF_MSGBANNER             100d7c40 f   LIBCMTD:crt0msg.obj
 0001:000d6c90       __NMSG_WRITE               100d7c90 f   LIBCMTD:crt0msg.obj
 0001:000d6f30       __GET_RTERRMSG             100d7f30 f   LIBCMTD:crt0msg.obj
 0001:000d6f80       ___getlocaleinfo           100d7f80 f   LIBCMTD:inithelp.obj
 0001:000d7220       __initp_misc_purevirt      100d8220 f   LIBCMTD:inithelp.obj
 0001:000d7230       __CIpow_pentium4           100d8230 f   LIBCMTD:_pow_pentium4_.obj
 0001:000d7249       __pow_pentium4             100d8249     LIBCMTD:_pow_pentium4_.obj
 0001:000d7da1       __fFEXP                    100d8da1     LIBCMTD:_87tran_.obj
 0001:000d7e08       __rtinfpopse               100d8e08     LIBCMTD:_87tran_.obj
 0001:000d7e0a       __rtinfnpopse              100d8e0a     LIBCMTD:_87tran_.obj
 0001:000d7e1a       __fFLN                     100d8e1a     LIBCMTD:_87tran_.obj
 0001:000d7ecf       __rtinfpop                 100d8ecf     LIBCMTD:_87tran_.obj
 0001:000d7ed1       __rtinfnpop                100d8ed1     LIBCMTD:_87tran_.obj
 0001:000d7eee       __ffexpm1                  100d8eee     LIBCMTD:_87tran_.obj
 0001:000d7fa0       __trandisp1                100d8fa0 f   LIBCMTD:_87disp_.obj
 0001:000d8007       __trandisp2                100d9007 f   LIBCMTD:_87disp_.obj
 0001:000d8093       __rttospopde               100d9093     LIBCMTD:_87disp_.obj
 0001:000d8098       __rttospop                 100d9098     LIBCMTD:_87disp_.obj
 0001:000d809a       __rtnospop                 100d909a     LIBCMTD:_87disp_.obj
 0001:000d809c       __rttosnpop                100d909c     LIBCMTD:_87disp_.obj
 0001:000d809d       __rtnospopde               100d909d     LIBCMTD:_87disp_.obj
 0001:000d80a4       __rtzeropop                100d90a4     LIBCMTD:_87disp_.obj
 0001:000d80a6       __rtzeronpop               100d90a6     LIBCMTD:_87disp_.obj
 0001:000d80ab       __rtonepop                 100d90ab     LIBCMTD:_87disp_.obj
 0001:000d80ad       __rtonenpop                100d90ad     LIBCMTD:_87disp_.obj
 0001:000d80b2       __tosnan1                  100d90b2     LIBCMTD:_87disp_.obj
 0001:000d80dd       __nosnan2                  100d90dd     LIBCMTD:_87disp_.obj
 0001:000d80df       __tosnan2                  100d90df     LIBCMTD:_87disp_.obj
 0001:000d8107       __nan2                     100d9107     LIBCMTD:_87disp_.obj
 0001:000d8146       __rtindfpop                100d9146     LIBCMTD:_87disp_.obj
 0001:000d8148       __rtindfnpop               100d9148     LIBCMTD:_87disp_.obj
 0001:000d8159       __rttosnpopde              100d9159     LIBCMTD:_87disp_.obj
 0001:000d8163       __rtchsifneg               100d9163     LIBCMTD:_87disp_.obj
 0001:000d8170       __startTwoArgErrorHandling 100d9170 f   LIBCMTD:_genexcep_.obj
 0001:000d8187       __startOneArgErrorHandling 100d9187 f   LIBCMTD:_genexcep_.obj
 0001:000d81d0       __twoToTOS                 100d91d0 f   LIBCMTD:_common_.obj
 0001:000d81e5       __load_CW                  100d91e5 f   LIBCMTD:_common_.obj
 0001:000d81fc       __convertTOStoQNaN         100d91fc f   LIBCMTD:_common_.obj
 0001:000d8215       __fload_withFB             100d9215 f   LIBCMTD:_common_.obj
 0001:000d8258       __checkTOS_withFB          100d9258 f   LIBCMTD:_common_.obj
 0001:000d826e       __fast_exit                100d926e f   LIBCMTD:_common_.obj
 0001:000d827b       __math_exit                100d927b f   LIBCMTD:_common_.obj
 0001:000d82a5       __check_overflow_exit      100d92a5 f   LIBCMTD:_common_.obj
 0001:000d82b9       __check_range_exit         100d92b9 f   LIBCMTD:_common_.obj
 0001:000d8360       __powhlp                   100d9360 f   LIBCMTD:_powhlp_.obj
 0001:000d8510       __d_inttype                100d9510 f   LIBCMTD:_powhlp_.obj
 0001:000d85a0       __CIlog_pentium4           100d95a0 f   LIBCMTD:_log_pentium4_.obj
 0001:000d85b8       __log_pentium4             100d95b8     LIBCMTD:_log_pentium4_.obj
 0001:000d8810       __VEC_memcpy               100d9810 f   LIBCMTD:p4_memcpy.obj
 0001:000d8990       __validate_param_reuseA    100d9990 f   LIBCMTD:outputp.obj
 0001:000d8c00       __output_p_l               100d9c00 f   LIBCMTD:outputp.obj
 0001:000dc7c0       _get_crtdouble_arg         100dd7c0 f i LIBCMTD:outputp.obj
 0001:000dc7e0       __controlfp_s              100dd7e0 f   LIBCMTD:_contrlfp_.obj
 0001:000dc8c0       __ValidateImageBase        100dd8c0 f   LIBCMTD:pesect.obj
 0001:000dc920       __FindPESection            100dd920 f   LIBCMTD:pesect.obj
 0001:000dc9a0       __IsNonwritableInCurrentImage 100dd9a0 f   LIBCMTD:pesect.obj
 0001:000dcac0       __isalpha_l                100ddac0 f i LIBCMTD:_ctype.obj
 0001:000dcb50       _isalpha                   100ddb50 f i LIBCMTD:_ctype.obj
 0001:000dcb90       __isupper_l                100ddb90 f i LIBCMTD:_ctype.obj
 0001:000dcc10       _isupper                   100ddc10 f i LIBCMTD:_ctype.obj
 0001:000dcc40       __islower_l                100ddc40 f i LIBCMTD:_ctype.obj
 0001:000dccc0       _islower                   100ddcc0 f i LIBCMTD:_ctype.obj
 0001:000dccf0       __isdigit_l                100ddcf0 f i LIBCMTD:_ctype.obj
 0001:000dcd70       _isdigit                   100ddd70 f i LIBCMTD:_ctype.obj
 0001:000dcda0       __isxdigit_l               100ddda0 f i LIBCMTD:_ctype.obj
 0001:000dce30       _isxdigit                  100dde30 f i LIBCMTD:_ctype.obj
 0001:000dce70       __isspace_l                100dde70 f i LIBCMTD:_ctype.obj
 0001:000dcef0       _isspace                   100ddef0 f i LIBCMTD:_ctype.obj
 0001:000dcf20       __ispunct_l                100ddf20 f i LIBCMTD:_ctype.obj
 0001:000dcfa0       _ispunct                   100ddfa0 f i LIBCMTD:_ctype.obj
 0001:000dcfd0       __isalnum_l                100ddfd0 f i LIBCMTD:_ctype.obj
 0001:000dd060       _isalnum                   100de060 f i LIBCMTD:_ctype.obj
 0001:000dd0a0       __isprint_l                100de0a0 f i LIBCMTD:_ctype.obj
 0001:000dd130       _isprint                   100de130 f i LIBCMTD:_ctype.obj
 0001:000dd170       __isgraph_l                100de170 f i LIBCMTD:_ctype.obj
 0001:000dd200       _isgraph                   100de200 f i LIBCMTD:_ctype.obj
 0001:000dd240       __iscntrl_l                100de240 f i LIBCMTD:_ctype.obj
 0001:000dd2c0       _iscntrl                   100de2c0 f i LIBCMTD:_ctype.obj
 0001:000dd2f0       ___isascii                 100de2f0 f i LIBCMTD:_ctype.obj
 0001:000dd310       ___toascii                 100de310 f i LIBCMTD:_ctype.obj
 0001:000dd320       __iscsymf_l                100de320 f i LIBCMTD:_ctype.obj
 0001:000dd360       ___iscsymf                 100de360 f i LIBCMTD:_ctype.obj
 0001:000dd3a0       __iscsym_l                 100de3a0 f i LIBCMTD:_ctype.obj
 0001:000dd3e0       ___iscsym                  100de3e0 f i LIBCMTD:_ctype.obj
 0001:000dd420       __tolower                  100de420 f   LIBCMTD:tolower.obj
 0001:000dd430       __tolower_l                100de430 f   LIBCMTD:tolower.obj
 0001:000dd610       _tolower                   100de610 f   LIBCMTD:tolower.obj
 0001:000dd660       ___updatetmbcinfo          100de660 f   LIBCMTD:mbctype.obj
 0001:000dd770       __setmbcp                  100de770 f   LIBCMTD:mbctype.obj
 0001:000ddb20       __setmbcp_nolock           100deb20 f   LIBCMTD:mbctype.obj
 0001:000de310       __getmbcp                  100df310 f   LIBCMTD:mbctype.obj
 0001:000de380       ___initmbctable            100df380 f   LIBCMTD:mbctype.obj
 0001:000de3b0       ____setlc_active_func      100df3b0 f   LIBCMTD:setlocal.obj
 0001:000de3c0       ____unguarded_readlc_active_add_func 100df3c0 f   LIBCMTD:setlocal.obj
 0001:000de3d0       ___freetlocinfo            100df3d0 f   LIBCMTD:setlocal.obj
 0001:000de6b0       ___addlocaleref            100df6b0 f   LIBCMTD:setlocal.obj
 0001:000de7d0       ___removelocaleref         100df7d0 f   LIBCMTD:setlocal.obj
 0001:000de900       ___updatetlocinfo          100df900 f   LIBCMTD:setlocal.obj
 0001:000dea50       __configthreadlocale       100dfa50 f   LIBCMTD:setlocal.obj
 0001:000deb60       __locterm                  100dfb60 f   LIBCMTD:setlocal.obj
 0001:000dec00       __free_locale              100dfc00 f   LIBCMTD:setlocal.obj
 0001:000ded40       ___free_locale             100dfd40 f   LIBCMTD:setlocal.obj
 0001:000ded60       __create_locale            100dfd60 f   LIBCMTD:setlocal.obj
 0001:000def90       ___create_locale           100dff90 f   LIBCMTD:setlocal.obj
 0001:000defb0       __get_current_locale       100dffb0 f   LIBCMTD:setlocal.obj
 0001:000df0d0       ___get_current_locale      100e00d0 f   LIBCMTD:setlocal.obj
 0001:000df0e0       _setlocale                 100e00e0 f   LIBCMTD:setlocal.obj
 0001:000dfff0       __expandlocale             100e0ff0 f   LIBCMTD:setlocal.obj
 0001:000e02a0       ___init_dummy              100e12a0 f   LIBCMTD:setlocal.obj
 0001:000e02b0       __strcats                  100e12b0 f   LIBCMTD:setlocal.obj
 0001:000e0330       ___lc_strtolc              100e1330 f   LIBCMTD:setlocal.obj
 0001:000e0530       ___lc_lctostr              100e1530 f   LIBCMTD:setlocal.obj
 0001:000e05d0       __atodbl_l                 100e15d0 f   LIBCMTD:atodbl.obj
 0001:000e06e0       __atodbl                   100e16e0 f   LIBCMTD:atodbl.obj
 0001:000e0700       __atoldbl_l                100e1700 f   LIBCMTD:atodbl.obj
 0001:000e0810       __atoldbl                  100e1810 f   LIBCMTD:atodbl.obj
 0001:000e0830       __atoflt_l                 100e1830 f   LIBCMTD:atodbl.obj
 0001:000e0940       __atoflt                   100e1940 f   LIBCMTD:atodbl.obj
 0001:000e0960       __fptostr                  100e1960 f   LIBCMTD:_fptostr.obj
 0001:000e0c10       __fltout2                  100e1c10 f   LIBCMTD:_cfout_.obj
 0001:000e0cc0       ___dtold                   100e1cc0 f   LIBCMTD:_cfout_.obj
 0001:000e0e20       _memmove                   100e1e20 f   LIBCMTD:memmove.obj
 0001:000e1190       __set_output_format        100e2190 f   LIBCMTD:outputformat.obj
 0001:000e1210       __get_output_format        100e2210 f   LIBCMTD:outputformat.obj
 0001:000e1220       _strcpy_s                  100e2220 f   LIBCMTD:strcpy_s.obj
 0001:000e1500       __allrem                   100e2500 f   LIBCMTD:llrem.obj
 0001:000e15c0       __alldiv                   100e25c0 f   LIBCMTD:lldiv.obj
 0001:000e1670       __aullshr                  100e2670 f   LIBCMTD:ullshr.obj
 0001:000e1690       _strrchr                   100e2690 f   LIBCMTD:strrchr.obj
 0001:000e16c0       __fptrap                   100e26c0 f   LIBCMTD:crt0fp.obj
 0001:000e16e0       __matherr                  100e26e0 f   LIBCMTD:_matherr_.obj
 0001:000e16f0       __get_sse2_info            100e26f0 f   LIBCMTD:cpu_disp.obj
 0001:000e1820       ___sse2_available_init     100e2820 f   LIBCMTD:cpu_disp.obj
 0001:000e1840       __frnd                     100e2840 f   LIBCMTD:_frnd_.obj
 0001:000e1860       __initp_misc_initcrit      100e2860 f   LIBCMTD:initcrit.obj
 0001:000e1870       ___crtInitCritSecAndSpinCount 100e2870 f   LIBCMTD:initcrit.obj
 0001:000e1920       __initp_heap_handler       100e2920 f   LIBCMTD:handler.obj
 0001:000e1930       ?_set_new_handler@@YAP6AHI@ZP6AHI@Z@Z 100e2930 f   LIBCMTD:handler.obj
 0001:000e1980       ?_set_new_handler@@YAP6AHI@ZH@Z 100e2980 f   LIBCMTD:handler.obj
 0001:000e19c0       ?_query_new_handler@@YAP6AHI@ZXZ 100e29c0 f   LIBCMTD:handler.obj
 0001:000e19e0       __callnewh                 100e29e0 f   LIBCMTD:handler.obj
 0001:000e1a20       _V6_HeapAlloc              100e2a20 f   LIBCMTD:malloc.obj
 0001:000e1ac0       __malloc_base              100e2ac0 f   LIBCMTD:malloc.obj
 0001:000e1b50       __heap_alloc_base          100e2b50 f i LIBCMTD:malloc.obj
 0001:000e1c10       __CrtSetReportHook2        100e2c10 f   LIBCMTD:dbgrpt.obj
 0001:000e1f30       __CrtDbgReport             100e2f30 f   LIBCMTD:dbgrpt.obj
 0001:000e1f70       __CrtDbgReportV            100e2f70 f i LIBCMTD:dbgrpt.obj
 0001:000e1fa0       ___crtMessageWindowA       100e2fa0 f   LIBCMTD:dbgrpt.obj
 0001:000e23a0       __CrtDefaultAllocHook      100e33a0 f   LIBCMTD:dbghook.obj
 0001:000e23b0       __crt_debugger_hook        100e33b0 f   LIBCMTD:dbghook.obj
 0001:000e23d0       __expand_base              100e33d0 f   LIBCMTD:expand.obj
 0001:000e26a0       __realloc_base             100e36a0 f   LIBCMTD:realloc.obj
 0001:000e2a40       __free_base                100e3a40 f   LIBCMTD:free.obj
 0001:000e2b70       __heapchk                  100e3b70 f   LIBCMTD:heapchk.obj
 0001:000e2c40       __heapset                  100e3c40 f   LIBCMTD:heapchk.obj
 0001:000e2c50       __get_sbh_threshold        100e3c50 f   LIBCMTD:sbheap.obj
 0001:000e2ca0       __set_sbh_threshold        100e3ca0 f   LIBCMTD:sbheap.obj
 0001:000e2e30       __set_amblksiz             100e3e30 f   LIBCMTD:sbheap.obj
 0001:000e2f40       __get_amblksiz             100e3f40 f   LIBCMTD:sbheap.obj
 0001:000e3030       ___sbh_heap_init           100e4030 f   LIBCMTD:sbheap.obj
 0001:000e30a0       ___sbh_find_block          100e40a0 f   LIBCMTD:sbheap.obj
 0001:000e3100       ___sbh_verify_block        100e4100 f   LIBCMTD:sbheap.obj
 0001:000e3160       ___sbh_free_block          100e4160 f   LIBCMTD:sbheap.obj
 0001:000e3720       ___sbh_alloc_block         100e4720 f   LIBCMTD:sbheap.obj
 0001:000e3c40       ___sbh_alloc_new_region    100e4c40 f   LIBCMTD:sbheap.obj
 0001:000e3d50       ___sbh_alloc_new_group     100e4d50 f   LIBCMTD:sbheap.obj
 0001:000e3f40       ___sbh_resize_block        100e4f40 f   LIBCMTD:sbheap.obj
 0001:000e4510       ___sbh_heapmin             100e5510 f   LIBCMTD:sbheap.obj
 0001:000e4640       ___sbh_heap_check          100e5640 f   LIBCMTD:sbheap.obj
 0001:000e4b30       __chvalidator              100e5b30 f   LIBCMTD:isctype.obj
 0001:000e4b80       __chvalidator_l            100e5b80 f   LIBCMTD:isctype.obj
 0001:000e4c30       __isctype_l                100e5c30 f   LIBCMTD:isctype.obj
 0001:000e4d50       __isctype                  100e5d50 f   LIBCMTD:isctype.obj
 0001:000e4d90       __mbstowcs_l_helper        100e5d90 f   LIBCMTD:mbstowcs.obj
 0001:000e50e0       __mbstowcs_l               100e60e0 f   LIBCMTD:mbstowcs.obj
 0001:000e5100       _mbstowcs                  100e6100 f   LIBCMTD:mbstowcs.obj
 0001:000e5150       __mbstowcs_s_l             100e6150 f   LIBCMTD:mbstowcs.obj
 0001:000e54d0       _mbstowcs_s                100e64d0 f   LIBCMTD:mbstowcs.obj
 0001:000e5500       _strcat_s                  100e6500 f   LIBCMTD:strcat_s.obj
 0001:000e58e0       __itoa_s                   100e68e0 f   LIBCMTD:xtoas.obj
 0001:000e5cb0       __ltoa_s                   100e6cb0 f   LIBCMTD:xtoas.obj
 0001:000e5cf0       __ultoa_s                  100e6cf0 f   LIBCMTD:xtoas.obj
 0001:000e5d10       __i64toa_s                 100e6d10 f   LIBCMTD:xtoas.obj
 0001:000e6110       __ui64toa_s                100e7110 f   LIBCMTD:xtoas.obj
 0001:000e6130       __wcstombs_l_helper        100e7130 f   LIBCMTD:wcstombs.obj
 0001:000e6620       __wcstombs_l               100e7620 f   LIBCMTD:wcstombs.obj
 0001:000e6640       _wcstombs                  100e7640 f   LIBCMTD:wcstombs.obj
 0001:000e6660       __wcstombs_s_l             100e7660 f   LIBCMTD:wcstombs.obj
 0001:000e6990       _wcstombs_s                100e7990 f   LIBCMTD:wcstombs.obj
 0001:000e69c0       _wcscat_s                  100e79c0 f   LIBCMTD:wcscat_s.obj
 0001:000e6db0       __vswprintf_helper         100e7db0 f   LIBCMTD:vswprnc.obj
 0001:000e6fe0       __vswprintf_c              100e7fe0 f   LIBCMTD:vswprnc.obj
 0001:000e7030       __vswprintf_c_l            100e8030 f   LIBCMTD:vswprnc.obj
 0001:000e7080       __vswprintf_s_l            100e8080 f   LIBCMTD:vswprnc.obj
 0001:000e72f0       _vswprintf_s               100e82f0 f   LIBCMTD:vswprnc.obj
 0001:000e7320       __vsnwprintf_s_l           100e8320 f   LIBCMTD:vswprnc.obj
 0001:000e76d0       __vsnwprintf_s             100e86d0 f   LIBCMTD:vswprnc.obj
 0001:000e7700       __vswprintf_p              100e8700 f   LIBCMTD:vswprnc.obj
 0001:000e7750       __vswprintf_p_l            100e8750 f   LIBCMTD:vswprnc.obj
 0001:000e77a0       __itow_s                   100e87a0 f   LIBCMTD:xtows.obj
 0001:000e7b80       __ltow_s                   100e8b80 f   LIBCMTD:xtows.obj
 0001:000e7bc0       __ultow_s                  100e8bc0 f   LIBCMTD:xtows.obj
 0001:000e7be0       __i64tow_s                 100e8be0 f   LIBCMTD:xtows.obj
 0001:000e8000       __ui64tow_s                100e9000 f   LIBCMTD:xtows.obj
 0001:000e8020       __local_unwind4            100e9020 f   LIBCMTD:exsup4.obj
 0001:000e80f6       __seh_longjmp_unwind4@4    100e90f6 f   LIBCMTD:exsup4.obj
 0001:000e8112       @_EH4_CallFilterFunc@8     100e9112 f   LIBCMTD:exsup4.obj
 0001:000e8129       @_EH4_TransferToHandler@8  100e9129 f   LIBCMTD:exsup4.obj
 0001:000e8142       @_EH4_GlobalUnwind@4       100e9142 f   LIBCMTD:exsup4.obj
 0001:000e815c       @_EH4_LocalUnwind@16       100e915c f   LIBCMTD:exsup4.obj
 0001:000e8180       __initp_eh_hooks           100e9180 f   LIBCMTD:hooks.obj
 0001:000e81a0       ?terminate@@YAXXZ          100e91a0 f   LIBCMTD:hooks.obj
 0001:000e8220       ?unexpected@@YAXXZ         100e9220 f   LIBCMTD:hooks.obj
 0001:000e8250       ?_inconsistency@@YAXXZ     100e9250 f   LIBCMTD:hooks.obj
 0001:000e82e0       __initp_misc_rand_s        100e92e0 f   LIBCMTD:rand_s.obj
 0001:000e82f0       _rand_s                    100e92f0 f   LIBCMTD:rand_s.obj
 0001:000e8510       __woutput_l                100e9510 f   LIBCMTD:woutput.obj
 0001:000e96e0       __vswprintf_l              100ea6e0 f   LIBCMTD:vswprint.obj
 0001:000e98b0       __vswprintf                100ea8b0 f   LIBCMTD:vswprint.obj
 0001:000e98d0       ___vswprintf_l             100ea8d0 f   LIBCMTD:vswprint.obj
 0001:000e98f0       __vscwprintf_helper        100ea8f0 f   LIBCMTD:vswprint.obj
 0001:000e99b0       __vscwprintf               100ea9b0 f   LIBCMTD:vswprint.obj
 0001:000e99d0       __vscwprintf_l             100ea9d0 f   LIBCMTD:vswprint.obj
 0001:000e99f0       __vscwprintf_p             100ea9f0 f   LIBCMTD:vswprint.obj
 0001:000e9a10       __vscwprintf_p_l           100eaa10 f   LIBCMTD:vswprint.obj
 0001:000e9a30       ___report_gsfailure        100eaa30 f   LIBCMTD:gs_report.obj
 0001:000e9b40       __ismbbkalnum_l            100eab40 f   LIBCMTD:ismbbyte.obj
 0001:000e9b60       __ismbbkalnum              100eab60 f   LIBCMTD:ismbbyte.obj
 0001:000e9b80       __ismbbkprint_l            100eab80 f   LIBCMTD:ismbbyte.obj
 0001:000e9ba0       __ismbbkprint              100eaba0 f   LIBCMTD:ismbbyte.obj
 0001:000e9bc0       __ismbbkpunct_l            100eabc0 f   LIBCMTD:ismbbyte.obj
 0001:000e9be0       __ismbbkpunct              100eabe0 f   LIBCMTD:ismbbyte.obj
 0001:000e9c00       __ismbbalnum_l             100eac00 f   LIBCMTD:ismbbyte.obj
 0001:000e9c20       __ismbbalnum               100eac20 f   LIBCMTD:ismbbyte.obj
 0001:000e9c40       __ismbbalpha_l             100eac40 f   LIBCMTD:ismbbyte.obj
 0001:000e9c60       __ismbbalpha               100eac60 f   LIBCMTD:ismbbyte.obj
 0001:000e9c80       __ismbbgraph_l             100eac80 f   LIBCMTD:ismbbyte.obj
 0001:000e9ca0       __ismbbgraph               100eaca0 f   LIBCMTD:ismbbyte.obj
 0001:000e9cc0       __ismbbprint_l             100eacc0 f   LIBCMTD:ismbbyte.obj
 0001:000e9ce0       __ismbbprint               100eace0 f   LIBCMTD:ismbbyte.obj
 0001:000e9d00       __ismbbpunct_l             100ead00 f   LIBCMTD:ismbbyte.obj
 0001:000e9d20       __ismbbpunct               100ead20 f   LIBCMTD:ismbbyte.obj
 0001:000e9d40       __ismbblead_l              100ead40 f   LIBCMTD:ismbbyte.obj
 0001:000e9d60       __ismbblead                100ead60 f   LIBCMTD:ismbbyte.obj
 0001:000e9d80       __ismbbtrail_l             100ead80 f   LIBCMTD:ismbbyte.obj
 0001:000e9da0       __ismbbtrail               100eada0 f   LIBCMTD:ismbbyte.obj
 0001:000e9dc0       __ismbbkana_l              100eadc0 f   LIBCMTD:ismbbyte.obj
 0001:000e9e30       __ismbbkana                100eae30 f   LIBCMTD:ismbbyte.obj
 0001:000e9f20       __lseeki64                 100eaf20 f   LIBCMTD:lseeki64.obj
 0001:000ea170       __lseeki64_nolock          100eb170 f   LIBCMTD:lseeki64.obj
 0001:000ea260       __write                    100eb260 f   LIBCMTD:write.obj
 0001:000ea490       __write_nolock             100eb490 f   LIBCMTD:write.obj
 0001:000eafd0       __getbuf                   100ebfd0 f   LIBCMTD:_getbuf.obj
 0001:000eb090       __isatty                   100ec090 f   LIBCMTD:isatty.obj
 0001:000eb170       ___iob_func                100ec170 f   LIBCMTD:_file.obj
 0001:000eb180       ___initstdio               100ec180 f   LIBCMTD:_file.obj
 0001:000eb2d0       ___endstdio                100ec2d0 f   LIBCMTD:_file.obj
 0001:000eb300       __lock_file                100ec300 f   LIBCMTD:_file.obj
 0001:000eb360       __lock_file2               100ec360 f   LIBCMTD:_file.obj
 0001:000eb3a0       __unlock_file              100ec3a0 f   LIBCMTD:_file.obj
 0001:000eb400       __unlock_file2             100ec400 f   LIBCMTD:_file.obj
 0001:000eb440       __fileno                   100ec440 f   LIBCMTD:fileno.obj
 0001:000eb4c0       _printf                    100ec4c0 f   LIBCMTD:printf.obj
 0001:000eb600       __printf_l                 100ec600 f   LIBCMTD:printf.obj
 0001:000eb630       __printf_s_l               100ec630 f   LIBCMTD:printf.obj
 0001:000eb660       _printf_s                  100ec660 f   LIBCMTD:printf.obj
 0001:000eb690       __printf_p_l               100ec690 f   LIBCMTD:printf.obj
 0001:000eb6c0       __printf_p                 100ec6c0 f   LIBCMTD:printf.obj
 0001:000eb6f0       __set_printf_count_output  100ec6f0 f   LIBCMTD:printf.obj
 0001:000eb740       __get_printf_count_output  100ec740 f   LIBCMTD:printf.obj
 0001:000eb760       __wctomb_s_l               100ec760 f   LIBCMTD:wctomb.obj
 0001:000eba60       _wctomb_s                  100eca60 f   LIBCMTD:wctomb.obj
 0001:000eba90       __wctomb_l                 100eca90 f   LIBCMTD:wctomb.obj
 0001:000ebb10       _wctomb                    100ecb10 f   LIBCMTD:wctomb.obj
 0001:000ebb60       __isleadbyte_l             100ecb60 f i LIBCMTD:_wctype.obj
 0001:000ebbb0       _isleadbyte                100ecbb0 f i LIBCMTD:_wctype.obj
 0001:000ebbd0       __iswalpha_l               100ecbd0 f i LIBCMTD:_wctype.obj
 0001:000ebbf0       _iswalpha                  100ecbf0 f i LIBCMTD:_wctype.obj
 0001:000ebc10       __iswupper_l               100ecc10 f i LIBCMTD:_wctype.obj
 0001:000ebc30       _iswupper                  100ecc30 f i LIBCMTD:_wctype.obj
 0001:000ebc50       __iswlower_l               100ecc50 f i LIBCMTD:_wctype.obj
 0001:000ebc70       _iswlower                  100ecc70 f i LIBCMTD:_wctype.obj
 0001:000ebc90       __iswdigit_l               100ecc90 f i LIBCMTD:_wctype.obj
 0001:000ebcb0       _iswdigit                  100eccb0 f i LIBCMTD:_wctype.obj
 0001:000ebcd0       __iswxdigit_l              100eccd0 f i LIBCMTD:_wctype.obj
 0001:000ebcf0       _iswxdigit                 100eccf0 f i LIBCMTD:_wctype.obj
 0001:000ebd10       __iswspace_l               100ecd10 f i LIBCMTD:_wctype.obj
 0001:000ebd30       _iswspace                  100ecd30 f i LIBCMTD:_wctype.obj
 0001:000ebd50       __iswpunct_l               100ecd50 f i LIBCMTD:_wctype.obj
 0001:000ebd70       _iswpunct                  100ecd70 f i LIBCMTD:_wctype.obj
 0001:000ebd90       __iswalnum_l               100ecd90 f i LIBCMTD:_wctype.obj
 0001:000ebdb0       _iswalnum                  100ecdb0 f i LIBCMTD:_wctype.obj
 0001:000ebdd0       __iswprint_l               100ecdd0 f i LIBCMTD:_wctype.obj
 0001:000ebdf0       _iswprint                  100ecdf0 f i LIBCMTD:_wctype.obj
 0001:000ebe10       __iswgraph_l               100ece10 f i LIBCMTD:_wctype.obj
 0001:000ebe30       _iswgraph                  100ece30 f i LIBCMTD:_wctype.obj
 0001:000ebe50       __iswcntrl_l               100ece50 f i LIBCMTD:_wctype.obj
 0001:000ebe70       _iswcntrl                  100ece70 f i LIBCMTD:_wctype.obj
 0001:000ebe90       _iswascii                  100ece90 f i LIBCMTD:_wctype.obj
 0001:000ebeb0       __iswcsym_l                100eceb0 f i LIBCMTD:_wctype.obj
 0001:000ebef0       ___iswcsym                 100ecef0 f i LIBCMTD:_wctype.obj
 0001:000ebf30       __iswcsymf_l               100ecf30 f i LIBCMTD:_wctype.obj
 0001:000ebf70       ___iswcsymf                100ecf70 f i LIBCMTD:_wctype.obj
 0001:000ebfb0       __aulldiv                  100ecfb0 f   LIBCMTD:ulldiv.obj
 0001:000ec020       __aullrem                  100ed020 f   LIBCMTD:ullrem.obj
 0001:000ec0a0       __output_s_l               100ed0a0 f   LIBCMTD:outputs.obj
 0001:000ed630       __set_error_mode           100ee630 f   LIBCMTD:errmode.obj
 0001:000ed6f0       ___set_app_type            100ee6f0 f   LIBCMTD:errmode.obj
 0001:000ed700       ___get_app_type            100ee700 f   LIBCMTD:errmode.obj
 0001:000ed710       ___crtMessageBoxA          100ee710 f   LIBCMTD:crtmbox.obj
 0001:000ed930       _strncpy_s                 100ee930 f   LIBCMTD:strncpy_s.obj
 0001:000edd20       ___crtGetLocaleInfoW       100eed20 f   LIBCMTD:w_loc.obj
 0001:000edd90       ___crtGetLocaleInfoA       100eed90 f   LIBCMTD:a_loc.obj
 0001:000edf70       __MarkAllocaS              100eef70 f i LIBCMTD:a_loc.obj
 0001:000edfa0       __freea                    100eefa0 f i LIBCMTD:a_loc.obj
 0001:000ee010       _fdiv_main_routine         100ef010 f   LIBCMTD:_adj_fdiv_.obj
 0001:000ee127       __adj_fdiv_r               100ef127 f   LIBCMTD:_adj_fdiv_.obj
 0001:000ee5c6       __fdivp_sti_st             100ef5c6 f   LIBCMTD:_adj_fdiv_.obj
 0001:000ee5d9       __fdivrp_sti_st            100ef5d9 f   LIBCMTD:_adj_fdiv_.obj
 0001:000ee5ec       __adj_fdiv_m32             100ef5ec f   LIBCMTD:_adj_fdiv_.obj
 0001:000ee638       __adj_fdiv_m64             100ef638 f   LIBCMTD:_adj_fdiv_.obj
 0001:000ee684       __adj_fdiv_m16i            100ef684 f   LIBCMTD:_adj_fdiv_.obj
 0001:000ee6b8       __adj_fdiv_m32i            100ef6b8 f   LIBCMTD:_adj_fdiv_.obj
 0001:000ee6ec       __adj_fdivr_m32            100ef6ec f   LIBCMTD:_adj_fdiv_.obj
 0001:000ee738       __adj_fdivr_m64            100ef738 f   LIBCMTD:_adj_fdiv_.obj
 0001:000ee784       __adj_fdivr_m16i           100ef784 f   LIBCMTD:_adj_fdiv_.obj
 0001:000ee7b8       __adj_fdivr_m32i           100ef7b8 f   LIBCMTD:_adj_fdiv_.obj
 0001:000ee7ec       __safe_fdiv                100ef7ec f   LIBCMTD:_adj_fdiv_.obj
 0001:000ee801       __safe_fdivr               100ef801 f   LIBCMTD:_adj_fdiv_.obj
 0001:000ee816       __fprem_common             100ef816 f   LIBCMTD:_adj_fdiv_.obj
 0001:000eea1c       __adj_fprem                100efa1c f   LIBCMTD:_adj_fdiv_.obj
 0001:000eeace       __fprem1_common            100eface f   LIBCMTD:_adj_fdiv_.obj
 0001:000eecd4       __adj_fprem1               100efcd4 f   LIBCMTD:_adj_fdiv_.obj
 0001:000eed89       __safe_fprem               100efd89 f   LIBCMTD:_adj_fdiv_.obj
 0001:000eed8f       __safe_fprem1              100efd8f f   LIBCMTD:_adj_fdiv_.obj
 0001:000eed95       __adj_fpatan               100efd95 f   LIBCMTD:_adj_fdiv_.obj
 0001:000eed98       __adj_fptan                100efd98 f   LIBCMTD:_adj_fdiv_.obj
 0001:000eeda0       __87except                 100efda0 f   LIBCMTD:_87except_.obj
 0001:000eef50       _strtol                    100eff50 f   LIBCMTD:strtol.obj
 0001:000ef480       __strtol_l                 100f0480 f   LIBCMTD:strtol.obj
 0001:000ef4b0       _strtoul                   100f04b0 f   LIBCMTD:strtol.obj
 0001:000ef500       __strtoul_l                100f0500 f   LIBCMTD:strtol.obj
 0001:000ef530       ___crtLCMapStringA         100f0530 f   LIBCMTD:a_map.obj
 0001:000efae0       ?_JumpToContinuation@@YGXPAXPAUEHRegistrationNode@@@Z 100f0ae0 f   LIBCMTD:_trnsctrl_.obj
 0001:000efb20       ?_CallMemberFunction0@@YGXPAX0@Z 100f0b20 f   LIBCMTD:_trnsctrl_.obj
 0001:000efb30       ?_CallMemberFunction1@@YGXPAX00@Z 100f0b30 f   LIBCMTD:_trnsctrl_.obj
 0001:000efb40       ?_CallMemberFunction2@@YGXPAX00H@Z 100f0b40 f   LIBCMTD:_trnsctrl_.obj
 0001:000efb50       ?_UnwindNestedFrames@@YGXPAUEHRegistrationNode@@PAUEHExceptionRecord@@@Z 100f0b50 f   LIBCMTD:_trnsctrl_.obj
 0001:000efbb0       ___CxxFrameHandler         100f0bb0 f   LIBCMTD:_trnsctrl_.obj
 0001:000efbf0       ___CxxFrameHandler3        100f0bf0 f   LIBCMTD:_trnsctrl_.obj
 0001:000efc30       ___CxxFrameHandler2        100f0c30 f   LIBCMTD:_trnsctrl_.obj
 0001:000efc70       ___CxxLongjmpUnwind@4      100f0c70 f   LIBCMTD:_trnsctrl_.obj
 0001:000efca0       ?_CallCatchBlock2@@YAPAXPAUEHRegistrationNode@@PBU_s_FuncInfo@@PAXHK@Z 100f0ca0 f   LIBCMTD:_trnsctrl_.obj
 0001:000efd60       ?_CallSETranslator@@YAHPAUEHExceptionRecord@@PAUEHRegistrationNode@@PAX2PBU_s_FuncInfo@@H1@Z 100f0d60 f   LIBCMTD:_trnsctrl_.obj
 0001:000eff00       ?_GetRangeOfTrysToCheck@@YAPBU_s_TryBlockMapEntry@@PBU_s_FuncInfo@@HHPAI1@Z 100f0f00 f   LIBCMTD:_trnsctrl_.obj
 0001:000eff80       __CreateFrameInfo          100f0f80 f   LIBCMTD:_trnsctrl_.obj
 0001:000effb0       __IsExceptionObjectToBeDestroyed 100f0fb0 f   LIBCMTD:_trnsctrl_.obj
 0001:000effe0       __FindAndUnlinkFrame       100f0fe0 f   LIBCMTD:_trnsctrl_.obj
 0001:000f0040       ___crtGetStringTypeA       100f1040 f   LIBCMTD:a_str.obj
 0001:000f02d0       ___pwctype_func            100f12d0 f   LIBCMTD:ctype.obj
 0001:000f02e0       ___pctype_func             100f12e0 f   LIBCMTD:ctype.obj
 0001:000f0330       ___init_time               100f1330 f   LIBCMTD:inittime.obj
 0001:000f0a50       ___free_lc_time            100f1a50 f   LIBCMTD:inittime.obj
 0001:000f0d60       ___init_numeric            100f1d60 f   LIBCMTD:initnum.obj
 0001:000f10c0       ___free_lconv_num          100f20c0 f   LIBCMTD:initnum.obj
 0001:000f1130       ___init_monetary           100f2130 f   LIBCMTD:initmon.obj
 0001:000f1630       ___free_lconv_mon          100f2630 f   LIBCMTD:initmon.obj
 0001:000f1720       ___init_ctype              100f2720 f   LIBCMTD:initctyp.obj
 0001:000f1cd0       ____mb_cur_max_func        100f2cd0 f   LIBCMTD:initctyp.obj
 0001:000f1d20       ____mb_cur_max_l_func      100f2d20 f   LIBCMTD:initctyp.obj
 0001:000f1d50       ____lc_codepage_func       100f2d50 f   LIBCMTD:initctyp.obj
 0001:000f1da0       ____lc_collate_cp_func     100f2da0 f   LIBCMTD:initctyp.obj
 0001:000f1df0       ____lc_handle_func         100f2df0 f   LIBCMTD:initctyp.obj
 0001:000f1e40       ___init_collate            100f2e40 f   LIBCMTD:initcoll.obj
 0001:000f1e50       __Getdays_l                100f2e50 f   LIBCMTD:strftime.obj
 0001:000f2010       __Getdays                  100f3010 f   LIBCMTD:strftime.obj
 0001:000f2030       __Getmonths_l              100f3030 f   LIBCMTD:strftime.obj
 0001:000f21f0       __Getmonths                100f31f0 f   LIBCMTD:strftime.obj
 0001:000f2210       __Gettnames_l              100f3210 f   LIBCMTD:strftime.obj
 0001:000f2780       __Gettnames                100f3780 f   LIBCMTD:strftime.obj
 0001:000f27a0       __strftime_l               100f37a0 f   LIBCMTD:strftime.obj
 0001:000f27d0       _strftime                  100f37d0 f   LIBCMTD:strftime.obj
 0001:000f2800       __Strftime                 100f3800 f   LIBCMTD:strftime.obj
 0001:000f2830       __Strftime_l               100f3830 f   LIBCMTD:strftime.obj
 0001:000f4640       _localeconv                100f5640 f   LIBCMTD:lconv.obj
 0001:000f4690       _strcmp                    100f5690 f   LIBCMTD:strcmp.obj
 0001:000f4720       _strcspn                   100f5720 f   LIBCMTD:strcspn.obj
 0001:000f4770       _strncmp                   100f5770 f   LIBCMTD:strncmp.obj
 0001:000f48f0       _strpbrk                   100f58f0 f   LIBCMTD:strpbrk.obj
 0001:000f4930       _memcmp                    100f5930 f   LIBCMTD:memcmp.obj
 0001:000f53a0       ___get_qualified_locale    100f63a0 f   LIBCMTD:getqloc.obj
 0001:000f6240       __ld12tod                  100f7240 f   LIBCMTD:_intrncvt_.obj
 0001:000f6260       __ld12cvt                  100f7260 f i LIBCMTD:_intrncvt_.obj
 0001:000f64b0       __RoundMan                 100f74b0 f i LIBCMTD:_intrncvt_.obj
 0001:000f6590       __ZeroTail                 100f7590 f i LIBCMTD:_intrncvt_.obj
 0001:000f6620       __IncMan                   100f7620 f i LIBCMTD:_intrncvt_.obj
 0001:000f66d0       ___addl                    100f76d0 f i LIBCMTD:_intrncvt_.obj
 0001:000f6710       __CopyMan                  100f7710 f i LIBCMTD:_intrncvt_.obj
 0001:000f6760       __FillZeroMan              100f7760 f i LIBCMTD:_intrncvt_.obj
 0001:000f67a0       __IsZeroMan                100f77a0 f i LIBCMTD:_intrncvt_.obj
 0001:000f67e0       __ShrMan                   100f77e0 f i LIBCMTD:_intrncvt_.obj
 0001:000f68d0       __ld12tof                  100f78d0 f   LIBCMTD:_intrncvt_.obj
 0001:000f68f0       __ld12told                 100f78f0 f   LIBCMTD:_intrncvt_.obj
 0001:000f69a0       ___strgtold12_l            100f79a0 f   LIBCMTD:_strgtold_.obj
 0001:000f7450       ___multtenpow12            100f8450 f i LIBCMTD:_strgtold_.obj
 0001:000f7530       ___ld12mul                 100f8530 f i LIBCMTD:_strgtold_.obj
 0001:000f7930       ___shl_12                  100f8930 f i LIBCMTD:_strgtold_.obj
 0001:000f79a0       ___shr_12                  100f89a0 f i LIBCMTD:_strgtold_.obj
 0001:000f7a10       ___STRINGTOLD_L            100f8a10 f   LIBCMTD:_strgtold_.obj
 0001:000f7a80       _$I10_OUTPUT               100f8a80 f   LIBCMTD:_x10fout_.obj
 0001:000f8030       ___add_12                  100f9030 f i LIBCMTD:_x10fout_.obj
 0001:000f80e0       __woutput_s_l              100f90e0 f   LIBCMTD:woutputs.obj
 0001:000f9410       __validate_param_reuseW    100fa410 f   LIBCMTD:woutputp.obj
 0001:000f9680       __woutput_p_l              100fa680 f   LIBCMTD:woutputp.obj
 0001:000fcde0       __global_unwind2           100fdde0 f   LIBCMTD:exsup.obj
 0001:000fce45       __local_unwind2            100fde45 f   LIBCMTD:exsup.obj
 0001:000fcec9       __abnormal_termination     100fdec9 f   LIBCMTD:exsup.obj
 0001:000fceec       __NLG_Notify1              100fdeec f   LIBCMTD:exsup.obj
 0001:000fcef5       __NLG_Notify               100fdef5 f   LIBCMTD:exsup.obj
 0001:000fcf0c       __NLG_Dispatch2            100fdf0c     LIBCMTD:exsup.obj
 0001:000fcf0c       __NLG_Dispatch             100fdf0c     LIBCMTD:exsup.obj
 0001:000fcf14       __NLG_Call                 100fdf14 f   LIBCMTD:exsup.obj
 0001:000fcf16       __NLG_Return2              100fdf16     LIBCMTD:exsup.obj
 0001:000fcf20       __mbtowc_l                 100fdf20 f   LIBCMTD:mbtowc.obj
 0001:000fd140       _mbtowc                    100fe140 f   LIBCMTD:mbtowc.obj
 0001:000fd160       _fputwc                    100fe160 f   LIBCMTD:fputwc.obj
 0001:000fd260       __fputwc_nolock            100fe260 f   LIBCMTD:fputwc.obj
 0001:000fd550       _putwc                     100fe550 f   LIBCMTD:fputwc.obj
 0001:000fd570       __alloc_osfhnd             100fe570 f   LIBCMTD:osfinfo.obj
 0001:000fd820       __set_osfhnd               100fe820 f   LIBCMTD:osfinfo.obj
 0001:000fd8f0       __free_osfhnd              100fe8f0 f   LIBCMTD:osfinfo.obj
 0001:000fd9e0       __get_osfhandle            100fe9e0 f   LIBCMTD:osfinfo.obj
 0001:000fdb50       __open_osfhandle           100feb50 f   LIBCMTD:osfinfo.obj
 0001:000fdd80       ___lock_fhandle            100fed80 f   LIBCMTD:osfinfo.obj
 0001:000fde80       __unlock_fhandle           100fee80 f   LIBCMTD:osfinfo.obj
 0001:000fdeb0       __putwch                   100feeb0 f   LIBCMTD:putwch.obj
 0001:000fdf40       __putwch_nolock            100fef40 f   LIBCMTD:putwch.obj
 0001:000fe040       __cputws                   100ff040 f   LIBCMTD:putwch.obj
 0001:000fe190       _DebuggerKnownHandle       100ff190 f   LIBCMTD:_error_.obj
 0001:000fe250       ?_RTC_Failure@@YAXPAXH@Z   100ff250 f   LIBCMTD:_error_.obj
 0001:000fe560       ?_RTC_StackFailure@@YAXPAXPBD@Z 100ff560 f   LIBCMTD:_error_.obj
 0001:000fe660       ?_RTC_AllocaFailure@@YAXPAXPAU_RTC_ALLOCA_NODE@@H@Z 100ff660 f   LIBCMTD:_error_.obj
 0001:000fe810       __RTC_UninitUse            100ff810 f   LIBCMTD:_error_.obj
 0001:000fe900       __fcloseall                100ff900 f   LIBCMTD:closeall.obj
 0001:000fea30       _fflush                    100ffa30 f   LIBCMTD:fflush.obj
 0001:000fead0       __fflush_nolock            100ffad0 f   LIBCMTD:fflush.obj
 0001:000feb30       __flush                    100ffb30 f   LIBCMTD:fflush.obj
 0001:000febf0       __flushall                 100ffbf0 f   LIBCMTD:fflush.obj
 0001:000fedc0       __stbuf                    100ffdc0 f   LIBCMTD:_sftbuf.obj
 0001:000fef20       __ftbuf                    100fff20 f   LIBCMTD:_sftbuf.obj
 0001:000fefb0       _vprintf_helper            100fffb0 f   LIBCMTD:vprintf.obj
 0001:000ff0d0       __vprintf_l                101000d0 f   LIBCMTD:vprintf.obj
 0001:000ff0f0       __vprintf_s_l              101000f0 f   LIBCMTD:vprintf.obj
 0001:000ff110       __vprintf_p_l              10100110 f   LIBCMTD:vprintf.obj
 0001:000ff130       _vprintf                   10100130 f   LIBCMTD:vprintf.obj
 0001:000ff150       _vprintf_s                 10100150 f   LIBCMTD:vprintf.obj
 0001:000ff170       __vprintf_p                10100170 f   LIBCMTD:vprintf.obj
 0001:000ff190       __iswctype_l               10100190 f   LIBCMTD:iswctype.obj
 0001:000ff240       _iswctype                  10100240 f   LIBCMTD:iswctype.obj
 0001:000ff2d0       _is_wctype                 101002d0 f   LIBCMTD:iswctype.obj
 0001:000ff2f0       ___ansicp                  101002f0 f   LIBCMTD:convrtcp.obj
 0001:000ff350       ___convertcp               10100350 f   LIBCMTD:convrtcp.obj
 0001:000ff5a0       ___InternalCxxFrameHandler 101005a0 f   LIBCMTD:frame.obj
 0001:000ffba0       ??0bad_exception@std@@QAE@PBD@Z 10100ba0 f i LIBCMTD:frame.obj
 0001:000ffbd0       ??1bad_exception@std@@UAE@XZ 10100bd0 f i LIBCMTD:frame.obj
 0001:000ffbf0       ??_Gbad_exception@std@@UAEPAXI@Z 10100bf0 f i LIBCMTD:frame.obj
 0001:000ffbf0       ??_Ebad_exception@std@@UAEPAXI@Z 10100bf0 f i LIBCMTD:frame.obj
 0001:000ffc20       ??0bad_exception@std@@QAE@ABV01@@Z 10100c20 f i LIBCMTD:frame.obj
 0001:000ffdd0       ___TypeMatch               10100dd0 f   LIBCMTD:frame.obj
 0001:000ffe80       ___FrameUnwindFilter       10100e80 f   LIBCMTD:frame.obj
 0001:000fff00       ___FrameUnwindToState      10100f00 f   LIBCMTD:frame.obj
 0001:00100440       ___BuildCatchObjectHelper  10101440 f   LIBCMTD:frame.obj
 0001:001006b0       ___BuildCatchObject        101016b0 f   LIBCMTD:frame.obj
 0001:001007c0       ___DestructExceptionObject 101017c0 f   LIBCMTD:frame.obj
 0001:00100870       ___AdjustPointer           10101870 f   LIBCMTD:frame.obj
 0001:001008c0       ?__uncaught_exception@@YA_NXZ 101018c0 f   LIBCMTD:frame.obj
 0001:001008e0       ___CxxExceptionFilter      101018e0 f   LIBCMTD:frame.obj
 0001:00100ad0       ___CxxRegisterExceptionObject 10101ad0 f   LIBCMTD:frame.obj
 0001:00100c00       ___CxxDetectRethrow        10101c00 f   LIBCMTD:frame.obj
 0001:00100c90       ___CxxUnregisterExceptionObject 10101c90 f   LIBCMTD:frame.obj
 0001:00100e10       ___CxxQueryExceptionSize   10101e10 f   LIBCMTD:frame.obj
 0001:00100e20       ___CxxCallUnwindDtor       10101e20 f   LIBCMTD:frame.obj
 0001:00100ea0       ___CxxCallUnwindDelDtor    10101ea0 f   LIBCMTD:frame.obj
 0001:00100f20       ___CxxCallUnwindStdDelDtor 10101f20 f   LIBCMTD:frame.obj
 0001:00100fa0       ___CxxCallUnwindVecDtor    10101fa0 f   LIBCMTD:frame.obj
 0001:001011d0       ?_is_exception_typeof@@YAHABVtype_info@@PAU_EXCEPTION_POINTERS@@@Z 101021d0 f   LIBCMTD:frame.obj
 0001:001012b0       __CallSettingFrame@12      101022b0 f   LIBCMTD:lowhelpr.obj
 0001:001012d7       __NLG_Return               101022d7     LIBCMTD:lowhelpr.obj
 0001:00101300       __get_daylight             10102300 f   LIBCMTD:timeset.obj
 0001:00101380       __get_dstbias              10102380 f   LIBCMTD:timeset.obj
 0001:00101400       __get_timezone             10102400 f   LIBCMTD:timeset.obj
 0001:00101480       __get_tzname               10102480 f   LIBCMTD:timeset.obj
 0001:00101650       ___daylight                10102650 f   LIBCMTD:timeset.obj
 0001:00101660       ___dstbias                 10102660 f   LIBCMTD:timeset.obj
 0001:00101670       ___timezone                10102670 f   LIBCMTD:timeset.obj
 0001:00101680       ___tzname                  10102680 f   LIBCMTD:timeset.obj
 0001:00101690       ___tzset                   10102690 f   LIBCMTD:tzset.obj
 0001:00101730       __tzset                    10102730 f   LIBCMTD:tzset.obj
 0001:00101ce0       __set_daylight             10102ce0 f i LIBCMTD:tzset.obj
 0001:00101d00       __set_dstbias              10102d00 f i LIBCMTD:tzset.obj
 0001:00101d20       __set_timezone             10102d20 f i LIBCMTD:tzset.obj
 0001:00101d40       __isindst                  10102d40 f   LIBCMTD:tzset.obj
 0001:001023f0       __stricmp_l                101033f0 f   LIBCMTD:stricmp.obj
 0001:001025a0       ___ascii_stricmp           101035a0 f   LIBCMTD:stricmp.obj
 0001:00102620       __stricmp                  10103620 f   LIBCMTD:stricmp.obj
 0001:00102730       __strnicmp_l               10103730 f   LIBCMTD:strnicmp.obj
 0001:00102970       __strnicmp                 10103970 f   LIBCMTD:strnicmp.obj
 0001:00102b00       _atol                      10103b00 f   LIBCMTD:atox.obj
 0001:00102b20       __atol_l                   10103b20 f   LIBCMTD:atox.obj
 0001:00102b40       _atoi                      10103b40 f   LIBCMTD:atox.obj
 0001:00102b60       __atoi_l                   10103b60 f   LIBCMTD:atox.obj
 0001:00102b80       __atoi64                   10103b80 f   LIBCMTD:atox.obj
 0001:00102ba0       __atoi64_l                 10103ba0 f   LIBCMTD:atox.obj
 0001:00102bc0       ___mtold12                 10103bc0 f   LIBCMTD:_mantold_.obj
 0001:00102d20       _wcstol                    10103d20 f   LIBCMTD:wcstol.obj
 0001:001031a0       __wcstol_l                 101041a0 f   LIBCMTD:wcstol.obj
 0001:001031d0       _wcstoul                   101041d0 f   LIBCMTD:wcstol.obj
 0001:00103220       __wcstoul_l                10104220 f   LIBCMTD:wcstol.obj
 0001:00103250       __flswbuf                  10104250 f   LIBCMTD:_flswbuf.obj
 0001:00103530       ___initconin               10104530 f   LIBCMTD:initcon.obj
 0001:00103560       ___initconout              10104560 f   LIBCMTD:initcon.obj
 0001:00103590       ___termcon                 10104590 f   LIBCMTD:initcon.obj
 0001:001035e0       ?_RTC_GetSrcLine@@YAHPAEPA_WKPAH1K@Z 101045e0 f   LIBCMTD:_pdblkup_.obj
 0001:00103a80       __RTC_NumErrors            10104a80 f   LIBCMTD:_userapi_.obj
 0001:00103a90       __RTC_GetErrDesc           10104a90 f   LIBCMTD:_userapi_.obj
 0001:00103ab0       __RTC_SetErrorType         10104ab0 f   LIBCMTD:_userapi_.obj
 0001:00103ae0       __RTC_SetErrorFunc         10104ae0 f   LIBCMTD:_userapi_.obj
 0001:00103b00       __RTC_SetErrorFuncW        10104b00 f   LIBCMTD:_userapi_.obj
 0001:00103b20       ?_RTC_GetErrorFunc@@YAP6AHHPBDH00ZZPBX@Z 10104b20 f   LIBCMTD:_userapi_.obj
 0001:00103b30       ?_RTC_GetErrorFuncW@@YAP6AHHPB_WH00ZZPBX@Z 10104b30 f   LIBCMTD:_userapi_.obj
 0001:00103b40       _fclose                    10104b40 f   LIBCMTD:fclose.obj
 0001:00103c50       __fclose_nolock            10104c50 f   LIBCMTD:fclose.obj
 0001:00103d50       __commit                   10104d50 f   LIBCMTD:commit.obj
 0001:00103f70       ___crtGetStringTypeW       10104f70 f   LIBCMTD:w_str.obj
 0001:00103ff0       ?_ValidateRead@@YAHPBXI@Z  10104ff0 f   LIBCMTD:validate.obj
 0001:00104020       ?_ValidateWrite@@YAHPAXI@Z 10105020 f   LIBCMTD:validate.obj
 0001:00104050       ?_ValidateExecute@@YAHP6GHXZ@Z 10105050 f   LIBCMTD:validate.obj
 0001:00104080       __CxxThrowException@8      10105080 f   LIBCMTD:throw.obj
 0001:001040e0       ?name@type_info@@QBEPBDPAU__type_info_node@@@Z 101050e0 f   LIBCMTD:typinfo.obj
 0001:00104100       ??1type_info@@UAE@XZ       10105100 f   LIBCMTD:typinfo.obj
 0001:00104130       ??_Gtype_info@@UAEPAXI@Z   10105130 f i LIBCMTD:typinfo.obj
 0001:00104130       ??_Etype_info@@UAEPAXI@Z   10105130 f i LIBCMTD:typinfo.obj
 0001:00104160       ?_name_internal_method@type_info@@QBEPBDPAU__type_info_node@@@Z 10105160 f   LIBCMTD:typinfo.obj
 0001:00104180       ?_type_info_dtor_internal_method@type_info@@QAEXXZ 10105180 f   LIBCMTD:typinfo.obj
 0001:001041a0       ??8type_info@@QBE_NABV0@@Z 101051a0 f   LIBCMTD:typinfo.obj
 0001:001041d0       ??9type_info@@QBE_NABV0@@Z 101051d0 f   LIBCMTD:typinfo.obj
 0001:00104200       ?before@type_info@@QBEHABV1@@Z 10105200 f   LIBCMTD:typinfo.obj
 0001:00104230       ?raw_name@type_info@@QBEPBDXZ 10105230 f   LIBCMTD:typinfo.obj
 0001:00104250       ??0type_info@@AAE@ABV0@@Z  10105250 f   LIBCMTD:typinfo.obj
 0001:00104270       ??4type_info@@AAEAAV0@ABV0@@Z 10105270 f   LIBCMTD:typinfo.obj
 0001:00104290       ??0exception@std@@QAE@XZ   10105290 f   LIBCMTD:stdexcpt.obj
 0001:001042c0       ??_Eexception@std@@UAEPAXI@Z 101052c0 f i LIBCMTD:stdexcpt.obj
 0001:001042c0       ??_Gexception@std@@UAEPAXI@Z 101052c0 f i LIBCMTD:stdexcpt.obj
 0001:001042f0       ??0exception@std@@QAE@ABQBD@Z 101052f0 f   LIBCMTD:stdexcpt.obj
 0001:00104380       ??0exception@std@@QAE@ABQBDH@Z 10105380 f   LIBCMTD:stdexcpt.obj
 0001:001043b0       ??0exception@std@@QAE@ABV01@@Z 101053b0 f   LIBCMTD:stdexcpt.obj
 0001:00104450       ??4exception@std@@QAEAAV01@ABV01@@Z 10105450 f   LIBCMTD:stdexcpt.obj
 0001:00104500       ??1exception@std@@UAE@XZ   10105500 f   LIBCMTD:stdexcpt.obj
 0001:00104530       ?what@exception@std@@UBEPBDXZ 10105530 f   LIBCMTD:stdexcpt.obj
 0001:00104560       ??0bad_cast@std@@QAE@PBD@Z 10105560 f   LIBCMTD:stdexcpt.obj
 0001:00104590       ??_Gbad_cast@std@@UAEPAXI@Z 10105590 f i LIBCMTD:stdexcpt.obj
 0001:00104590       ??_Ebad_cast@std@@UAEPAXI@Z 10105590 f i LIBCMTD:stdexcpt.obj
 0001:001045c0       ??0bad_cast@std@@QAE@ABV01@@Z 101055c0 f   LIBCMTD:stdexcpt.obj
 0001:001045f0       ??1bad_cast@std@@UAE@XZ    101055f0 f   LIBCMTD:stdexcpt.obj
 0001:00104610       ??0bad_typeid@std@@QAE@PBD@Z 10105610 f   LIBCMTD:stdexcpt.obj
 0001:00104640       ??_Gbad_typeid@std@@UAEPAXI@Z 10105640 f i LIBCMTD:stdexcpt.obj
 0001:00104640       ??_Ebad_typeid@std@@UAEPAXI@Z 10105640 f i LIBCMTD:stdexcpt.obj
 0001:00104670       ??0bad_typeid@std@@QAE@ABV01@@Z 10105670 f   LIBCMTD:stdexcpt.obj
 0001:001046a0       ??1bad_typeid@std@@UAE@XZ  101056a0 f   LIBCMTD:stdexcpt.obj
 0001:001046c0       ??0__non_rtti_object@std@@QAE@PBD@Z 101056c0 f   LIBCMTD:stdexcpt.obj
 0001:001046f0       ??_G__non_rtti_object@std@@UAEPAXI@Z 101056f0 f i LIBCMTD:stdexcpt.obj
 0001:001046f0       ??_E__non_rtti_object@std@@UAEPAXI@Z 101056f0 f i LIBCMTD:stdexcpt.obj
 0001:00104720       ??0__non_rtti_object@std@@QAE@ABV01@@Z 10105720 f   LIBCMTD:stdexcpt.obj
 0001:00104750       ??1__non_rtti_object@std@@UAE@XZ 10105750 f   LIBCMTD:stdexcpt.obj
 0001:00104770       _getenv                    10105770 f   LIBCMTD:getenv.obj
 0001:001048c0       __getenv_helper_nolock     101058c0 f   LIBCMTD:getenv.obj
 0001:001049e0       _getenv_s                  101059e0 f   LIBCMTD:getenv.obj
 0001:00104c10       __dupenv_s                 10105c10 f   LIBCMTD:getenv.obj
 0001:00104c40       __dupenv_s_dbg             10105c40 f   LIBCMTD:getenv.obj
 0001:00104e90       ___ascii_strnicmp          10105e90 f   LIBCMTD:_strnicm.obj
 0001:00104f00       __strtoi64                 10105f00 f   LIBCMTD:strtoq.obj
 0001:00105470       __strtoi64_l               10106470 f   LIBCMTD:strtoq.obj
 0001:001054a0       __strtoui64                101064a0 f   LIBCMTD:strtoq.obj
 0001:001054f0       __strtoui64_l              101064f0 f   LIBCMTD:strtoq.obj
 0001:00105520       __wchartodigit             10106520 f   LIBCMTD:wchtodig.obj
 0001:00105850       __close                    10106850 f   LIBCMTD:close.obj
 0001:00105a60       __close_nolock             10106a60 f   LIBCMTD:close.obj
 0001:00105b30       __freebuf                  10106b30 f   LIBCMTD:_freebuf.obj
 0001:00105bc0       ?_Type_info_dtor@type_info@@CAXPAV1@@Z 10106bc0 f   LIBCMTD:typname.obj
 0001:00105cd0       ?_Name_base@type_info@@CAPBDPBV1@PAU__type_info_node@@@Z 10106cd0 f   LIBCMTD:typname.obj
 0001:00105e70       ?_Type_info_dtor_internal@type_info@@CAXPAV1@@Z 10106e70 f   LIBCMTD:typname.obj
 0001:00105f80       ___unDNameHelper           10106f80 f   LIBCMTD:typname.obj
 0001:00105fc0       ?_Name_base_internal@type_info@@CAPBDPBV1@PAU__type_info_node@@@Z 10106fc0 f   LIBCMTD:typname.obj
 0001:00106180       ___clean_type_info_names_internal 10107180 f   LIBCMTD:typname.obj
 0001:00106240       _strnlen                   10107240 f   LIBCMTD:strlen_s.obj
 0001:00106280       __mbsnbicoll_l             10107280 f   LIBCMTD:mbsnbico.obj
 0001:001064c0       __mbsnbicoll               101074c0 f   LIBCMTD:mbsnbico.obj
 0001:001064e0       ___wtomb_environ           101074e0 f   LIBCMTD:wtombenv.obj
 0001:001065d0       ___unDName                 101075d0 f   LIBCMTD:undname.obj
 0001:001066b0       ?Constructor@HeapManager@@QAEXP6APAXI@ZP6AXPAX@Z@Z 101076b0 f i LIBCMTD:undname.obj
 0001:001066f0       ?Destructor@HeapManager@@QAEXXZ 101076f0 f i LIBCMTD:undname.obj
 0001:00106740       ___unDNameEx               10107740 f   LIBCMTD:undname.obj
 0001:00106820       ??0UnDecorator@@QAE@PADPBDHP6APADJ@ZK@Z 10107820 f i LIBCMTD:undname.obj
 0001:001068c0       ??BUnDecorator@@QAEPADXZ   101078c0 f i LIBCMTD:undname.obj
 0001:00106af0       ?dbGetString@DName@@QBEPADXZ 10107af0 f   LIBCMTD:undname.obj
 0001:00106b20       ?getDecoratedName@UnDecorator@@CA?AVDName@@XZ 10107b20 f   LIBCMTD:undname.obj
 0001:00106e30       ?getSymbolName@UnDecorator@@CA?AVDName@@XZ 10107e30 f i LIBCMTD:undname.obj
 0001:00106eb0       ?getZName@UnDecorator@@CA?AVDName@@_N0@Z 10107eb0 f   LIBCMTD:undname.obj
 0001:00107150       ?getOperatorName@UnDecorator@@CA?AVDName@@_NPA_N@Z 10108150 f i LIBCMTD:undname.obj
 0001:00107ac0       ?getStringEncoding@UnDecorator@@CA?AVDName@@PADH@Z 10108ac0 f   LIBCMTD:undname.obj
 0001:00107bc0       ?getScope@UnDecorator@@CA?AVDName@@XZ 10108bc0 f   LIBCMTD:undname.obj
 0001:00107fa0       ?getSignedDimension@UnDecorator@@CA?AVDName@@XZ 10108fa0 f   LIBCMTD:undname.obj
 0001:00108020       ?getDimension@UnDecorator@@CA?AVDName@@_N@Z 10109020 f   LIBCMTD:undname.obj
 0001:001082d0       ?getNumberOfDimensions@UnDecorator@@CAHXZ 101092d0 f   LIBCMTD:undname.obj
 0001:001083d0       ?getTemplateName@UnDecorator@@CA?AVDName@@_N@Z 101093d0 f   LIBCMTD:undname.obj
 0001:00108590       ?getTemplateArgumentList@UnDecorator@@CA?AVDName@@XZ 10109590 f   LIBCMTD:undname.obj
 0001:00108810       ?getTemplateConstant@UnDecorator@@CA?AVDName@@XZ 10109810 f   LIBCMTD:undname.obj
 0001:00108ca0       ?composeDeclaration@UnDecorator@@CA?AVDName@@ABV2@@Z 10109ca0 f i LIBCMTD:undname.obj
 0001:0010a2a0       ?getTypeEncoding@UnDecorator@@CAHXZ 1010b2a0 f i LIBCMTD:undname.obj
 0001:0010ace0       ?getBasedType@UnDecorator@@CA?AVDName@@XZ 1010bce0 f   LIBCMTD:undname.obj
 0001:0010ada0       ?getScopedName@UnDecorator@@CA?AVDName@@XZ 1010bda0 f   LIBCMTD:undname.obj
 0001:0010aec0       ?getCallingConvention@UnDecorator@@CA?AVDName@@XZ 1010bec0 f   LIBCMTD:undname.obj
 0001:0010b020       ?getReturnType@UnDecorator@@CA?AVDName@@PAV2@@Z 1010c020 f   LIBCMTD:undname.obj
 0001:0010b070       ?getDataType@UnDecorator@@CA?AVDName@@PAV2@@Z 1010c070 f   LIBCMTD:undname.obj
 0001:0010b180       ?getPrimaryDataType@UnDecorator@@CA?AVDName@@ABV2@@Z 1010c180 f   LIBCMTD:undname.obj
 0001:0010b430       ?getArgumentTypes@UnDecorator@@CA?AVDName@@XZ 1010c430 f   LIBCMTD:undname.obj
 0001:0010b590       ?getArgumentList@UnDecorator@@CA?AVDName@@XZ 1010c590 f   LIBCMTD:undname.obj
 0001:0010b6e0       ?getThrowTypes@UnDecorator@@CA?AVDName@@XZ 1010c6e0 f   LIBCMTD:undname.obj
 0001:0010b790       ?getBasicDataType@UnDecorator@@CA?AVDName@@ABV2@@Z 1010c790 f   LIBCMTD:undname.obj
 0001:0010bd40       ?getECSUDataType@UnDecorator@@CA?AVDName@@XZ 1010cd40 f   LIBCMTD:undname.obj
 0001:0010bf10       ?getECSUName@UnDecorator@@CA?AVDName@@XZ 1010cf10 f i LIBCMTD:undname.obj
 0001:0010bf30       ?getEnumType@UnDecorator@@CA?AVDName@@XZ 1010cf30 f i LIBCMTD:undname.obj
 0001:0010c080       ?getFunctionIndirectType@UnDecorator@@CA?AVDName@@ABV2@@Z 1010d080 f   LIBCMTD:undname.obj
 0001:0010c4c0       ?getPtrRefType@UnDecorator@@CA?AVDName@@ABV2@0D@Z 1010d4c0 f   LIBCMTD:undname.obj
 0001:0010c620       ?getExtendedDataIndirectType@UnDecorator@@CA?AVDName@@AADAA_NH@Z 1010d620 f   LIBCMTD:undname.obj
 0001:0010c830       ?getDataIndirectType@UnDecorator@@CA?AVDName@@ABV2@D0H@Z 1010d830 f   LIBCMTD:undname.obj
 0001:0010cf30       ?getPtrRefDataType@UnDecorator@@CA?AVDName@@ABV2@H@Z 1010df30 f i LIBCMTD:undname.obj
 0001:0010d070       ?getArrayType@UnDecorator@@CA?AVDName@@ABV2@@Z 1010e070 f i LIBCMTD:undname.obj
 0001:0010d2a0       ?getLexicalFrame@UnDecorator@@CA?AVDName@@XZ 1010e2a0 f i LIBCMTD:undname.obj
 0001:0010d2e0       ?getThisType@UnDecorator@@CA?AVDName@@XZ 1010e2e0 f i LIBCMTD:undname.obj
 0001:0010d320       ?getPointerType@UnDecorator@@CA?AVDName@@ABV2@0@Z 1010e320 f i LIBCMTD:undname.obj
 0001:0010d340       ?getPointerTypeArray@UnDecorator@@CA?AVDName@@ABV2@0@Z 1010e340 f i LIBCMTD:undname.obj
 0001:0010d360       ?getReferenceType@UnDecorator@@CA?AVDName@@ABV2@0@Z 1010e360 f i LIBCMTD:undname.obj
 0001:0010d380       ?getDisplacement@UnDecorator@@CA?AVDName@@XZ 1010e380 f i LIBCMTD:undname.obj
 0001:0010d3a0       ?getCallIndex@UnDecorator@@CA?AVDName@@XZ 1010e3a0 f i LIBCMTD:undname.obj
 0001:0010d3c0       ?getGuardNumber@UnDecorator@@CA?AVDName@@XZ 1010e3c0 f i LIBCMTD:undname.obj
 0001:0010d3e0       ?getVbTableType@UnDecorator@@CA?AVDName@@ABV2@@Z 1010e3e0 f i LIBCMTD:undname.obj
 0001:0010d400       ?getVCallThunkType@UnDecorator@@CA?AVDName@@XZ 1010e400 f i LIBCMTD:undname.obj
 0001:0010d460       ?getVfTableType@UnDecorator@@CA?AVDName@@ABV2@@Z 1010e460 f i LIBCMTD:undname.obj
 0001:0010d620       ?getStorageConvention@UnDecorator@@CA?AVDName@@XZ 1010e620 f i LIBCMTD:undname.obj
 0001:0010d640       ?getDataIndirectType@UnDecorator@@CA?AVDName@@XZ 1010e640 f i LIBCMTD:undname.obj
 0001:0010d680       ?getVdispMapType@UnDecorator@@CA?AVDName@@ABV2@@Z 1010e680 f i LIBCMTD:undname.obj
 0001:0010d6f0       ?getExternalDataType@UnDecorator@@CA?AVDName@@ABV2@@Z 1010e6f0 f i LIBCMTD:undname.obj
 0001:0010d780       ?doMSKeywords@UnDecorator@@SAHXZ 1010e780 f i LIBCMTD:undname.obj
 0001:0010d7a0       ?doPtr64@UnDecorator@@SAHXZ 1010e7a0 f i LIBCMTD:undname.obj
 0001:0010d7c0       ?doFunctionReturns@UnDecorator@@SAHXZ 1010e7c0 f i LIBCMTD:undname.obj
 0001:0010d7e0       ?doAllocationModel@UnDecorator@@SAHXZ 1010e7e0 f i LIBCMTD:undname.obj
 0001:0010d800       ?doAllocationLanguage@UnDecorator@@SAHXZ 1010e800 f i LIBCMTD:undname.obj
 0001:0010d820       ?doThisTypes@UnDecorator@@SAHXZ 1010e820 f i LIBCMTD:undname.obj
 0001:0010d840       ?doAccessSpecifiers@UnDecorator@@SAHXZ 1010e840 f i LIBCMTD:undname.obj
 0001:0010d860       ?doThrowTypes@UnDecorator@@SAHXZ 1010e860 f i LIBCMTD:undname.obj
 0001:0010d880       ?doMemberTypes@UnDecorator@@SAHXZ 1010e880 f i LIBCMTD:undname.obj
 0001:0010d8a0       ?doNameOnly@UnDecorator@@SAHXZ 1010e8a0 f i LIBCMTD:undname.obj
 0001:0010d8c0       ?doTypeOnly@UnDecorator@@SAHXZ 1010e8c0 f i LIBCMTD:undname.obj
 0001:0010d8e0       ?haveTemplateParameters@UnDecorator@@SAHXZ 1010e8e0 f i LIBCMTD:undname.obj
 0001:0010d900       ?doEcsu@UnDecorator@@SAHXZ 1010e900 f i LIBCMTD:undname.obj
 0001:0010d920       ?doEllipsis@UnDecorator@@SAHXZ 1010e920 f i LIBCMTD:undname.obj
 0001:0010d940       ?UScore@UnDecorator@@SAPBDW4Tokens@@@Z 1010e940 f   LIBCMTD:undname.obj
 0001:0010d970       ?doUnderScore@UnDecorator@@SAHXZ 1010e970 f i LIBCMTD:undname.obj
 0001:0010d990       ??2@YAPAXIAAVHeapManager@@H@Z 1010e990 f i LIBCMTD:undname.obj
 0001:0010d9b0       ?getMemory@HeapManager@@QAEPAXIH@Z 1010e9b0 f   LIBCMTD:undname.obj
 0001:0010dac0       ??0Block@HeapManager@@QAE@XZ 1010eac0 f i LIBCMTD:undname.obj
 0001:0010dae0       ??H@YA?AVDName@@DABV0@@Z   1010eae0 f i LIBCMTD:undname.obj
 0001:0010db10       ??H@YA?AVDName@@W4DNameStatus@@ABV0@@Z 1010eb10 f i LIBCMTD:undname.obj
 0001:0010db40       ??H@YA?AVDName@@PBDABV0@@Z 1010eb40 f i LIBCMTD:undname.obj
 0001:0010db70       ??0DName@@QAE@XZ           1010eb70 f i LIBCMTD:undname.obj
 0001:0010dc30       ??0DName@@QAE@D@Z          1010ec30 f   LIBCMTD:undname.obj
 0001:0010dd10       ??0DName@@QAE@ABV0@@Z      1010ed10 f i LIBCMTD:undname.obj
 0001:0010dd40       ??0DName@@QAE@PAV0@@Z      1010ed40 f   LIBCMTD:undname.obj
 0001:0010de70       ??0DName@@QAE@PBD@Z        1010ee70 f   LIBCMTD:undname.obj
 0001:0010df50       ??0DName@@QAE@AAPBDD@Z     1010ef50 f   LIBCMTD:undname.obj
 0001:0010e210       ?doNoIdentCharCheck@UnDecorator@@SAHXZ 1010f210 f i LIBCMTD:undname.obj
 0001:0010e230       ??0DName@@QAE@_K@Z         1010f230 f   LIBCMTD:undname.obj
 0001:0010e370       ??0DName@@QAE@_J@Z         1010f370 f   LIBCMTD:undname.obj
 0001:0010e4f0       ??0DName@@QAE@W4DNameStatus@@@Z 1010f4f0 f   LIBCMTD:undname.obj
 0001:0010e610       ?isValid@DName@@QBEHXZ     1010f610 f i LIBCMTD:undname.obj
 0001:0010e640       ?isEmpty@DName@@QBEHXZ     1010f640 f i LIBCMTD:undname.obj
 0001:0010e660       ?status@DName@@QBE?AW4DNameStatus@@XZ 1010f660 f i LIBCMTD:undname.obj
 0001:0010e680       ?setPtrRef@DName@@QAEAAV1@XZ 1010f680 f i LIBCMTD:undname.obj
 0001:0010e6b0       ?isPtrRef@DName@@QBEHXZ    1010f6b0 f i LIBCMTD:undname.obj
 0001:0010e6d0       ?isUDC@DName@@QBEHXZ       1010f6d0 f i LIBCMTD:undname.obj
 0001:0010e710       ?setIsUDC@DName@@QAEXXZ    1010f710 f i LIBCMTD:undname.obj
 0001:0010e740       ?isUDTThunk@DName@@QBEHXZ  1010f740 f i LIBCMTD:undname.obj
 0001:0010e780       ?setIsArray@DName@@QAEXXZ  1010f780 f i LIBCMTD:undname.obj
 0001:0010e7a0       ?isArray@DName@@QBEHXZ     1010f7a0 f i LIBCMTD:undname.obj
 0001:0010e7c0       ?isNoTE@DName@@QBEHXZ      1010f7c0 f i LIBCMTD:undname.obj
 0001:0010e7e0       ?setIsNoTE@DName@@QAEXXZ   1010f7e0 f i LIBCMTD:undname.obj
 0001:0010e800       ?isPinPtr@DName@@QBEHXZ    1010f800 f i LIBCMTD:undname.obj
 0001:0010e820       ?setIsPinPtr@DName@@QAEXXZ 1010f820 f i LIBCMTD:undname.obj
 0001:0010e840       ?isComArray@DName@@QBEHXZ  1010f840 f i LIBCMTD:undname.obj
 0001:0010e860       ?setIsComArray@DName@@QAEXXZ 1010f860 f i LIBCMTD:undname.obj
 0001:0010e880       ?isVCallThunk@DName@@QBEHXZ 1010f880 f i LIBCMTD:undname.obj
 0001:0010e8a0       ?setIsVCallThunk@DName@@QAEXXZ 1010f8a0 f i LIBCMTD:undname.obj
 0001:0010e8c0       ?length@DName@@QBEHXZ      1010f8c0 f i LIBCMTD:undname.obj
 0001:0010e8f0       ?getLastChar@DName@@QBEDXZ 1010f8f0 f i LIBCMTD:undname.obj
 0001:0010e920       ?getString@DName@@QBEPADPADH@Z 1010f920 f i LIBCMTD:undname.obj
 0001:0010e9b0       ?getString@DName@@QBEPADPAD0@Z 1010f9b0 f i LIBCMTD:undname.obj
 0001:0010e9f0       ??HDName@@QBE?AV0@D@Z      1010f9f0 f   LIBCMTD:undname.obj
 0001:0010ea30       ??HDName@@QBE?AV0@PBD@Z    1010fa30 f   LIBCMTD:undname.obj
 0001:0010ea70       ??HDName@@QBE?AV0@ABV0@@Z  1010fa70 f   LIBCMTD:undname.obj
 0001:0010eab0       ??HDName@@QBE?AV0@PAV0@@Z  1010fab0 f   LIBCMTD:undname.obj
 0001:0010eaf0       ??HDName@@QBE?AV0@W4DNameStatus@@@Z 1010faf0 f   LIBCMTD:undname.obj
 0001:0010eb30       ?append@DName@@AAEXPAVDNameNode@@@Z 1010fb30 f   LIBCMTD:undname.obj
 0001:0010ebc0       ??YDName@@QAEAAV0@D@Z      1010fbc0 f   LIBCMTD:undname.obj
 0001:0010ec50       ??YDName@@QAEAAV0@PBD@Z    1010fc50 f   LIBCMTD:undname.obj
 0001:0010ecf0       ??YDName@@QAEAAV0@ABV0@@Z  1010fcf0 f   LIBCMTD:undname.obj
 0001:0010ed60       ??YDName@@QAEAAV0@PAV0@@Z  1010fd60 f   LIBCMTD:undname.obj
 0001:0010ee20       ??YDName@@QAEAAV0@W4DNameStatus@@@Z 1010fe20 f   LIBCMTD:undname.obj
 0001:0010ee90       ??_5DName@@QAEAAV0@ABV0@@Z 1010fe90 f   LIBCMTD:undname.obj
 0001:0010eef0       ??4DName@@QAEAAV0@D@Z      1010fef0 f i LIBCMTD:undname.obj
 0001:0010efd0       ??4DName@@QAEAAV0@PBD@Z    1010ffd0 f   LIBCMTD:undname.obj
 0001:0010f0b0       ??4DName@@QAEAAV0@ABV0@@Z  101100b0 f   LIBCMTD:undname.obj
 0001:0010f0e0       ??4DName@@QAEAAV0@PAV0@@Z  101100e0 f   LIBCMTD:undname.obj
 0001:0010f220       ??4DName@@QAEAAV0@W4DNameStatus@@@Z 10110220 f   LIBCMTD:undname.obj
 0001:0010f320       ?doPchar@DName@@AAEXPBDH@Z 10110320 f   LIBCMTD:undname.obj
 0001:0010f460       ?isFull@Replicator@@QBEHXZ 10110460 f i LIBCMTD:undname.obj
 0001:0010f480       ??0Replicator@@QAE@XZ      10110480 f i LIBCMTD:undname.obj
 0001:0010f4a0       ??YReplicator@@QAEAAV0@ABVDName@@@Z 101104a0 f   LIBCMTD:undname.obj
 0001:0010f530       ??AReplicator@@QBE?AVDName@@H@Z 10110530 f   LIBCMTD:undname.obj
 0001:0010f5a0       ??0DNameNode@@IAE@XZ       101105a0 f   LIBCMTD:undname.obj
 0001:0010f5c0       ??0charNode@@QAE@D@Z       101105c0 f   LIBCMTD:undname.obj
 0001:0010f5f0       ?length@charNode@@UBEHXZ   101105f0 f i LIBCMTD:undname.obj
 0001:0010f610       ?getLastChar@charNode@@UBEDXZ 10110610 f i LIBCMTD:undname.obj
 0001:0010f630       ?getString@charNode@@UBEPADPAD0@Z 10110630 f i LIBCMTD:undname.obj
 0001:0010f660       ??0pcharNode@@QAE@PBDH@Z   10110660 f   LIBCMTD:undname.obj
 0001:0010f6f0       ?length@pcharNode@@UBEHXZ  101106f0 f i LIBCMTD:undname.obj
 0001:0010f710       ?getLastChar@pcharNode@@UBEDXZ 10110710 f i LIBCMTD:undname.obj
 0001:0010f750       ?getString@pcharNode@@UBEPADPAD0@Z 10110750 f i LIBCMTD:undname.obj
 0001:0010f780       ?getStringHelper@@YAPADPAD00H@Z 10110780 f i LIBCMTD:undname.obj
 0001:0010f7c0       ??0pDNameNode@@QAE@PAVDName@@@Z 101107c0 f   LIBCMTD:undname.obj
 0001:0010f820       ?length@pDNameNode@@UBEHXZ 10110820 f i LIBCMTD:undname.obj
 0001:0010f860       ?getLastChar@pDNameNode@@UBEDXZ 10110860 f i LIBCMTD:undname.obj
 0001:0010f890       ?getString@pDNameNode@@UBEPADPAD0@Z 10110890 f i LIBCMTD:undname.obj
 0001:0010f8d0       ??0DNameStatusNode@@AAE@W4DNameStatus@@@Z 101108d0 f   LIBCMTD:undname.obj
 0001:0010f920       ?length@DNameStatusNode@@UBEHXZ 10110920 f i LIBCMTD:undname.obj
 0001:0010f940       ?getLastChar@DNameStatusNode@@UBEDXZ 10110940 f i LIBCMTD:undname.obj
 0001:0010f960       ?getString@DNameStatusNode@@UBEPADPAD0@Z 10110960 f i LIBCMTD:undname.obj
 0001:0010f9a0       ?make@DNameStatusNode@@SAPAV1@W4DNameStatus@@@Z 101109a0 f i LIBCMTD:undname.obj
 0001:0010fa50       ??0pairNode@@QAE@PAVDNameNode@@0@Z 10110a50 f   LIBCMTD:undname.obj
 0001:0010fa90       ?length@pairNode@@UBEHXZ   10110a90 f i LIBCMTD:undname.obj
 0001:0010fae0       ?getLastChar@pairNode@@UBEDXZ 10110ae0 f i LIBCMTD:undname.obj
 0001:0010fb30       ?getString@pairNode@@UBEPADPAD0@Z 10110b30 f i LIBCMTD:undname.obj
 0001:0010fc70       ___crtCompareStringA       10110c70 f   LIBCMTD:a_cmp.obj
 0001:00110230       __strnicoll_l              10111230 f   LIBCMTD:strnicol.obj
 0001:00110480       __strnicoll                10111480 f   LIBCMTD:strnicol.obj
 0001:001104c0       ___crtsetenv               101114c0 f   LIBCMTD:setenv.obj
 0001:00110b40       __mbschr_l                 10111b40 f   LIBCMTD:mbschr.obj
 0001:00110cd0       __mbschr                   10111cd0 f   LIBCMTD:mbschr.obj
 0001:00110d00       _strchr                    10111d00 f   LIBCMTD:strchr.obj
 0001:00110d06       ___from_strstr_to_strchr   10111d06     LIBCMTD:strchr.obj
 0001:00110dbe       _OutputDebugStringA@4      10111dbe f   kernel32:KERNEL32.dll
 0001:00110dc4       _InterlockedExchangeAdd@8  10111dc4 f   kernel32:KERNEL32.dll
 0001:00110dca       _GetSystemInfo@4           10111dca f   kernel32:KERNEL32.dll
 0001:00110dd0       _InitializeCriticalSection@4 10111dd0 f   kernel32:KERNEL32.dll
 0001:00110dd6       _CreateEventA@16           10111dd6 f   kernel32:KERNEL32.dll
 0001:00110ddc       _CreateSemaphoreA@16       10111ddc f   kernel32:KERNEL32.dll
 0001:00110de2       _CloseHandle@4             10111de2 f   kernel32:KERNEL32.dll
 0001:00110de8       _WaitForMultipleObjects@16 10111de8 f   kernel32:KERNEL32.dll
 0001:00110dee       _DeleteCriticalSection@4   10111dee f   kernel32:KERNEL32.dll
 0001:00110df4       _SetEvent@4                10111df4 f   kernel32:KERNEL32.dll
 0001:00110dfa       _Sleep@4                   10111dfa f   kernel32:KERNEL32.dll
 0001:00110e00       _LeaveCriticalSection@4    10111e00 f   kernel32:KERNEL32.dll
 0001:00110e06       _ReleaseSemaphore@12       10111e06 f   kernel32:KERNEL32.dll
 0001:00110e0c       _EnterCriticalSection@4    10111e0c f   kernel32:KERNEL32.dll
 0001:00110e12       _WaitForSingleObject@8     10111e12 f   kernel32:KERNEL32.dll
 0001:00110e18       _InterlockedIncrement@4    10111e18 f   kernel32:KERNEL32.dll
 0001:00110e1e       _InterlockedDecrement@4    10111e1e f   kernel32:KERNEL32.dll
 0001:00110e24       _InterlockedExchange@8     10111e24 f   kernel32:KERNEL32.dll
 0001:00110e2a       _GetModuleFileNameW@12     10111e2a f   kernel32:KERNEL32.dll
 0001:00110e30       _GetCurrentThreadId@0      10111e30 f   kernel32:KERNEL32.dll
 0001:00110e36       _GetCommandLineA@0         10111e36 f   kernel32:KERNEL32.dll
 0001:00110e3c       _GetLastError@0            10111e3c f   kernel32:KERNEL32.dll
 0001:00110e42       _CreateThread@24           10111e42 f   kernel32:KERNEL32.dll
 0001:00110e48       _ExitThread@4              10111e48 f   kernel32:KERNEL32.dll
 0001:00110e4e       _GetProcAddress@8          10111e4e f   kernel32:KERNEL32.dll
 0001:00110e54       _GetModuleHandleA@4        10111e54 f   kernel32:KERNEL32.dll
 0001:00110e5a       _FatalAppExitA@8           10111e5a f   kernel32:KERNEL32.dll
 0001:00110e60       _HeapValidate@12           10111e60 f   kernel32:KERNEL32.dll
 0001:00110e66       _IsBadReadPtr@8            10111e66 f   kernel32:KERNEL32.dll
 0001:00110e6c       _DebugBreak@0              10111e6c f   kernel32:KERNEL32.dll
 0001:00110e72       _GetStdHandle@4            10111e72 f   kernel32:KERNEL32.dll
 0001:00110e78       _WriteFile@20              10111e78 f   kernel32:KERNEL32.dll
 0001:00110e7e       _WriteConsoleW@20          10111e7e f   kernel32:KERNEL32.dll
 0001:00110e84       _GetFileType@4             10111e84 f   kernel32:KERNEL32.dll
 0001:00110e8a       _OutputDebugStringW@4      10111e8a f   kernel32:KERNEL32.dll
 0001:00110e90       _TerminateProcess@8        10111e90 f   kernel32:KERNEL32.dll
 0001:00110e96       _GetCurrentProcess@0       10111e96 f   kernel32:KERNEL32.dll
 0001:00110e9c       _UnhandledExceptionFilter@4 10111e9c f   kernel32:KERNEL32.dll
 0001:00110ea2       _SetUnhandledExceptionFilter@4 10111ea2 f   kernel32:KERNEL32.dll
 0001:00110ea8       _IsDebuggerPresent@0       10111ea8 f   kernel32:KERNEL32.dll
 0001:00110eae       _GetModuleHandleW@4        10111eae f   kernel32:KERNEL32.dll
 0001:00110eb4       _ExitProcess@4             10111eb4 f   kernel32:KERNEL32.dll
 0001:00110eba       _SetConsoleCtrlHandler@8   10111eba f   kernel32:KERNEL32.dll
 0001:00110ec0       _LoadLibraryW@4            10111ec0 f   kernel32:KERNEL32.dll
 0001:00110ec6       _RaiseException@16         10111ec6 f   kernel32:KERNEL32.dll
 0001:00110ecc       _TlsGetValue@4             10111ecc f   kernel32:KERNEL32.dll
 0001:00110ed2       _TlsAlloc@0                10111ed2 f   kernel32:KERNEL32.dll
 0001:00110ed8       _TlsSetValue@8             10111ed8 f   kernel32:KERNEL32.dll
 0001:00110ede       _TlsFree@4                 10111ede f   kernel32:KERNEL32.dll
 0001:00110ee4       _SetLastError@4            10111ee4 f   kernel32:KERNEL32.dll
 0001:00110eea       _GetCurrentThread@0        10111eea f   kernel32:KERNEL32.dll
 0001:00110ef0       _SetHandleCount@4          10111ef0 f   kernel32:KERNEL32.dll
 0001:00110ef6       _GetStartupInfoA@4         10111ef6 f   kernel32:KERNEL32.dll
 0001:00110efc       _GetModuleFileNameA@12     10111efc f   kernel32:KERNEL32.dll
 0001:00110f02       _FreeEnvironmentStringsA@4 10111f02 f   kernel32:KERNEL32.dll
 0001:00110f08       _GetEnvironmentStrings@0   10111f08 f   kernel32:KERNEL32.dll
 0001:00110f0e       _FreeEnvironmentStringsW@4 10111f0e f   kernel32:KERNEL32.dll
 0001:00110f14       _WideCharToMultiByte@32    10111f14 f   kernel32:KERNEL32.dll
 0001:00110f1a       _GetEnvironmentStringsW@0  10111f1a f   kernel32:KERNEL32.dll
 0001:00110f20       _HeapDestroy@4             10111f20 f   kernel32:KERNEL32.dll
 0001:00110f26       _HeapCreate@12             10111f26 f   kernel32:KERNEL32.dll
 0001:00110f2c       _HeapFree@12               10111f2c f   kernel32:KERNEL32.dll
 0001:00110f32       _VirtualFree@12            10111f32 f   kernel32:KERNEL32.dll
 0001:00110f38       _QueryPerformanceCounter@4 10111f38 f   kernel32:KERNEL32.dll
 0001:00110f3e       _GetTickCount@0            10111f3e f   kernel32:KERNEL32.dll
 0001:00110f44       _GetCurrentProcessId@0     10111f44 f   kernel32:KERNEL32.dll
 0001:00110f4a       _GetSystemTimeAsFileTime@4 10111f4a f   kernel32:KERNEL32.dll
 0001:00110f50       _GetACP@0                  10111f50 f   kernel32:KERNEL32.dll
 0001:00110f56       _GetOEMCP@0                10111f56 f   kernel32:KERNEL32.dll
 0001:00110f5c       _GetCPInfo@8               10111f5c f   kernel32:KERNEL32.dll
 0001:00110f62       _IsValidCodePage@4         10111f62 f   kernel32:KERNEL32.dll
 0001:00110f68       _InitializeCriticalSectionAndSpinCount@8 10111f68 f   kernel32:KERNEL32.dll
 0001:00110f6e       _HeapAlloc@12              10111f6e f   kernel32:KERNEL32.dll
 0001:00110f74       _HeapSize@12               10111f74 f   kernel32:KERNEL32.dll
 0001:00110f7a       _HeapReAlloc@16            10111f7a f   kernel32:KERNEL32.dll
 0001:00110f80       _VirtualAlloc@16           10111f80 f   kernel32:KERNEL32.dll
 0001:00110f86       _MultiByteToWideChar@24    10111f86 f   kernel32:KERNEL32.dll
 0001:00110f8c       _RtlUnwind@16              10111f8c f   kernel32:KERNEL32.dll
 0001:00110f92       _FreeLibrary@4             10111f92 f   kernel32:KERNEL32.dll
 0001:00110f98       _LoadLibraryA@4            10111f98 f   kernel32:KERNEL32.dll
 0001:00110f9e       _SetFilePointer@16         10111f9e f   kernel32:KERNEL32.dll
 0001:00110fa4       _GetConsoleCP@0            10111fa4 f   kernel32:KERNEL32.dll
 0001:00110faa       _GetConsoleMode@8          10111faa f   kernel32:KERNEL32.dll
 0001:00110fb0       _GetLocaleInfoW@16         10111fb0 f   kernel32:KERNEL32.dll
 0001:00110fb6       _GetLocaleInfoA@16         10111fb6 f   kernel32:KERNEL32.dll
 0001:00110fbc       _LCMapStringA@24           10111fbc f   kernel32:KERNEL32.dll
 0001:00110fc2       _LCMapStringW@24           10111fc2 f   kernel32:KERNEL32.dll
 0001:00110fc8       _GetStringTypeA@20         10111fc8 f   kernel32:KERNEL32.dll
 0001:00110fce       _GetStringTypeW@16         10111fce f   kernel32:KERNEL32.dll
 0001:00110fd4       _GetTimeFormatA@24         10111fd4 f   kernel32:KERNEL32.dll
 0001:00110fda       _GetDateFormatA@24         10111fda f   kernel32:KERNEL32.dll
 0001:00110fe0       _IsValidLocale@8           10111fe0 f   kernel32:KERNEL32.dll
 0001:00110fe6       _EnumSystemLocalesA@8      10111fe6 f   kernel32:KERNEL32.dll
 0001:00110fec       _GetUserDefaultLCID@0      10111fec f   kernel32:KERNEL32.dll
 0001:00110ff2       _SetStdHandle@8            10111ff2 f   kernel32:KERNEL32.dll
 0001:00110ff8       _WriteConsoleA@20          10111ff8 f   kernel32:KERNEL32.dll
 0001:00110ffe       _GetConsoleOutputCP@0      10111ffe f   kernel32:KERNEL32.dll
 0001:00111004       _lstrlenA@4                10112004 f   kernel32:KERNEL32.dll
 0001:0011100a       _GetTimeZoneInformation@4  1011200a f   kernel32:KERNEL32.dll
 0001:00111010       _CreateFileA@28            10112010 f   kernel32:KERNEL32.dll
 0001:00111016       _GetProcessHeap@0          10112016 f   kernel32:KERNEL32.dll
 0001:0011101c       _VirtualQuery@12           1011201c f   kernel32:KERNEL32.dll
 0001:00111022       _FlushFileBuffers@4        10112022 f   kernel32:KERNEL32.dll
 0001:00111028       _CompareStringA@24         10112028 f   kernel32:KERNEL32.dll
 0001:0011102e       _CompareStringW@24         1011202e f   kernel32:KERNEL32.dll
 0001:00111034       _SetEnvironmentVariableA@8 10112034 f   kernel32:KERNEL32.dll
 0002:00000000       ___xc_a                    10157000     LIBCMTD:crt0init.obj
 0002:00000268       ___xc_z                    10157268     LIBCMTD:crt0init.obj
 0002:0000036c       ___xi_a                    1015736c     LIBCMTD:crt0init.obj
 0002:00000588       ___xi_z                    10157588     LIBCMTD:crt0init.obj
 0002:0000068c       ___xp_a                    1015768c     LIBCMTD:crt0init.obj
 0002:000009a0       ___xp_z                    101579a0     LIBCMTD:crt0init.obj
 0002:00000aa4       ___xt_a                    10157aa4     LIBCMTD:crt0init.obj
 0002:00000ba8       ___xt_z                    10157ba8     LIBCMTD:crt0init.obj
 0002:00001de8       __real@4059000000000000    10158de8     Newton.obj
 0002:00001df8       __real@c059000000000000    10158df8     Newton.obj
 0002:00001e08       __real@3ff0000000000000    10158e08     Newton.obj
 0002:00001e18       __real@3ddb7cdfe0000000    10158e18     Newton.obj
 0002:00001e28       __real@3f50624de0000000    10158e28     Newton.obj
 0002:00001e38       __real@3f91111120000000    10158e38     Newton.obj
 0002:00001e48       __real@404dffffe5c00017    10158e48     Newton.obj
 0002:00001e58       __real@408f3fffe7190014    10158e58     Newton.obj
 0002:00001e68       __real@0000000000000000    10158e68     Newton.obj
 0002:00001e78       __real@3fc0000000000000    10158e78     Newton.obj
 0002:00001e88       __real@4000000000000000    10158e88     Newton.obj
 0002:00001e98       __real@3f847ae140000000    10158e98     Newton.obj
 0002:00001ea8       __real@3fe6666660000000    10158ea8     Newton.obj
 0002:00001eb8       __real@bff0000000000000    10158eb8     Newton.obj
 0002:00001ec8       __real@3eb0c6f7a0000000    10158ec8     Newton.obj
 0002:00001ed8       __real@3ee4f8b580000000    10158ed8     Newton.obj
 0002:00001ee8       ??_C@_1FG@DPADFPDA@?$AAc?$AA?3?$AA?2?$AAn?$AAe?$AAw?$AAt?$AAo?$AAn?$AA_?$AA2?$AA0?$AA0?$AA?2?$AA3?$AAd?$AAl?$AAi?$AAb?$AA?2?$AAs?$AAd?$AAk?$AA?2?$AAc?$AAo?$AAr?$AAe?$AAl?$AAi?$AAb?$AA?2@ 10158ee8     Newton.obj
 0002:00001f50       ??_C@_1DA@JDEKGPJE@?$AAd?$AAg?$AAC?$AAh?$AAe?$AAc?$AAk?$AAV?$AAe?$AAc?$AAt?$AAo?$AAr?$AA?5?$AA?$CI?$AA?$CI?$AA?$CK?$AAt?$AAh?$AAi?$AAs?$AA?$CJ?$AA?$CJ?$AA?$AA@ 10158f50     Newton.obj
 0002:00001f90       ??_C@_1JK@PNNLFPPH@?$AA?$CI?$AAd?$AAg?$AAA?$AAb?$AAs?$AAf?$AA?5?$AA?$CI?$AAm?$AA_?$AAr?$AAi?$AAg?$AAh?$AAt?$AA?5?$AA?$CF?$AA?5?$AA?$CI?$AAm?$AA_?$AAf?$AAr?$AAo?$AAn?$AAt?$AA?5?$AA?$CK?$AA?5?$AAm?$AA_@ 10158f90     Newton.obj
 0002:00002048       ??_C@_1II@JNGBILOA@?$AA?$CI?$AAd?$AAg?$AAA?$AAb?$AAs?$AAf?$AA?5?$AA?$CI?$AAm?$AA_?$AAr?$AAi?$AAg?$AAh?$AAt?$AA?5?$AA?$CF?$AA?5?$AAm?$AA_?$AAr?$AAi?$AAg?$AAh?$AAt?$AA?$CJ?$AA?5?$AA?9?$AA?5?$AAd?$AAg@ 10159048     Newton.obj
 0002:000020f0       ??_C@_1HM@GJAKGBDD@?$AA?$CI?$AAd?$AAg?$AAA?$AAb?$AAs?$AAf?$AA?5?$AA?$CI?$AAm?$AA_?$AAu?$AAp?$AA?5?$AA?$CF?$AA?5?$AAm?$AA_?$AAu?$AAp?$AA?$CJ?$AA?5?$AA?9?$AA?5?$AAd?$AAg?$AAF?$AAl?$AAo?$AAa?$AAt?$AA3@ 101590f0     Newton.obj
 0002:00002188       ??_C@_1FG@EINKGDAC@?$AAc?$AA?3?$AA?2?$AAn?$AAe?$AAw?$AAt?$AAo?$AAn?$AA_?$AA2?$AA0?$AA0?$AA?2?$AA3?$AAd?$AAl?$AAi?$AAb?$AA?2?$AAs?$AAd?$AAk?$AA?2?$AAc?$AAo?$AAr?$AAe?$AAl?$AAi?$AAb?$AA?2@ 10159188     Newton.obj
 0002:000021f0       ??_C@_1II@FFGMHNGG@?$AA?$CI?$AAd?$AAg?$AAA?$AAb?$AAs?$AAf?$AA?5?$AA?$CI?$AAm?$AA_?$AAf?$AAr?$AAo?$AAn?$AAt?$AA?5?$AA?$CF?$AA?5?$AAm?$AA_?$AAf?$AAr?$AAo?$AAn?$AAt?$AA?$CJ?$AA?5?$AA?9?$AA?5?$AAd?$AAg@ 101591f0     Newton.obj
 0002:00002298       __real@3fe276c8c0000000    10159298     Newton.obj
 0002:000022a4       ??_C@_1O@ILILCEBJ@?$AAi?$AA?5?$AA?$DO?$AA?$DN?$AA?5?$AA0?$AA?$AA@ 101592a4     Newton.obj
 0002:000022b4       ??_C@_1M@NEALEACL@?$AAi?$AA?5?$AA?$DM?$AA?5?$AA4?$AA?$AA@ 101592b4     Newton.obj
 0002:000022c8       __real@431550f7d8000000    101592c8     Newton.obj
 0002:000022d8       __real@42fc6bf520000000    101592d8     Newton.obj
 0002:000022e8       __real@3e45798ee0000000    101592e8     Newton.obj
 0002:000022f8       __real@3f91df45b05b05b0    101592f8     Newton.obj
 0002:00002308       __real@3feff7cee0000000    10159308     Newton.obj
 0002:00002318       __real@3f947ae140000000    10159318     Newton.obj
 0002:00002328       __real@3f1a36e2e0000000    10159328     Newton.obj
 0002:00002338       ??_C@_1FM@OAIKGLAI@?$AAc?$AA?3?$AA?2?$AAn?$AAe?$AAw?$AAt?$AAo?$AAn?$AA_?$AA2?$AA0?$AA0?$AA?2?$AA3?$AAd?$AAl?$AAi?$AAb?$AA?2?$AAs?$AAd?$AAk?$AA?2?$AAc?$AAo?$AAr?$AAe?$AAl?$AAi?$AAb?$AA?2@ 10159338     Newton.obj
 0002:000023a8       ??_C@_1DA@PEKPEHMI@?$AAm?$AA_?$AAe?$AAd?$AAg?$AAe?$AAM?$AAa?$AAr?$AAk?$AA?5?$AA?$DM?$AA?5?$AA0?$AAx?$AA7?$AAf?$AAf?$AAf?$AAf?$AAf?$AAf?$AAf?$AA?$AA@ 101593a8     Newton.obj
 0002:000023e8       ??_C@_1FC@CDAHNMJI@?$AAc?$AA?3?$AA?2?$AAn?$AAe?$AAw?$AAt?$AAo?$AAn?$AA_?$AA2?$AA0?$AA0?$AA?2?$AA3?$AAd?$AAl?$AAi?$AAb?$AA?2?$AAs?$AAd?$AAk?$AA?2?$AAc?$AAo?$AAr?$AAe?$AAl?$AAi?$AAb?$AA?2@ 101593e8     Newton.obj
 0002:00002450       ??_C@_1EK@IMIPNHCJ@?$AA?$CI?$AAd?$AAg?$AAU?$AAn?$AAs?$AAi?$AAg?$AAn?$AAe?$AAd?$AA6?$AA4?$AA?5?$AA?$CI?$AA?$CG?$AAm?$AA_?$AAi?$AAn?$AAf?$AAo?$AA?$CJ?$AA?5?$AA?$CG?$AA?5?$AA0?$AAx?$AA0?$AAf?$AA?$CJ?$AA?5@ 10159450     Newton.obj
 0002:00003330       ??_7NewtonUserJoint@@6B@   1015a330     NewtonClass.obj
 0002:00003370       __real@430c6bf520000000    1015a370     NewtonClass.obj
 0002:00003380       __real@c30c6bf520000000    1015a380     NewtonClass.obj
 0002:00003390       __real@bf50624de0000000    1015a390     NewtonClass.obj
 0002:000033a0       __real@4058c00000000000    1015a3a0     NewtonClass.obj
 0002:000033ac       ??_C@_1M@IHBNDPOD@?$AAm?$AA_?$AAp?$AAt?$AAr?$AA?$AA@ 1015a3ac     NewtonClass.obj
 0002:000033c0       ??_C@_1HA@CCBMCHMB@?$AAc?$AA?3?$AA?2?$AAn?$AAe?$AAw?$AAt?$AAo?$AAn?$AA_?$AA2?$AA0?$AA0?$AA?2?$AA3?$AAd?$AAl?$AAi?$AAb?$AA?2?$AAs?$AAd?$AAk?$AA?2?$AAp?$AAh?$AAy?$AAs?$AAi?$AAc?$AAs?$AA?2@ 1015a3c0     NewtonClass.obj
 0002:00003448       ??_C@_13COJANIEC@?$AA0?$AA?$AA@ 1015a448     NewtonClass.obj
 0002:0000344c       ??_C@_0P@GHFPNOJB@bad?5allocation?$AA@ 1015a44c     physics:dgWorld.obj
 0002:00003468       __real@3fb99999a0000000    1015a468     physics:dgWorld.obj
 0002:00003470       __real@3ff6666660000000    1015a470     physics:dgWorld.obj
 0002:00003478       __real@3ff8000000000000    1015a478     physics:dgWorld.obj
 0002:00003480       __real@3f50624ddf3b645d    1015a480     physics:dgWorld.obj
 0002:00003488       __real@3f847ae151eb8520    1015a488     physics:dgWorld.obj
 0002:00003490       __real@3fd0000000000000    1015a490     physics:dgWorld.obj
 0002:00003498       ??_7dgCollisionPoint@@6B@  1015a498     physics:dgWorld.obj
 0002:00003518       __real@4202a05f20000000    1015a518     physics:dgWorld.obj
 0002:00003520       ??_C@_04IABPNMKE@simd?$AA@ 1015a520     physics:dgWorld.obj
 0002:00003528       ??_C@_03MKEPLMIM@x87?$AA@  1015a528     physics:dgWorld.obj
 0002:00003530       ??_C@_1EK@JJJDNOME@?$AAd?$AAg?$AAB?$AAo?$AAd?$AAy?$AAC?$AAo?$AAl?$AAl?$AAi?$AAs?$AAi?$AAo?$AAn?$AAL?$AAi?$AAs?$AAt?$AA?3?$AA?3?$AAG?$AAe?$AAt?$AAC?$AAo?$AAu?$AAn?$AAt?$AA?$CI?$AA?$CJ?$AA?5@ 1015a530     physics:dgWorld.obj
 0002:00003580       ??_C@_1FC@BAACEGC@?$AAm?$AAe?$AA?4?$AAG?$AAe?$AAt?$AAF?$AAi?$AAr?$AAs?$AAt?$AA?$CI?$AA?$CJ?$AA?9?$AA?$DO?$AAG?$AAe?$AAt?$AAI?$AAn?$AAf?$AAo?$AA?$CI?$AA?$CJ?$AA?4?$AAG?$AAe?$AAt?$AAC?$AAo?$AAu?$AAn@ 1015a580     physics:dgWorld.obj
 0002:000035d8       ??_C@_1EC@DHKPNDAL@?$AA?4?$AA?4?$AA?2?$AA?4?$AA?4?$AA?2?$AA?4?$AA?4?$AA?2?$AAs?$AAd?$AAk?$AA?2?$AAp?$AAh?$AAy?$AAs?$AAi?$AAc?$AAs?$AA?2?$AAd?$AAg?$AAW?$AAo?$AAr?$AAl?$AAd?$AA?4?$AAc?$AAp?$AAp@ 1015a5d8     physics:dgWorld.obj
 0002:00003620       ??_C@_1IK@FBKAMGPG@?$AAd?$AAg?$AAB?$AAo?$AAd?$AAy?$AAM?$AAa?$AAs?$AAt?$AAe?$AAr?$AAL?$AAi?$AAs?$AAt?$AA?3?$AA?3?$AAG?$AAe?$AAt?$AAF?$AAi?$AAr?$AAs?$AAt?$AA?$CI?$AA?$CJ?$AA?9?$AA?$DO?$AAG?$AAe@ 1015a620     physics:dgWorld.obj
 0002:000036b0       __real@431c6bf520000000    1015a6b0     physics:dgWorld.obj
 0002:000036b8       __real@3fbac08320000000    1015a6b8     physics:dgWorld.obj
 0002:000036c0       ??_C@_1EC@ICCOIKME@?$AA?$CI?$AAd?$AAg?$AAU?$AAn?$AAs?$AAi?$AAg?$AAn?$AAe?$AAd?$AA6?$AA4?$AA?5?$AA?$CI?$AAb?$AAo?$AAd?$AAy?$AA?$CJ?$AA?5?$AA?$CG?$AA?5?$AA0?$AAx?$AAf?$AA?$CJ?$AA?5?$AA?$DN?$AA?$DN?$AA?5?$AA0@ 1015a6c0     physics:dgWorld.obj
 0002:00003704       ??_C@_1BE@BMACBLPL@?$AAc?$AAo?$AAl?$AAl?$AAi?$AAs?$AAi?$AAo?$AAn?$AA?$AA@ 1015a704     physics:dgWorld.obj
 0002:00003718       ??_C@_1CE@OCAGGPEK@?$AAb?$AAo?$AAd?$AAy?$AA?9?$AA?$DO?$AAm?$AA_?$AAc?$AAo?$AAl?$AAl?$AAi?$AAs?$AAi?$AAo?$AAn?$AA?$AA@ 1015a718     physics:dgWorld.obj
 0002:0000373c       ??_C@_1CM@OCIJBPJL@?$AAm?$AA_?$AAn?$AAu?$AAm?$AAb?$AAe?$AAr?$AAO?$AAf?$AAT?$AAh?$AAe?$AAa?$AAd?$AAs?$AA?5?$AA?$DO?$AA?$DN?$AA?5?$AA1?$AA?$AA@ 1015a73c     physics:dgWorld.obj
 0002:00003768       ??_C@_1CA@FKFNLNJ@?$AAm?$AA_?$AAi?$AAn?$AAU?$AAp?$AAd?$AAa?$AAt?$AAe?$AA?5?$AA?$DN?$AA?$DN?$AA?5?$AA0?$AA?$AA@ 1015a768     physics:dgWorld.obj
 0002:00003788       ??_C@_1BO@NBLPCMLH@?$AAb?$AAo?$AAd?$AAy?$AA0?$AA?5?$AA?$CB?$AA?$DN?$AA?5?$AAb?$AAo?$AAd?$AAy?$AA1?$AA?$AA@ 1015a788     physics:dgWorld.obj
 0002:000037a8       ??_C@_1M@OIAIJOBD@?$AAb?$AAo?$AAd?$AAy?$AA0?$AA?$AA@ 1015a7a8     physics:dgWorld.obj
 0002:000037b4       ??_C@_19EFPOFDIJ@?$AAb?$AAo?$AAd?$AAy?$AA?$AA@ 1015a7b4     physics:dgWorld.obj
 0002:000037c0       ??_C@_1DE@PINLMFAK@?$AAi?$AAn?$AAd?$AAe?$AAx?$AA?5?$AA?$DM?$AA?5?$AAD?$AAG?$AA_?$AAR?$AAE?$AAC?$AAU?$AAR?$AAS?$AAI?$AAV?$AAE?$AA_?$AAS?$AAI?$AAZ?$AAE?$AA?$AA@ 1015a7c0     physics:dgWorld.obj
 0002:000037f4       ??_C@_1DA@MHEAPLEG@?$AAb?$AAo?$AAd?$AAy?$AA?5?$AA?$CB?$AA?$DN?$AA?5?$AAm?$AA_?$AAs?$AAe?$AAn?$AAt?$AAi?$AAo?$AAn?$AAe?$AAl?$AAB?$AAo?$AAd?$AAy?$AA?$AA@ 1015a7f4     physics:dgWorld.obj
 0002:00003824       ??_7dgWorkerThread@@6B@    1015a824     physics:dgWorld.obj
 0002:00003830       ??_C@_1FC@JBMHHHCK@?$AAc?$AA?3?$AA?2?$AAn?$AAe?$AAw?$AAt?$AAo?$AAn?$AA_?$AA2?$AA0?$AA0?$AA?2?$AA3?$AAd?$AAl?$AAi?$AAb?$AA?2?$AAs?$AAd?$AAk?$AA?2?$AAc?$AAo?$AAr?$AAe?$AAl?$AAi?$AAb?$AA?2@ 1015a830     physics:dgWorld.obj
 0002:00003884       ??_C@_1BK@LKMNECAF@?$AAm?$AA_?$AAc?$AAo?$AAu?$AAn?$AAt?$AA?5?$AA?$DN?$AA?$DN?$AA?5?$AA0?$AA?$AA@ 1015a884     physics:dgWorld.obj
 0002:000038a0       ??_C@_1FO@HJAMEBAD@?$AA?4?$AA?4?$AA?2?$AA?4?$AA?4?$AA?2?$AA?4?$AA?4?$AA?2?$AAs?$AAd?$AAk?$AA?2?$AAp?$AAh?$AAy?$AAs?$AAi?$AAc?$AAs?$AA?2?$AAd?$AAg?$AAB?$AAr?$AAo?$AAa?$AAd?$AAP?$AAh?$AAa?$AAs@ 1015a8a0     physics:dgBroadPhaseCollision.obj
 0002:00003900       ??_C@_1CA@GLNLFIMP@?$AAG?$AAe?$AAt?$AAC?$AAo?$AAu?$AAn?$AAt?$AA?$CI?$AA?$CJ?$AA?5?$AA?$DN?$AA?$DN?$AA?5?$AA0?$AA?$AA@ 1015a900     physics:dgBroadPhaseCollision.obj
 0002:00003920       ??_C@_19EFANFLCA@?$AAn?$AAo?$AAd?$AAe?$AA?$AA@ 1015a920     physics:dgBroadPhaseCollision.obj
 0002:00003930       ??_C@_1EA@PHHFFPM@?$AAl?$AAi?$AAn?$AAe?$AA?4?$AAm?$AA_?$AAb?$AAo?$AAx?$AAL?$AA0?$AA?$FL?$AAm?$AA_?$AAi?$AAn?$AAd?$AAe?$AAx?$AA?$FN?$AA?5?$AA?$DM?$AA?$DN?$AA?5?$AAm?$AAa?$AAx?$AAV?$AAa?$AAl?$AA?$AA@ 1015a930     physics:dgBroadPhaseCollision.obj
 0002:00003970       ??_C@_1DM@NDMBHPPP@?$AA?$CB?$AAb?$AAo?$AAd?$AAy?$AA?9?$AA?$DO?$AAm?$AA_?$AAc?$AAo?$AAl?$AAl?$AAi?$AAs?$AAi?$AAo?$AAn?$AAC?$AAe?$AAl?$AAl?$AA?4?$AAm?$AA_?$AAc?$AAe?$AAl?$AAl?$AA?$AA@ 1015a970     physics:dgBroadPhaseCollision.obj
 0002:000039ac       ??_C@_1DK@ONJJLKBC@?$AAb?$AAo?$AAd?$AAy?$AA?9?$AA?$DO?$AAm?$AA_?$AAc?$AAo?$AAl?$AAl?$AAi?$AAs?$AAi?$AAo?$AAn?$AAC?$AAe?$AAl?$AAl?$AA?4?$AAm?$AA_?$AAc?$AAe?$AAl?$AAl?$AA?$AA@ 1015a9ac     physics:dgBroadPhaseCollision.obj
 0002:000039e8       ??_C@_1BK@FBPKPJAG@?$AAm?$AA_?$AAc?$AAo?$AAu?$AAn?$AAt?$AA?5?$AA?$DO?$AA?$DN?$AA?5?$AA0?$AA?$AA@ 1015a9e8     physics:dgBroadPhaseCollision.obj
 0002:00003a04       ??_C@_1BI@PKPDJDDM@?$AA?$CB?$AAG?$AAe?$AAt?$AAC?$AAo?$AAu?$AAn?$AAt?$AA?$CI?$AA?$CJ?$AA?$AA@ 1015aa04     physics:dgBroadPhaseCollision.obj
 0002:00003a20       __real@408f400000000000    1015aa20     physics:dgBroadPhaseCollision.obj
 0002:00003a28       __real@c08f400000000000    1015aa28     physics:dgBroadPhaseCollision.obj
 0002:00003a30       ??_7dgBroadPhaseApplyExternalForce@@6B@ 1015aa30     physics:dgBroadPhaseCollision.obj
 0002:00003a38       ??_7dgBroadPhaseCellPairsWorkerThread@@6B@ 1015aa38     physics:dgBroadPhaseCollision.obj
 0002:00003a40       ??_7dgBroadPhaseMaterialCallbackWorkerThread@@6B@ 1015aa40     physics:dgBroadPhaseCollision.obj
 0002:00003a48       ??_7dgBroadPhaseCalculateContactsWorkerThread@@6B@ 1015aa48     physics:dgBroadPhaseCollision.obj
 0002:00003a50       ??_C@_1DM@PJPFHIBL@?$AAm?$AA_?$AAl?$AAa?$AAy?$AAe?$AAr?$AAM?$AAa?$AAp?$AA?$FL?$AAi?$AA?$FN?$AA?4?$AAG?$AAe?$AAt?$AAC?$AAo?$AAu?$AAn?$AAt?$AA?$CI?$AA?$CJ?$AA?5?$AA?$DN?$AA?$DN?$AA?5?$AA0?$AA?$AA@ 1015aa50     physics:dgBroadPhaseCollision.obj
 0002:00003a90       __real@3fe0000000000000    1015aa90     physics:dgBroadPhaseCollision.obj
 0002:00003a98       __real@4060000000000000    1015aa98     physics:dgBroadPhaseCollision.obj
 0002:00003aa0       __real@3f90000000000000    1015aaa0     physics:dgBroadPhaseCollision.obj
 0002:00003aa8       __real@3ff3333340000000    1015aaa8     physics:dgBroadPhaseCollision.obj
 0002:00003ab0       ??_C@_1CM@IIKMBBJF@?$AAi?$AAn?$AAd?$AAe?$AAx?$AA?5?$AA?$DN?$AA?$DN?$AA?5?$AAc?$AAo?$AAn?$AAt?$AAa?$AAc?$AAt?$AAC?$AAo?$AAu?$AAn?$AAt?$AA?$AA@ 1015aab0     physics:dgBroadPhaseCollision.obj
 0002:00003ae0       ??_C@_1EM@OLIAFOJM@?$AAb?$AAo?$AAd?$AAy?$AA?9?$AA?$DO?$AAm?$AA_?$AAi?$AAn?$AAv?$AAM?$AAa?$AAs?$AAs?$AA?4?$AAm?$AA_?$AAw?$AA?5?$AA?$DO?$AA?5?$AAd?$AAg?$AAF?$AAl?$AAo?$AAa?$AAt?$AA3?$AA2?$AA?$CI@ 1015aae0     physics:dgBroadPhaseCollision.obj
 0002:00003b30       ??_C@_1BJK@BJNAOAON@?$AAb?$AAo?$AAd?$AAy?$AA?9?$AA?$DO?$AAm?$AA_?$AAc?$AAo?$AAl?$AAl?$AAi?$AAs?$AAi?$AAo?$AAn?$AA?9?$AA?$DO?$AAI?$AAs?$AAT?$AAy?$AAp?$AAe?$AA?$CI?$AAd?$AAg?$AAC?$AAo?$AAl?$AAl@ 1015ab30     physics:dgBroadPhaseCollision.obj
 0002:00003cd0       __real@3f1a36e2d7731900    1015acd0     physics:dgBroadPhaseCollision.obj
 0002:00003cd8       ??_C@_1DG@MDIEFPOL@?$AAc?$AAo?$AAn?$AAt?$AAa?$AAc?$AAt?$AAI?$AAn?$AAd?$AAe?$AAx?$AA?5?$AA?$DM?$AA?5?$AAc?$AAo?$AAn?$AAt?$AAa?$AAc?$AAt?$AAS?$AAi?$AAz?$AAe?$AA?$AA@ 1015acd8     physics:dgBroadPhaseCollision.obj
 0002:00003d10       ??_C@_1GI@GIJIHCPK@?$AAp?$AAa?$AAi?$AAr?$AA?4?$AAm?$AA_?$AAc?$AAo?$AAn?$AAt?$AAa?$AAc?$AAt?$AAC?$AAo?$AAu?$AAn?$AAt?$AA?5?$AA?$DM?$AA?$DN?$AA?5?$AA?$CI?$AAD?$AAG?$AA_?$AAC?$AAO?$AAN?$AAS?$AAT@ 1015ad10     physics:dgBroadPhaseCollision.obj
 0002:00003d78       ??_C@_1CM@KEMNMPHD@?$AAc?$AAe?$AAl?$AAl?$AA?9?$AA?$DO?$AAm?$AA_?$AAl?$AAa?$AAs?$AAt?$AAS?$AAo?$AAr?$AAt?$AAA?$AAr?$AAr?$AAa?$AAy?$AA?$AA@ 1015ad78     physics:dgBroadPhaseCollision.obj
 0002:00003da8       __real@3ff19999a0000000    1015ada8     physics:dgBroadPhaseCollision.obj
 0002:00003db0       ??_C@_1BK@MKKPHAPO@?$AAc?$AAe?$AAl?$AAl?$AA?4?$AAm?$AA_?$AAc?$AAo?$AAu?$AAn?$AAt?$AA?$AA@ 1015adb0     physics:dgBroadPhaseCollision.obj
 0002:00003dd0       ??_C@_1II@MLILGNIF@?$AAm?$AAa?$AAs?$AAt?$AAe?$AAr?$AAL?$AAi?$AAs?$AAt?$AA?4?$AAG?$AAe?$AAt?$AAF?$AAi?$AAr?$AAs?$AAt?$AA?$CI?$AA?$CJ?$AA?9?$AA?$DO?$AAG?$AAe?$AAt?$AAI?$AAn?$AAf?$AAo?$AA?$CI?$AA?$CJ@ 1015add0     physics:dgBroadPhaseCollision.obj
 0002:00003e58       ??_C@_1BO@IHOIJOM@?$AAS?$AAa?$AAn?$AAi?$AAt?$AAy?$AAC?$AAh?$AAe?$AAc?$AAk?$AA?5?$AA?$CI?$AA?$CJ?$AA?$AA@ 1015ae58     physics:dgBroadPhaseCollision.obj
 0002:00003e78       ??_C@_1CC@JGAIKKLL@?$AA?$CB?$AAm?$AA_?$AAf?$AAi?$AAr?$AAs?$AAt?$AA?9?$AA?$DO?$AAm?$AA_?$AAp?$AAr?$AAe?$AAv?$AA?$AA@ 1015ae78     physics:dgBroadPhaseCollision.obj
 0002:00003e9c       ??_C@_1BA@DPNDDMAE@?$AAm?$AA_?$AAf?$AAi?$AAr?$AAs?$AAt?$AA?$AA@ 1015ae9c     physics:dgBroadPhaseCollision.obj
 0002:00003eac       ??_C@_1CA@DOMNDHPO@?$AA?$CB?$AAm?$AA_?$AAl?$AAa?$AAs?$AAt?$AA?9?$AA?$DO?$AAm?$AA_?$AAn?$AAe?$AAx?$AAt?$AA?$AA@ 1015aeac     physics:dgBroadPhaseCollision.obj
 0002:00003ecc       ??_C@_1O@OFPNLAEI@?$AAm?$AA_?$AAl?$AAa?$AAs?$AAt?$AA?$AA@ 1015aecc     physics:dgBroadPhaseCollision.obj
 0002:00003edc       ??_C@_1BK@FGIOLLGP@?$AAn?$AAo?$AAd?$AAe?$AA?5?$AA?$CB?$AA?$DN?$AA?5?$AAr?$AAo?$AAo?$AAt?$AA?$AA@ 1015aedc     physics:dgBroadPhaseCollision.obj
 0002:00003ef8       ??_C@_19PKPNPKHP@?$AAr?$AAo?$AAo?$AAt?$AA?$AA@ 1015aef8     physics:dgBroadPhaseCollision.obj
 0002:00003f08       ??_C@_1EG@BMMEDIOC@?$AAC?$AAo?$AAm?$AAp?$AAa?$AAr?$AAe?$AAK?$AAe?$AAy?$AAs?$AA?5?$AA?$CI?$AAp?$AAt?$AAr?$AA?9?$AA?$DO?$AAm?$AA_?$AAk?$AAe?$AAy?$AA?0?$AA?5?$AAk?$AAe?$AAy?$AA?$CJ?$AA?5?$AA?$DN?$AA?$DN@ 1015af08     physics:dgBroadPhaseCollision.obj
 0002:00003f50       ??_C@_1EG@KEHIFPIH@?$AAC?$AAo?$AAm?$AAp?$AAa?$AAr?$AAe?$AAK?$AAe?$AAy?$AAs?$AA?5?$AA?$CI?$AAp?$AAt?$AAr?$AA?9?$AA?$DO?$AAm?$AA_?$AAk?$AAe?$AAy?$AA?0?$AA?5?$AAk?$AAe?$AAy?$AA?$CJ?$AA?5?$AA?$DN?$AA?$DN@ 1015af50     physics:dgBroadPhaseCollision.obj
 0002:00003f98       ??_C@_1EI@LDJFLLLF@?$AAC?$AAo?$AAm?$AAp?$AAa?$AAr?$AAe?$AAK?$AAe?$AAy?$AAs?$AA?5?$AA?$CI?$AAp?$AAt?$AAr?$AA?9?$AA?$DO?$AAm?$AA_?$AAk?$AAe?$AAy?$AA?0?$AA?5?$AAk?$AAe?$AAy?$AA?$CJ?$AA?5?$AA?$DN?$AA?$DN@ 1015af98     physics:dgBroadPhaseCollision.obj
 0002:00003fe0       ??_C@_1DM@NFANGFEF@?$AA?$CG?$AAr?$AAe?$AAt?$AAn?$AAo?$AAd?$AAe?$AA?9?$AA?$DO?$AAG?$AAe?$AAt?$AAI?$AAn?$AAf?$AAo?$AA?5?$AA?$CI?$AA?$CJ?$AA?5?$AA?$DN?$AA?$DN?$AA?5?$AA?$CG?$AAi?$AAn?$AAf?$AAo?$AA?$AA@ 1015afe0     physics:dgBroadPhaseCollision.obj
 0002:0000401c       ??_C@_1CK@MKDPNEDG@?$AAr?$AAe?$AAt?$AAn?$AAo?$AAd?$AAe?$AA?9?$AA?$DO?$AAI?$AAs?$AAI?$AAn?$AAT?$AAr?$AAe?$AAe?$AA?5?$AA?$CI?$AA?$CJ?$AA?$AA@ 1015b01c     physics:dgBroadPhaseCollision.obj
 0002:00004048       ??_C@_1EG@JEFAAEMN@?$AAn?$AAo?$AAd?$AAe?$AA?9?$AA?$DO?$AAG?$AAe?$AAt?$AAP?$AAr?$AAe?$AAv?$AA?$CI?$AA?$CJ?$AA?5?$AA?$CB?$AA?$DN?$AA?5?$AAn?$AAo?$AAd?$AAe?$AA?9?$AA?$DO?$AAG?$AAe?$AAt?$AAN?$AAe?$AAx?$AAt@ 1015b048     physics:dgBroadPhaseCollision.obj
 0002:00004090       ??_C@_1BI@IFCFADMF@?$AAm?$AA_?$AAa?$AAl?$AAl?$AAo?$AAc?$AAa?$AAt?$AAo?$AAr?$AA?$AA@ 1015b090     physics:dgBroadPhaseCollision.obj
 0002:000040a8       ??_7dgSolverWorlkerThreads@@6B@ 1015b0a8     physics:dgWorldDynamicUpdate.obj
 0002:000040b0       ??_7dgParallelSolverClear@@6B@ 1015b0b0     physics:dgWorldDynamicUpdate.obj
 0002:000040b8       ??_7dgParallelSolverBodyInertia@@6B@ 1015b0b8     physics:dgWorldDynamicUpdate.obj
 0002:000040c0       ??_7dgParallelSolverUpdateVeloc@@6B@ 1015b0c0     physics:dgWorldDynamicUpdate.obj
 0002:000040c8       ??_7dgParallelSolverUpdateForce@@6B@ 1015b0c8     physics:dgWorldDynamicUpdate.obj
 0002:000040d0       ??_7dgParallelSolverCalculateForces@@6B@ 1015b0d0     physics:dgWorldDynamicUpdate.obj
 0002:000040d8       ??_7dgParallelSolverInitInternalForces@@6B@ 1015b0d8     physics:dgWorldDynamicUpdate.obj
 0002:000040e0       ??_7dgParallelSolverBuildJacobianRows@@6B@ 1015b0e0     physics:dgWorldDynamicUpdate.obj
 0002:000040e8       ??_7dgParallelSolverJointAcceleration@@6B@ 1015b0e8     physics:dgWorldDynamicUpdate.obj
 0002:000040f0       ??_7dgParallelSolverInitFeedbackUpdate@@6B@ 1015b0f0     physics:dgWorldDynamicUpdate.obj
 0002:000040f8       ??_7dgParallelSolverBuildJacobianMatrix@@6B@ 1015b0f8     physics:dgWorldDynamicUpdate.obj
 0002:00004100       __real@3fa99999a0000000    1015b100     physics:dgWorldDynamicUpdate.obj
 0002:00004108       ??_C@_1GA@MACEKHJI@?$AA?$CB?$AAm?$AA_?$AAi?$AAs?$AAl?$AAa?$AAn?$AAd?$AAA?$AAr?$AAr?$AAa?$AAy?$AA?$FL?$AAm?$AA_?$AAi?$AAs?$AAl?$AAa?$AAn?$AAd?$AAs?$AA?$FN?$AA?4?$AAm?$AA_?$AAi?$AAs?$AAC?$AAo@ 1015b108     physics:dgWorldDynamicUpdate.obj
 0002:00004168       ??_C@_1HI@NNFFOOPN@?$AAn?$AAo?$AAd?$AAe?$AA?9?$AA?$DO?$AAG?$AAe?$AAt?$AAI?$AAn?$AAf?$AAo?$AA?$CI?$AA?$CJ?$AA?4?$AAG?$AAe?$AAt?$AAB?$AAo?$AAd?$AAy?$AA?$CI?$AA?$CJ?$AA?9?$AA?$DO?$AAm?$AA_?$AAi?$AAn?$AAv@ 1015b168     physics:dgWorldDynamicUpdate.obj
 0002:000041e0       ??_C@_1FM@KCOJDKEJ@?$AA?4?$AA?4?$AA?2?$AA?4?$AA?4?$AA?2?$AA?4?$AA?4?$AA?2?$AAs?$AAd?$AAk?$AA?2?$AAp?$AAh?$AAy?$AAs?$AAi?$AAc?$AAs?$AA?2?$AAd?$AAg?$AAW?$AAo?$AAr?$AAl?$AAd?$AAD?$AAy?$AAn?$AAa@ 1015b1e0     physics:dgWorldDynamicUpdate.obj
 0002:00004240       ??_C@_1HO@PLNBCEKC@?$AAm?$AAe?$AA?4?$AAG?$AAe?$AAt?$AAF?$AAi?$AAr?$AAs?$AAt?$AA?$CI?$AA?$CJ?$AA?9?$AA?$DO?$AAG?$AAe?$AAt?$AAI?$AAn?$AAf?$AAo?$AA?$CI?$AA?$CJ?$AA?4?$AAG?$AAe?$AAt?$AAB?$AAo?$AAd?$AAy@ 1015b240     physics:dgWorldDynamicUpdate.obj
 0002:000042c0       ??_C@_1BO@JBEOGDBL@?$AAp?$AAa?$AAi?$AAr?$AA?4?$AAm?$AA_?$AAc?$AAo?$AAn?$AAt?$AAa?$AAc?$AAt?$AA?$AA@ 1015b2c0     physics:dgWorldDynamicUpdate.obj
 0002:000042e0       ??_C@_1CC@NMGBAKDJ@?$AAc?$AAo?$AAn?$AAt?$AAa?$AAc?$AAt?$AA?9?$AA?$DO?$AAm?$AA_?$AAb?$AAo?$AAd?$AAy?$AA1?$AA?$AA@ 1015b2e0     physics:dgWorldDynamicUpdate.obj
 0002:00004304       ??_C@_1CC@GENNGNFM@?$AAc?$AAo?$AAn?$AAt?$AAa?$AAc?$AAt?$AA?9?$AA?$DO?$AAm?$AA_?$AAb?$AAo?$AAd?$AAy?$AA0?$AA?$AA@ 1015b304     physics:dgWorldDynamicUpdate.obj
 0002:00004328       __real@4010000000000000    1015b328     physics:dgWorldDynamicUpdate.obj
 0002:00004330       ??_C@_1DA@BOHIOHFH@?$AAd?$AAi?$AAs?$AAt?$AA?5?$AA?$DO?$AA?5?$AAd?$AAg?$AAF?$AAl?$AAo?$AAa?$AAt?$AA3?$AA2?$AA?5?$AA?$CI?$AA0?$AA?4?$AA0?$AAf?$AA?$CJ?$AA?$AA@ 1015b330     physics:dgWorldDynamicUpdate.obj
 0002:00004360       ??_C@_1EI@KEEBECEA@?$AAb?$AAo?$AAd?$AAy?$AA?9?$AA?$DO?$AAm?$AA_?$AAm?$AAa?$AAs?$AAs?$AA?4?$AAm?$AA_?$AAw?$AA?5?$AA?$DO?$AA?5?$AAd?$AAg?$AAF?$AAl?$AAo?$AAa?$AAt?$AA3?$AA2?$AA?5?$AA?$CI?$AA0?$AA?4@ 1015b360     physics:dgWorldDynamicUpdate.obj
 0002:000043a8       ??_C@_1FC@PBDLAJMC@?$AA?$CI?$AAd?$AAg?$AAU?$AAn?$AAs?$AAi?$AAg?$AAn?$AAe?$AAd?$AA6?$AA4?$AA?5?$AA?$CI?$AAm?$AA_?$AAb?$AAo?$AAd?$AAy?$AAA?$AAr?$AAr?$AAa?$AAy?$AA?$CJ?$AA?5?$AA?$CG?$AA?5?$AA0?$AAx@ 1015b3a8     physics:dgWorldDynamicUpdate.obj
 0002:00004400       ??_C@_1FG@NKLDEJCN@?$AA?$CI?$AAd?$AAg?$AAU?$AAn?$AAs?$AAi?$AAg?$AAn?$AAe?$AAd?$AA6?$AA4?$AA?5?$AA?$CI?$AAm?$AA_?$AAi?$AAs?$AAl?$AAa?$AAn?$AAd?$AAA?$AAr?$AAr?$AAa?$AAy?$AA?$CJ?$AA?5?$AA?$CG?$AA?5@ 1015b400     physics:dgWorldDynamicUpdate.obj
 0002:00004458       ??_C@_1FM@GMGJJDEK@?$AA?$CI?$AAd?$AAg?$AAU?$AAn?$AAs?$AAi?$AAg?$AAn?$AAe?$AAd?$AA6?$AA4?$AA?$CI?$AAm?$AA_?$AAc?$AAo?$AAn?$AAs?$AAt?$AAr?$AAa?$AAi?$AAn?$AAt?$AAA?$AAr?$AAr?$AAa?$AAy?$AA?$CJ@ 1015b458     physics:dgWorldDynamicUpdate.obj
 0002:000044b8       ??_C@_1FC@IOCBOGAA@?$AA?$CI?$AAd?$AAg?$AAU?$AAn?$AAs?$AAi?$AAg?$AAn?$AAe?$AAd?$AA6?$AA4?$AA?$CI?$AAa?$AAc?$AAc?$AAe?$AAl?$AAI?$AAs?$AAM?$AAo?$AAt?$AAo?$AAr?$AA?$CJ?$AA?5?$AA?$CG?$AA?5?$AA0?$AAx@ 1015b4b8     physics:dgWorldDynamicUpdate.obj
 0002:00004510       ??_C@_1FK@NFABCNJH@?$AA?$CI?$AAd?$AAg?$AAU?$AAn?$AAs?$AAi?$AAg?$AAn?$AAe?$AAd?$AA6?$AA4?$AA?$CI?$AAn?$AAo?$AAr?$AAm?$AAa?$AAl?$AAF?$AAo?$AAr?$AAc?$AAe?$AAI?$AAn?$AAd?$AAe?$AAx?$AA?$CJ?$AA?5@ 1015b510     physics:dgWorldDynamicUpdate.obj
 0002:00004570       ??_C@_1FE@HDMNFCD@?$AA?$CI?$AAd?$AAg?$AAU?$AAn?$AAs?$AAi?$AAg?$AAn?$AAe?$AAd?$AA6?$AA4?$AA?$CI?$AAf?$AAo?$AAr?$AAc?$AAe?$AAF?$AAe?$AAe?$AAd?$AAb?$AAa?$AAc?$AAk?$AA?$CJ?$AA?5?$AA?$CG?$AA?5?$AA0@ 1015b570     physics:dgWorldDynamicUpdate.obj
 0002:000045c8       ??_C@_1HC@LLELBKDC@?$AA?$CI?$AAd?$AAg?$AAU?$AAn?$AAs?$AAi?$AAg?$AAn?$AAe?$AAd?$AA6?$AA4?$AA?$CI?$AAu?$AAp?$AAp?$AAe?$AAr?$AAB?$AAo?$AAu?$AAn?$AAd?$AAF?$AAr?$AAi?$AAc?$AAt?$AAi?$AAo?$AAn@ 1015b5c8     physics:dgWorldDynamicUpdate.obj
 0002:00004640       ??_C@_1HC@GBFJHIJK@?$AA?$CI?$AAd?$AAg?$AAU?$AAn?$AAs?$AAi?$AAg?$AAn?$AAe?$AAd?$AA6?$AA4?$AA?$CI?$AAl?$AAo?$AAw?$AAe?$AAr?$AAB?$AAo?$AAu?$AAn?$AAd?$AAF?$AAr?$AAi?$AAc?$AAt?$AAi?$AAo?$AAn@ 1015b640     physics:dgWorldDynamicUpdate.obj
 0002:000046b8       ??_C@_1GC@HLCKOBKB@?$AA?$CI?$AAd?$AAg?$AAU?$AAn?$AAs?$AAi?$AAg?$AAn?$AAe?$AAd?$AA6?$AA4?$AA?$CI?$AAp?$AAe?$AAn?$AAe?$AAt?$AAr?$AAa?$AAt?$AAi?$AAo?$AAn?$AAS?$AAt?$AAi?$AAf?$AAf?$AAn?$AAe@ 1015b6b8     physics:dgWorldDynamicUpdate.obj
 0002:00004720       ??_C@_1FI@PJDHHJIM@?$AA?$CI?$AAd?$AAg?$AAU?$AAn?$AAs?$AAi?$AAg?$AAn?$AAe?$AAd?$AA6?$AA4?$AA?$CI?$AAc?$AAo?$AAo?$AAr?$AAd?$AAe?$AAn?$AAa?$AAt?$AAe?$AAA?$AAc?$AAc?$AAe?$AAl?$AA?$CJ?$AA?5?$AA?$CG@ 1015b720     physics:dgWorldDynamicUpdate.obj
 0002:00004778       ??_C@_1FA@HKOLNDGP@?$AA?$CI?$AAd?$AAg?$AAU?$AAn?$AAs?$AAi?$AAg?$AAn?$AAe?$AAd?$AA6?$AA4?$AA?$CI?$AAi?$AAn?$AAv?$AAD?$AAJ?$AAM?$AAi?$AAn?$AAv?$AAJ?$AAt?$AA?$CJ?$AA?5?$AA?$CG?$AA?5?$AA0?$AAx?$AA0@ 1015b778     physics:dgWorldDynamicUpdate.obj
 0002:000047c8       ??_C@_1FA@NAGEEDJL@?$AA?$CI?$AAd?$AAg?$AAU?$AAn?$AAs?$AAi?$AAg?$AAn?$AAe?$AAd?$AA6?$AA4?$AA?$CI?$AAr?$AAe?$AAs?$AAt?$AAi?$AAt?$AAu?$AAt?$AAi?$AAo?$AAn?$AA?$CJ?$AA?5?$AA?$CG?$AA?5?$AA0?$AAx?$AA0@ 1015b7c8     physics:dgWorldDynamicUpdate.obj
 0002:00004818       ??_C@_1FA@OOKELIPG@?$AA?$CI?$AAd?$AAg?$AAU?$AAn?$AAs?$AAi?$AAg?$AAn?$AAe?$AAd?$AA6?$AA4?$AA?$CI?$AAp?$AAe?$AAn?$AAe?$AAt?$AAr?$AAa?$AAt?$AAi?$AAo?$AAn?$AA?$CJ?$AA?5?$AA?$CG?$AA?5?$AA0?$AAx?$AA0@ 1015b818     physics:dgWorldDynamicUpdate.obj
 0002:00004868       ??_C@_1EK@FNIAMEON@?$AA?$CI?$AAd?$AAg?$AAU?$AAn?$AAs?$AAi?$AAg?$AAn?$AAe?$AAd?$AA6?$AA4?$AA?$CI?$AAd?$AAi?$AAa?$AAg?$AAD?$AAa?$AAm?$AAp?$AA?$CJ?$AA?5?$AA?$CG?$AA?5?$AA0?$AAx?$AA0?$AAf?$AA?$CJ?$AA?5@ 1015b868     physics:dgWorldDynamicUpdate.obj
 0002:000048b8       ??_C@_1EO@CODLCIAH@?$AA?$CI?$AAd?$AAg?$AAU?$AAn?$AAs?$AAi?$AAg?$AAn?$AAe?$AAd?$AA6?$AA4?$AA?$CI?$AAd?$AAe?$AAl?$AAt?$AAa?$AAF?$AAo?$AAr?$AAc?$AAe?$AA?$CJ?$AA?5?$AA?$CG?$AA?5?$AA0?$AAx?$AA0?$AAf@ 1015b8b8     physics:dgWorldDynamicUpdate.obj
 0002:00004908       ??_C@_1EO@IFCFLNAO@?$AA?$CI?$AAd?$AAg?$AAU?$AAn?$AAs?$AAi?$AAg?$AAn?$AAe?$AAd?$AA6?$AA4?$AA?$CI?$AAd?$AAe?$AAl?$AAt?$AAa?$AAA?$AAc?$AAc?$AAe?$AAl?$AA?$CJ?$AA?5?$AA?$CG?$AA?5?$AA0?$AAx?$AA0?$AAf@ 1015b908     physics:dgWorldDynamicUpdate.obj
 0002:00004958       ??_C@_1EE@HFLOCGIE@?$AA?$CI?$AAd?$AAg?$AAU?$AAn?$AAs?$AAi?$AAg?$AAn?$AAe?$AAd?$AA6?$AA4?$AA?$CI?$AAa?$AAc?$AAc?$AAe?$AAl?$AA?$CJ?$AA?5?$AA?$CG?$AA?5?$AA0?$AAx?$AA0?$AAf?$AA?$CJ?$AA?5?$AA?$DN?$AA?$DN?$AA?5@ 1015b958     physics:dgWorldDynamicUpdate.obj
 0002:000049a0       ??_C@_1EE@NOKALDIN@?$AA?$CI?$AAd?$AAg?$AAU?$AAn?$AAs?$AAi?$AAg?$AAn?$AAe?$AAd?$AA6?$AA4?$AA?$CI?$AAf?$AAo?$AAr?$AAc?$AAe?$AA?$CJ?$AA?5?$AA?$CG?$AA?5?$AA0?$AAx?$AA0?$AAf?$AA?$CJ?$AA?5?$AA?$DN?$AA?$DN?$AA?5@ 1015b9a0     physics:dgWorldDynamicUpdate.obj
 0002:000049e8       ??_C@_1EE@FODGDJML@?$AA?$CI?$AAd?$AAg?$AAU?$AAn?$AAs?$AAi?$AAg?$AAn?$AAe?$AAd?$AA6?$AA4?$AA?$CI?$AAJ?$AAM?$AAi?$AAn?$AAv?$AA?$CJ?$AA?5?$AA?$CG?$AA?5?$AA0?$AAx?$AA0?$AAf?$AA?$CJ?$AA?5?$AA?$DN?$AA?$DN?$AA?5@ 1015b9e8     physics:dgWorldDynamicUpdate.obj
 0002:00004a2c       ??_C@_1DO@OKIJPGOM@?$AA?$CI?$AAd?$AAg?$AAU?$AAn?$AAs?$AAi?$AAg?$AAn?$AAe?$AAd?$AA6?$AA4?$AA?$CI?$AAJ?$AAt?$AA?$CJ?$AA?5?$AA?$CG?$AA?5?$AA0?$AAx?$AA0?$AAf?$AA?$CJ?$AA?5?$AA?$DN?$AA?$DN?$AA?5?$AA0?$AA?$AA@ 1015ba2c     physics:dgWorldDynamicUpdate.obj
 0002:00004a70       ??_C@_1FE@NBMMFAIG@?$AA?$CI?$AAd?$AAg?$AAU?$AAn?$AAs?$AAi?$AAg?$AAn?$AAe?$AAd?$AA6?$AA4?$AA?$CI?$AAi?$AAn?$AAt?$AAe?$AAr?$AAn?$AAa?$AAl?$AAV?$AAe?$AAl?$AAo?$AAc?$AA?$CJ?$AA?5?$AA?$CG?$AA?5?$AA0@ 1015ba70     physics:dgWorldDynamicUpdate.obj
 0002:00004ac8       ??_C@_1FG@NLEJHBJI@?$AA?$CI?$AAd?$AAg?$AAU?$AAn?$AAs?$AAi?$AAg?$AAn?$AAe?$AAd?$AA6?$AA4?$AA?$CI?$AAi?$AAn?$AAt?$AAe?$AAr?$AAn?$AAa?$AAl?$AAF?$AAo?$AAr?$AAc?$AAe?$AAs?$AA?$CJ?$AA?5?$AA?$CG?$AA?5@ 1015bac8     physics:dgWorldDynamicUpdate.obj
 0002:00004b20       ??_C@_1OO@LIGLDACN@?$AA?$CI?$AA?$CI?$AA?$CI?$AAd?$AAg?$AAI?$AAn?$AAt?$AA8?$AA?5?$AA?$CK?$AA?$CJ?$AA?$CG?$AAt?$AAr?$AAe?$AAa?$AAd?$AAL?$AAo?$AAc?$AAk?$AAs?$AA?$FL?$AAn?$AAe?$AAw?$AAC?$AAo?$AAu?$AAn?$AAt@ 1015bb20     physics:dgWorldDynamicUpdate.obj
 0002:00004c10       ??_C@_1CI@OIEHBPCD@?$AAc?$AAo?$AAn?$AAs?$AAt?$AAr?$AAa?$AAi?$AAn?$AAt?$AA?9?$AA?$DO?$AAm?$AA_?$AAb?$AAo?$AAd?$AAy?$AA1?$AA?$AA@ 1015bc10     physics:dgWorldDynamicUpdate.obj
 0002:00004c38       ??_C@_1CI@FAPLHIEG@?$AAc?$AAo?$AAn?$AAs?$AAt?$AAr?$AAa?$AAi?$AAn?$AAt?$AA?9?$AA?$DO?$AAm?$AA_?$AAb?$AAo?$AAd?$AAy?$AA0?$AA?$AA@ 1015bc38     physics:dgWorldDynamicUpdate.obj
 0002:00004c60       ??_C@_1MO@CFIABINL@?$AA?$CI?$AAc?$AAo?$AAn?$AAs?$AAt?$AAr?$AAa?$AAi?$AAn?$AAt?$AA?9?$AA?$DO?$AAm?$AA_?$AAb?$AAo?$AAd?$AAy?$AA0?$AA?5?$AA?$DN?$AA?$DN?$AA?5?$AAm?$AA_?$AAw?$AAo?$AAr?$AAl?$AAd?$AA?9@ 1015bc60     physics:dgWorldDynamicUpdate.obj
 0002:00004d30       ??_C@_1CG@PJILLGLK@?$AAb?$AAo?$AAd?$AAy?$AA?9?$AA?$DO?$AAm?$AA_?$AAm?$AAa?$AAs?$AAt?$AAe?$AAr?$AAN?$AAo?$AAd?$AAe?$AA?$AA@ 1015bd30     physics:dgWorldDynamicUpdate.obj
 0002:00004d58       ??_C@_1FC@BNNDKFKK@?$AAd?$AAg?$AAI?$AAn?$AAt?$AA3?$AA2?$AA?5?$AA?$CI?$AAb?$AAo?$AAd?$AAy?$AA?9?$AA?$DO?$AAm?$AA_?$AAd?$AAy?$AAn?$AAa?$AAm?$AAi?$AAc?$AAs?$AAL?$AAr?$AAu?$AA?$CJ?$AA?5?$AA?$DN?$AA?$DN@ 1015bd58     physics:dgWorldDynamicUpdate.obj
 0002:00004db0       ??_C@_1HO@DDICFMNC@?$AAd?$AAg?$AAI?$AAn?$AAt?$AA3?$AA2?$AA?5?$AA?$CI?$AAm?$AA_?$AAw?$AAo?$AAr?$AAl?$AAd?$AA?9?$AA?$DO?$AAm?$AA_?$AAs?$AAe?$AAn?$AAt?$AAi?$AAo?$AAn?$AAe?$AAl?$AAB?$AAo?$AAd@ 1015bdb0     physics:dgWorldDynamicUpdate.obj
 0002:00004e30       ??_C@_1EO@KPEFEBLO@?$AAm?$AA_?$AAw?$AAo?$AAr?$AAl?$AAd?$AA?9?$AA?$DO?$AAm?$AA_?$AAs?$AAe?$AAn?$AAt?$AAi?$AAo?$AAn?$AAe?$AAl?$AAB?$AAo?$AAd?$AAy?$AA?9?$AA?$DO?$AAm?$AA_?$AAi?$AAn?$AAd?$AAe@ 1015be30     physics:dgWorldDynamicUpdate.obj
 0002:00004e80       ??_C@_1BK@JLEADMJE@?$AAh?$AAe?$AAa?$AAv?$AAi?$AAe?$AAs?$AAt?$AAB?$AAo?$AAd?$AAy?$AA?$AA@ 1015be80     physics:dgWorldDynamicUpdate.obj
 0002:00004ea0       ??_C@_1FG@MENMJKFD@?$AAd?$AAg?$AAI?$AAn?$AAt?$AA3?$AA2?$AA?5?$AA?$CI?$AAb?$AAo?$AAd?$AAy?$AA?9?$AA?$DO?$AAm?$AA_?$AAd?$AAy?$AAn?$AAa?$AAm?$AAi?$AAc?$AAs?$AAL?$AAr?$AAu?$AA?$CJ?$AA?5?$AA?$DN?$AA?$DN@ 1015bea0     physics:dgWorldDynamicUpdate.obj
 0002:00004ef8       ??_C@_1GC@OPNEJCKO@?$AAd?$AAg?$AAI?$AAn?$AAt?$AA3?$AA2?$AA?5?$AA?$CI?$AAc?$AAo?$AAn?$AAs?$AAt?$AAr?$AAa?$AAi?$AAn?$AAt?$AA?9?$AA?$DO?$AAm?$AA_?$AAd?$AAy?$AAn?$AAa?$AAm?$AAi?$AAc?$AAs?$AAL@ 1015bef8     physics:dgWorldDynamicUpdate.obj
 0002:00004f5c       ??_C@_1DA@EOOLEIEM@?$AAb?$AAo?$AAd?$AAy?$AA?5?$AA?$DN?$AA?$DN?$AA?5?$AAc?$AAe?$AAl?$AAl?$AA?4?$AAm?$AA_?$AAb?$AAo?$AAd?$AAy?$AAN?$AAo?$AAd?$AAe?$AA?$AA@ 1015bf5c     physics:dgWorldDynamicUpdate.obj
 0002:00004f8c       ??_C@_1CM@LBCGOMJK@?$AAs?$AAr?$AAc?$AAB?$AAo?$AAd?$AAy?$AA?9?$AA?$DO?$AAm?$AA_?$AAm?$AAa?$AAs?$AAt?$AAe?$AAr?$AAN?$AAo?$AAd?$AAe?$AA?$AA@ 1015bf8c     physics:dgWorldDynamicUpdate.obj
 0002:00004fb8       ??_C@_1FI@PPFGEKKI@?$AAd?$AAg?$AAI?$AAn?$AAt?$AA3?$AA2?$AA?5?$AA?$CI?$AAs?$AAr?$AAc?$AAB?$AAo?$AAd?$AAy?$AA?9?$AA?$DO?$AAm?$AA_?$AAd?$AAy?$AAn?$AAa?$AAm?$AAi?$AAc?$AAs?$AAL?$AAr?$AAu?$AA?$CJ@ 1015bfb8     physics:dgWorldDynamicUpdate.obj
 0002:00005010       ??_C@_1FE@KDFNNLGP@?$AAs?$AAr?$AAc?$AAB?$AAo?$AAd?$AAy?$AA?9?$AA?$DO?$AAm?$AA_?$AAi?$AAn?$AAv?$AAM?$AAa?$AAs?$AAs?$AA?4?$AAm?$AA_?$AAw?$AA?5?$AA?$DO?$AA?5?$AAd?$AAg?$AAF?$AAl?$AAo?$AAa?$AAt@ 1015c010     physics:dgWorldDynamicUpdate.obj
 0002:00005064       ??_C@_1BA@KHPBLNIB@?$AAs?$AAr?$AAc?$AAB?$AAo?$AAd?$AAy?$AA?$AA@ 1015c064     physics:dgWorldDynamicUpdate.obj
 0002:00005078       __real@404e000000000000    1015c078     physics:dgWorldDynamicUpdate.obj
 0002:00005080       __real@3fefff2e40000000    1015c080     physics:dgWorldDynamicUpdate.obj
 0002:00005088       __real@3fecccccc0000000    1015c088     physics:dgWorldDynamicUpdate.obj
 0002:00005090       ??_C@_1FE@LGCGGBMH@?$AA?$CI?$AAr?$AAo?$AAw?$AAC?$AAo?$AAu?$AAn?$AAt?$AA?5?$AA?$CG?$AA?5?$AA?$CI?$AAD?$AAG?$AA_?$AAS?$AAI?$AAM?$AAD?$AA_?$AAW?$AAO?$AAR?$AAD?$AA_?$AAS?$AAI?$AAZ?$AAE?$AA?5?$AA?9@ 1015c090     physics:dgWorldDynamicUpdate.obj
 0002:000050e8       ??_C@_1HE@PJNFGLMO@?$AAc?$AAo?$AAn?$AAs?$AAt?$AAr?$AAa?$AAi?$AAn?$AAt?$AAP?$AAa?$AAr?$AAa?$AAm?$AAs?$AA?4?$AAm?$AA_?$AAj?$AAo?$AAi?$AAn?$AAt?$AAS?$AAt?$AAi?$AAf?$AAf?$AAn?$AAe?$AAs@ 1015c0e8     physics:dgWorldDynamicUpdate.obj
 0002:00005160       ??_C@_1HA@PKOCAFKK@?$AAc?$AAo?$AAn?$AAs?$AAt?$AAr?$AAa?$AAi?$AAn?$AAt?$AAP?$AAa?$AAr?$AAa?$AAm?$AAs?$AA?4?$AAm?$AA_?$AAj?$AAo?$AAi?$AAn?$AAt?$AAS?$AAt?$AAi?$AAf?$AAf?$AAn?$AAe?$AAs@ 1015c160     physics:dgWorldDynamicUpdate.obj
 0002:000051d0       ??_C@_1FO@BOCJMMGO@?$AAc?$AAo?$AAn?$AAs?$AAt?$AAr?$AAa?$AAi?$AAn?$AAt?$AAP?$AAa?$AAr?$AAa?$AAm?$AAs?$AA?4?$AAm?$AA_?$AAf?$AAo?$AAr?$AAc?$AAe?$AAB?$AAo?$AAu?$AAn?$AAd?$AAs?$AA?$FL?$AAi@ 1015c1d0     physics:dgWorldDynamicUpdate.obj
 0002:00005230       ??_C@_1EO@JMBCDEMB@?$AAc?$AAo?$AAn?$AAs?$AAt?$AAr?$AAa?$AAi?$AAn?$AAt?$AA?9?$AA?$DO?$AAm?$AA_?$AAi?$AAn?$AAd?$AAe?$AAx?$AA?5?$AA?$DN?$AA?$DN?$AA?5?$AAd?$AAg?$AAU?$AAn?$AAs?$AAi?$AAg?$AAn?$AAe@ 1015c230     physics:dgWorldDynamicUpdate.obj
 0002:00005280       ??_C@_1DM@OEHDKDHA@?$AAd?$AAo?$AAf?$AA?5?$AA?$DM?$AA?$DN?$AA?5?$AAD?$AAG?$AA_?$AAC?$AAO?$AAN?$AAS?$AAT?$AAR?$AAA?$AAI?$AAN?$AAT?$AA_?$AAM?$AAA?$AAX?$AA_?$AAR?$AAO?$AAW?$AAS?$AA?$AA@ 1015c280     physics:dgWorldDynamicUpdate.obj
 0002:000052bc       ??_C@_1DA@KODFPJGN@?$AAd?$AAi?$AAa?$AAg?$AA?5?$AA?$DO?$AA?5?$AAd?$AAg?$AAF?$AAl?$AAo?$AAa?$AAt?$AA3?$AA2?$AA?5?$AA?$CI?$AA0?$AA?4?$AA0?$AAf?$AA?$CJ?$AA?$AA@ 1015c2bc     physics:dgWorldDynamicUpdate.obj
 0002:000052f0       ??_C@_1EK@GHHCKKMO@?$AAd?$AAi?$AAa?$AAg?$AAD?$AAa?$AAm?$AAp?$AA?$FL?$AAi?$AAn?$AAd?$AAe?$AAx?$AA?$FN?$AA?5?$AA?$DM?$AA?$DN?$AA?5?$AAd?$AAg?$AAF?$AAl?$AAo?$AAa?$AAt?$AA3?$AA2?$AA?$CI?$AA1?$AA0?$AA0@ 1015c2f0     physics:dgWorldDynamicUpdate.obj
 0002:00005340       ??_C@_1EG@MPFCENIH@?$AAd?$AAi?$AAa?$AAg?$AAD?$AAa?$AAm?$AAp?$AA?$FL?$AAi?$AAn?$AAd?$AAe?$AAx?$AA?$FN?$AA?5?$AA?$DO?$AA?$DN?$AA?5?$AAd?$AAg?$AAF?$AAl?$AAo?$AAa?$AAt?$AA3?$AA2?$AA?$CI?$AA0?$AA?4?$AA1@ 1015c340     physics:dgWorldDynamicUpdate.obj
 0002:00005388       ??_C@_1BO@OKOLCLND@?$AAm?$AA1?$AA?5?$AA?$DM?$AA?5?$AAb?$AAo?$AAd?$AAy?$AAC?$AAo?$AAu?$AAn?$AAt?$AA?$AA@ 1015c388     physics:dgWorldDynamicUpdate.obj
 0002:000053a8       ??_C@_1BA@JCNCAMPO@?$AAm?$AA1?$AA?5?$AA?$DO?$AA?$DN?$AA?5?$AA0?$AA?$AA@ 1015c3a8     physics:dgWorldDynamicUpdate.obj
 0002:000053b8       ??_C@_1BO@OLFONGMO@?$AAm?$AA0?$AA?5?$AA?$DM?$AA?5?$AAb?$AAo?$AAd?$AAy?$AAC?$AAo?$AAu?$AAn?$AAt?$AA?$AA@ 1015c3b8     physics:dgWorldDynamicUpdate.obj
 0002:000053d8       ??_C@_1BA@PNNONII@?$AAm?$AA0?$AA?5?$AA?$DO?$AA?$DN?$AA?5?$AA0?$AA?$AA@ 1015c3d8     physics:dgWorldDynamicUpdate.obj
 0002:000053e8       ??_C@_1EO@BLOMMCIF@?$AAb?$AAo?$AAd?$AAy?$AA?9?$AA?$DO?$AAm?$AA_?$AAi?$AAn?$AAv?$AAM?$AAa?$AAs?$AAs?$AA?4?$AAm?$AA_?$AAw?$AA?5?$AA?$DO?$AA?5?$AAd?$AAg?$AAF?$AAl?$AAo?$AAa?$AAt?$AA3?$AA2?$AA?5@ 1015c3e8     physics:dgWorldDynamicUpdate.obj
 0002:00005438       ??_C@_1KE@DLJEBMOD@?$AA?$CI?$AAb?$AAo?$AAd?$AAy?$AAA?$AAr?$AAr?$AAa?$AAy?$AA?$FL?$AA0?$AA?$FN?$AA?4?$AAm?$AA_?$AAb?$AAo?$AAd?$AAy?$AA?9?$AA?$DO?$AAm?$AA_?$AAa?$AAl?$AAp?$AAh?$AAa?$AA?5?$AA?$CF?$AA?5@ 1015c438     physics:dgWorldDynamicUpdate.obj
 0002:000054e0       ??_C@_1KE@NPJLDACM@?$AA?$CI?$AAb?$AAo?$AAd?$AAy?$AAA?$AAr?$AAr?$AAa?$AAy?$AA?$FL?$AA0?$AA?$FN?$AA?4?$AAm?$AA_?$AAb?$AAo?$AAd?$AAy?$AA?9?$AA?$DO?$AAm?$AA_?$AAa?$AAc?$AAc?$AAe?$AAl?$AA?5?$AA?$CF?$AA?5@ 1015c4e0     physics:dgWorldDynamicUpdate.obj
 0002:00005584       ??_C@_1DA@HENMIEMC@?$AAi?$AAs?$AAl?$AAa?$AAn?$AAd?$AA?4?$AAm?$AA_?$AAb?$AAo?$AAd?$AAy?$AAC?$AAo?$AAu?$AAn?$AAt?$AA?5?$AA?$DO?$AA?$DN?$AA?5?$AA2?$AA?$AA@ 1015c584     physics:dgWorldDynamicUpdate.obj
 0002:000055b4       ??_C@_1CE@FDEPKLL@?$AAd?$AAg?$AAC?$AAh?$AAe?$AAc?$AAk?$AAF?$AAl?$AAo?$AAa?$AAt?$AA?$CI?$AAv?$AAa?$AAl?$AA?$CJ?$AA?$AA@ 1015c5b4     physics:dgWorldDynamicUpdate.obj
 0002:000055d8       ??_C@_1O@PJJOBBLK@?$AAi?$AA?5?$AA?$CB?$AA?$DN?$AA?5?$AAj?$AA?$AA@ 1015c5d8     physics:dgWorldDynamicUpdate.obj
 0002:000055e8       __real@3c670ef540000000    1015c5e8     physics:dgWorldDynamicUpdate.obj
 0002:000055f0       ??_C@_1DA@EPCBADKC@?$AAa?$AAk?$AAD?$AAe?$AAn?$AA?5?$AA?$DO?$AA?5?$AAd?$AAg?$AAF?$AAl?$AAo?$AAa?$AAt?$AA3?$AA2?$AA?$CI?$AA0?$AA?4?$AA0?$AAf?$AA?$CJ?$AA?$AA@ 1015c5f0     physics:dgWorldDynamicUpdate.obj
 0002:00005620       ??_C@_1CO@ELIGDHHP@?$AAd?$AAg?$AAC?$AAh?$AAe?$AAc?$AAk?$AAF?$AAl?$AAo?$AAa?$AAt?$AA?$CI?$AAa?$AAc?$AAc?$AAe?$AAl?$AA?$FL?$AAk?$AA?$FN?$AA?$CJ?$AA?$AA@ 1015c620     physics:dgWorldDynamicUpdate.obj
 0002:00005650       ??_C@_1CO@JLBPDGMO@?$AAd?$AAg?$AAC?$AAh?$AAe?$AAc?$AAk?$AAF?$AAl?$AAo?$AAa?$AAt?$AA?$CI?$AAf?$AAo?$AAr?$AAc?$AAe?$AA?$FL?$AAk?$AA?$FN?$AA?$CJ?$AA?$AA@ 1015c650     physics:dgWorldDynamicUpdate.obj
 0002:00005680       ??_C@_1EA@IABBDMFB@?$AAa?$AAc?$AAt?$AAi?$AAv?$AAe?$AAR?$AAo?$AAw?$AA?$FL?$AAk?$AA?$FN?$AA?5?$AA?$DO?$AA?5?$AAd?$AAg?$AAF?$AAl?$AAo?$AAa?$AAt?$AA3?$AA2?$AA?5?$AA?$CI?$AA0?$AA?4?$AA0?$AAf?$AA?$CJ?$AA?$AA@ 1015c680     physics:dgWorldDynamicUpdate.obj
 0002:000056c0       ??_C@_1CO@FMKMOHBM@?$AAc?$AAl?$AAa?$AAm?$AAp?$AAe?$AAd?$AAF?$AAo?$AAr?$AAc?$AAe?$AAI?$AAn?$AAd?$AAe?$AAx?$AA?5?$AA?$CB?$AA?$DN?$AA?9?$AA1?$AA?$AA@ 1015c6c0     physics:dgWorldDynamicUpdate.obj
 0002:000056f0       __real@bc9cd2b2a0000000    1015c6f0     physics:dgWorldDynamicUpdate.obj
 0002:000056f8       ??_C@_1EM@CIBAJANJ@?$AAd?$AAg?$AAA?$AAb?$AAs?$AAf?$AA?5?$AA?$CI?$AAa?$AAk?$AAD?$AAe?$AAn?$AA?$CJ?$AA?5?$AA?$DO?$AA?$DN?$AA?5?$AAd?$AAg?$AAF?$AAl?$AAo?$AAa?$AAt?$AA3?$AA2?$AA?$CI?$AA1?$AA?4?$AA0?$AAe@ 1015c6f8     physics:dgWorldDynamicUpdate.obj
 0002:00005748       __real@3c9cd2b2a0000000    1015c748     physics:dgWorldDynamicUpdate.obj
 0002:00005750       ??_C@_1DC@EPPDFABA@?$AAa?$AAk?$AAD?$AAe?$AAn?$AA?5?$AA?$DO?$AA?5?$AAd?$AAg?$AAF?$AAl?$AAo?$AAa?$AAt?$AA3?$AA2?$AA?5?$AA?$CI?$AA0?$AA?4?$AA0?$AAf?$AA?$CJ?$AA?$AA@ 1015c750     physics:dgWorldDynamicUpdate.obj
 0002:00005788       ??_C@_1LG@EDCMBOML@?$AA?$CI?$AA?$CI?$AAk?$AA?5?$AA?$DM?$AA0?$AA?$CJ?$AA?5?$AA?$CG?$AA?$CG?$AA?5?$AA?$CI?$AAf?$AAo?$AAr?$AAc?$AAe?$AA?$FL?$AAk?$AA?$FN?$AA?5?$AA?$DN?$AA?$DN?$AA?5?$AAd?$AAg?$AAF?$AAl?$AAo?$AAa?$AAt?$AA3@ 1015c788     physics:dgWorldDynamicUpdate.obj
 0002:00005840       ??_C@_1FA@GAIJIFNM@?$AAc?$AAo?$AAn?$AAs?$AAt?$AAr?$AAa?$AAi?$AAn?$AAt?$AAA?$AAr?$AAr?$AAa?$AAy?$AA?$FL?$AA0?$AA?$FN?$AA?4?$AAm?$AA_?$AAa?$AAu?$AAt?$AAo?$AAP?$AAa?$AAi?$AAr?$AAs?$AAt?$AAa@ 1015c840     physics:dgWorldDynamicUpdate.obj
 0002:00005890       ??_C@_1DE@POBPAAI@?$AAa?$AAk?$AAN?$AAu?$AAm?$AA?5?$AA?$DO?$AA?$DN?$AA?5?$AAd?$AAg?$AAF?$AAl?$AAo?$AAa?$AAt?$AA3?$AA2?$AA?5?$AA?$CI?$AA0?$AA?4?$AA0?$AAf?$AA?$CJ?$AA?$AA@ 1015c890     physics:dgWorldDynamicUpdate.obj
 0002:000058c8       ??_C@_1EA@IAIADLFH@?$AAd?$AAg?$AAC?$AAh?$AAe?$AAc?$AAk?$AAF?$AAl?$AAo?$AAa?$AAt?$AA?$CI?$AAd?$AAe?$AAl?$AAt?$AAa?$AAF?$AAo?$AAr?$AAc?$AAe?$AA?$FL?$AAi?$AAn?$AAd?$AAe?$AAx?$AA?$FN?$AA?$CJ?$AA?$AA@ 1015c8c8     physics:dgWorldDynamicUpdate.obj
 0002:00005908       ??_C@_1BBG@IHGLHKEM@?$AA?$CI?$AAi?$AA?5?$AA?$CB?$AA?$DN?$AA?5?$AAc?$AAl?$AAa?$AAm?$AAp?$AAe?$AAd?$AAF?$AAo?$AAr?$AAc?$AAe?$AAJ?$AAo?$AAi?$AAn?$AAt?$AA?$CJ?$AA?5?$AA?$HM?$AA?$HM?$AA?5?$AA?$CB?$AA?$CI?$AA?$CI?$AAd@ 1015c908     physics:dgWorldDynamicUpdate.obj
 0002:00005a20       ??_C@_1BBG@LMPKHGHL@?$AA?$CI?$AAi?$AA?5?$AA?$CB?$AA?$DN?$AA?5?$AAc?$AAl?$AAa?$AAm?$AAp?$AAe?$AAd?$AAF?$AAo?$AAr?$AAc?$AAe?$AAJ?$AAo?$AAi?$AAn?$AAt?$AA?$CJ?$AA?5?$AA?$HM?$AA?$HM?$AA?5?$AA?$CB?$AA?$CI?$AA?$CI?$AAd@ 1015ca20     physics:dgWorldDynamicUpdate.obj
 0002:00005b38       __real@bee4f8b580000000    1015cb38     physics:dgWorldDynamicUpdate.obj
 0002:00005b40       ??_C@_1CO@IDCCMBOH@?$AAa?$AAk?$AA?5?$AA?$DO?$AA?$DN?$AA?5?$AAd?$AAg?$AAF?$AAl?$AAo?$AAa?$AAt?$AA3?$AA2?$AA?5?$AA?$CI?$AA0?$AA?4?$AA0?$AAf?$AA?$CJ?$AA?$AA@ 1015cb40     physics:dgWorldDynamicUpdate.obj
 0002:00005b70       ??_C@_1LI@BFKOOOMI@?$AA?$CI?$AA?$CI?$AAj?$AA?5?$AA?$DM?$AA?5?$AA0?$AA?$CJ?$AA?5?$AA?$CG?$AA?$CG?$AA?5?$AA?$CI?$AAf?$AAo?$AAr?$AAc?$AAe?$AA?$FL?$AAj?$AA?$FN?$AA?5?$AA?$DN?$AA?$DN?$AA?5?$AAd?$AAg?$AAF?$AAl?$AAo?$AAa?$AAt@ 1015cb70     physics:dgWorldDynamicUpdate.obj
 0002:00005c28       ??_C@_1CO@IHCMDHOB@?$AAd?$AAg?$AAC?$AAh?$AAe?$AAc?$AAk?$AAF?$AAl?$AAo?$AAa?$AAt?$AA?$CI?$AAa?$AAc?$AAc?$AAe?$AAl?$AA?$FL?$AAj?$AA?$FN?$AA?$CJ?$AA?$AA@ 1015cc28     physics:dgWorldDynamicUpdate.obj
 0002:00005c58       ??_C@_1GC@KHMDPBDC@?$AAa?$AAc?$AAt?$AAi?$AAv?$AAe?$AAR?$AAo?$AAw?$AA?$FL?$AAc?$AAl?$AAa?$AAm?$AAp?$AAe?$AAd?$AAF?$AAo?$AAr?$AAc?$AAe?$AAI?$AAn?$AAd?$AAe?$AAx?$AA?$FN?$AA?5?$AA?$DN?$AA?$DN?$AA?5@ 1015cc58     physics:dgWorldDynamicUpdate.obj
 0002:00005cc0       ??_C@_1EA@KKDJAEDD@?$AAa?$AAc?$AAt?$AAi?$AAv?$AAe?$AAR?$AAo?$AAw?$AA?$FL?$AAj?$AA?$FN?$AA?5?$AA?$DO?$AA?5?$AAd?$AAg?$AAF?$AAl?$AAo?$AAa?$AAt?$AA3?$AA2?$AA?5?$AA?$CI?$AA0?$AA?4?$AA0?$AAf?$AA?$CJ?$AA?$AA@ 1015ccc0     physics:dgWorldDynamicUpdate.obj
 0002:00005d00       ??_C@_1BBI@JNAIJFL@?$AA?$CI?$AA?$CI?$AAf?$AAr?$AAi?$AAc?$AAt?$AAi?$AAo?$AAn?$AAI?$AAn?$AAd?$AAe?$AAx?$AA?5?$AA?$DM?$AA?5?$AA0?$AA?$CJ?$AA?5?$AA?$CG?$AA?$CG?$AA?5?$AA?$CI?$AAf?$AAo?$AAr?$AAc?$AAe?$AA?$FL?$AAf@ 1015cd00     physics:dgWorldDynamicUpdate.obj
 0002:00005e18       ??_C@_1GE@GOKLNKJD@?$AAm?$AA_?$AAb?$AAo?$AAd?$AAy?$AAA?$AAr?$AAr?$AAa?$AAy?$AA?$FL?$AA0?$AA?$FN?$AA?4?$AAm?$AA_?$AAb?$AAo?$AAd?$AAy?$AA?5?$AA?$DN?$AA?$DN?$AA?5?$AAm?$AA_?$AAw?$AAo?$AAr?$AAl?$AAd@ 1015ce18     physics:dgWorldDynamicUpdate.obj
 0002:00005e7c       ??_C@_1CC@OBEEGFED@?$AAm?$AA1?$AA?5?$AA?$DM?$AA?5?$AAm?$AA_?$AAb?$AAo?$AAd?$AAy?$AAC?$AAo?$AAu?$AAn?$AAt?$AA?$AA@ 1015ce7c     physics:dgWorldDynamicUpdate.obj
 0002:00005ea0       ??_C@_1CC@BAJOGAOJ@?$AAm?$AA0?$AA?5?$AA?$DM?$AA?5?$AAm?$AA_?$AAb?$AAo?$AAd?$AAy?$AAC?$AAo?$AAu?$AAn?$AAt?$AA?$AA@ 1015cea0     physics:dgWorldDynamicUpdate.obj
 0002:00005ec8       ??_C@_1BCA@EGANFMLG@?$AA?$CI?$AA?$CI?$AAf?$AAr?$AAi?$AAc?$AAt?$AAi?$AAo?$AAn?$AAI?$AAn?$AAd?$AAe?$AAx?$AA?5?$AA?$DM?$AA?5?$AA0?$AA?$CJ?$AA?5?$AA?$CG?$AA?$CG?$AA?5?$AA?$CI?$AAm?$AA_?$AAf?$AAo?$AAr?$AAc?$AAe@ 1015cec8     physics:dgWorldDynamicUpdate.obj
 0002:00005fe8       ??_C@_1GO@JEMKLGM@?$AAc?$AA?3?$AA?2?$AAn?$AAe?$AAw?$AAt?$AAo?$AAn?$AA_?$AA2?$AA0?$AA0?$AA?2?$AA3?$AAd?$AAl?$AAi?$AAb?$AA?2?$AAs?$AAd?$AAk?$AA?2?$AAp?$AAh?$AAy?$AAs?$AAi?$AAc?$AAs?$AA?2@ 1015cfe8     physics:dgWorldDynamicUpdate.obj
 0002:00006058       ??_C@_1DI@LDBLCLBK@?$AAm?$AA_?$AAf?$AAi?$AAr?$AAs?$AAt?$AAI?$AAn?$AAd?$AAe?$AAx?$AA?5?$AA?$CB?$AA?$DN?$AA?5?$AAm?$AA_?$AAl?$AAa?$AAs?$AAt?$AAI?$AAn?$AAd?$AAe?$AAx?$AA?$AA@ 1015d058     physics:dgWorldDynamicUpdate.obj
 0002:00006090       ??_C@_1GC@GFFGBDPB@?$AAc?$AAo?$AAm?$AAp?$AAa?$AAr?$AAe?$AA?5?$AA?$CI?$AA?$CG?$AAa?$AAr?$AAr?$AAa?$AAy?$AA?$FL?$AAi?$AA?$FN?$AA?0?$AA?5?$AA?$CG?$AAa?$AAr?$AAr?$AAa?$AAy?$AA?$FL?$AAi?$AA?5?$AA?$CL?$AA?5?$AA1@ 1015d090     physics:dgWorldDynamicUpdate.obj
 0002:000060f8       ??_C@_1FE@EMOMMGB@?$AAc?$AA?3?$AA?2?$AAn?$AAe?$AAw?$AAt?$AAo?$AAn?$AA_?$AA2?$AA0?$AA0?$AA?2?$AA3?$AAd?$AAl?$AAi?$AAb?$AA?2?$AAs?$AAd?$AAk?$AA?2?$AAc?$AAo?$AAr?$AAe?$AAl?$AAi?$AAb?$AA?2@ 1015d0f8     physics:dgWorldDynamicUpdate.obj
 0002:00006150       ??_C@_1HC@HIOKGLOE@?$AAs?$AAt?$AAa?$AAc?$AAk?$AAI?$AAn?$AAd?$AAe?$AAx?$AA?5?$AA?$DM?$AA?5?$AAs?$AAi?$AAz?$AAe?$AAo?$AAf?$AA?5?$AA?$CI?$AAs?$AAt?$AAa?$AAc?$AAk?$AA?$CJ?$AA?5?$AA?1?$AA?5?$AA?$CI?$AA2@ 1015d150     physics:dgWorldDynamicUpdate.obj
 0002:000061c8       ??_C@_1GA@EIHBHMGF@?$AA?4?$AA?4?$AA?2?$AA?4?$AA?4?$AA?2?$AA?4?$AA?4?$AA?2?$AAs?$AAd?$AAk?$AA?2?$AAp?$AAh?$AAy?$AAs?$AAi?$AAc?$AAs?$AA?2?$AAd?$AAg?$AAN?$AAa?$AAr?$AAr?$AAo?$AAw?$AAP?$AAh?$AAa@ 1015d1c8     physics:dgNarrowPhaseCollision.obj
 0002:00006228       ??_C@_1BC@HHAMINCA@?$AAt?$AAh?$AAi?$AAs?$AAN?$AAo?$AAd?$AAe?$AA?$AA@ 1015d228     physics:dgNarrowPhaseCollision.obj
 0002:0000623c       ??_C@_1DK@EOPAFJHD@?$AAn?$AAo?$AAd?$AAe?$AA?9?$AA?$DO?$AAG?$AAe?$AAt?$AAI?$AAn?$AAf?$AAo?$AA?$CI?$AA?$CJ?$AA?5?$AA?$DN?$AA?$DN?$AA?5?$AAc?$AAo?$AAl?$AAl?$AAi?$AAs?$AAi?$AAo?$AAn?$AA?$AA@ 1015d23c     physics:dgNarrowPhaseCollision.obj
 0002:00006278       ??_C@_1HC@OBLHMFHO@?$AAc?$AAo?$AAl?$AAl?$AAi?$AAs?$AAi?$AAo?$AAn?$AA?9?$AA?$DO?$AAI?$AAs?$AAT?$AAy?$AAp?$AAe?$AA?$CI?$AAd?$AAg?$AAC?$AAo?$AAl?$AAl?$AAi?$AAs?$AAi?$AAo?$AAn?$AA?3?$AA?3?$AAd@ 1015d278     physics:dgNarrowPhaseCollision.obj
 0002:000062ec       ??_C@_1BM@NIOOJLGL@?$AAj?$AA?5?$AA?$DN?$AA?$DN?$AA?5?$AAm?$AAa?$AAx?$AAC?$AAo?$AAu?$AAn?$AAt?$AA?$AA@ 1015d2ec     physics:dgNarrowPhaseCollision.obj
 0002:00006308       ??_C@_1BO@HAGCCGEI@?$AAc?$AAo?$AAu?$AAn?$AAt?$AAO?$AAv?$AAe?$AAr?$AA?5?$AA?$DO?$AA?$DN?$AA?5?$AA0?$AA?$AA@ 1015d308     physics:dgNarrowPhaseCollision.obj
 0002:00006328       ??_C@_1FI@CCHIMPFJ@?$AAc?$AAo?$AAn?$AAt?$AAa?$AAc?$AAt?$AAM?$AAa?$AAt?$AAe?$AAr?$AAi?$AAa?$AAl?$AA?4?$AAm?$AA_?$AAb?$AAo?$AAd?$AAy?$AA1?$AA?5?$AA?$DN?$AA?$DN?$AA?5?$AAc?$AAo?$AAn?$AAt?$AAa@ 1015d328     physics:dgNarrowPhaseCollision.obj
 0002:00006380       ??_C@_1FI@LAOMJAFO@?$AAc?$AAo?$AAn?$AAt?$AAa?$AAc?$AAt?$AAM?$AAa?$AAt?$AAe?$AAr?$AAi?$AAa?$AAl?$AA?4?$AAm?$AA_?$AAb?$AAo?$AAd?$AAy?$AA0?$AA?5?$AA?$DN?$AA?$DN?$AA?5?$AAc?$AAo?$AAn?$AAt?$AAa@ 1015d380     physics:dgNarrowPhaseCollision.obj
 0002:000063d8       ??_C@_1DK@NFMIGGKJ@?$AAc?$AAo?$AAn?$AAt?$AAa?$AAc?$AAt?$AAM?$AAa?$AAt?$AAe?$AAr?$AAi?$AAa?$AAl?$AA?4?$AAm?$AA_?$AAc?$AAo?$AAl?$AAl?$AAi?$AAs?$AAi?$AAo?$AAn?$AA1?$AA?$AA@ 1015d3d8     physics:dgNarrowPhaseCollision.obj
 0002:00006414       ??_C@_1DK@GNHEABMM@?$AAc?$AAo?$AAn?$AAt?$AAa?$AAc?$AAt?$AAM?$AAa?$AAt?$AAe?$AAr?$AAi?$AAa?$AAl?$AA?4?$AAm?$AA_?$AAc?$AAo?$AAl?$AAl?$AAi?$AAs?$AAi?$AAo?$AAn?$AA0?$AA?$AA@ 1015d414     physics:dgNarrowPhaseCollision.obj
 0002:00006450       ??_C@_1DA@OHMGINNH@?$AAc?$AAo?$AAn?$AAt?$AAa?$AAc?$AAt?$AAM?$AAa?$AAt?$AAe?$AAr?$AAi?$AAa?$AAl?$AA?4?$AAm?$AA_?$AAb?$AAo?$AAd?$AAy?$AA1?$AA?$AA@ 1015d450     physics:dgNarrowPhaseCollision.obj
