 newton

 Timestamp is 4d42f046 (Fri Jan 28 08:35:18 2011)

 Preferred load address is 10000000

 Start         Length     Name                   Class
 0001:00000000 00083cafH .text                   CODE
 0001:00083cb0 000001dfH .text$yc                CODE
 0001:00083e90 00000023H .text$yd                CODE
 0002:00000000 0000014cH .idata$5                DATA
 0002:0000014c 00000004H .CRT$XCA                DATA
 0002:00000150 00000010H .CRT$XCU                DATA
 0002:00000160 00000004H .CRT$XCZ                DATA
 0002:00000164 00000004H .CRT$XIA                DATA
 0002:00000168 00000014H .CRT$XIC                DATA
 0002:0000017c 00000004H .CRT$XIZ                DATA
 0002:00000180 00000004H .CRT$XPA                DATA
 0002:00000184 00000004H .CRT$XPX                DATA
 0002:00000188 00000004H .CRT$XPXA               DATA
 0002:0000018c 00000004H .CRT$XPZ                DATA
 0002:00000190 00000004H .CRT$XTA                DATA
 0002:00000194 00000004H .CRT$XTZ                DATA
 0002:000001a0 00006a98H .rdata                  DATA
 0002:00006c38 00000078H .rdata$debug            DATA
 0002:00006cb0 0000000cH .rdata$sxdata           DATA
 0002:00006cbc 00000004H .rtc$IAA                DATA
 0002:00006cc0 00000004H .rtc$IZZ                DATA
 0002:00006cc4 00000004H .rtc$TAA                DATA
 0002:00006cc8 00000004H .rtc$TZZ                DATA
 0002:00006cd0 000003d4H .xdata$x                DATA
 0002:000070a4 00000014H .idata$2                DATA
 0002:000070b8 00000014H .idata$3                DATA
 0002:000070cc 0000014cH .idata$4                DATA
 0002:00007218 000005faH .idata$6                DATA
 0002:00007820 0000325aH .edata                  DATA
 0003:00000000 00001f50H .data                   DATA
 0003:00001f60 00004424H .bss                    DATA
 0004:00000000 00000058H .rsrc$01                DATA
 0004:00000060 000003c0H .rsrc$02                DATA

  Address         Publics by Value              Rva+Base       Lib:Object

 0000:00000000       __except_list              00000000     <absolute>
 0000:00000003       ___safe_se_handler_count   00000003     <absolute>
 0000:00000000       ___ImageBase               10000000     <linker-defined>
 0001:00000000       _DllMain@12                10001000 f   Newton.obj
 0001:00000010       _NewtonGetMemoryUsed       10001010 f   Newton.obj
 0001:00000030       _NewtonSetMemorySystem     10001030 f   Newton.obj
 0001:00000070       _NewtonCreate              10001070 f   Newton.obj
 0001:00000180       _NewtonDestroy             10001180 f   Newton.obj
 0001:00000210       ??_GNewton@@QAEPAXI@Z      10001210 f i Newton.obj
 0001:00000270       _NewtonInvalidateCache     10001270 f   Newton.obj
 0001:00000280       _NewtonSetPlatformArchitecture 10001280 f   Newton.obj
 0001:000002a0       _NewtonGetPlatformArchitecture 100012a0 f   Newton.obj
 0001:000002f0       _NewtonWorldCriticalSectionLock 100012f0 f   Newton.obj
 0001:00000310       _NewtonWorldCriticalSectionUnlock 10001310 f   Newton.obj
 0001:00000330       _NewtonSetThreadsCount     10001330 f   Newton.obj
 0001:00000370       _NewtonGetThreadsCount     10001370 f   Newton.obj
 0001:00000380       _NewtonGetMaxThreadsCount  10001380 f   Newton.obj
 0001:00000390       _NewtonSetMultiThreadSolverOnSingleIsland 10001390 f   Newton.obj
 0001:000003b0       _NewtonGetMultiThreadSolverOnSingleIsland 100013b0 f   Newton.obj
 0001:000003c0       _NewtonSetSolverModel      100013c0 f   Newton.obj
 0001:000003e0       _NewtonSetFrictionModel    100013e0 f   Newton.obj
 0001:000003f0       _NewtonSetPerformanceClock 100013f0 f   Newton.obj
 0001:00000440       _NewtonReadThreadPerformanceTicks 10001440 f   Newton.obj
 0001:00000440       _NewtonReadPerformanceTicks 10001440 f   Newton.obj
 0001:00000470       _NewtonUpdate              10001470 f   Newton.obj
 0001:00000570       _NewtonCollisionUpdate     10001570 f   Newton.obj
 0001:000005c0       _NewtonSetMinimumFrameRate 100015c0 f   Newton.obj
 0001:00000610       _NewtonDestroyAllBodies    10001610 f   Newton.obj
 0001:00000670       _NewtonSetWorldSize        10001670 f   Newton.obj
 0001:000006d0       _NewtonSetIslandUpdateEvent 100016d0 f   Newton.obj
 0001:000006e0       _NewtonSetCollisionDestructor 100016e0 f   Newton.obj
 0001:000006f0       _NewtonSetDestroyBodyByExeciveForce 100016f0 f   Newton.obj
 0001:00000700       _NewtonSetBodyLeaveWorldEvent 10001700 f   Newton.obj
 0001:00000710       _NewtonWorldGetFirstBody   10001710 f   Newton.obj
 0001:00000730       _NewtonWorldGetNextBody    10001730 f   Newton.obj
 0001:00000750       _NewtonWorldForEachJointDo 10001750 f   Newton.obj
 0001:00000860       _NewtonWorldForEachBodyInAABBDo 10001860 f   Newton.obj
 0001:000008c0       _NewtonWorldGetVersion     100018c0 f   Newton.obj
 0001:000008d0       _NewtonWorldFloatSize      100018d0 f   Newton.obj
 0001:000008e0       _NewtonWorldSetUserData    100018e0 f   Newton.obj
 0001:000008f0       _NewtonWorldGetUserData    100018f0 f   Newton.obj
 0001:00000900       _NewtonWorldSetDestructorCallBack 10001900 f   Newton.obj
 0001:00000910       _NewtonWorldGetDestructorCallBack 10001910 f   Newton.obj
 0001:00000920       _NewtonWorldGetBodyCount   10001920 f   Newton.obj
 0001:00000930       _NewtonWorldGetConstraintCount 10001930 f   Newton.obj
 0001:00000940       _NewtonWorldRayCast        10001940 f   Newton.obj
 0001:000009b0       _NewtonWorldConvexCast     100019b0 f   Newton.obj
 0001:00000a10       _NewtonIslandGetBody       10001a10 f   Newton.obj
 0001:00000a40       _NewtonIslandGetBodyAABB   10001a40 f   Newton.obj
 0001:00000aa0       _NewtonMaterialGetDefaultGroupID 10001aa0 f   Newton.obj
 0001:00000ab0       _NewtonMaterialCreateGroupID 10001ab0 f   Newton.obj
 0001:00000ac0       _NewtonMaterialDestroyAllGroupID 10001ac0 f   Newton.obj
 0001:00000ad0       _NewtonMaterialSetDefaultCollidable 10001ad0 f   Newton.obj
 0001:00000b00       _NewtonMaterialSetContinuousCollisionMode 10001b00 f   Newton.obj
 0001:00000b30       _NewtonMaterialSetSurfaceThickness 10001b30 f   Newton.obj
 0001:00000b90       _NewtonMaterialSetDefaultFriction 10001b90 f   Newton.obj
 0001:00000c60       _NewtonMaterialSetDefaultElasticity 10001c60 f   Newton.obj
 0001:00000cc0       _NewtonMaterialSetDefaultSoftness 10001cc0 f   Newton.obj
 0001:00000d10       _NewtonMaterialSetCollisionCallback 10001d10 f   Newton.obj
 0001:00000d50       _NewtonMaterialGetUserData 10001d50 f   Newton.obj
 0001:00000d70       _NewtonWorldGetFirstMaterial 10001d70 f   Newton.obj
 0001:00000da0       _NewtonWorldGetNextMaterial 10001da0 f   Newton.obj
 0001:00000db0       _NewtonMaterialGetMaterialPairUserData 10001db0 f   Newton.obj
 0001:00000dc0       _NewtonMaterialGetContactFaceAttribute 10001dc0 f   Newton.obj
 0001:00000dd0       _NewtonMaterialGetContactNormalSpeed 10001dd0 f   Newton.obj
 0001:00000ed0       _NewtonMaterialGetContactTangentSpeed 10001ed0 f   Newton.obj
 0001:00000ff0       _NewtonMaterialGetContactPositionAndNormal 10001ff0 f   Newton.obj
 0001:00001020       _NewtonMaterialGetContactForce 10002020 f   Newton.obj
 0001:000010a0       _NewtonMaterialGetContactTangentDirections 100020a0 f   Newton.obj
 0001:000010e0       _NewtonMaterialGetBodyCollisionID 100020e0 f   Newton.obj
 0001:00001110       _NewtonMaterialSetContactSoftness 10002110 f   Newton.obj
 0001:00001170       _NewtonMaterialSetContactElasticity 10002170 f   Newton.obj
 0001:000011d0       _NewtonMaterialSetContactFrictionState 100021d0 f   Newton.obj
 0001:00001210       _NewtonMaterialSetContactFrictionCoef 10002210 f   Newton.obj
 0001:000012f0       _NewtonMaterialSetContactNormalAcceleration 100022f0 f   Newton.obj
 0001:00001310       _NewtonMaterialSetContactTangentAcceleration 10002310 f   Newton.obj
 0001:00001340       _NewtonMaterialSetContactNormalDirection 10002340 f   Newton.obj
 0001:00001550       _NewtonMaterialContactRotateTangentDirections 10002550 f   Newton.obj
 0001:00001670       _NewtonCreateNull          10002670 f   Newton.obj
 0001:00001680       _NewtonCreateBox           10002680 f   Newton.obj
 0001:000016e0       _NewtonCreateSphere        100026e0 f   Newton.obj
 0001:000017f0       _NewtonCreateCone          100027f0 f   Newton.obj
 0001:00001850       _NewtonCreateCapsule       10002850 f   Newton.obj
 0001:000018b0       _NewtonCreateCylinder      100028b0 f   Newton.obj
 0001:00001910       _NewtonCreateChamferCylinder 10002910 f   Newton.obj
 0001:00001970       _NewtonCreateConvexHull    10002970 f   Newton.obj
 0001:000019f0       _NewtonCreateConvexHullFromMesh 100029f0 f   Newton.obj
 0001:00001a20       _NewtonCreateConvexHullModifier 10002a20 f   Newton.obj
 0001:00001a90       _NewtonConvexHullModifierGetMatrix 10002a90 f   Newton.obj
 0001:00001ac0       _NewtonConvexHullModifierSetMatrix 10002ac0 f   Newton.obj
 0001:00001ae0       _NewtonCreateCompoundCollision 10002ae0 f   Newton.obj
 0001:00001b30       _NewtonCreateCompoundCollisionFromMesh 10002b30 f   Newton.obj
 0001:00001b50       _NewtonCreateCompoundBreakable 10002b50 f   Newton.obj
 0001:00001b80       _NewtonCompoundBreakableResetAnchoredPieces 10002b80 f   Newton.obj
 0001:00001ba0       _NewtonCompoundBreakableSetAnchoredPieces 10002ba0 f   Newton.obj
 0001:00001bd0       _NewtonBreakableGetMainMesh 10002bd0 f   Newton.obj
 0001:00001bf0       _NewtonBreakableBeginDelete 10002bf0 f   Newton.obj
 0001:00001c20       _NewtonBreakableDeleteComponent 10002c20 f   Newton.obj
 0001:00001c40       _NewtonBreakableEndDelete  10002c40 f   Newton.obj
 0001:00001c60       _NewtonBreakableGetFirstComponent 10002c60 f   Newton.obj
 0001:00001c90       _NewtonBreakableGetNextComponent 10002c90 f   Newton.obj
 0001:00001cb0       _NewtonCompoundBreakableGetVertexCount 10002cb0 f   Newton.obj
 0001:00001cd0       _NewtonCompoundBreakableGetVertexStreams 10002cd0 f   Newton.obj
 0001:00001d10       _NewtonBreakableGetFirstSegment 10002d10 f   Newton.obj
 0001:00001d20       _NewtonBreakableGetNextSegment 10002d20 f   Newton.obj
 0001:00001d30       _NewtonBreakableGetComponentsInRadius 10002d30 f   Newton.obj
 0001:00001d90       _NewtonBreakableSegmentGetIndexCount 10002d90 f   Newton.obj
 0001:00001da0       _NewtonBreakableSegmentGetIndexStream 10002da0 f   Newton.obj
 0001:00001dd0       _NewtonBreakableSegmentGetIndexStreamShort 10002dd0 f   Newton.obj
 0001:00001e00       _NewtonCollisionIsTriggerVolume 10002e00 f   Newton.obj
 0001:00001e20       _NewtonCollisionSetAsTriggerVolume 10002e20 f   Newton.obj
 0001:00001e40       _NewtonCollisionSetMaxBreakImpactImpulse 10002e40 f   Newton.obj
 0001:00001e60       _NewtonCollisionGetMaxBreakImpactImpulse 10002e60 f   Newton.obj
 0001:00001e70       _NewtonCollisionSetUserID  10002e70 f   Newton.obj
 0001:00001e80       _NewtonCollisionGetUserID  10002e80 f   Newton.obj
 0001:00001e90       _NewtonConvexHullGetFaceIndices 10002e90 f   Newton.obj
 0001:00001ed0       _NewtonConvexCollisionCalculateVolume 10002ed0 f   Newton.obj
 0001:00001ee0       _NewtonConvexCollisionCalculateInertialMatrix 10002ee0 f   Newton.obj
 0001:00001f30       _NewtonCreateUserMeshCollision 10002f30 f   Newton.obj
 0001:00002000       _NewtonCreateTreeCollision 10003000 f   Newton.obj
 0001:00002050       _NewtonStaticCollisionSetDebugCallback 10003050 f   Newton.obj
 0001:00002090       _NewtonTreeCollisionSetUserRayCastCallback 10003090 f   Newton.obj
 0001:000020b0       _NewtonHeightFieldSetUserRayCastCallback 100030b0 f   Newton.obj
 0001:000020d0       _NewtonTreeCollisionBeginBuild 100030d0 f   Newton.obj
 0001:000020e0       _NewtonTreeCollisionAddFace 100030e0 f   Newton.obj
 0001:00002100       _NewtonTreeCollisionEndBuild 10003100 f   Newton.obj
 0001:00002120       _NewtonTreeCollisionGetFaceAtribute 10003120 f   Newton.obj
 0001:00002130       _NewtonTreeCollisionSetFaceAtribute 10003130 f   Newton.obj
 0001:00002140       _NewtonTreeCollisionGetVertexListIndexListInAABB 10003140 f   Newton.obj
 0001:000021f0       _NewtonCreateHeightFieldCollision 100031f0 f   Newton.obj
 0001:00002240       _NewtonCreateSceneCollision 10003240 f   Newton.obj
 0001:00002280       _NewtonSceneCollisionCreateProxy 10003280 f   Newton.obj
 0001:000022d0       _NewtonSceneCollisionDestroyProxy 100032d0 f   Newton.obj
 0001:00002310       _NewtonSceneProxySetMatrix 10003310 f   Newton.obj
 0001:00002320       _NewtonSceneProxyGetMatrix 10003320 f   Newton.obj
 0001:00002350       _NewtonSceneCollisionOptimize 10003350 f   Newton.obj
 0001:00002360       _NewtonCollisionPointDistance 10003360 f   Newton.obj
 0001:00002390       _NewtonCollisionClosestPoint 10003390 f   Newton.obj
 0001:000023c0       _NewtonCollisionCollide    100033c0 f   Newton.obj
 0001:00002400       _NewtonCollisionCollideContinue 10003400 f   Newton.obj
 0001:00002460       _NewtonCollisionSupportVertex 10003460 f   Newton.obj
 0001:00002590       _NewtonCollisionRayCast    10003590 f   Newton.obj
 0001:00002720       _NewtonCollisionCalculateAABB 10003720 f   Newton.obj
 0001:00002780       _NewtonCollisionForEachPolygonDo 10003780 f   Newton.obj
 0001:000027c0       _NewtonCollisionMakeUnique 100037c0 f   Newton.obj
 0001:000027d0       _NewtonAddCollisionReference 100037d0 f   Newton.obj
 0001:000027f0       _NewtonReleaseCollision    100037f0 f   Newton.obj
 0001:00002800       _NewtonCollisionSerialize  10003800 f   Newton.obj
 0001:00002820       _NewtonCreateCollisionFromSerialization 10003820 f   Newton.obj
 0001:00002840       _NewtonCollisionGetInfo    10003840 f   Newton.obj
 0001:00002860       _NewtonGetEulerAngle       10003860 f   Newton.obj
 0001:00002890       _NewtonSetEulerAngle       10003890 f   Newton.obj
 0001:00002ca0       _NewtonCalculateSpringDamperAcceleration 10003ca0 f   Newton.obj
 0001:00002ce0       _NewtonCreateBody          10003ce0 f   Newton.obj
 0001:00002d30       _NewtonDestroyBody         10003d30 f   Newton.obj
 0001:00002d50       _NewtonBodySetUserData     10003d50 f   Newton.obj
 0001:00002d60       _NewtonBodyGetUserData     10003d60 f   Newton.obj
 0001:00002d70       _NewtonBodyGetWorld        10003d70 f   Newton.obj
 0001:00002d80       _NewtonBodySetTransformCallback 10003d80 f   Newton.obj
 0001:00002d90       _NewtonBodyGetTransformCallback 10003d90 f   Newton.obj
 0001:00002da0       _NewtonBodySetForceAndTorqueCallback 10003da0 f   Newton.obj
 0001:00002db0       _NewtonBodyGetForceAndTorqueCallback 10003db0 f   Newton.obj
 0001:00002dc0       _NewtonBodySetDestructorCallback 10003dc0 f   Newton.obj
 0001:00002dd0       _NewtonBodySetMassMatrix   10003dd0 f   Newton.obj
 0001:00002f20       _NewtonBodyGetMassMatrix   10003f20 f   Newton.obj
 0001:00002f80       _NewtonBodyGetInvMass      10003f80 f   Newton.obj
 0001:00002fe0       _NewtonBodySetMatrix       10003fe0 f   Newton.obj
 0001:00003030       _NewtonBodySetMatrixRecursive 10004030 f   Newton.obj
 0001:00003070       _NewtonBodyGetMatrix       10004070 f   Newton.obj
 0001:00003090       _NewtonBodyGetRotation     10004090 f   Newton.obj
 0001:000030b0       _NewtonBodySetForce        100040b0 f   Newton.obj
 0001:000030f0       _NewtonBodyAddForce        100040f0 f   Newton.obj
 0001:00003150       _NewtonBodyGetForceAcc     10004150 f   Newton.obj
 0001:00003190       _NewtonBodyGetForce        10004190 f   Newton.obj
 0001:000031d0       _NewtonBodyCalculateInverseDynamicsForce 100041d0 f   Newton.obj
 0001:00003230       _NewtonBodySetTorque       10004230 f   Newton.obj
 0001:00003270       _NewtonBodyAddTorque       10004270 f   Newton.obj
 0001:000032c0       _NewtonBodyGetTorque       100042c0 f   Newton.obj
 0001:00003300       _NewtonBodyGetTorqueAcc    10004300 f   Newton.obj
 0001:00003340       _NewtonBodySetCentreOfMass 10004340 f   Newton.obj
 0001:00003380       _NewtonBodyGetCentreOfMass 10004380 f   Newton.obj
 0001:000033c0       _NewtonBodyGetFirstJoint   100043c0 f   Newton.obj
 0001:000033f0       _NewtonBodyGetNextJoint    100043f0 f   Newton.obj
 0001:00003400       _NewtonBodyGetFirstContactJoint 10004400 f   Newton.obj
 0001:00003430       _NewtonBodyGetNextContactJoint 10004430 f   Newton.obj
 0001:00003440       _NewtonContactJointGetContactCount 10004440 f   Newton.obj
 0001:00003460       _NewtonContactJointGetFirstContact 10004460 f   Newton.obj
 0001:00003490       _NewtonContactJointGetNextContact 10004490 f   Newton.obj
 0001:000034c0       _NewtonContactJointRemoveContact 100044c0 f   Newton.obj
 0001:00003500       _NewtonContactGetMaterial  10004500 f   Newton.obj
 0001:00003510       _NewtonBodyAddBuoyancyForce 10004510 f   Newton.obj
 0001:00003570       _NewtonBodySetCollision    10004570 f   Newton.obj
 0001:00003580       _NewtonBodyGetCollision    10004580 f   Newton.obj
 0001:00003590       _NewtonBodySetMaterialGroupID 10004590 f   Newton.obj
 0001:000035a0       _NewtonBodyGetMaterialGroupID 100045a0 f   Newton.obj
 0001:000035b0       _NewtonBodySetContinuousCollisionMode 100045b0 f   Newton.obj
 0001:000035d0       _NewtonBodyGetContinuousCollisionMode 100045d0 f   Newton.obj
 0001:000035f0       _NewtonBodySetJointRecursiveCollision 100045f0 f   Newton.obj
 0001:00003620       _NewtonBodyGetJointRecursiveCollision 10004620 f   Newton.obj
 0001:00003640       _NewtonBodyGetFreezeState  10004640 f   Newton.obj
 0001:00003650       _NewtonBodySetFreezeState  10004650 f   Newton.obj
 0001:00003670       _NewtonBodySetAutoSleep    10004670 f   Newton.obj
 0001:000036b0       _NewtonBodyGetAutoSleep    100046b0 f   Newton.obj
 0001:000036d0       _NewtonBodyGetSleepState   100046d0 f   Newton.obj
 0001:000036e0       _NewtonBodyGetAABB         100046e0 f   Newton.obj
 0001:00003730       _NewtonBodySetVelocity     10004730 f   Newton.obj
 0001:00003770       _NewtonBodyGetVelocity     10004770 f   Newton.obj
 0001:000037b0       _NewtonBodySetOmega        100047b0 f   Newton.obj
 0001:000037f0       _NewtonBodyGetOmega        100047f0 f   Newton.obj
 0001:00003830       _NewtonBodySetLinearDamping 10004830 f   Newton.obj
 0001:00003850       _NewtonBodyGetLinearDamping 10004850 f   Newton.obj
 0001:00003870       _NewtonBodySetAngularDamping 10004870 f   Newton.obj
 0001:000038b0       _NewtonBodyGetAngularDamping 100048b0 f   Newton.obj
 0001:00003900       _NewtonBodyAddImpulse      10004900 f   Newton.obj
 0001:00003970       _NewtonConstraintCreateBall 10004970 f   Newton.obj
 0001:000039e0       _NewtonBallSetConeLimits   100049e0 f   Newton.obj
 0001:00003c40       _NewtonBallSetUserCallback 10004c40 f   Newton.obj
 0001:00003c50       _NewtonBallGetJointAngle   10004c50 f   Newton.obj
 0001:00003c90       _NewtonBallGetJointOmega   10004c90 f   Newton.obj
 0001:00003cc0       _NewtonBallGetJointForce   10004cc0 f   Newton.obj
 0001:00003cf0       _NewtonConstraintCreateHinge 10004cf0 f   Newton.obj
 0001:00003d50       _NewtonHingeGetJointOmega  10004d50 f   Newton.obj
 0001:00003d50       _NewtonUniversalGetJointOmega0 10004d50 f   Newton.obj
 0001:00003d50       _NewtonCorkscrewGetJointOmega 10004d50 f   Newton.obj
 0001:00003d60       _NewtonHingeCalculateStopAlpha 10004d60 f   Newton.obj
 0001:00003d90       _NewtonHingeGetJointForce  10004d90 f   Newton.obj
 0001:00003dc0       _NewtonConstraintCreateSlider 10004dc0 f   Newton.obj
 0001:00003e20       _NewtonHingeSetUserCallback 10004e20 f   Newton.obj
 0001:00003e20       _NewtonSliderSetUserCallback 10004e20 f   Newton.obj
 0001:00003e30       _NewtonHingeGetJointAngle  10004e30 f   Newton.obj
 0001:00003e30       _NewtonUniversalGetJointAngle0 10004e30 f   Newton.obj
 0001:00003e30       _NewtonSliderGetJointPosit 10004e30 f   Newton.obj
 0001:00003e30       _NewtonCorkscrewGetJointAngle 10004e30 f   Newton.obj
 0001:00003e40       _NewtonSliderCalculateStopAccel 10004e40 f   Newton.obj
 0001:00003e70       _NewtonSliderGetJointForce 10004e70 f   Newton.obj
 0001:00003ea0       _NewtonConstraintCreateCorkscrew 10004ea0 f   Newton.obj
 0001:00003f00       _NewtonCorkscrewSetUserCallback 10004f00 f   Newton.obj
 0001:00003f00       _NewtonUniversalSetUserCallback 10004f00 f   Newton.obj
 0001:00003f10       _NewtonSliderGetJointVeloc 10004f10 f   Newton.obj
 0001:00003f10       _NewtonCorkscrewGetJointVeloc 10004f10 f   Newton.obj
 0001:00003f20       _NewtonCorkscrewCalculateStopAccel 10004f20 f   Newton.obj
 0001:00003f50       _NewtonConstraintCreateUniversal 10004f50 f   Newton.obj
 0001:00003fd0       _NewtonCorkscrewGetJointPosit 10004fd0 f   Newton.obj
 0001:00003fd0       _NewtonUniversalGetJointAngle1 10004fd0 f   Newton.obj
 0001:00003fe0       _NewtonUniversalGetJointOmega1 10004fe0 f   Newton.obj
 0001:00003ff0       _NewtonCorkscrewCalculateStopAlpha 10004ff0 f   Newton.obj
 0001:00003ff0       _NewtonUniversalCalculateStopAlpha0 10004ff0 f   Newton.obj
 0001:00004020       _NewtonUniversalCalculateStopAlpha1 10005020 f   Newton.obj
 0001:00004050       _NewtonCorkscrewGetJointForce 10005050 f   Newton.obj
 0001:00004050       _NewtonUniversalGetJointForce 10005050 f   Newton.obj
 0001:00004080       _NewtonConstraintCreateUpVector 10005080 f   Newton.obj
 0001:000040c0       _NewtonUpVectorGetPin      100050c0 f   Newton.obj
 0001:00004100       _NewtonUpVectorSetPin      10005100 f   Newton.obj
 0001:00004140       _NewtonConstraintCreateUserJoint 10005140 f   Newton.obj
 0001:00004180       _NewtonUserJointAddLinearRow 10005180 f   Newton.obj
 0001:00004250       _NewtonUserJointAddAngularRow 10005250 f   Newton.obj
 0001:000042e0       _NewtonUserJointAddGeneralRow 100052e0 f   Newton.obj
 0001:00004300       _NewtonUserJointSetRowMaximumFriction 10005300 f   Newton.obj
 0001:00004320       _NewtonUserJointSetRowMinimumFriction 10005320 f   Newton.obj
 0001:00004340       _NewtonUserJointSetRowAcceleration 10005340 f   Newton.obj
 0001:00004380       _NewtonUserJointSetRowSpringDamperAcceleration 10005380 f   Newton.obj
 0001:000043b0       _NewtonUserJointSetRowStiffness 100053b0 f   Newton.obj
 0001:000043d0       _NewtonUserJointGetRowForce 100053d0 f   Newton.obj
 0001:00004400       _NewtonUserJointSetFeedbackCollectorCallback 10005400 f   Newton.obj
 0001:00004410       _NewtonJointSetUserData    10005410 f   Newton.obj
 0001:00004420       _NewtonJointGetUserData    10005420 f   Newton.obj
 0001:00004430       _NewtonJointGetInfo        10005430 f   Newton.obj
 0001:00004450       _NewtonBreakableSegmentGetMaterial 10005450 f   Newton.obj
 0001:00004450       _NewtonJointGetBody0       10005450 f   Newton.obj
 0001:00004460       _NewtonJointGetBody1       10005460 f   Newton.obj
 0001:00004480       _NewtonJointSetCollisionState 10005480 f   Newton.obj
 0001:000044a0       _NewtonJointGetCollisionState 100054a0 f   Newton.obj
 0001:000044b0       _NewtonJointSetStiffness   100054b0 f   Newton.obj
 0001:000044d0       _NewtonJointGetStiffness   100054d0 f   Newton.obj
 0001:000044e0       _NewtonJointSetDestructor  100054e0 f   Newton.obj
 0001:000044f0       _NewtonDestroyJoint        100054f0 f   Newton.obj
 0001:00004540       _NewtonMeshCreate          10005540 f   Newton.obj
 0001:000045a0       _NewtonMeshCreateFromMesh  100055a0 f   Newton.obj
 0001:000045d0       _NewtonMeshCreateFromCollision 100055d0 f   Newton.obj
 0001:00004600       _NewtonMeshConvexHull      10005600 f   Newton.obj
 0001:00004650       _NewtonMeshCreatePlane     10005650 f   Newton.obj
 0001:000046b0       _NewtonMeshDestroy         100056b0 f   Newton.obj
 0001:000046d0       _NewtonMeshCalculateOOBB   100056d0 f   Newton.obj
 0001:00004720       _NewtonMeshCalculateVertexNormals 10005720 f   Newton.obj
 0001:00004740       _NewtonMeshApplySphericalMapping 10005740 f   Newton.obj
 0001:00004750       _NewtonMeshApplyBoxMapping 10005750 f   Newton.obj
 0001:00004770       _NewtonMeshApplyCylindricalMapping 10005770 f   Newton.obj
 0001:00004790       _NewtonMeshTriangulate     10005790 f   Newton.obj
 0001:000047a0       _NewtonMeshPolygonize      100057a0 f   Newton.obj
 0001:000047b0       _NewtonMeshIsOpenMesh      100057b0 f   Newton.obj
 0001:000047d0       _NewtonMeshFixTJoints      100057d0 f   Newton.obj
 0001:000047e0       _NewtonMeshClip            100057e0 f   Newton.obj
 0001:00004830       _NewtonMeshDifference      10005830 f   Newton.obj
 0001:00004830       _NewtonMeshIntersection    10005830 f   Newton.obj
 0001:00004830       _NewtonMeshUnion           10005830 f   Newton.obj
 0001:00004860       _NewtonRemoveUnusedVertices 10005860 f   Newton.obj
 0001:00004870       _NewtonMeshBeginFace       10005870 f   Newton.obj
 0001:000048a0       _NewtonMeshAddFace         100058a0 f   Newton.obj
 0001:000048c0       _NewtonMeshEndFace         100058c0 f   Newton.obj
 0001:000048d0       _NewtonMeshBuildFromVertexListIndexList 100058d0 f   Newton.obj
 0001:00004930       _NewtonMeshGetVertexCount  10005930 f   Newton.obj
 0001:00004940       _NewtonMeshGetVertexStrideInByte 10005940 f   Newton.obj
 0001:00004950       _NewtonMeshGetVertexArray  10005950 f   Newton.obj
 0001:00004960       _NewtonMeshGetPointCount   10005960 f   Newton.obj
 0001:00004970       _NewtonMeshGetPointStrideInByte 10005970 f   Newton.obj
 0001:00004980       _NewtonMeshGetPointArray   10005980 f   Newton.obj
 0001:00004990       _NewtonMeshGetNormalArray  10005990 f   Newton.obj
 0001:000049a0       _NewtonMeshGetUV0Array     100059a0 f   Newton.obj
 0001:000049b0       _NewtonMeshGetUV1Array     100059b0 f   Newton.obj
 0001:000049c0       _NewtonMeshGetVertexStreams 100059c0 f   Newton.obj
 0001:00004a00       _NewtonMeshGetIndirectVertexStreams 10005a00 f   Newton.obj
 0001:00004a60       _NewtonMeshBeginHandle     10005a60 f   Newton.obj
 0001:00004a70       _NewtonMeshEndHandle       10005a70 f   Newton.obj
 0001:00004aa0       _NewtonMeshFirstMaterial   10005aa0 f   Newton.obj
 0001:00004ab0       _NewtonMeshNextMaterial    10005ab0 f   Newton.obj
 0001:00004ad0       _NewtonMeshMaterialGetMaterial 10005ad0 f   Newton.obj
 0001:00004ae0       _NewtonMeshMaterialGetIndexCount 10005ae0 f   Newton.obj
 0001:00004af0       _NewtonMeshMaterialGetIndexStream 10005af0 f   Newton.obj
 0001:00004b10       _NewtonMeshMaterialGetIndexStreamShort 10005b10 f   Newton.obj
 0001:00004b30       _NewtonMeshCreateFirstSingleSegment 10005b30 f   Newton.obj
 0001:00004bb0       _NewtonMeshCreateNextSingleSegment 10005bb0 f   Newton.obj
 0001:00004c30       _NewtonMeshGetTotalFaceCount 10005c30 f   Newton.obj
 0001:00004c40       _NewtonMeshGetTotalIndexCount 10005c40 f   Newton.obj
 0001:00004c50       _NewtonMeshGetFaces        10005c50 f   Newton.obj
 0001:00004c70       _NewtonMeshGetFirstVertex  10005c70 f   Newton.obj
 0001:00004c80       _NewtonMeshGetNextVertex   10005c80 f   Newton.obj
 0001:00004c90       _NewtonMeshGetFirstPoint   10005c90 f   Newton.obj
 0001:00004ca0       _NewtonMeshGetNextPoint    10005ca0 f   Newton.obj
 0001:00004cb0       _NewtonMeshGetPointIndex   10005cb0 f   Newton.obj
 0001:00004cc0       _NewtonMeshGetVertexIndex  10005cc0 f   Newton.obj
 0001:00004cc0       _NewtonMeshGetVertexIndexFromPoint 10005cc0 f   Newton.obj
 0001:00004cd0       _NewtonMeshGetFirstEdge    10005cd0 f   Newton.obj
 0001:00004d20       _NewtonMeshGetNextEdge     10005d20 f   Newton.obj
 0001:00004d30       _NewtonMeshGetEdgeIndices  10005d30 f   Newton.obj
 0001:00004d50       _NewtonMeshGetFirstFace    10005d50 f   Newton.obj
 0001:00004da0       _NewtonMeshGetNextFace     10005da0 f   Newton.obj
 0001:00004db0       _NewtonMeshIsFaceOpen      10005db0 f   Newton.obj
 0001:00004dc0       _NewtonMeshGetFaceIndexCount 10005dc0 f   Newton.obj
 0001:00004de0       _NewtonMeshGetFaceMaterial 10005de0 f   Newton.obj
 0001:00004e00       _NewtonMeshGetFaceIndices  10005e00 f   Newton.obj
 0001:00004e20       _NewtonMeshGetFacePointIndices 10005e20 f   Newton.obj
 0001:00004e50       ?Unlink@?$dgList@VdgContactMaterial@@@@QAEXQAVdgListNode@1@@Z 10005e50 f i Newton.obj
 0001:00004eb0       ?SetAngularDamping@dgBody@@QAEXABVdgVector@@@Z 10005eb0 f i Newton.obj
 0001:00004f60       ?SetLinearDamping@dgBody@@QAEXN@Z 10005f60 f i Newton.obj
 0001:00004fd0       ?SetCentreOfMass@dgBody@@QAEXABVdgVector@@@Z 10005fd0 f i Newton.obj
 0001:00005080       ?SetTorque@dgBody@@QAEXABVdgVector@@@Z 10006080 f i Newton.obj
 0001:00005100       ?SetForce@dgBody@@QAEXABVdgVector@@@Z 10006100 f i Newton.obj
 0001:00005180       ?Scale@?$dgTemplateVector@N@@QBE?AV1@N@Z 10006180 f i Newton.obj
 0001:000051b0       ??L?$dgTemplateVector@N@@QBENABV0@@Z 100061b0 f i Newton.obj
 0001:000051d0       ??D?$dgTemplateVector@N@@QBE?AV0@ABV0@@Z 100061d0 f i Newton.obj
 0001:00005210       ??H?$dgTemplateVector@N@@QBE?AV0@ABV0@@Z 10006210 f i Newton.obj
 0001:00005240       ??G?$dgTemplateVector@N@@QBE?AV0@ABV0@@Z 10006240 f i Newton.obj
 0001:00005270       ??0?$dgTemplateVector@N@@QAE@NNNN@Z 10006270 f i Newton.obj
 0001:00005290       ?dgReleasedUserLock@dgWorld@@QBEXXZ 10006290 f i Newton.obj
 0001:000052b0       ?dgGetUserLock@dgWorld@@QBEXXZ 100062b0 f i Newton.obj
 0001:000052d0       ?Init@dgBilateralConstraint@@MAEXXZ 100062d0 f i NewtonClass.obj
 0001:000052e0       ?DestroyBodies@NewtonDeadBodies@@QAEXAAVNewton@@@Z 100062e0 f   NewtonClass.obj
 0001:000053e0       ?DestroyJoints@NewtonDeadJoints@@QAEXAAVNewton@@@Z 100063e0 f   NewtonClass.obj
 0001:00005480       ?__malloc__@dgGlobalAllocator@@SAPAXI@Z 10006480 f   corelib:dgMemory.obj
 0001:00005480       ?DefaultAllocMemory@Newton@@SAPAXH@Z 10006480 f   NewtonClass.obj
 0001:00005490       ?__free__@dgGlobalAllocator@@SAXPAXI@Z 10006490 f   corelib:dgMemory.obj
 0001:00005490       ?DefaultFreeMemory@Newton@@SAXPAXH@Z 10006490 f   NewtonClass.obj
 0001:000054a0       ??0Newton@@QAE@NQAVdgMemoryAllocator@@@Z 100064a0 f   NewtonClass.obj
 0001:00005520       ?DestroyBody@Newton@@QAEXPAVdgBody@@@Z 10006520 f   NewtonClass.obj
 0001:00005590       ??0NewtonUserJoint@@QAE@PAVdgWorld@@HP6AXPBUNewtonJoint@@NH@ZP6AX1PAUNewtonJointRecord@@@ZPAVdgBody@@5@Z 10006590 f   NewtonClass.obj
 0001:00005670       ??_GNewtonUserJoint@@UAEPAXI@Z 10006670 f i NewtonClass.obj
 0001:00005670       ??_ENewtonUserJoint@@UAEPAXI@Z 10006670 f i  CIL library: CIL module
 0001:000056d0       ?JacobianDerivative@NewtonUserJoint@@UAEIAAVdgContraintDescritor@@@Z 100066d0 f   NewtonClass.obj
 0001:00005710       ?AddLinearRowJacobian@NewtonUserJoint@@QAEXABVdgVector@@00@Z 10006710 f   NewtonClass.obj
 0001:000057a0       ?AddAngularRowJacobian@NewtonUserJoint@@QAEXABVdgVector@@N@Z 100067a0 f   NewtonClass.obj
 0001:00005840       ?AddGeneralRowJacobian@NewtonUserJoint@@QAEXPBN0@Z 10006840 f   NewtonClass.obj
 0001:000058d0       ?SetSpringDamperAcceleration@NewtonUserJoint@@QAEXNN@Z 100068d0 f   NewtonClass.obj
 0001:00005940       ?SetHighFriction@NewtonUserJoint@@QAEXN@Z 10006940 f   NewtonClass.obj
 0001:000059b0       ?SetLowerFriction@NewtonUserJoint@@QAEXN@Z 100069b0 f   NewtonClass.obj
 0001:00005a20       ?SetRowStiffness@NewtonUserJoint@@QAEXN@Z 10006a20 f   NewtonClass.obj
 0001:00005a80       ?GetInfo@NewtonUserJoint@@UBEXQAVdgConstraintInfo@@@Z 10006a80 f   NewtonClass.obj
 0001:00005ac0       ?Insert@?$dgTree@PAVdgConstraint@@PAX@@QAEPAVdgTreeNode@1@ABQAVdgConstraint@@PAXAA_N@Z 10006ac0 f i NewtonClass.obj
 0001:00005ac0       ?Insert@?$dgTree@PAVdgConstraint@@PAV1@@@QAEPAVdgTreeNode@1@ABQAVdgConstraint@@PAV3@AA_N@Z 10006ac0 f i Newton.obj
 0001:00005ac0       ?Insert@?$dgTree@PAVdgBody@@PAX@@QAEPAVdgTreeNode@1@ABQAVdgBody@@PAXAA_N@Z 10006ac0 f i NewtonClass.obj
 0001:00005b90       ?ModifierGetMatrix@dgCollision@@UBE?AVdgMatrix@@XZ 10006b90 f i physics:dgWorld.obj
 0001:00005bb0       ?Release@dgCollision@@UAEHXZ 10006bb0 f i physics:dgWorld.obj
 0001:00005bd0       ?GetBreakImpulse@dgCollision@@UBENXZ 10006bd0 f i physics:dgWorld.obj
 0001:00005be0       ??0dgWorld@@QAE@QAVdgMemoryAllocator@@@Z 10006be0 f   physics:dgWorld.obj
 0001:000061f0       ??1dgWorldDynamicUpdate@@QAE@XZ 100071f0 f i physics:dgWorld.obj
 0001:00006350       ??1dgWorld@@QAE@XZ         10007350 f   physics:dgWorld.obj
 0001:00006640       ?RemoveAllGroupID@dgWorld@@QAEXXZ 10007640 f   physics:dgWorld.obj
 0001:000066a0       ?DestroyAllBodies@dgWorld@@QAEXXZ 100076a0 f   physics:dgWorld.obj
 0001:000067b0       ?CreateBody@dgWorld@@QAEPAVdgBody@@QAVdgCollision@@ABVdgMatrix@@@Z 100077b0 f   physics:dgWorld.obj
 0001:00006940       ?UpdateCollision@dgWorld@@QAEXXZ 10007940 f   physics:dgWorld.obj
 0001:000069f0       ?Update@dgWorld@@QAEXN@Z   100079f0 f   physics:dgWorld.obj
 0001:00006af0       ?CreateHingeConstraint@dgWorld@@QAEPAVdgHingeConstraint@@ABVdgVector@@0QAVdgBody@@PAV4@@Z 10007af0 f   physics:dgWorld.obj
 0001:00006b80       ?CreateUpVectorConstraint@dgWorld@@QAEPAVdgUpVectorConstraint@@ABVdgVector@@PAVdgBody@@@Z 10007b80 f   physics:dgWorld.obj
 0001:00006c30       ?CreateSlidingConstraint@dgWorld@@QAEPAVdgSlidingConstraint@@ABVdgVector@@0QAVdgBody@@PAV4@@Z 10007c30 f   physics:dgWorld.obj
 0001:00006cc0       ?CreateCorkscrewConstraint@dgWorld@@QAEPAVdgCorkscrewConstraint@@ABVdgVector@@0QAVdgBody@@PAV4@@Z 10007cc0 f   physics:dgWorld.obj
 0001:00006d50       ?CreateUniversalConstraint@dgWorld@@QAEPAVdgUniversalConstraint@@ABVdgVector@@00QAVdgBody@@PAV4@@Z 10007d50 f   physics:dgWorld.obj
 0001:00006dd0       ?BodySetMatrix@dgWorld@@QAEXPAVdgBody@@ABVdgMatrix@@@Z 10007dd0 f   physics:dgWorld.obj
 0001:00007030       ?AreBodyConnectedByJoints@dgWorld@@AAE_NQAVdgBody@@0@Z 10008030 f   physics:dgWorld.obj
 0001:00007110       ?FlushCache@dgWorld@@QAEXXZ 10008110 f   physics:dgWorld.obj
 0001:00007170       ?ApplyExtenalForces@dgBody@@AAEXNH@Z 10008170 f i physics:dgBroadPhaseCollision.obj
 0001:000071e0       ?IsInEquelibrium@dgBody@@QBE_NXZ 100081e0 f i physics:dgBroadPhaseCollision.obj
 0001:00007310       ?Remove@dgSortArray@@QAEXQAVdgBody@@@Z 10008310 f   physics:dgBroadPhaseCollision.obj
 0001:00007380       ?Sort@dgSortArray@@QAENXZ  10008380 f   physics:dgBroadPhaseCollision.obj
 0001:000074b0       ?RayCast@dgSortArray@@QBENNABUdgLineBox@@P6ANQBVdgBody@@ABVdgVector@@HQAXN@ZP6AI1QBVdgCollision@@3@Z3@Z 100084b0 f   physics:dgBroadPhaseCollision.obj
 0001:00007550       ?Add@dgBroadPhaseCell@@AAEXQAVdgBody@@@Z 10008550 f   physics:dgBroadPhaseCollision.obj
 0001:00007600       ?Remove@dgBroadPhaseCell@@AAEXQAVdgBody@@@Z 10008600 f   physics:dgBroadPhaseCollision.obj
 0001:00007640       ?UpdateAutoPair@dgBroadPhaseCell@@AAEXQAVdgWorld@@H@Z 10008640 f   physics:dgBroadPhaseCollision.obj
 0001:00007770       ?Init@dgBroadPhaseLayer@@AAEXQAVdgWorld@@NH@Z 10008770 f   physics:dgBroadPhaseCollision.obj
 0001:00007790       ?FindCreate@dgBroadPhaseLayer@@AAEPAVdgBroadPhaseCell@@HH@Z 10008790 f   physics:dgBroadPhaseCollision.obj
 0001:000078c0       ??0dgBroadPhaseCollision@@AAE@PAVdgMemoryAllocator@@@Z 100088c0 f   physics:dgBroadPhaseCollision.obj
 0001:00007cb0       ??_EdgParallelSolverBodyInertia@@UAEPAXI@Z 10008cb0 f i  CIL library: CIL module
 0001:00007cb0       ??_GdgBroadPhaseCellPairsWorkerThread@@UAEPAXI@Z 10008cb0 f i physics:dgBroadPhaseCollision.obj
 0001:00007cb0       ??_EdgBroadPhaseCalculateContactsWorkerThread@@UAEPAXI@Z 10008cb0 f i  CIL library: CIL module
 0001:00007cb0       ??_EdgBroadPhaseApplyExternalForce@@UAEPAXI@Z 10008cb0 f i  CIL library: CIL module
 0001:00007cb0       ??_EdgParallelSolverBuildJacobianMatrix@@UAEPAXI@Z 10008cb0 f i  CIL library: CIL module
 0001:00007cb0       ??_EdgParallelSolverBuildJacobianRows@@UAEPAXI@Z 10008cb0 f i  CIL library: CIL module
 0001:00007cb0       ??_EdgParallelSolverCalculateForces@@UAEPAXI@Z 10008cb0 f i  CIL library: CIL module
 0001:00007cb0       ??_GdgParallelSolverUpdateForce@@UAEPAXI@Z 10008cb0 f i physics:dgWorldDynamicUpdate.obj
 0001:00007cb0       ??_EdgBroadPhaseCellPairsWorkerThread@@UAEPAXI@Z 10008cb0 f i  CIL library: CIL module
 0001:00007cb0       ??_GdgParallelSolverJointAcceleration@@UAEPAXI@Z 10008cb0 f i physics:dgWorldDynamicUpdate.obj
 0001:00007cb0       ??_GdgBroadPhaseMaterialCallbackWorkerThread@@UAEPAXI@Z 10008cb0 f i physics:dgBroadPhaseCollision.obj
 0001:00007cb0       ??_GdgParallelSolverBuildJacobianMatrix@@UAEPAXI@Z 10008cb0 f i physics:dgWorldDynamicUpdate.obj
 0001:00007cb0       ??_EdgParallelSolverUpdateForce@@UAEPAXI@Z 10008cb0 f i  CIL library: CIL module
 0001:00007cb0       ??_EdgParallelSolverInitInternalForces@@UAEPAXI@Z 10008cb0 f i  CIL library: CIL module
 0001:00007cb0       ??_GdgBroadPhaseCalculateContactsWorkerThread@@UAEPAXI@Z 10008cb0 f i physics:dgBroadPhaseCollision.obj
 0001:00007cb0       ??_GdgParallelSolverUpdateVeloc@@UAEPAXI@Z 10008cb0 f i physics:dgWorldDynamicUpdate.obj
 0001:00007cb0       ??_GdgParallelSolverInitInternalForces@@UAEPAXI@Z 10008cb0 f i physics:dgWorldDynamicUpdate.obj
 0001:00007cb0       ??_EdgSolverWorlkerThreads@@UAEPAXI@Z 10008cb0 f i  CIL library: CIL module
 0001:00007cb0       ??_EdgBroadPhaseMaterialCallbackWorkerThread@@UAEPAXI@Z 10008cb0 f i  CIL library: CIL module
 0001:00007cb0       ??_EdgParallelSolverClear@@UAEPAXI@Z 10008cb0 f i  CIL library: CIL module
 0001:00007cb0       ??_EdgParallelSolverUpdateVeloc@@UAEPAXI@Z 10008cb0 f i  CIL library: CIL module
 0001:00007cb0       ??_EdgParallelSolverInitFeedbackUpdate@@UAEPAXI@Z 10008cb0 f i  CIL library: CIL module
 0001:00007cb0       ??_GdgParallelSolverCalculateForces@@UAEPAXI@Z 10008cb0 f i physics:dgWorldDynamicUpdate.obj
 0001:00007cb0       ??_GdgWorkerThread@@UAEPAXI@Z 10008cb0 f i physics:dgWorld.obj
 0001:00007cb0       ??_GdgParallelSolverBodyInertia@@UAEPAXI@Z 10008cb0 f i physics:dgWorldDynamicUpdate.obj
 0001:00007cb0       ??_GdgParallelSolverInitFeedbackUpdate@@UAEPAXI@Z 10008cb0 f i physics:dgWorldDynamicUpdate.obj
 0001:00007cb0       ??_GdgParallelSolverBuildJacobianRows@@UAEPAXI@Z 10008cb0 f i physics:dgWorldDynamicUpdate.obj
 0001:00007cb0       ??_GdgSolverWorlkerThreads@@UAEPAXI@Z 10008cb0 f i physics:dgWorldDynamicUpdate.obj
 0001:00007cb0       ??_EdgParallelSolverJointAcceleration@@UAEPAXI@Z 10008cb0 f i  CIL library: CIL module
 0001:00007cb0       ??_GdgParallelSolverClear@@UAEPAXI@Z 10008cb0 f i physics:dgWorldDynamicUpdate.obj
 0001:00007cb0       ??_EdgWorkerThread@@UAEPAXI@Z 10008cb0 f i  CIL library: CIL module
 0001:00007cb0       ??_GdgBroadPhaseApplyExternalForce@@UAEPAXI@Z 10008cb0 f i physics:dgBroadPhaseCollision.obj
 0001:00007cd0       ??1dgBroadPhaseCollision@@AAE@XZ 10008cd0 f   physics:dgBroadPhaseCollision.obj
 0001:00007de0       ?SetWorldSize@dgBroadPhaseCollision@@QAEXABVdgVector@@0@Z 10008de0 f   physics:dgBroadPhaseCollision.obj
 0001:000080c0       ?InvalidateCache@dgBroadPhaseCollision@@AAEXXZ 100090c0 f   physics:dgBroadPhaseCollision.obj
 0001:00008140       ?Remove@dgBroadPhaseCollision@@AAEXQAVdgBody@@@Z 10009140 f   physics:dgBroadPhaseCollision.obj
 0001:000081e0       ?UpdatePairs@dgBroadPhaseCollision@@ABEXQAVdgBody@@QAVdgListNode@?$dgList@VdgSortArrayEntry@@@@HH@Z 100091e0 f   physics:dgBroadPhaseCollision.obj
 0001:000082e0       ?UpdatePairs@dgBroadPhaseCollision@@ABEXAAVdgBroadPhaseCell@@0H@Z 100092e0 f   physics:dgBroadPhaseCollision.obj
 0001:00008350       ?ForEachBodyInAABB@dgBroadPhaseCollision@@QBEXABVdgVector@@0P6AXPAVdgBody@@QAX@Z2@Z 10009350 f   physics:dgBroadPhaseCollision.obj
 0001:000086c0       ?ConvexCast@dgBroadPhaseCollision@@QBEHQAVdgCollision@@ABVdgMatrix@@ABVdgVector@@AANP6AIQBVdgBody@@QBV2@QAX@Z6QAVdgConvexCastReturnInfo@@HH@Z 100096c0 f   physics:dgBroadPhaseCollision.obj
 0001:00009130       ?Realloc@dgBroadPhaseCalculateContactsWorkerThread@@QAEXHHH@Z 1000a130 f   physics:dgBroadPhaseCollision.obj
 0001:00009280       ?ThreadExecute@dgBroadPhaseCellPairsWorkerThread@@UAEXXZ 1000a280 f   physics:dgBroadPhaseCollision.obj
 0001:000092f0       ?ThreadExecute@dgBroadPhaseApplyExternalForce@@UAEXXZ 1000a2f0 f   physics:dgBroadPhaseCollision.obj
 0001:00009450       ?ThreadExecute@dgBroadPhaseCalculateContactsWorkerThread@@UAEXXZ 1000a450 f   physics:dgBroadPhaseCollision.obj
 0001:000095e0       ?ThreadExecute@dgBroadPhaseMaterialCallbackWorkerThread@@UAEXXZ 1000a5e0 f   physics:dgBroadPhaseCollision.obj
 0001:000096b0       ?RayCast@dgBroadPhaseCollision@@QBEXABVdgVector@@0P6ANQBVdgBody@@0HQAXN@ZP6AI1QBVdgCollision@@2@Z2@Z 1000a6b0 f   physics:dgBroadPhaseCollision.obj
 0001:0000a030       ?UpdateBodyBroadphase@dgBroadPhaseCollision@@AAEXQAVdgBody@@H@Z 1000b030 f   physics:dgBroadPhaseCollision.obj
 0001:0000a500       ?UpdateContactsBroadPhaseBegin@dgBroadPhaseCollision@@AAEIN_NI@Z 1000b500 f   physics:dgBroadPhaseCollision.obj
 0001:0000af30       ?UpdateContactsBroadPhaseEnd@dgBroadPhaseCollision@@AAEXN@Z 1000bf30 f   physics:dgBroadPhaseCollision.obj
 0001:0000aff0       ?UpdateContacts@dgBroadPhaseCollision@@AAEXN_N@Z 1000bff0 f   physics:dgBroadPhaseCollision.obj
 0001:0000b220       ??Z?$dgTemplateVector@N@@QAEAAV0@ABV0@@Z 1000c220 f i physics:dgBroadPhaseCollision.obj
 0001:0000b240       ?Append@?$dgList@VdgSortArrayEntry@@@@QAEPAVdgListNode@1@XZ 1000c240 f i physics:dgBroadPhaseCollision.obj
 0001:0000b2c0       ?Remove@?$dgTree@VdgBroadPhaseCell@@I@@QAEXQAVdgTreeNode@1@@Z 1000c2c0 f i physics:dgBroadPhaseCollision.obj
 0001:0000b2e0       ?RemoveAll@?$dgList@VdgSortArrayEntry@@@@QAEXXZ 1000c2e0 f i physics:dgBroadPhaseCollision.obj
 0001:0000b330       ?Insert@?$dgTree@VdgBroadPhaseCell@@I@@QAEPAVdgTreeNode@1@ABVdgBroadPhaseCell@@IAA_N@Z 1000c330 f i physics:dgBroadPhaseCollision.obj
 0001:0000b410       ?AddDamingAcceleration@dgBody@@AAEXXZ 1000c410 f i physics:dgWorldDynamicUpdate.obj
 0001:0000b550       ??0dgWorldDynamicUpdate@@AAE@XZ 1000c550 f   physics:dgWorldDynamicUpdate.obj
 0001:0000b9d0       ?UpdateDynamics@dgWorldDynamicUpdate@@AAEXQAVdgWorld@@HN@Z 1000c9d0 f   physics:dgWorldDynamicUpdate.obj
 0001:0000be30       ?ThreadExecute@dgSolverWorlkerThreads@@UAEXXZ 1000ce30 f   physics:dgWorldDynamicUpdate.obj
 0001:0000c5c0       ?ReallocBodyMemory@dgWorldDynamicUpdate@@AAEXH@Z 1000d5c0 f   physics:dgWorldDynamicUpdate.obj
 0001:0000c6d0       ?ReallocIslandMemory@dgWorldDynamicUpdate@@AAEXH@Z 1000d6d0 f   physics:dgWorldDynamicUpdate.obj
 0001:0000c800       ?ReallocJointsMemory@dgWorldDynamicUpdate@@AAEXH@Z 1000d800 f   physics:dgWorldDynamicUpdate.obj
 0001:0000c930       ?ReallocJacobiansMemory@dgWorldDynamicUpdate@@AAEXHH@Z 1000d930 f   physics:dgWorldDynamicUpdate.obj
 0001:0000cc10       ?ReallocIntenalForcesMemory@dgWorldDynamicUpdate@@AAEXHH@Z 1000dc10 f   physics:dgWorldDynamicUpdate.obj
 0001:0000cda0       ?BuildIsland@dgWorldDynamicUpdate@@AAEXAAV?$dgQueue@PAVdgBody@@@@HHH@Z 1000dda0 f   physics:dgWorldDynamicUpdate.obj
 0001:0000cfd0       ?SpanningTree@dgWorldDynamicUpdate@@AAEXQAVdgBody@@@Z 1000dfd0 f   physics:dgWorldDynamicUpdate.obj
 0001:0000d3c0       ?IntegrateArray@dgWorldDynamicUpdate@@ABEXPBVdgBodyInfo@@HNNH_N@Z 1000e3c0 f   physics:dgWorldDynamicUpdate.obj
 0001:0000da30       ?GetJacobialDerivatives@dgWorldDynamicUpdate@@AAEHABVdgIsland@@H_NHN@Z 1000ea30 f   physics:dgWorldDynamicUpdate.obj
 0001:0000dfc0       ?BuildJacobianMatrix@dgWorldDynamicUpdate@@AAEXABVdgIsland@@HN@Z 1000efc0 f   physics:dgWorldDynamicUpdate.obj
 0001:0000e5b0       ?ApplyExternalForcesAndAcceleration@dgJacobianMemory@@QBEXN@Z 1000f5b0 f   physics:dgWorldDynamicUpdate.obj
 0001:0000eba0       ?SwapRows@dgJacobianMemory@@QBEXHH@Z 1000fba0 f   physics:dgWorldDynamicUpdate.obj
 0001:0000ed20       ?CalculateSimpleBodyReactionsForces@dgJacobianMemory@@QBEXN@Z 1000fd20 f   physics:dgWorldDynamicUpdate.obj
 0001:0000fb70       ?CalculateForcesSimulationMode@dgJacobianMemory@@QBEXN@Z 10010b70 f   physics:dgWorldDynamicUpdate.obj
 0001:00011d60       ?CalculateJointForces@dgJacobianMemory@@QBENHPANN@Z 10012d60 f   physics:dgWorldDynamicUpdate.obj
 0001:00012960       ?CalculateForcesGameMode@dgJacobianMemory@@QBEXHN@Z 10013960 f   physics:dgWorldDynamicUpdate.obj
 0001:000139e0       ?ThreadExecute@dgParallelSolverBodyInertia@@UAEXXZ 100149e0 f   physics:dgWorldDynamicUpdate.obj
 0001:00013a40       ?ThreadExecute@dgParallelSolverBuildJacobianRows@@UAEXXZ 10014a40 f   physics:dgWorldDynamicUpdate.obj
 0001:00013e60       ?ThreadExecute@dgParallelSolverBuildJacobianMatrix@@UAEXXZ 10014e60 f   physics:dgWorldDynamicUpdate.obj
 0001:00014470       ?GetJacobialDerivativesParallel@dgWorldDynamicUpdate@@AAEHABVdgIsland@@_NHN@Z 10015470 f   physics:dgWorldDynamicUpdate.obj
 0001:00014580       ?BuildJacobianMatrixParallel@dgWorldDynamicUpdate@@AAEXABVdgIsland@@NH@Z 10015580 f   physics:dgWorldDynamicUpdate.obj
 0001:00014940       ?ThreadExecute@dgParallelSolverClear@@UAEXXZ 10015940 f   physics:dgWorldDynamicUpdate.obj
 0001:00014a40       ?ThreadExecute@dgParallelSolverInitInternalForces@@UAEXXZ 10015a40 f   physics:dgWorldDynamicUpdate.obj
 0001:00014d40       ?ThreadExecute@dgParallelSolverJointAcceleration@@UAEXXZ 10015d40 f   physics:dgWorldDynamicUpdate.obj
 0001:00014ee0       ?ThreadExecute@dgParallelSolverUpdateVeloc@@UAEXXZ 10015ee0 f   physics:dgWorldDynamicUpdate.obj
 0001:000150d0       ?ThreadExecute@dgParallelSolverUpdateForce@@UAEXXZ 100160d0 f   physics:dgWorldDynamicUpdate.obj
 0001:00015410       ?ThreadExecute@dgParallelSolverInitFeedbackUpdate@@UAEXXZ 10016410 f   physics:dgWorldDynamicUpdate.obj
 0001:00015530       ?ThreadExecute@dgParallelSolverCalculateForces@@UAEXXZ 10016530 f   physics:dgWorldDynamicUpdate.obj
 0001:00015b70       ?CalculateForcesGameModeParallel@dgJacobianMemory@@QBEXHNH@Z 10016b70 f   physics:dgWorldDynamicUpdate.obj
 0001:00016470       ??Y?$dgTemplateVector@N@@QAEAAV0@ABV0@@Z 10017470 f i physics:dgWorldDynamicUpdate.obj
 0001:00016490       ?CompProduct@?$dgTemplateVector@N@@QBE?AV1@ABV1@@Z 10017490 f i physics:dgWorldDynamicUpdate.obj
 0001:000164c0       ??$dgSort@VdgIsland@@@@YAXQAVdgIsland@@HP6AHQBV0@1QAX@Z2@Z 100174c0 f i physics:dgWorldDynamicUpdate.obj
 0001:00016700       ?AddToBreakQueue@dgWorld@@QAEXQBVdgContact@@QAVdgBody@@N@Z 10017700 f i physics:dgNarrowPhaseCollision.obj
 0001:000167b0       ?CreateNull@dgWorld@@QAEPAVdgCollision@@XZ 100177b0 f   physics:dgNarrowPhaseCollision.obj
 0001:00016860       ?CreateBox@dgWorld@@QAEPAVdgCollision@@NNNHABVdgMatrix@@@Z 10017860 f   physics:dgNarrowPhaseCollision.obj
 0001:00016ae0       ?CreateSphere@dgWorld@@QAEPAVdgCollision@@NHABVdgMatrix@@@Z 10017ae0 f   physics:dgNarrowPhaseCollision.obj
 0001:00016cc0       ?CreateEllipse@dgWorld@@QAEPAVdgCollision@@NNNHABVdgMatrix@@@Z 10017cc0 f   physics:dgNarrowPhaseCollision.obj
 0001:00016f40       ?CreateCapsule@dgWorld@@QAEPAVdgCollision@@NNHABVdgMatrix@@@Z 10017f40 f   physics:dgNarrowPhaseCollision.obj
 0001:00017180       ?CreateCone@dgWorld@@QAEPAVdgCollision@@NNHABVdgMatrix@@@Z 10018180 f   physics:dgNarrowPhaseCollision.obj
 0001:000173b0       ?CreateCylinder@dgWorld@@QAEPAVdgCollision@@NNHABVdgMatrix@@@Z 100183b0 f   physics:dgNarrowPhaseCollision.obj
 0001:000175f0       ?CreateChamferCylinder@dgWorld@@QAEPAVdgCollision@@NNHABVdgMatrix@@@Z 100185f0 f   physics:dgNarrowPhaseCollision.obj
 0001:00017830       ?CreateConvexHull@dgWorld@@QAEPAVdgCollision@@HPBNHNHABVdgMatrix@@@Z 10018830 f   physics:dgNarrowPhaseCollision.obj
 0001:00017a90       ?CreateCollisionCompoundBreakable@dgWorld@@QAEPAVdgCollision@@HQBQBVdgMeshEffect@@QBHQBN1HN@Z 10018a90 f   physics:dgNarrowPhaseCollision.obj
 0001:00017ac0       ?CreateBVHFieldCollision@dgWorld@@QAEPAVdgCollision@@HHHQBGQBDNN@Z 10018ac0 f   physics:dgNarrowPhaseCollision.obj
 0001:00017b20       ?Serialize@dgWorld@@QBEXPAVdgCollision@@P6AXPAXPBXI@ZQAX@Z 10018b20 f   physics:dgNarrowPhaseCollision.obj
 0001:00017b80       ?CreateFromSerialization@dgWorld@@QAEPAVdgCollision@@P6AXPAX0I@ZQAX@Z 10018b80 f   physics:dgNarrowPhaseCollision.obj
 0001:00017f90       ?GetMaterial@dgWorld@@QBEPAVdgContactMaterial@@II@Z 10018f90 f   physics:dgNarrowPhaseCollision.obj
 0001:00017fe0       ?GetNextMaterial@dgWorld@@QBEPAVdgContactMaterial@@PAV2@@Z 10018fe0 f   physics:dgNarrowPhaseCollision.obj
 0001:00018030       ?CreateBodyGroupID@dgWorld@@QAEIXZ 10019030 f   physics:dgNarrowPhaseCollision.obj
 0001:000180b0       ?RemoveFromCache@dgWorld@@QAEXQAVdgCollision@@@Z 100190b0 f   physics:dgNarrowPhaseCollision.obj
 0001:00018110       ?ReleaseCollision@dgWorld@@QAEXQAVdgCollision@@@Z 10019110 f   physics:dgNarrowPhaseCollision.obj
 0001:000181b0       ?ClosestPoint@dgWorld@@QBEHAAVdgTriplex@@QAVdgCollision@@ABVdgMatrix@@00H@Z 100191b0 f   physics:dgNarrowPhaseCollision.obj
 0001:00018240       ?ClosestPoint@dgWorld@@QBEHQAVdgCollision@@ABVdgMatrix@@01AAVdgTriplex@@22H@Z 10019240 f   physics:dgNarrowPhaseCollision.obj
 0001:000184d0       ?ReduceContacts@dgWorld@@ABEHHQAVdgContactPoint@@HNH@Z 100194d0 f   physics:dgNarrowPhaseCollision.obj
 0001:00018690       ?PruneContacts@dgWorld@@ABEHHQAVdgContactPoint@@H@Z 10019690 f   physics:dgNarrowPhaseCollision.obj
 0001:00018840       ?ProcessCachedContacts@dgWorld@@ABEXQAVdgContact@@QBVdgContactMaterial@@NH@Z 10019840 f   physics:dgNarrowPhaseCollision.obj
 0001:00018910       ?ProcessTriggers@dgWorld@@AAEXQAUdgPair@dgCollidingPairCollector@@NH@Z 10019910 f   physics:dgNarrowPhaseCollision.obj
 0001:000189f0       ?ProcessContacts@dgWorld@@AAEXQAUdgPair@dgCollidingPairCollector@@NH@Z 100199f0 f   physics:dgNarrowPhaseCollision.obj
 0001:00019740       ?ValidateContactCache@dgWorld@@ABEHQAVdgBody@@0QAVdgContact@@@Z 1001a740 f   physics:dgNarrowPhaseCollision.obj
 0001:00019c70       ?CompoundContactsSimd@dgWorld@@ABEXQAUdgPair@dgCollidingPairCollector@@AAVdgCollisionParamProxi@@@Z 1001ac70 f   physics:dgNarrowPhaseCollision.obj
 0001:00019ce0       ?CompoundContacts@dgWorld@@ABEXQAUdgPair@dgCollidingPairCollector@@AAVdgCollisionParamProxi@@@Z 1001ace0 f   physics:dgNarrowPhaseCollision.obj
 0001:00019d50       ?ConvexContactsSimd@dgWorld@@ABEXQAUdgPair@dgCollidingPairCollector@@AAVdgCollisionParamProxi@@@Z 1001ad50 f   physics:dgNarrowPhaseCollision.obj
 0001:00019e80       ?ConvexContacts@dgWorld@@ABEXQAUdgPair@dgCollidingPairCollector@@AAVdgCollisionParamProxi@@@Z 1001ae80 f   physics:dgNarrowPhaseCollision.obj
 0001:00019fc0       ?SceneContacts@dgWorld@@ABEXABUdgProxy@dgCollisionScene@@QAUdgPair@dgCollidingPairCollector@@AAVdgCollisionParamProxi@@@Z 1001afc0 f   physics:dgNarrowPhaseCollision.obj
 0001:0001a090       ?SceneContacts@dgWorld@@ABEXQAUdgPair@dgCollidingPairCollector@@AAVdgCollisionParamProxi@@@Z 1001b090 f   physics:dgNarrowPhaseCollision.obj
 0001:0001a150       ?SceneContactsSimd@dgWorld@@ABEXQAUdgPair@dgCollidingPairCollector@@AAVdgCollisionParamProxi@@@Z 1001b150 f   physics:dgNarrowPhaseCollision.obj
 0001:0001a210       ?CalculateContactsSimd@dgWorld@@AAEXQAUdgPair@dgCollidingPairCollector@@NH@Z 1001b210 f   physics:dgNarrowPhaseCollision.obj
 0001:0001a370       ?CalculateContacts@dgWorld@@AAEXQAUdgPair@dgCollidingPairCollector@@NH@Z 1001b370 f   physics:dgNarrowPhaseCollision.obj
 0001:0001a4f0       ?CollideContinueSimd@dgWorld@@QAEHPAVdgCollision@@ABVdgMatrix@@ABVdgVector@@20122AANPAVdgTriplex@@4PANHH@Z 1001b4f0 f   physics:dgNarrowPhaseCollision.obj
 0001:0001ab80       ?CollideContinue@dgWorld@@QAEHPAVdgCollision@@ABVdgMatrix@@ABVdgVector@@20122AANPAVdgTriplex@@4PANHH@Z 1001bb80 f   physics:dgNarrowPhaseCollision.obj
 0001:0001b250       ?Collide@dgWorld@@QAEHPAVdgCollision@@ABVdgMatrix@@01PAVdgTriplex@@2PANHH@Z 1001c250 f   physics:dgNarrowPhaseCollision.obj
 0001:0001b730       ?Append@?$dgList@VdgContactMaterial@@@@QAEPAVdgListNode@1@XZ 1001c730 f i physics:dgNarrowPhaseCollision.obj
 0001:0001b7c0       ?Insert@?$dgTree@PAVdgCollision@@I@@QAEPAVdgTreeNode@1@ABQAVdgCollision@@I@Z 1001c7c0 f i physics:dgNarrowPhaseCollision.obj
 0001:0001b7e0       ??$dgSort@VdgContactPoint@@@@YAXQAVdgContactPoint@@HP6AHQBV0@1QAX@Z2@Z 1001c7e0 f i physics:dgNarrowPhaseCollision.obj
 0001:0001b9c0       ?Insert@?$dgTree@VdgContactMaterial@@I@@QAEPAVdgTreeNode@1@ABVdgContactMaterial@@IAA_N@Z 1001c9c0 f i physics:dgNarrowPhaseCollision.obj
 0001:0001bab0       ??0dgMeshEffectBuilder@@QAE@XZ 1001cab0 f i physics:dgMeshEffect.obj
 0001:0001bb60       ?GetShapeFromCollision@dgMeshEffectBuilder@@SAXPAXHPBNH@Z 1001cb60 f i physics:dgMeshEffect.obj
 0001:0001bd30       ??_EdgMeshEffect@@UAEPAXI@Z 1001cd30 f i  CIL library: CIL module
 0001:0001bd30       ??_GdgMeshEffect@@UAEPAXI@Z 1001cd30 f i physics:dgMeshEffect.obj
 0001:0001bd60       ??0dgMeshEffect@@QAE@AAVdgPolyhedra@@ABV0@@Z 1001cd60 f   physics:dgMeshEffect.obj
 0001:0001be80       ??0dgMeshEffect@@QAE@ABV0@@Z 1001ce80 f   physics:dgMeshEffect.obj
 0001:0001bfa0       ??0dgMeshEffect@@QAE@QAVdgCollision@@@Z 1001cfa0 f   physics:dgMeshEffect.obj
 0001:0001c300       ??1dgMeshEffect@@UAE@XZ    1001d300 f   physics:dgMeshEffect.obj
 0001:0001c390       ?Init@dgMeshEffect@@AAEX_N@Z 1001d390 f   physics:dgMeshEffect.obj
 0001:0001c430       ?Triangulate@dgMeshEffect@@QAEXXZ 1001d430 f   physics:dgMeshEffect.obj
 0001:0001c740       ?ConvertToPolygons@dgMeshEffect@@QAEXXZ 1001d740 f   physics:dgMeshEffect.obj
 0001:0001ca50       ?RemoveUnusedVertices@dgMeshEffect@@QAEXQAH@Z 1001da50 f   physics:dgMeshEffect.obj
 0001:0001ce90       ?CalculateOOBB@dgMeshEffect@@QBE?AVdgMatrix@@AAVdgVector@@@Z 1001de90 f   physics:dgMeshEffect.obj
 0001:0001cfd0       ?CalculateAABB@dgMeshEffect@@QBEXAAVdgVector@@0@Z 1001dfd0 f   physics:dgMeshEffect.obj
 0001:0001d110       ?EnumerateAttributeArray@dgMeshEffect@@AAEXPAUdgVertexAtribute@1@@Z 1001e110 f   physics:dgMeshEffect.obj
 0001:0001d1c0       ?ApplyAttributeArray@dgMeshEffect@@AAEXPAUdgVertexAtribute@1@@Z 1001e1c0 f   physics:dgMeshEffect.obj
 0001:0001d340       ?FixCylindricalMapping@dgMeshEffect@@ABEXPAUdgVertexAtribute@1@@Z 1001e340 f   physics:dgMeshEffect.obj
 0001:0001d4f0       ?SphericalMapping@dgMeshEffect@@QAEXH@Z 1001e4f0 f   physics:dgMeshEffect.obj
 0001:0001d770       ?CylindricalMapping@dgMeshEffect@@QAEXHH@Z 1001e770 f   physics:dgMeshEffect.obj
 0001:0001dbc0       ?BoxMapping@dgMeshEffect@@QAEXHHH@Z 1001ebc0 f   physics:dgMeshEffect.obj
 0001:0001df20       ?CalculateNormals@dgMeshEffect@@QAEXN@Z 1001ef20 f   physics:dgMeshEffect.obj
 0001:0001e280       ?AddAtribute@dgMeshEffect@@AAEXABUdgVertexAtribute@1@@Z 1001f280 f   physics:dgMeshEffect.obj
 0001:0001e340       ?AddVertex@dgMeshEffect@@AAEXABVdgVector@@@Z 1001f340 f   physics:dgMeshEffect.obj
 0001:0001e420       ?AddPoint@dgMeshEffect@@AAEXPBNH@Z 1001f420 f   physics:dgMeshEffect.obj
 0001:0001e4d0       ?PackVertexArrays@dgMeshEffect@@QAEXXZ 1001f4d0 f   physics:dgMeshEffect.obj
 0001:0001e5f0       ?AddPolygon@dgMeshEffect@@QAEXHPBNHH@Z 1001f5f0 f   physics:dgMeshEffect.obj
 0001:0001e760       ?EndPolygon@dgMeshEffect@@QAEXXZ 1001f760 f   physics:dgMeshEffect.obj
 0001:0001ea50       ?BuildFromVertexListIndexList@dgMeshEffect@@QAEXHQBH0QBNH01H01H01H0@Z 1001fa50 f   physics:dgMeshEffect.obj
 0001:0001ef90       ?GetTotalIndexCount@dgMeshEffect@@QBEHXZ 1001ff90 f   physics:dgMeshEffect.obj
 0001:0001f020       ?GetFaces@dgMeshEffect@@QBEXQAH0QAPAX@Z 10020020 f   physics:dgMeshEffect.obj
 0001:0001f130       ?GetFirstVertex@dgMeshEffect@@QAEPAXXZ 10020130 f   physics:dgMeshEffect.obj
 0001:0001f190       ?GetNextVertex@dgMeshEffect@@QAEPAXPBX@Z 10020190 f   physics:dgMeshEffect.obj
 0001:0001f240       ?GetFirstPoint@dgMeshEffect@@QAEPAXXZ 10020240 f   physics:dgMeshEffect.obj
 0001:0001f2d0       ?GetNextPoint@dgMeshEffect@@QAEPAXPBX@Z 100202d0 f   physics:dgMeshEffect.obj
 0001:0001f370       ?ConectVertex@dgMeshEffect@@QAEPAVdgEdge@@QAV2@0@Z 10020370 f   physics:dgMeshEffect.obj
 0001:0001f3f0       ?GetNextEdge@dgMeshEffect@@QAEPAXPBX@Z 100203f0 f   physics:dgMeshEffect.obj
 0001:0001f490       ?GetNextFace@dgMeshEffect@@QAEPAXPBX@Z 10020490 f   physics:dgMeshEffect.obj
 0001:0001f530       ?GetVertexStreams@dgMeshEffect@@QAEXHPANH0H0H0@Z 10020530 f   physics:dgMeshEffect.obj
 0001:0001f630       ?GetIndirectVertexStreams@dgMeshEffect@@QAEXHPANPAH1H011H011H011@Z 10020630 f   physics:dgMeshEffect.obj
 0001:0001fa80       ?MaterialGeomteryBegin@dgMeshEffect@@QAEPAUdgIndexArray@1@XZ 10020a80 f   physics:dgMeshEffect.obj
 0001:0001fcf0       ?GetMaterialGetIndexStream@dgMeshEffect@@QAEXPAUdgIndexArray@1@HPAH@Z 10020cf0 f   physics:dgMeshEffect.obj
 0001:0001fd50       ?GetMaterialGetIndexStreamShort@dgMeshEffect@@QAEXPAUdgIndexArray@1@HPAF@Z 10020d50 f   physics:dgMeshEffect.obj
 0001:0001fdc0       ?CreateConvexCollision@dgMeshEffect@@QBEPAVdgCollision@@NHABVdgMatrix@@@Z 10020dc0 f   physics:dgMeshEffect.obj
 0001:00020160       ?InterpolateEdge@dgMeshEffect@@ABE?AUdgVertexAtribute@1@QAVdgEdge@@N@Z 10021160 f   physics:dgMeshEffect.obj
 0001:00020230       ?InsertEdgeVertex@dgMeshEffect@@QAEPAVdgEdge@@QAV2@N@Z 10021230 f   physics:dgMeshEffect.obj
 0001:00020340       ?HasOpenEdges@dgMeshEffect@@QBE_NXZ 10021340 f   physics:dgMeshEffect.obj
 0001:000203c0       ?WeldTJoints@dgMeshEffect@@QAEXXZ 100213c0 f   physics:dgMeshEffect.obj
 0001:00020960       ??EIterator@?$dgTree@VdgEdge@@_J@@QAEXH@Z 10021960 f i physics:dgMeshEffect.obj
 0001:000209a0       ??0?$dgStack@VdgVector@@@@QAE@H@Z 100219a0 f i physics:dgMeshEffect.obj
 0001:000209a0       ??0?$dgStack@VdgBigVector@@@@QAE@H@Z 100219a0 f i corelib:dgConvexHull3d.obj
 0001:00020a00       ??0?$dgStack@UdgVertexAtribute@dgMeshEffect@@@@QAE@H@Z 10021a00 f i physics:dgMeshEffect.obj
 0001:00020a60       ??_EdgMeshEffect@@WBM@AEPAXI@Z 10021a60 f i physics:dgMeshEffect.obj
 0001:00020a70       ??_GdgRefCounter@@MAEPAXI@Z 10021a70 f i physics:dgMeshEffect.obj
 0001:00020a70       ??_EdgRefCounter@@MAEPAXI@Z 10021a70 f i  CIL library: CIL module
 0001:00020a90       ??0dgMeshEffect@@QAE@QAVdgMemoryAllocator@@QBNHHN@Z 10021a90 f   physics:dgMeshEffect2.obj
 0001:00020e70       ??1dgEdgeMap@Tetrahedralization@@QAE@XZ 10021e70 f i physics:dgMeshEffect2.obj
 0001:00020ed0       ??0Tetrahedralization@@QAE@AAVdgMeshEffect@@@Z 10021ed0 f i physics:dgMeshEffect2.obj
 0001:00020f60       ??1Tetrahedralization@@UAE@XZ 10021f60 f i physics:dgMeshEffect2.obj
 0001:00020fe0       ?RecoverEdges@Tetrahedralization@@QAEXXZ 10021fe0 f i physics:dgMeshEffect2.obj
 0001:000215b0       ?RemoveDegeneratedTetras@Tetrahedralization@@QAEXXZ 100225b0 f i physics:dgMeshEffect2.obj
 0001:00021860       ?MatchFace@Tetrahedralization@@QBE_NAAVdgMeshEffect@@QAVdgEdge@@H@Z 10022860 f i physics:dgMeshEffect2.obj
 0001:00021a60       ?RecoverFace@Tetrahedralization@@QBEXAAVdgMeshEffect@@QAVdgEdge@@HHAAV?$dgTree@PAVdgEdge@@PAV1@@@@Z 10022a60 f i physics:dgMeshEffect2.obj
 0001:00021f60       ?CreateIndexMap@Tetrahedralization@@QAEXXZ 10022f60 f i physics:dgMeshEffect2.obj
 0001:00022000       ?InsertNewNode@Tetrahedralization@@QAEXHHQAVdgListNode@?$dgList@VdgConvexHull4dTetraherum@@@@@Z 10023000 f i physics:dgMeshEffect2.obj
 0001:000220b0       ?AddEdges@Tetrahedralization@@QAEXQAVdgListNode@?$dgList@VdgConvexHull4dTetraherum@@@@@Z 100230b0 f i physics:dgMeshEffect2.obj
 0001:00022110       ?RemoveNode@Tetrahedralization@@QAEXHHQAVdgListNode@?$dgList@VdgConvexHull4dTetraherum@@@@@Z 10023110 f i physics:dgMeshEffect2.obj
 0001:00022260       ?RemoveEdges@Tetrahedralization@@QAEXQAVdgListNode@?$dgList@VdgConvexHull4dTetraherum@@@@@Z 10023260 f i physics:dgMeshEffect2.obj
 0001:000222b0       ?AddFace@Tetrahedralization@@UAEPAVdgListNode@?$dgList@VdgConvexHull4dTetraherum@@@@HHHH@Z 100232b0 f i physics:dgMeshEffect2.obj
 0001:000222e0       ?DeleteFace@Tetrahedralization@@UAEXQAVdgListNode@?$dgList@VdgConvexHull4dTetraherum@@@@@Z 100232e0 f i physics:dgMeshEffect2.obj
 0001:00022380       ?RecoverFaces@Tetrahedralization@@QAEXXZ 10023380 f i physics:dgMeshEffect2.obj
 0001:000227f0       ??_GTetrahedralization@@UAEPAXI@Z 100237f0 f i physics:dgMeshEffect2.obj
 0001:000227f0       ??_ETetrahedralization@@UAEPAXI@Z 100237f0 f i  CIL library: CIL module
 0001:00022820       ?CreateConvexApproximationCollision@dgMeshEffect@@QBEPAVdgCollision@@QAVdgWorld@@HHH@Z 10023820 f   physics:dgMeshEffect2.obj
 0001:00022d30       ?Scale4@?$dgTemplateVector@N@@QBE?AV1@N@Z 10023d30 f i physics:dgMeshEffect2.obj
 0001:00022d70       ?Add4@?$dgTemplateVector@N@@QBE?AV1@ABV1@@Z 10023d70 f i physics:dgMeshEffect2.obj
 0001:00022db0       ?Find@?$dgTree@VdgEdgeSharedTetras@Tetrahedralization@@_K@@QBEPAVdgTreeNode@1@_K@Z 10023db0 f i physics:dgMeshEffect2.obj
 0001:00022df0       ??$dgSort@VdgIndexMapPair@Tetrahedralization@@@@YAXQAVdgIndexMapPair@Tetrahedralization@@HP6AHQBV01@1QAX@Z2@Z 10023df0 f i physics:dgMeshEffect2.obj
 0001:00022f20       ?Insert@?$dgTree@VdgEdgeSharedTetras@Tetrahedralization@@_K@@QAEPAVdgTreeNode@1@ABVdgEdgeSharedTetras@Tetrahedralization@@_KAA_N@Z 10023f20 f i physics:dgMeshEffect2.obj
 0001:00023020       ?Resize@?$dgArray@VdgIndexMapPair@Tetrahedralization@@@@QBEXH@Z 10024020 f i physics:dgMeshEffect2.obj
 0001:00023130       ?Insert@?$dgTree@PAVdgListNode@?$dgList@VdgConvexHull4dTetraherum@@@@PAV12@@@QAEPAVdgTreeNode@1@ABQAVdgListNode@?$dgList@VdgConvexHull4dTetraherum@@@@PAV34@AA_N@Z 10024130 f i corelib:dgConvexHull4d.obj
 0001:00023130       ?Insert@?$dgTree@PAVdgListNode@?$dgList@V?$dgGraphNode@VdgDebriNodeInfo@dgCollisionCompoundBreakable@@VdgSharedNodeMesh@2@@@@@PAV12@@@QAEPAVdgTreeNode@1@ABQAVdgListNode@?$dgList@V?$dgGraphNode@VdgDebriNodeInfo@dgCollisionCompoundBreakable@@VdgSharedNodeMesh@2@@@@@PAV34@AA_N@Z 10024130 f i physics:dgCollisionCompoundBreakable.obj
 0001:00023130       ?Insert@?$dgTree@PBVdgNodeBase@dgCollisionCompound@@PBV12@@@QAEPAVdgTreeNode@1@ABQBVdgNodeBase@dgCollisionCompound@@PBV34@AA_N@Z 10024130 f i physics:dgCollisionCompound.obj
 0001:00023130       ?Insert@?$dgTree@PAVdgEdge@@PAV1@@@QAEPAVdgTreeNode@1@ABQAVdgEdge@@PAV3@AA_N@Z 10024130 f i physics:dgMeshEffect2.obj
 0001:00023200       ?Resize@?$dgArray@VdgHullVector@@@@QBEXH@Z 10024200 f i physics:dgMeshEffect2.obj
 0001:00023340       ?Resize@?$dgArray@VdgVector@@@@QBEXH@Z 10024340 f i physics:dgMeshEffect2.obj
 0001:00023480       ??_EdgCollisionConvexIntance@dgCollisionCompoundBreakable@@UAEPAXI@Z 10024480 f i  CIL library: CIL module
 0001:00023480       ??_GdgCollisionConvexIntance@dgCollisionCompoundBreakable@@UAEPAXI@Z 10024480 f i physics:dgCollisionCompoundBreakable.obj
 0001:000234f0       ??0dgCollisionConvexIntance@dgCollisionCompoundBreakable@@QAE@ABV01@PAVdgListNode@?$dgList@V?$dgGraphNode@VdgDebriNodeInfo@dgCollisionCompoundBreakable@@VdgSharedNodeMesh@2@@@@@@Z 100244f0 f   physics:dgCollisionCompoundBreakable.obj
 0001:00023580       ??0dgCollisionConvexIntance@dgCollisionCompoundBreakable@@QAE@QAVdgWorld@@P6AXPAX1I@ZQAX@Z 10024580 f   physics:dgCollisionCompoundBreakable.obj
 0001:00023630       ?GetVolume@dgCollisionConvexIntance@dgCollisionCompoundBreakable@@MBENXZ 10024630 f   physics:dgCollisionCompoundBreakable.obj
 0001:00023640       ?OOBBTest@dgCollisionConvexIntance@dgCollisionCompoundBreakable@@MBE_NABVdgMatrix@@QBVdgConvexCollision@@QAX@Z 10024640 f   physics:dgCollisionCompoundBreakable.obj
 0001:00023650       ?SupportVertex@dgCollisionConvexIntance@dgCollisionCompoundBreakable@@MBE?AVdgVector@@ABV3@@Z 10024650 f   physics:dgCollisionCompoundBreakable.obj
 0001:00023670       ?SupportVertexSimd@dgCollisionConvexIntance@dgCollisionCompoundBreakable@@MBE?AVdgVector@@ABV3@@Z 10024670 f   physics:dgCollisionCompoundBreakable.obj
 0001:00023690       ?CalcAABB@dgCollisionConvexIntance@dgCollisionCompoundBreakable@@MBEXABVdgMatrix@@AAVdgVector@@1@Z 10024690 f   physics:dgCollisionCompoundBreakable.obj
 0001:000236a0       ?CalcAABBSimd@dgCollisionConvexIntance@dgCollisionCompoundBreakable@@MBEXABVdgMatrix@@AAVdgVector@@1@Z 100246a0 f   physics:dgCollisionCompoundBreakable.obj
 0001:000236b0       ?DebugCollision@dgCollisionConvexIntance@dgCollisionCompoundBreakable@@MBEXABVdgMatrix@@P6AXPAXHPBNH@ZQAX@Z 100246b0 f   physics:dgCollisionCompoundBreakable.obj
 0001:000236c0       ?RayCast@dgCollisionConvexIntance@dgCollisionCompoundBreakable@@MBENABVdgVector@@0AAVdgContactPoint@@P6AIQBVdgBody@@QBVdgCollision@@QAX@Z24@Z 100246c0 f   physics:dgCollisionCompoundBreakable.obj
 0001:000236d0       ?RayCastSimd@dgCollisionConvexIntance@dgCollisionCompoundBreakable@@MBENABVdgVector@@0AAVdgContactPoint@@P6AIQBVdgBody@@QBVdgCollision@@QAX@Z24@Z 100246d0 f   physics:dgCollisionCompoundBreakable.obj
 0001:000236e0       ?CalculateVolumeIntegral@dgCollisionConvexIntance@dgCollisionCompoundBreakable@@MBE?AVdgVector@@ABVdgMatrix@@P6AIPAX10AAVdgPlane@@@ZQAX@Z 100246e0 f   physics:dgCollisionCompoundBreakable.obj
 0001:00023710       ?SetCollisionBBox@dgCollisionConvexIntance@dgCollisionCompoundBreakable@@EAEXABVdgVector@@0@Z 10024710 f   physics:dgCollisionCompoundBreakable.obj
 0001:00023720       ?GetBoxMinRadius@dgCollisionConvexIntance@dgCollisionCompoundBreakable@@EBENXZ 10024720 f   physics:dgCollisionCompoundBreakable.obj
 0001:00023730       ?GetBoxMaxRadius@dgCollisionConvexIntance@dgCollisionCompoundBreakable@@EBENXZ 10024730 f   physics:dgCollisionCompoundBreakable.obj
 0001:00023740       ?CalculatePlaneIntersection@dgCollisionConvexIntance@dgCollisionCompoundBreakable@@EBEHABVdgVector@@0QAV3@@Z 10024740 f   physics:dgCollisionCompoundBreakable.obj
 0001:00023750       ?CalculatePlaneIntersectionSimd@dgCollisionConvexIntance@dgCollisionCompoundBreakable@@EBEHABVdgVector@@0QAV3@@Z 10024750 f   physics:dgCollisionCompoundBreakable.obj
 0001:00023760       ?GetCollisionInfo@dgCollisionConvexIntance@dgCollisionCompoundBreakable@@EBEXPAVdgCollisionInfo@@@Z 10024760 f   physics:dgCollisionCompoundBreakable.obj
 0001:00023770       ?Serialize@dgCollisionConvexIntance@dgCollisionCompoundBreakable@@EBEXP6AXPAXPBXI@ZQAX@Z 10024770 f   physics:dgCollisionCompoundBreakable.obj
 0001:000237d0       ?SetBreakImpulse@dgCollisionConvexIntance@dgCollisionCompoundBreakable@@EAEXN@Z 100247d0 f   physics:dgCollisionCompoundBreakable.obj
 0001:000237e0       ?GetBreakImpulse@dgCollisionConvexIntance@dgCollisionCompoundBreakable@@EBENXZ 100247e0 f   physics:dgCollisionCompoundBreakable.obj
 0001:000237f0       ??_GdgVertexBuffer@dgCollisionCompoundBreakable@@UAEPAXI@Z 100247f0 f i physics:dgCollisionCompoundBreakable.obj
 0001:000237f0       ??_EdgVertexBuffer@dgCollisionCompoundBreakable@@UAEPAXI@Z 100247f0 f i  CIL library: CIL module
 0001:00023840       ??0dgVertexBuffer@dgCollisionCompoundBreakable@@QAE@QAVdgMemoryAllocator@@P6AXPAX1I@ZQAX@Z 10024840 f   physics:dgCollisionCompoundBreakable.obj
 0001:000238f0       ?GetVertexStreams@dgVertexBuffer@dgCollisionCompoundBreakable@@QBEXHPANH0H0@Z 100248f0 f   physics:dgCollisionCompoundBreakable.obj
 0001:000239e0       ??_EdgMesh@dgCollisionCompoundBreakable@@UAEPAXI@Z 100249e0 f i  CIL library: CIL module
 0001:000239e0       ??_GdgMesh@dgCollisionCompoundBreakable@@UAEPAXI@Z 100249e0 f i physics:dgCollisionCompoundBreakable.obj
 0001:00023a10       ??0dgMesh@dgCollisionCompoundBreakable@@QAE@QAVdgMemoryAllocator@@P6AXPAX1I@ZQAX@Z 10024a10 f   physics:dgCollisionCompoundBreakable.obj
 0001:00023ad0       ?Serialize@dgMesh@dgCollisionCompoundBreakable@@QBEXP6AXPAXPBXI@ZQAX@Z 10024ad0 f   physics:dgCollisionCompoundBreakable.obj
 0001:00023b50       ?AddgSubMesh@dgMesh@dgCollisionCompoundBreakable@@QAEPAVdgSubMesh@2@HH@Z 10024b50 f   physics:dgCollisionCompoundBreakable.obj
 0001:00023bd0       ??0dgDebriGraph@dgCollisionCompoundBreakable@@QAE@QAVdgMemoryAllocator@@P6AXPAX1I@ZQAX@Z 10024bd0 f   physics:dgCollisionCompoundBreakable.obj
 0001:00023e50       ??0dgDebriGraph@dgCollisionCompoundBreakable@@QAE@ABV01@@Z 10024e50 f   physics:dgCollisionCompoundBreakable.obj
 0001:00024060       ?Serialize@dgDebriGraph@dgCollisionCompoundBreakable@@QBEXP6AXPAXPBXI@ZQAX@Z 10025060 f   physics:dgCollisionCompoundBreakable.obj
 0001:000242a0       ??0dgCollisionCompoundBreakable@@QAE@HQBQBVdgMeshEffect@@QBHQBN1HNPAVdgWorld@@@Z 100252a0 f   physics:dgCollisionCompoundBreakable.obj
 0001:00024e50       ??_EdgCollisionCompoundBreakable@@UAEPAXI@Z 10025e50 f i  CIL library: CIL module
 0001:00024e50       ??_GdgCollisionCompoundBreakable@@UAEPAXI@Z 10025e50 f i physics:dgCollisionCompoundBreakable.obj
 0001:00024e80       ??0dgCollisionCompoundBreakable@@QAE@ABV0@@Z 10025e80 f   physics:dgCollisionCompoundBreakable.obj
 0001:00025110       ??0dgCollisionCompoundBreakable@@QAE@QAVdgWorld@@P6AXPAX1I@ZQAX@Z 10026110 f   physics:dgCollisionCompoundBreakable.obj
 0001:00025270       ??1dgCollisionCompoundBreakable@@UAE@XZ 10026270 f   physics:dgCollisionCompoundBreakable.obj
 0001:000252e0       ?LinkNodes@dgCollisionCompoundBreakable@@AAEXXZ 100262e0 f   physics:dgCollisionCompoundBreakable.obj
 0001:00025330       ?Serialize@dgCollisionCompoundBreakable@@EBEXP6AXPAXPBXI@ZQAX@Z 10026330 f   physics:dgCollisionCompoundBreakable.obj
 0001:000253f0       ?GetCollisionInfo@dgCollisionCompoundBreakable@@EBEXPAVdgCollisionInfo@@@Z 100263f0 f   physics:dgCollisionCompoundBreakable.obj
 0001:00025410       ?GetSegmentIndexStreamShort@dgCollisionCompoundBreakable@@QBEHQAVdgListNode@?$dgList@V?$dgGraphNode@VdgDebriNodeInfo@dgCollisionCompoundBreakable@@VdgSharedNodeMesh@2@@@@@PAV2?$dgList@VdgSubMesh@dgCollisionCompoundBreakable@@@@QAF@Z 10026410 f   physics:dgCollisionCompoundBreakable.obj
 0001:000254c0       ?GetSegmentIndexStream@dgCollisionCompoundBreakable@@QBEHQAVdgListNode@?$dgList@V?$dgGraphNode@VdgDebriNodeInfo@dgCollisionCompoundBreakable@@VdgSharedNodeMesh@2@@@@@PAV2?$dgList@VdgSubMesh@dgCollisionCompoundBreakable@@@@QAH@Z 100264c0 f   physics:dgCollisionCompoundBreakable.obj
 0001:00025560       ?GetSegmentsInRadius@dgCollisionCompoundBreakable@@QAEHABVdgVector@@NPAPAVdgListNode@?$dgList@V?$dgGraphNode@VdgDebriNodeInfo@dgCollisionCompoundBreakable@@VdgSharedNodeMesh@2@@@@@H@Z 10026560 f   physics:dgCollisionCompoundBreakable.obj
 0001:00025700       ?EnumerateIslands@dgCollisionCompoundBreakable@@QAEXXZ 10026700 f   physics:dgCollisionCompoundBreakable.obj
 0001:000257e0       ?ResetAnchor@dgCollisionCompoundBreakable@@QAEXXZ 100267e0 f   physics:dgCollisionCompoundBreakable.obj
 0001:00025820       ?SetAnchoredParts@dgCollisionCompoundBreakable@@QAEXHQBVdgMatrix@@PAPBVdgCollision@@@Z 10026820 f   physics:dgCollisionCompoundBreakable.obj
 0001:00025a10       ?DeleteComponent@dgCollisionCompoundBreakable@@QAEXPAVdgListNode@?$dgList@V?$dgGraphNode@VdgDebriNodeInfo@dgCollisionCompoundBreakable@@VdgSharedNodeMesh@2@@@@@@Z 10026a10 f   physics:dgCollisionCompoundBreakable.obj
 0001:00025ba0       ?DeleteComponentEnd@dgCollisionCompoundBreakable@@QAEXXZ 10026ba0 f   physics:dgCollisionCompoundBreakable.obj
 0001:00025d70       ?Append@?$dgList@VdgSubMesh@dgCollisionCompoundBreakable@@@@QAEPAVdgListNode@1@ABVdgSubMesh@dgCollisionCompoundBreakable@@@Z 10026d70 f i physics:dgCollisionCompoundBreakable.obj
 0001:00025df0       ?DeleteNode@?$dgGraph@VdgDebriNodeInfo@dgCollisionCompoundBreakable@@VdgSharedNodeMesh@2@@@QAEXQAVdgListNode@?$dgList@V?$dgGraphNode@VdgDebriNodeInfo@dgCollisionCompoundBreakable@@VdgSharedNodeMesh@2@@@@@@Z 10026df0 f i physics:dgCollisionCompoundBreakable.obj
 0001:00025e80       ?Append@?$dgList@PAVdgListNode@?$dgList@V?$dgGraphNode@VdgDebriNodeInfo@dgCollisionCompoundBreakable@@VdgSharedNodeMesh@2@@@@@@@QAEPAVdgListNode@1@ABQAV2?$dgList@V?$dgGraphNode@VdgDebriNodeInfo@dgCollisionCompoundBreakable@@VdgSharedNodeMesh@2@@@@@@Z 10026e80 f i physics:dgCollisionCompoundBreakable.obj
 0001:00025f10       ?Remove@?$dgList@PAVdgListNode@?$dgList@VdgConvexHull3DFace@@@@@@QAEXABQAVdgListNode@?$dgList@VdgConvexHull3DFace@@@@@Z 10026f10 f i corelib:dgConvexHull3d.obj
 0001:00025f10       ?Remove@?$dgList@PAVdgListNode@?$dgList@V?$dgGraphNode@VdgDebriNodeInfo@dgCollisionCompoundBreakable@@VdgSharedNodeMesh@2@@@@@@@QAEXABQAVdgListNode@?$dgList@V?$dgGraphNode@VdgDebriNodeInfo@dgCollisionCompoundBreakable@@VdgSharedNodeMesh@2@@@@@@Z 10026f10 f i physics:dgCollisionCompoundBreakable.obj
 0001:00025f10       ?Remove@?$dgList@PAVdgMemoryAllocator@@@@QAEXABQAVdgMemoryAllocator@@@Z 10026f10 f i corelib:dgMemory.obj
 0001:00025f10       ?Remove@?$dgList@PAVdgListNode@?$dgList@VdgConvexHull4dTetraherum@@@@@@QAEXABQAVdgListNode@?$dgList@VdgConvexHull4dTetraherum@@@@@Z 10026f10 f i corelib:dgConvexHull4d.obj
 0001:00025f90       ?DeleteEdge@?$dgGraphNode@VdgDebriNodeInfo@dgCollisionCompoundBreakable@@VdgSharedNodeMesh@2@@@QAEXQAVdgListNode@?$dgList@V?$dgGraphEdge@VdgDebriNodeInfo@dgCollisionCompoundBreakable@@VdgSharedNodeMesh@2@@@@@@Z 10026f90 f i physics:dgCollisionCompoundBreakable.obj
 0001:00026040       ??0dgListNode@?$dgList@VdgSubMesh@dgCollisionCompoundBreakable@@@@AAE@ABVdgSubMesh@dgCollisionCompoundBreakable@@QAV01@1@Z 10027040 f i physics:dgCollisionCompoundBreakable.obj
 0001:00026090       ?Resize@?$dgArray@VdgFlatVertex@dgCollisionCompoundBreakable@@@@QBEXH@Z 10027090 f i physics:dgCollisionCompoundBreakable.obj
 0001:000261d0       ?RemoveAll@?$dgList@VdgSubMesh@dgCollisionCompoundBreakable@@@@QAEXXZ 100271d0 f i physics:dgCollisionCompoundBreakable.obj
 0001:00026240       ?Append@?$dgList@V?$dgGraphNode@VdgDebriNodeInfo@dgCollisionCompoundBreakable@@VdgSharedNodeMesh@2@@@@@QAEPAVdgListNode@1@XZ 10027240 f i physics:dgCollisionCompoundBreakable.obj
 0001:000262e0       ?Remove@?$dgList@V?$dgGraphNode@VdgDebriNodeInfo@dgCollisionCompoundBreakable@@VdgSharedNodeMesh@2@@@@@QAEXQAVdgListNode@1@@Z 100272e0 f i physics:dgCollisionCompoundBreakable.obj
 0001:00026360       ?Insert@?$dgTree@PAVdgCollision@@I@@QAEPAVdgTreeNode@1@ABQAVdgCollision@@IAA_N@Z 10027360 f i physics:dgNarrowPhaseCollision.obj
 0001:00026360       ?Insert@?$dgTree@HPAVdgListNode@?$dgList@V?$dgGraphNode@VdgDebriNodeInfo@dgCollisionCompoundBreakable@@VdgSharedNodeMesh@2@@@@@@@QAEPAVdgTreeNode@1@ABHPAVdgListNode@?$dgList@V?$dgGraphNode@VdgDebriNodeInfo@dgCollisionCompoundBreakable@@VdgSharedNodeMesh@2@@@@@AA_N@Z 10027360 f i physics:dgCollisionCompoundBreakable.obj
 0001:00026430       ?Insert@?$dgTree@VdgCompoundBreakableFilterData@dgCollisionCompoundBreakable@@PAVdgConvexCollision@@@@QAEPAVdgTreeNode@1@ABVdgCompoundBreakableFilterData@dgCollisionCompoundBreakable@@PAVdgConvexCollision@@AA_N@Z 10027430 f i physics:dgCollisionCompoundBreakable.obj
 0001:00026510       ?RemoveAll@?$dgList@V?$dgGraphNode@VdgDebriNodeInfo@dgCollisionCompoundBreakable@@VdgSharedNodeMesh@2@@@@@QAEXXZ 10027510 f i physics:dgCollisionCompoundBreakable.obj
 0001:00026590       ?RemoveAll@?$dgList@VdgDiagonalEdge@InternalPolyhedra@@@@QAEXXZ 10027590 f i corelib:dgPolyhedra.obj
 0001:00026590       ?RemoveAll@?$dgList@VdgBodyMasterListCell@@@@QAEXXZ 10027590 f i physics:dgBodyMasterList.obj
 0001:00026590       ?RemoveAll@?$dgList@V?$dgGraphEdge@VdgDebriNodeInfo@dgCollisionCompoundBreakable@@VdgSharedNodeMesh@2@@@@@QAEXXZ 10027590 f i physics:dgCollisionCompoundBreakable.obj
 0001:000265e0       ??0dgCollisionConvexHull@@QAE@QAVdgMemoryAllocator@@IHHNPBNABVdgMatrix@@@Z 100275e0 f   physics:dgCollisionConvexHull.obj
 0001:000268e0       ??_EdgCollisionConvexHull@@UAEPAXI@Z 100278e0 f i  CIL library: CIL module
 0001:000268e0       ??_GdgCollisionConvexHull@@UAEPAXI@Z 100278e0 f i physics:dgCollisionConvexHull.obj
 0001:00026910       ??0dgCollisionConvexHull@@QAE@QAVdgWorld@@P6AXPAX1I@ZQAX@Z 10027910 f   physics:dgCollisionConvexHull.obj
 0001:00026ac0       ??1dgCollisionConvexHull@@UAE@XZ 10027ac0 f   physics:dgCollisionConvexHull.obj
 0001:00026b20       ?FaceNormal@dgCollisionConvexHull@@ABE?AVdgBigVector@@PBVdgEdge@@QBVdgVector@@@Z 10027b20 f   physics:dgCollisionConvexHull.obj
 0001:00026cf0       ?RemoveCoplanarEdge@dgCollisionConvexHull@@ABE_NAAVdgPolyhedra@@QAVdgVector@@@Z 10027cf0 f   physics:dgCollisionConvexHull.obj
 0001:00027100       ?CheckConvex@dgCollisionConvexHull@@ABE_NAAVdgPolyhedra@@PBVdgVector@@@Z 10028100 f   physics:dgCollisionConvexHull.obj
 0001:000274a0       ?Create@dgCollisionConvexHull@@AAE_NHHQBNN@Z 100284a0 f   physics:dgCollisionConvexHull.obj
 0001:00027b40       ?SetBreakImpulse@dgCollisionConvexHull@@EAEXN@Z 10028b40 f   physics:dgCollisionConvexHull.obj
 0001:00027b50       ?GetBreakImpulse@dgCollisionConvexHull@@EBENXZ 10028b50 f   physics:dgCollisionConvexHull.obj
 0001:00027b60       ?DebugCollision@dgCollisionConvexHull@@EBEXABVdgMatrix@@P6AXPAXHPBNH@ZQAX@Z 10028b60 f   physics:dgCollisionConvexHull.obj
 0001:00027c70       ?GetCollisionInfo@dgCollisionConvexHull@@EBEXPAVdgCollisionInfo@@@Z 10028c70 f   physics:dgCollisionConvexHull.obj
 0001:00027d00       ?Serialize@dgCollisionConvexHull@@EBEXP6AXPAXPBXI@ZQAX@Z 10028d00 f   physics:dgCollisionConvexHull.obj
 0001:00027e40       ?OOBBTest@dgCollisionConvexHull@@EBE_NABVdgMatrix@@QBVdgConvexCollision@@QAX@Z 10028e40 f   physics:dgCollisionConvexHull.obj
 0001:000281f0       ??0?$dgStack@VdgTriplex@@@@QAE@H@Z 100291f0 f i physics:dgCollisionConvexHull.obj
 0001:00028250       ??0dgCollisionConvexPolygon@dgCollisionMesh@@QAE@QAVdgMemoryAllocator@@@Z 10029250 f   physics:dgCollisionMesh.obj
 0001:000282e0       ?CalculateSignature@dgCollisionConvexPolygon@dgCollisionMesh@@UBEHXZ 100292e0 f   physics:dgCollisionMesh.obj
 0001:000282f0       ?RayCastSimd@dgCollision@@UBENABVdgVector@@0AAVdgContactPoint@@P6AIQBVdgBody@@QBV1@QAX@Z24@Z 100292f0 f   physics:dgCollision.obj
 0001:000282f0       ?RayCast@dgCollisionConvexPolygon@dgCollisionMesh@@UBENABVdgVector@@0AAVdgContactPoint@@P6AIQBVdgBody@@QBVdgCollision@@QAX@Z24@Z 100292f0 f   physics:dgCollisionMesh.obj
 0001:00028300       ?GetVolume@dgCollisionMesh@@UBENXZ 10029300 f   physics:dgCollisionMesh.obj
 0001:00028300       ?GetVolume@dgCollisionPoint@@UBENXZ 10029300 f   physics:dgCollisionSphere.obj
 0001:00028300       ?GetBoxMaxRadius@dgCollisionScene@@EBENXZ 10029300 f   physics:dgCollisionScene.obj
 0001:00028300       ?GetBoxMinRadius@dgCollisionScene@@EBENXZ 10029300 f   physics:dgCollisionScene.obj
 0001:00028300       ?GetBoxMaxRadius@dgCollisionConvexPolygon@dgCollisionMesh@@UBENXZ 10029300 f   physics:dgCollisionMesh.obj
 0001:00028300       ?GetBoxMaxRadius@dgCollisionMesh@@UBENXZ 10029300 f   physics:dgCollisionMesh.obj
 0001:00028300       ?GetVolume@dgCollisionConvexPolygon@dgCollisionMesh@@UBENXZ 10029300 f   physics:dgCollisionMesh.obj
 0001:00028300       ?GetBoxMinRadius@dgCollisionConvexPolygon@dgCollisionMesh@@UBENXZ 10029300 f   physics:dgCollisionMesh.obj
 0001:00028300       ?GetBoxMinRadius@dgCollisionMesh@@UBENXZ 10029300 f   physics:dgCollisionMesh.obj
 0001:00028300       ?GetVolume@dgCollisionNull@@MBENXZ 10029300 f   physics:dgCollisionNull.obj
 0001:00028300       ?GetVolume@dgCollisionScene@@EBENXZ 10029300 f   physics:dgCollisionScene.obj
 0001:00028310       ?OOBBTest@dgCollisionScene@@EBE_NABVdgMatrix@@QBVdgConvexCollision@@QAX@Z 10029310 f   physics:dgCollisionScene.obj
 0001:00028310       ?OOBBTest@dgCollisionConvexModifier@@MBE_NABVdgMatrix@@QBVdgConvexCollision@@QAX@Z 10029310 f   physics:dgCollisionConvexModifier.obj
 0001:00028310       ?OOBBTest@dgCollisionCompound@@MBE_NABVdgMatrix@@QBVdgConvexCollision@@QAX@Z 10029310 f   physics:dgCollisionCompound.obj
 0001:00028310       ?OOBBTest@dgCollisionConvexPolygon@dgCollisionMesh@@UBE_NABVdgMatrix@@QBVdgConvexCollision@@QAX@Z 10029310 f   physics:dgCollisionMesh.obj
 0001:00028310       ?OOBBTest@dgCollisionMesh@@EBE_NABVdgMatrix@@QBVdgConvexCollision@@QAX@Z 10029310 f   physics:dgCollisionMesh.obj
 0001:00028320       ?SupportVertex@dgCollisionConvexPolygon@dgCollisionMesh@@UBE?AVdgVector@@ABV3@@Z 10029320 f   physics:dgCollisionMesh.obj
 0001:000283c0       ?CalculateNormal@dgCollisionConvexPolygon@dgCollisionMesh@@QAEXXZ 100293c0 f   physics:dgCollisionMesh.obj
 0001:000284f0       ?QuickTestContinue@dgCollisionConvexPolygon@dgCollisionMesh@@QAEHPBVdgConvexCollision@@ABVdgMatrix@@@Z 100294f0 f   physics:dgCollisionMesh.obj
 0001:00028730       ?QuickTest@dgCollisionConvexPolygon@dgCollisionMesh@@QAEHPBVdgConvexCollision@@ABVdgMatrix@@@Z 10029730 f   physics:dgCollisionMesh.obj
 0001:00028a70       ?ClipContacts@dgCollisionConvexPolygon@dgCollisionMesh@@QBEHHQAVdgContactPoint@@ABVdgMatrix@@@Z 10029a70 f   physics:dgCollisionMesh.obj
 0001:00029230       ?BeamClipping@dgCollisionConvexPolygon@dgCollisionMesh@@QAEXPBVdgConvexCollision@@ABVdgMatrix@@N@Z 1002a230 f   physics:dgCollisionMesh.obj
 0001:000298b0       ?ClosestDistanceToTriangle@dgCollisionConvexPolygon@dgCollisionMesh@@QBE?AVdgVector@@ABV3@000@Z 1002a8b0 f   physics:dgCollisionMesh.obj
 0001:00029c50       ?PointToPolygonDistance@dgCollisionConvexPolygon@dgCollisionMesh@@QAE_NABVdgVector@@NAAV3@@Z 1002ac50 f   physics:dgCollisionMesh.obj
 0001:00029e20       ?DistanceToOrigen@dgCollisionConvexPolygon@dgCollisionMesh@@QAE_NABVdgMatrix@@ABVdgVector@@NAAV4@@Z 1002ae20 f   physics:dgCollisionMesh.obj
 0001:0002a2e0       ?MovingPointToPolygonContact@dgCollisionConvexPolygon@dgCollisionMesh@@QAENABVdgVector@@0NAAVdgContactPoint@@@Z 1002b2e0 f   physics:dgCollisionMesh.obj
 0001:0002aa20       ?CalculatePlaneIntersection@dgCollisionConvexPolygon@dgCollisionMesh@@UBEHABVdgVector@@0QAV3@@Z 1002ba20 f   physics:dgCollisionMesh.obj
 0001:0002b280       ?CalculatePlaneIntersectionSimd@dgCollisionCylinder@@EBEHABVdgVector@@0QAV2@@Z 1002c280 f   physics:dgCollisionCylinder.obj
 0001:0002b280       ?CalculatePlaneIntersectionSimd@dgConvexCollision@@UBEHABVdgVector@@0QAV2@@Z 1002c280 f   physics:dgConvexCollision.obj
 0001:0002b280       ?CalculatePlaneIntersectionSimd@dgCollisionConvexPolygon@dgCollisionMesh@@UBEHABVdgVector@@0QAV3@@Z 1002c280 f   physics:dgCollisionMesh.obj
 0001:0002b280       ?CalculatePlaneIntersectionSimd@dgCollisionCapsule@@EBEHABVdgVector@@0QAV2@@Z 1002c280 f   physics:dgCollisionCapsule.obj
 0001:0002b280       ?CalculatePlaneIntersectionSimd@dgCollisionBox@@MBEHABVdgVector@@0QAV2@@Z 1002c280 f   physics:dgCollisionBox.obj
 0001:0002b280       ?CalculatePlaneIntersectionSimd@dgCollisionSphere@@MBEHABVdgVector@@0QAV2@@Z 1002c280 f   physics:dgCollisionSphere.obj
 0001:0002b280       ?CalculatePlaneIntersectionSimd@dgCollisionEllipse@@EBEHABVdgVector@@0QAV2@@Z 1002c280 f   physics:dgCollisionEllipse.obj
 0001:0002b280       ?CalculatePlaneIntersectionSimd@dgCollisionCone@@EBEHABVdgVector@@0QAV2@@Z 1002c280 f   physics:dgCollisionCone.obj
 0001:0002b290       ??0dgCollisionMesh@@QAE@QAVdgMemoryAllocator@@W4dgCollisionID@@@Z 1002c290 f   physics:dgCollisionMesh.obj
 0001:0002b3a0       ??_GdgCollisionMesh@@UAEPAXI@Z 1002c3a0 f i physics:dgCollisionMesh.obj
 0001:0002b3a0       ??_EdgCollisionMesh@@UAEPAXI@Z 1002c3a0 f i  CIL library: CIL module
 0001:0002b3f0       ??0dgCollisionMesh@@QAE@QAVdgWorld@@P6AXPAX1I@ZQAX@Z 1002c3f0 f   physics:dgCollisionMesh.obj
 0001:0002b4c0       ?SetCollisionBBox@dgCollisionMesh@@MAEXABVdgVector@@0@Z 1002c4c0 f   physics:dgCollisionMesh.obj
 0001:0002b4c0       ?SetCollisionBBox@dgCollisionScene@@EAEXABVdgVector@@0@Z 1002c4c0 f   physics:dgCollisionScene.obj
 0001:0002b570       ?CalcAABB@dgCollisionScene@@EBEXABVdgMatrix@@AAVdgVector@@1@Z 1002c570 f   physics:dgCollisionScene.obj
 0001:0002b570       ?CalcAABB@dgCollisionMesh@@EBEXABVdgMatrix@@AAVdgVector@@1@Z 1002c570 f   physics:dgCollisionMesh.obj
 0001:0002b7f0       ?UpdateAABB@dgNode@dgCollisionScene@@QAEXABVdgVector@@0@Z 1002c7f0 f i physics:dgCollisionScene.obj
 0001:0002b880       ??_GdgNode@dgCollisionScene@@QAEPAXI@Z 1002c880 f i physics:dgCollisionScene.obj
 0001:0002b8c0       ??0dgCollisionScene@@QAE@PAVdgWorld@@@Z 1002c8c0 f   physics:dgCollisionScene.obj
 0001:0002b9b0       ??_GdgCollisionScene@@UAEPAXI@Z 1002c9b0 f i physics:dgCollisionScene.obj
 0001:0002b9b0       ??_EdgCollisionScene@@UAEPAXI@Z 1002c9b0 f i  CIL library: CIL module
 0001:0002b9e0       ??0dgCollisionScene@@QAE@QAVdgWorld@@P6AXPAX1I@ZQAX@Z 1002c9e0 f   physics:dgCollisionScene.obj
 0001:0002bcc0       ??1dgCollisionScene@@UAE@XZ 1002ccc0 f   physics:dgCollisionScene.obj
 0001:0002bd40       ?Serialize@dgCollisionScene@@EBEXP6AXPAXPBXI@ZQAX@Z 1002cd40 f   physics:dgCollisionScene.obj
 0001:0002bf10       ?SetProxyMatrix@dgCollisionScene@@QAEXPAXABVdgMatrix@@@Z 1002cf10 f   physics:dgCollisionScene.obj
 0001:0002bf70       ?SetCollisionCallback@dgCollisionScene@@QAEXP6AXPBVdgBody@@QBV2@HHPBNH@Z@Z 1002cf70 f   physics:dgCollisionScene.obj
 0001:0002bfa0       ?GetProxyMatrix@dgCollisionScene@@QAE?AVdgMatrix@@PAX@Z 1002cfa0 f   physics:dgCollisionScene.obj
 0001:0002c0e0       ?CalcAABBSimd@dgCollisionNull@@MBEXABVdgMatrix@@AAVdgVector@@1@Z 1002d0e0 f   physics:dgCollisionNull.obj
 0001:0002c0e0       ?CalcAABBSimd@dgCollisionMesh@@EBEXABVdgMatrix@@AAVdgVector@@1@Z 1002d0e0 f   physics:dgCollisionMesh.obj
 0001:0002c0e0       ?CalcAABBSimd@dgCollisionScene@@EBEXABVdgMatrix@@AAVdgVector@@1@Z 1002d0e0 f   physics:dgCollisionScene.obj
 0001:0002c0f0       ?DebugCollision@dgCollisionScene@@EBEXABVdgMatrix@@P6AXPAXHPBNH@ZQAX@Z 1002d0f0 f   physics:dgCollisionScene.obj
 0001:0002c170       ?CalculateInertia@dgCollisionPoint@@UBEXAAVdgVector@@0@Z 1002d170 f   physics:dgCollisionSphere.obj
 0001:0002c170       ?CalculateInertia@dgCollisionMesh@@UBEXAAVdgVector@@0@Z 1002d170 f   physics:dgCollisionMesh.obj
 0001:0002c170       ?CalculateInertia@dgCollisionNull@@MBEXAAVdgVector@@0@Z 1002d170 f   physics:dgCollisionNull.obj
 0001:0002c170       ?CalculateInertia@dgCollisionScene@@EBEXAAVdgVector@@0@Z 1002d170 f   physics:dgCollisionScene.obj
 0001:0002c170       ?CalculateInertia@dgCollisionConvexPolygon@dgCollisionMesh@@UBEXAAVdgVector@@0@Z 1002d170 f   physics:dgCollisionMesh.obj
 0001:0002c190       ?GetCollisionInfo@dgCollisionScene@@EBEXPAVdgCollisionInfo@@@Z 1002d190 f   physics:dgCollisionScene.obj
 0001:0002c1f0       ?GetAxis@dgCollisionScene@@ABEHQAPAVdgListNode@?$dgList@UdgProxy@dgCollisionScene@@@@H@Z 1002d1f0 f   physics:dgCollisionScene.obj
 0001:0002c320       ?RayCastSimd@dgCollisionScene@@EBENABVdgVector@@0AAVdgContactPoint@@P6AIQBVdgBody@@QBVdgCollision@@QAX@Z24@Z 1002d320 f   physics:dgCollisionScene.obj
 0001:0002c360       ?SupportVertexSimd@dgCollisionConvexModifier@@MBE?AVdgVector@@ABV2@@Z 1002d360 f   physics:dgCollisionConvexModifier.obj
 0001:0002c360       ?SupportVertexSimd@dgCollisionBox@@MBE?AVdgVector@@ABV2@@Z 1002d360 f   physics:dgCollisionBox.obj
 0001:0002c360       ?SupportVertexSimd@dgCollisionCapsule@@EBE?AVdgVector@@ABV2@@Z 1002d360 f   physics:dgCollisionCapsule.obj
 0001:0002c360       ?SupportVertexSimd@dgCollisionPoint@@UBE?AVdgVector@@ABV2@@Z 1002d360 f   physics:dgCollisionSphere.obj
 0001:0002c360       ?SupportVertexSimd@dgCollisionEllipse@@MBE?AVdgVector@@ABV2@@Z 1002d360 f   physics:dgCollisionEllipse.obj
 0001:0002c360       ?SupportVertex@dgCollisionNull@@MBE?AVdgVector@@ABV2@@Z 1002d360 f   physics:dgCollisionNull.obj
 0001:0002c360       ?SupportVertexSimd@dgConvexCollision@@UBE?AVdgVector@@ABV2@@Z 1002d360 f   physics:dgConvexCollision.obj
 0001:0002c360       ?SupportVertex@dgCollisionMesh@@EBE?AVdgVector@@ABV2@@Z 1002d360 f   physics:dgCollisionMesh.obj
 0001:0002c360       ?SupportVertex@dgCollisionScene@@EBE?AVdgVector@@ABV2@@Z 1002d360 f   physics:dgCollisionScene.obj
 0001:0002c360       ?SupportVertexSimd@dgCollisionConvexPolygon@dgCollisionMesh@@UBE?AVdgVector@@ABV3@@Z 1002d360 f   physics:dgCollisionMesh.obj
 0001:0002c360       ?SupportVertexSimd@dgCollisionNull@@MBE?AVdgVector@@ABV2@@Z 1002d360 f   physics:dgCollisionNull.obj
 0001:0002c360       ?SupportVertex@dgCollisionPoint@@UBE?AVdgVector@@ABV2@@Z 1002d360 f   physics:dgCollisionSphere.obj
 0001:0002c380       ?RayCast@dgCollisionScene@@EBENABVdgVector@@0AAVdgContactPoint@@P6AIQBVdgBody@@QBVdgCollision@@QAX@Z24@Z 1002d380 f   physics:dgCollisionScene.obj
 0001:0002c7a0       ?CollidePairSimd@dgCollisionScene@@QBEXQAUdgPair@dgCollidingPairCollector@@AAVdgCollisionParamProxi@@@Z 1002d7a0 f   physics:dgCollisionScene.obj
 0001:0002c910       ?CollidePair@dgCollisionScene@@QBEXQAUdgPair@dgCollidingPairCollector@@AAVdgCollisionParamProxi@@@Z 1002d910 f   physics:dgCollisionScene.obj
 0001:0002cdc0       ?CompareProxy@dgCollisionScene@@CAHQBVdgListNode@?$dgList@UdgProxy@dgCollisionScene@@@@0PAX@Z 1002ddc0 f   physics:dgCollisionScene.obj
 0001:0002ce10       ?SortAndSpliteSplite@dgCollisionScene@@ABEHQAPAVdgListNode@?$dgList@UdgProxy@dgCollisionScene@@@@H@Z 1002de10 f   physics:dgCollisionScene.obj
 0001:0002d030       ?BuildTree@dgCollisionScene@@AAEPAUdgNode@1@PAU21@QAPAVdgListNode@?$dgList@UdgProxy@dgCollisionScene@@@@HH@Z 1002e030 f   physics:dgCollisionScene.obj
 0001:0002d150       ?BuildTree@dgCollisionScene@@QAEXXZ 1002e150 f   physics:dgCollisionScene.obj
 0001:0002d2d0       ?Append@?$dgList@UdgProxy@dgCollisionScene@@@@QAEPAVdgListNode@1@XZ 1002e2d0 f i physics:dgCollisionScene.obj
 0001:0002d360       ??$dgSortIndirect@VdgListNode@?$dgList@UdgProxy@dgCollisionScene@@@@@@YAXQAPAVdgListNode@?$dgList@UdgProxy@dgCollisionScene@@@@HP6AHQBV01@1QAX@Z2@Z 1002e360 f i physics:dgCollisionScene.obj
 0001:0002d4e0       ??0dgListNode@?$dgList@UdgProxy@dgCollisionScene@@@@AAE@QAV01@0@Z 1002e4e0 f i physics:dgCollisionScene.obj
 0001:0002d520       ?RemoveAll@?$dgList@UdgProxy@dgCollisionScene@@@@QAEXXZ 1002e520 f i physics:dgCollisionScene.obj
 0001:0002d590       ?Unlink@?$dgList@UdgProxy@dgCollisionScene@@@@QAEXQAVdgListNode@1@@Z 1002e590 f i physics:dgCollisionScene.obj
 0001:0002d5f0       ?Reset@FastRayTest@@QAEXN@Z 1002e5f0 f i physics:dgCollisionScene.obj
 0001:0002d640       ??0dgCollisionBVH@@QAE@QAVdgMemoryAllocator@@@Z 1002e640 f   physics:dgCollisionBVH.obj
 0001:0002d6b0       ??_EdgCollisionBVH@@UAEPAXI@Z 1002e6b0 f i  CIL library: CIL module
 0001:0002d6b0       ??_GdgCollisionBVH@@UAEPAXI@Z 1002e6b0 f i physics:dgCollisionBVH.obj
 0001:0002d6e0       ??0dgCollisionBVH@@QAE@QAVdgWorld@@P6AXPAX1I@ZQAX@Z 1002e6e0 f   physics:dgCollisionBVH.obj
 0001:0002d780       ??1dgCollisionBVH@@UAE@XZ  1002e780 f   physics:dgCollisionBVH.obj
 0001:0002d7d0       ?Serialize@dgCollisionBVH@@EBEXP6AXPAXPBXI@ZQAX@Z 1002e7d0 f   physics:dgCollisionBVH.obj
 0001:0002d800       ?BeginBuild@dgCollisionBVH@@QAEXXZ 1002e800 f   physics:dgCollisionBVH.obj
 0001:0002d8a0       ?AddFace@dgCollisionBVH@@QAEXHQBNHH@Z 1002e8a0 f   physics:dgCollisionBVH.obj
 0001:0002d900       ?EndBuild@dgCollisionBVH@@QAEXH@Z 1002e900 f   physics:dgCollisionBVH.obj
 0001:0002d990       ?GetCollisionInfo@dgCollisionBVH@@EBEXPAVdgCollisionInfo@@@Z 1002e990 f   physics:dgCollisionBVH.obj
 0001:0002da80       ?CollectVertexListIndexList@dgCollisionBVH@@CA?AW4dgIntersectStatus@@PAXQBNHQBHH@Z 1002ea80 f   physics:dgCollisionBVH.obj
 0001:0002db20       ?GetTriangleCount@dgCollisionBVH@@CA?AW4dgIntersectStatus@@PAXQBNHQBHH@Z 1002eb20 f   physics:dgCollisionBVH.obj
 0001:0002db50       ?GetVertexListIndexList@dgCollisionBVH@@UBEXABVdgVector@@0AAVdgGetVertexListIndexList@dgCollisionMesh@@@Z 1002eb50 f   physics:dgCollisionBVH.obj
 0001:0002dba0       ?RayHitSimd@dgCollisionBVH@@CANPAXQBNHQBHH@Z 1002eba0 f   physics:dgCollisionBVH.obj
 0001:0002dcd0       ?RayHit@dgCollisionBVH@@CANPAXQBNHQBHH@Z 1002ecd0 f   physics:dgCollisionBVH.obj
 0001:0002de40       ?RayHitUserSimd@dgCollisionBVH@@CANPAXQBNHQBHH@Z 1002ee40 f   physics:dgCollisionBVH.obj
 0001:0002df20       ?RayHitUser@dgCollisionBVH@@CANPAXQBNHQBHH@Z 1002ef20 f   physics:dgCollisionBVH.obj
 0001:0002e080       ?RayCastSimd@dgCollisionBVH@@EBENABVdgVector@@0AAVdgContactPoint@@P6AIQBVdgBody@@QBVdgCollision@@QAX@Z24@Z 1002f080 f   physics:dgCollisionBVH.obj
 0001:0002e280       ?RayCast@dgCollisionBVH@@EBENABVdgVector@@0AAVdgContactPoint@@P6AIQBVdgBody@@QBVdgCollision@@QAX@Z24@Z 1002f280 f   physics:dgCollisionBVH.obj
 0001:0002e480       ?GetPolygon@dgCollisionBVH@@CA?AW4dgIntersectStatus@@PAXQBNHQBHH@Z 1002f480 f   physics:dgCollisionBVH.obj
 0001:0002e890       ?GetCollidingFacesSimd@dgCollisionBVH@@EBEXQAVdgPolygonMeshDesc@@@Z 1002f890 f   physics:dgCollisionBVH.obj
 0001:0002e910       ?GetCollidingFaces@dgCollisionBVH@@EBEXQAVdgPolygonMeshDesc@@@Z 1002f910 f   physics:dgCollisionBVH.obj
 0001:0002e990       ?SupportVertex@dgCollisionBVH@@EBE?AVdgVector@@ABV2@@Z 1002f990 f   physics:dgCollisionBVH.obj
 0001:0002e9c0       ?ShowDebugPolygon@dgCollisionBVH@@CA?AW4dgIntersectStatus@@PAXQBNHQBHH@Z 1002f9c0 f   physics:dgCollisionBVH.obj
 0001:0002ec50       ?DebugCollision@dgCollisionBVH@@EBEXABVdgMatrix@@P6AXPAXHPBNH@ZQAX@Z 1002fc50 f   physics:dgCollisionBVH.obj
 0001:0002ece0       ??_EdgCollisionBVH@@WBCA@AEPAXI@Z 1002fce0 f i physics:dgCollisionBVH.obj
 0001:0002ecf0       ?Serialize@dgCollisionBVH@@GBCA@BEXP6AXPAXPBXI@ZQAX@Z 1002fcf0 f i physics:dgCollisionBVH.obj
 0001:0002ed00       ??0dgCollisionHeightField@@QAE@QAVdgWorld@@HHHQBGQBDNN@Z 1002fd00 f   physics:dgCollisionHeightField.obj
 0001:0002f020       ??_GdgCollisionHeightField@@UAEPAXI@Z 10030020 f i physics:dgCollisionHeightField.obj
 0001:0002f020       ??_EdgCollisionHeightField@@UAEPAXI@Z 10030020 f i  CIL library: CIL module
 0001:0002f050       ??0dgCollisionHeightField@@QAE@QAVdgWorld@@P6AXPAX1I@ZQAX@Z 10030050 f   physics:dgCollisionHeightField.obj
 0001:0002f2f0       ??1dgCollisionHeightField@@UAE@XZ 100302f0 f   physics:dgCollisionHeightField.obj
 0001:0002f450       ?Serialize@dgCollisionHeightField@@EBEXP6AXPAXPBXI@ZQAX@Z 10030450 f   physics:dgCollisionHeightField.obj
 0001:0002f500       ?AllocateVertex@dgCollisionHeightField@@ABEXQAVdgWorld@@H@Z 10030500 f   physics:dgCollisionHeightField.obj
 0001:0002f5d0       ?GetCollisionInfo@dgCollisionHeightField@@EBEXPAVdgCollisionInfo@@@Z 100305d0 f   physics:dgCollisionHeightField.obj
 0001:0002f680       ?CalculateMinExtend2d@dgCollisionHeightField@@ABEXABVdgVector@@0AAV2@1@Z 10030680 f   physics:dgCollisionHeightField.obj
 0001:0002f8b0       ?CalculateMinExtend3d@dgCollisionHeightField@@ABEXABVdgVector@@0AAV2@1@Z 100308b0 f   physics:dgCollisionHeightField.obj
 0001:0002f9f0       ?RayCastCellSimd@dgCollisionHeightField@@ABENABVFastRayTest@@HHAAVdgVector@@@Z 100309f0 f   physics:dgCollisionHeightField.obj
 0001:0002fcb0       ?RayCastCell@dgCollisionHeightField@@ABENABVFastRayTest@@HHAAVdgVector@@@Z 10030cb0 f   physics:dgCollisionHeightField.obj
 0001:00030140       ?RayCastSimd@dgCollisionHeightField@@EBENABVdgVector@@0AAVdgContactPoint@@P6AIQBVdgBody@@QBVdgCollision@@QAX@Z24@Z 10031140 f   physics:dgCollisionHeightField.obj
 0001:00030690       ?RayCast@dgCollisionHeightField@@EBENABVdgVector@@0AAVdgContactPoint@@P6AIQBVdgBody@@QBVdgCollision@@QAX@Z24@Z 10031690 f   physics:dgCollisionHeightField.obj
 0001:00030b50       ?GetVertexListIndexList@dgCollisionHeightField@@EBEXABVdgVector@@0AAVdgGetVertexListIndexList@dgCollisionMesh@@@Z 10031b50 f   physics:dgCollisionHeightField.obj
 0001:00030b60       ?DebugCollision@dgCollisionHeightField@@EBEXABVdgMatrix@@P6AXPAXHPBNH@ZQAX@Z 10031b60 f   physics:dgCollisionHeightField.obj
 0001:000310c0       ?GetLocalAABB@dgCollisionHeightField@@ABEXABVdgVector@@0AAV2@1@Z 100320c0 f   physics:dgCollisionHeightField.obj
 0001:000311d0       ?GetCollidingFaces@dgCollisionHeightField@@EBEXQAVdgPolygonMeshDesc@@@Z 100321d0 f   physics:dgCollisionHeightField.obj
 0001:000327a0       ?Insert@?$dgTree@PAXI@@QAEPAVdgTreeNode@1@ABQAXIAA_N@Z 100337a0 f i physics:dgCollisionHeightField.obj
 0001:00032870       ?SetMatrixOriginAndRotation@dgBody@@AAEXABVdgMatrix@@@Z 10033870 f i physics:dgBody.obj
 0001:00032940       ?SetAparentMassMatrix@dgBody@@QAEXABVdgVector@@@Z 10033940 f   physics:dgBody.obj
 0001:000329b0       ?SetMassMatrix@dgBody@@QAEXNNNN@Z 100339b0 f   physics:dgBody.obj
 0001:00032ab0       ?AttachCollision@dgBody@@QAEXPAVdgCollision@@@Z 10033ab0 f   physics:dgBody.obj
 0001:00032c10       ?SetMatrix@dgBody@@QAEXABVdgMatrix@@@Z 10033c10 f   physics:dgBody.obj
 0001:00032c50       ?SetMatrixIgnoreSleep@dgBody@@QAEXABVdgMatrix@@@Z 10033c50 f   physics:dgBody.obj
 0001:00032d30       ?UpdateCollisionMatrix@dgBody@@AAEXNH@Z 10033d30 f   physics:dgBody.obj
 0001:00033140       ?RayCast@dgBody@@QBENABUdgLineBox@@P6ANQBV1@ABVdgVector@@HQAXN@ZP6AI1QBVdgCollision@@3@Z3N@Z 10034140 f   physics:dgBody.obj
 0001:000333d0       ?AddBuoyancyForce@dgBody@@QAEXNNNABVdgVector@@P6AIPAX1ABVdgMatrix@@AAVdgPlane@@@ZQAX@Z 100343d0 f   physics:dgBody.obj
 0001:00033600       ?CalcInvInertiaMatrix@dgBody@@QAEXXZ 10034600 f   physics:dgBody.obj
 0001:000336d0       ?UpdateMatrix@dgBody@@AAEXNH@Z 100346d0 f   physics:dgBody.obj
 0001:00033700       ?IntegrateVelocity@dgBody@@AAEXN@Z 10034700 f   physics:dgBody.obj
 0001:00033950       ?CalculateContinueVelocity@dgBody@@ABEXNAAVdgVector@@0@Z 10034950 f   physics:dgBody.obj
 0001:00033ab0       ?CalculateInverseDynamicForce@dgBody@@QBE?AVdgVector@@ABV2@N@Z 10034ab0 f   physics:dgBody.obj
 0001:00033b20       ?GetNextJoint@dgBody@@QBEPAVdgConstraint@@PAV2@@Z 10034b20 f   physics:dgBody.obj
 0001:00033b60       ?GetNextContact@dgBody@@QBEPAVdgConstraint@@PAV2@@Z 10034b60 f   physics:dgBody.obj
 0001:00033ba0       ?Freeze@dgBody@@QAEXXZ     10034ba0 f   physics:dgBody.obj
 0001:00033bf0       ?Unfreeze@dgBody@@QAEXXZ   10034bf0 f   physics:dgBody.obj
 0001:00033c40       ?AddImpulse@dgBody@@AAEXABVdgVector@@0@Z 10034c40 f   physics:dgBody.obj
 0001:00033fe0       ?InvalidateCache@dgBody@@QAEXXZ 10034fe0 f   physics:dgBody.obj
 0001:00034070       ?RotateToEnd@?$dgList@VdgBodyMasterListRow@@@@QAEXQAVdgListNode@1@@Z 10035070 f i physics:dgBody.obj
 0001:000340c0       ?InsertAfter@?$dgList@VdgBodyMasterListRow@@@@QAEXQAVdgListNode@1@0@Z 100350c0 f i physics:dgBody.obj
 0001:00034120       ??DdgQuaternion@@QBE?AV0@ABV0@@Z 10035120 f i physics:dgBody.obj
 0001:000341b0       ??0dgBallConstraint@@AAE@XZ 100351b0 f   physics:dgBallConstraint.obj
 0001:00034210       ??_GdgBallConstraint@@EAEPAXI@Z 10035210 f i physics:dgBallConstraint.obj
 0001:00034210       ??_GdgSlidingConstraint@@EAEPAXI@Z 10035210 f i physics:dgSlidingConstraint.obj
 0001:00034210       ??_GdgUniversalConstraint@@EAEPAXI@Z 10035210 f i physics:dgUniversalConstraint.obj
 0001:00034210       ??_GdgUpVectorConstraint@@EAEPAXI@Z 10035210 f i physics:dgUpVectorConstraint.obj
 0001:00034210       ??_GdgBilateralConstraint@@MAEPAXI@Z 10035210 f i physics:dgBilateralConstraint.obj
 0001:00034210       ??_EdgUniversalConstraint@@EAEPAXI@Z 10035210 f i  CIL library: CIL module
 0001:00034210       ??_EdgUpVectorConstraint@@EAEPAXI@Z 10035210 f i  CIL library: CIL module
 0001:00034210       ??_EdgHingeConstraint@@EAEPAXI@Z 10035210 f i  CIL library: CIL module
 0001:00034210       ??_EdgBallConstraint@@EAEPAXI@Z 10035210 f i  CIL library: CIL module
 0001:00034210       ??_EdgUserConstraint@@MAEPAXI@Z 10035210 f i  CIL library: CIL module
 0001:00034210       ??_EdgSlidingConstraint@@EAEPAXI@Z 10035210 f i  CIL library: CIL module
 0001:00034210       ??_EdgCorkscrewConstraint@@EAEPAXI@Z 10035210 f i  CIL library: CIL module
 0001:00034210       ??_GdgHingeConstraint@@EAEPAXI@Z 10035210 f i physics:dgHingeConstraint.obj
 0001:00034210       ??_EdgBilateralConstraint@@MAEPAXI@Z 10035210 f i  CIL library: CIL module
 0001:00034210       ??_GdgUserConstraint@@MAEPAXI@Z 10035210 f i physics:dgUserConstraint.obj
 0001:00034210       ??_GdgCorkscrewConstraint@@EAEPAXI@Z 10035210 f i physics:dgCorkscrewConstraint.obj
 0001:00034250       ?GetJointOmega@dgBallConstraint@@QBE?AVdgVector@@XZ 10035250 f   physics:dgBallConstraint.obj
 0001:000343b0       ?GetJointForce@dgBallConstraint@@QBE?AVdgVector@@XZ 100353b0 f   physics:dgBallConstraint.obj
 0001:00034470       ?SetPivotPoint@dgBallConstraint@@AAEXABVdgVector@@@Z 10035470 f   physics:dgBallConstraint.obj
 0001:00034530       ?SetLimits@dgBallConstraint@@QAEXABVdgVector@@NNN0NN@Z 10035530 f   physics:dgBallConstraint.obj
 0001:00034c00       ?JacobianDerivative@dgBallConstraint@@EAEIAAVdgContraintDescritor@@@Z 10035c00 f   physics:dgBallConstraint.obj
 0001:00035200       ?GetJointOmega0@dgUniversalConstraint@@QBENXZ 10036200 f   physics:dgUniversalConstraint.obj
 0001:00035200       ?GetJointOmega@dgCorkscrewConstraint@@QBENXZ 10036200 f   physics:dgCorkscrewConstraint.obj
 0001:00035200       ?GetJointOmega@dgHingeConstraint@@QBENXZ 10036200 f   physics:dgHingeConstraint.obj
 0001:00035280       ?CalculateStopAlpha@dgHingeConstraint@@QBENNPBVdgJointCallBackParam@@@Z 10036280 f   physics:dgHingeConstraint.obj
 0001:00035320       ?GetJointForce@dgHingeConstraint@@QBE?AVdgVector@@XZ 10036320 f   physics:dgHingeConstraint.obj
 0001:00035440       ?JacobianDerivative@dgHingeConstraint@@EAEIAAVdgContraintDescritor@@@Z 10036440 f   physics:dgHingeConstraint.obj
 0001:000356d0       ?GetJointVeloc@dgCorkscrewConstraint@@QBENXZ 100366d0 f   physics:dgCorkscrewConstraint.obj
 0001:000356d0       ?GetJointVeloc@dgSlidingConstraint@@QBENXZ 100366d0 f   physics:dgSlidingConstraint.obj
 0001:00035750       ?CalculateStopAccel@dgSlidingConstraint@@QBENNPBVdgJointCallBackParam@@@Z 10036750 f   physics:dgSlidingConstraint.obj
 0001:000357c0       ?GetJointForce@dgSlidingConstraint@@QBE?AVdgVector@@XZ 100367c0 f   physics:dgSlidingConstraint.obj
 0001:000358e0       ?JacobianDerivative@dgSlidingConstraint@@EAEIAAVdgContraintDescritor@@@Z 100368e0 f   physics:dgSlidingConstraint.obj
 0001:00035cf0       ?GetJointAngle1@dgUniversalConstraint@@QBENXZ 10036cf0 f   physics:dgUniversalConstraint.obj
 0001:00035cf0       ?GetJointPosit@dgCorkscrewConstraint@@QBENXZ 10036cf0 f   physics:dgCorkscrewConstraint.obj
 0001:00035d00       ?CalculateStopAccel@dgCorkscrewConstraint@@QBENNPBVdgJointCallBackParam@@@Z 10036d00 f   physics:dgCorkscrewConstraint.obj
 0001:00035d70       ?JacobianDerivative@dgCorkscrewConstraint@@EAEIAAVdgContraintDescritor@@@Z 10036d70 f   physics:dgCorkscrewConstraint.obj
 0001:00036190       ?GetJointAngle@dgHingeConstraint@@QBENXZ 10037190 f   physics:dgHingeConstraint.obj
 0001:00036190       ?GetJointAngle@dgCorkscrewConstraint@@QBENXZ 10037190 f   physics:dgCorkscrewConstraint.obj
 0001:00036190       ?GetJointAngle0@dgUniversalConstraint@@QBENXZ 10037190 f   physics:dgUniversalConstraint.obj
 0001:00036190       ?GetJointPosit@dgSlidingConstraint@@QBENXZ 10037190 f   physics:dgSlidingConstraint.obj
 0001:000361a0       ?GetJointOmega1@dgUniversalConstraint@@QBENXZ 100371a0 f   physics:dgUniversalConstraint.obj
 0001:00036240       ?CalculateStopAlpha@dgCorkscrewConstraint@@QBENNPBVdgJointCallBackParam@@@Z 10037240 f   physics:dgCorkscrewConstraint.obj
 0001:00036240       ?CalculateStopAlpha0@dgUniversalConstraint@@QBENNPBVdgJointCallBackParam@@@Z 10037240 f   physics:dgUniversalConstraint.obj
 0001:000362b0       ?CalculateStopAlpha1@dgUniversalConstraint@@QBENNPBVdgJointCallBackParam@@@Z 100372b0 f   physics:dgUniversalConstraint.obj
 0001:00036320       ?GetJointForce@dgUniversalConstraint@@QBE?AVdgVector@@XZ 10037320 f   physics:dgUniversalConstraint.obj
 0001:00036320       ?GetJointForce@dgCorkscrewConstraint@@QBE?AVdgVector@@XZ 10037320 f   physics:dgCorkscrewConstraint.obj
 0001:00036410       ?JacobianDerivative@dgUniversalConstraint@@EAEIAAVdgContraintDescritor@@@Z 10037410 f   physics:dgUniversalConstraint.obj
 0001:00036890       ?SetPinDir@dgUpVectorConstraint@@QAEXABVdgVector@@@Z 10037890 f   physics:dgUpVectorConstraint.obj
 0001:00036a00       ?JacobianDerivative@dgUpVectorConstraint@@EAEIAAVdgContraintDescritor@@@Z 10037a00 f   physics:dgUpVectorConstraint.obj
 0001:00036b80       ?IsBilateral@dgConstraint@@MBE_NXZ 10037b80 f   physics:dgConstraint.obj
 0001:00036b80       ?IsBilateral@dgUpVectorConstraint@@UBE_NXZ 10037b80 f   physics:dgUpVectorConstraint.obj
 0001:00036b80       ?IsTriggerVolume@dgCollision@@UBE_NXZ 10037b80 f   physics:dgCollisionCompoundBreakable.obj
 0001:00036b90       ?InitPointParam@dgConstraint@@IBEXAAVdgPointParam@1@NABVdgVector@@1@Z 10037b90 f   physics:dgConstraint.obj
 0001:00036d60       ?InitInfo@dgConstraint@@IBEXPAVdgConstraintInfo@@@Z 10037d60 f   physics:dgConstraint.obj
 0001:00036dd0       ?GetInfo@dgUserConstraint@@MBEXQAVdgConstraintInfo@@@Z 10037dd0 f   physics:dgUserConstraint.obj
 0001:00036de0       ??_EdgConstraint@@MAEPAXI@Z 10037de0 f i  CIL library: CIL module
 0001:00036de0       ??_GdgConstraint@@MAEPAXI@Z 10037de0 f i physics:dgBilateralConstraint.obj
 0001:00036e00       ?GetStiffness@dgConstraint@@UBENXZ 10037e00 f i physics:dgBilateralConstraint.obj
 0001:00036e10       ??0dgBilateralConstraint@@IAE@XZ 10037e10 f   physics:dgBilateralConstraint.obj
 0001:00036ed0       ?IsBilateral@dgBilateralConstraint@@MBE_NXZ 10037ed0 f   physics:dgBilateralConstraint.obj
 0001:00036ee0       ?GetStiffness@dgBilateralConstraint@@MBENXZ 10037ee0 f   physics:dgBilateralConstraint.obj
 0001:00036f00       ?SetStiffness@dgBilateralConstraint@@MAEXN@Z 10037f00 f   physics:dgBilateralConstraint.obj
 0001:00036f40       ?SetDestructorCallback@dgBilateralConstraint@@UAEXP6AXAAVdgConstraint@@@Z@Z 10037f40 f   physics:dgBilateralConstraint.obj
 0001:00036f50       ?CalculateMatrixOffset@dgBilateralConstraint@@IAEXABVdgVector@@0AAVdgMatrix@@1@Z 10037f50 f   physics:dgBilateralConstraint.obj
 0001:000373b0       ?SetPivotAndPinDir@dgBilateralConstraint@@IAEXABVdgVector@@00@Z 100383b0 f   physics:dgBilateralConstraint.obj
 0001:00037760       ?CalculateGlobalMatrixAndAngle@dgBilateralConstraint@@IBE?AVdgVector@@AAVdgMatrix@@0@Z 10038760 f   physics:dgBilateralConstraint.obj
 0001:00037900       ?SetMotorAcceleration@dgBilateralConstraint@@IAEXHNAAVdgContraintDescritor@@@Z 10038900 f   physics:dgBilateralConstraint.obj
 0001:00037930       ?SetJacobianDerivative@dgBilateralConstraint@@IAEXHAAVdgContraintDescritor@@PBN1PAN@Z 10038930 f   physics:dgBilateralConstraint.obj
 0001:000379e0       ?CalculateSpringDamperAcceleration@dgBilateralConstraint@@IAENHABVdgContraintDescritor@@NABVdgVector@@1NN@Z 100389e0 f   physics:dgBilateralConstraint.obj
 0001:00037b70       ?CalculateAngularDerivative@dgBilateralConstraint@@IAEXHAAVdgContraintDescritor@@ABVdgVector@@NNPAN@Z 10038b70 f   physics:dgBilateralConstraint.obj
 0001:00037cc0       ?CalculatePointDerivative@dgBilateralConstraint@@IAEXHAAVdgContraintDescritor@@ABVdgVector@@ABVdgPointParam@dgConstraint@@PAN@Z 10038cc0 f   physics:dgBilateralConstraint.obj
 0001:00037ee0       ?JointVelocityCorrection@dgBilateralConstraint@@MAEXABVdgJointAccelerationDecriptor@@@Z 10038ee0 f   physics:dgBilateralConstraint.obj
 0001:00037ee0       ?JointAccelerationsSimd@dgContact@@EAEXABVdgJointAccelerationDecriptor@@@Z 10038ee0 f   physics:dgContact.obj
 0001:00037ee0       ?JointVelocityCorrection@dgContact@@EAEXABVdgJointAccelerationDecriptor@@@Z 10038ee0 f   physics:dgContact.obj
 0001:00037ee0       ?GetInfo@dgConstraint@@UBEXQAVdgConstraintInfo@@@Z 10038ee0 f   physics:dgConstraint.obj
 0001:00037ee0       ?SetUserData@dgCollision@@UAEXQAX@Z 10038ee0 f   physics:dgCollision.obj
 0001:00037ee0       ?JointAccelerationsSimd@dgBilateralConstraint@@MAEXABVdgJointAccelerationDecriptor@@@Z 10038ee0 f   physics:dgBilateralConstraint.obj
 0001:00037ee0       ?GetCollisionInfo@dgCollisionMesh@@EBEXPAVdgCollisionInfo@@@Z 10038ee0 f   physics:dgCollisionMesh.obj
 0001:00037ee0       ?ModifierSetMatrix@dgCollision@@UAEXABVdgMatrix@@@Z 10038ee0 f   physics:dgWorld.obj
 0001:00037ee0       ?Remove@dgBilateralConstraint@@MAEXPAVdgWorld@@@Z 10038ee0 f   NewtonClass.obj
 0001:00037ee0       ?SetDestructorCallback@dgContact@@EAEXP6AXAAVdgConstraint@@@Z@Z 10038ee0 f   physics:dgContact.obj
 0001:00037ee0       ?SetAsTriggerVolume@dgCollision@@UAEX_N@Z 10038ee0 f   physics:dgCollisionCompoundBreakable.obj
 0001:00037ef0       ?JointAccelerations@dgBilateralConstraint@@MAEXABVdgJointAccelerationDecriptor@@@Z 10038ef0 f   physics:dgBilateralConstraint.obj
 0001:00038170       ?RemoveAllJoints@dgBodyMasterListRow@@QAEXXZ 10039170 f   physics:dgBodyMasterList.obj
 0001:000381b0       ?SortList@dgBodyMasterListRow@@QAEXXZ 100391b0 f   physics:dgBodyMasterList.obj
 0001:000382a0       ?RemoveBody@dgBodyMasterList@@QAEXQAVdgBody@@@Z 100392a0 f   physics:dgBodyMasterList.obj
 0001:00038310       ?FindConstraintLink@dgBodyMasterList@@QBEPAVdgListNode@?$dgList@VdgBodyMasterListCell@@@@QBVdgBody@@0@Z 10039310 f   physics:dgBodyMasterList.obj
 0001:00038330       ?AttachConstraint@dgBodyMasterList@@QAEXQAVdgConstraint@@QAVdgBody@@1@Z 10039330 f   physics:dgBodyMasterList.obj
 0001:00038410       ?RemoveConstraint@dgBodyMasterList@@QAEXQAVdgConstraint@@@Z 10039410 f   physics:dgBodyMasterList.obj
 0001:000385a0       ?SortMasterList@dgBodyMasterList@@QAEXXZ 100395a0 f   physics:dgBodyMasterList.obj
 0001:00038710       ?Addtop@?$dgList@VdgBodyMasterListCell@@@@QAEPAVdgListNode@1@XZ 10039710 f i physics:dgBodyMasterList.obj
 0001:00038780       ?Append@?$dgList@VdgBodyMasterListRow@@@@QAEPAVdgListNode@1@XZ 10039780 f i physics:dgBodyMasterList.obj
 0001:00038800       ?RemoveAll@?$dgList@VdgBodyMasterListRow@@@@QAEXXZ 10039800 f i physics:dgBodyMasterList.obj
 0001:00038860       ??0dgCollisionSphere@@QAE@QAVdgWorld@@P6AXPAX1I@ZQAX@Z 10039860 f   physics:dgCollisionSphere.obj
 0001:000388a0       ?Init@dgCollisionSphere@@IAEXNPAVdgMemoryAllocator@@@Z 100398a0 f   physics:dgCollisionSphere.obj
 0001:00038dc0       ?SupportVertexSimd@dgCollisionSphere@@MBE?AVdgVector@@ABV2@@Z 10039dc0 f   physics:dgCollisionSphere.obj
 0001:00038dc0       ?SupportVertex@dgCollisionSphere@@MBE?AVdgVector@@ABV2@@Z 10039dc0 f   physics:dgCollisionSphere.obj
 0001:00038e00       ?TesselateTriangle@dgCollisionSphere@@IBEXHABVdgVector@@00AAHPAV2@@Z 10039e00 f   physics:dgCollisionSphere.obj
 0001:00038fe0       ?CalculateSignature@dgCollisionSphere@@MBEHXZ 10039fe0 f   physics:dgCollisionSphere.obj
 0001:000390e0       ?CalcAABB@dgCollisionSphere@@MBEXABVdgMatrix@@AAVdgVector@@1@Z 1003a0e0 f   physics:dgCollisionSphere.obj
 0001:00039140       ?CalculatePlaneIntersection@dgCollisionSphere@@MBEHABVdgVector@@0QAV2@@Z 1003a140 f   physics:dgCollisionSphere.obj
 0001:00039190       ?DebugCollision@dgCollisionSphere@@MBEXABVdgMatrix@@P6AXPAXHPBNH@ZQAX@Z 1003a190 f   physics:dgCollisionSphere.obj
 0001:00039430       ?RayCast@dgCollisionSphere@@MBENABVdgVector@@0AAVdgContactPoint@@P6AIQBVdgBody@@QBVdgCollision@@QAX@Z24@Z 1003a430 f   physics:dgCollisionSphere.obj
 0001:00039630       ?CalculateMassProperties@dgCollisionSphere@@MBENAAVdgVector@@00@Z 1003a630 f   physics:dgCollisionSphere.obj
 0001:00039730       ?GetCollisionInfo@dgCollisionSphere@@MBEXPAVdgCollisionInfo@@@Z 1003a730 f   physics:dgCollisionSphere.obj
 0001:000397b0       ?Serialize@dgCollisionSphere@@MBEXP6AXPAXPBXI@ZQAX@Z 1003a7b0 f   physics:dgCollisionSphere.obj
 0001:00039810       ??0dgContactMaterial@@QAE@XZ 1003a810 f   physics:dgContact.obj
 0001:00039880       ??0dgContact@@AAE@PAVdgWorld@@@Z 1003a880 f   physics:dgContact.obj
 0001:00039950       ??_GdgContact@@EAEPAXI@Z   1003a950 f i physics:dgContact.obj
 0001:00039950       ??_EdgContact@@EAEPAXI@Z   1003a950 f i  CIL library: CIL module
 0001:00039980       ??1dgContact@@EAE@XZ       1003a980 f i physics:dgContact.obj
 0001:00039a10       ?GetInfo@dgContact@@EBEXQAVdgConstraintInfo@@@Z 1003aa10 f   physics:dgContact.obj
 0001:00039a60       ?CalculatePointDerivative@dgContact@@ABEXHAAVdgContraintDescritor@@ABVdgVector@@ABVdgPointParam@dgConstraint@@@Z 1003aa60 f   physics:dgContact.obj
 0001:00039b30       ?JacobianDerivative@dgContact@@EAEIAAVdgContraintDescritor@@@Z 1003ab30 f   physics:dgContact.obj
 0001:00039b80       ?JacobianContactDerivative@dgContact@@AAEXAAVdgContraintDescritor@@ABVdgContactMaterial@@HAAH@Z 1003ab80 f   physics:dgContact.obj
 0001:00039f10       ?JointAccelerations@dgContact@@EAEXABVdgJointAccelerationDecriptor@@@Z 1003af10 f   physics:dgContact.obj
 0001:0003a1c0       ?FlushChache@dgCollidingPairCollector@@QAEXQAUdgThreadPairCache@1@@Z 1003b1c0 f   physics:dgContact.obj
 0001:0003a2a0       ?AddPair@dgCollidingPairCollector@@QAEXQAVdgBody@@0H@Z 1003b2a0 f   physics:dgContact.obj
 0001:0003a5c0       ?Append@?$dgList@PAVdgListNode@?$dgList@VdgConvexHull3DFace@@@@@@QAEPAVdgListNode@1@ABQAV2?$dgList@VdgConvexHull3DFace@@@@@Z 1003b5c0 f i corelib:dgConvexHull3d.obj
 0001:0003a5c0       ?Append@?$dgList@PAVdgContact@@@@QAEPAVdgListNode@1@ABQAVdgContact@@@Z 1003b5c0 f i physics:dgContact.obj
 0001:0003a5c0       ?Append@?$dgList@PAVdgMemoryAllocator@@@@QAEPAVdgListNode@1@ABQAVdgMemoryAllocator@@@Z 1003b5c0 f i corelib:dgMemory.obj
 0001:0003a5c0       ?Append@?$dgList@PAVdgTreeNode@?$dgTree@VdgEdge@@_J@@@@QAEPAVdgListNode@1@ABQAVdgTreeNode@?$dgTree@VdgEdge@@_J@@@Z 1003b5c0 f i physics:dgMeshEffect2.obj
 0001:0003a5c0       ?Append@?$dgList@PAVdgListNode@?$dgList@VdgConvexHull4dTetraherum@@@@@@QAEPAVdgListNode@1@ABQAV2?$dgList@VdgConvexHull4dTetraherum@@@@@Z 1003b5c0 f i physics:dgMeshEffect2.obj
 0001:0003a5c0       ?Append@?$dgList@PAVdgEdge@@@@QAEPAVdgListNode@1@ABQAVdgEdge@@@Z 1003b5c0 f i corelib:dgPolyhedra.obj
 0001:0003a650       ?RemoveAll@?$dgList@VdgContactMaterial@@@@QAEXXZ 1003b650 f i physics:dgContact.obj
 0001:0003a6c0       ?Serialize@dgCollisionNull@@EBEXP6AXPAXPBXI@ZQAX@Z 1003b6c0 f   physics:dgCollisionNull.obj
 0001:0003a6d0       ?DebugCollision@dgCollisionMesh@@EBEXABVdgMatrix@@P6AXPAXHPBNH@ZQAX@Z 1003b6d0 f   physics:dgCollisionMesh.obj
 0001:0003a6d0       ?DebugCollision@dgCollisionUserMesh@@EBEXABVdgMatrix@@P6AXPAXHPBNH@ZQAX@Z 1003b6d0 f   physics:dgCollisionUserMesh.obj
 0001:0003a6d0       ?CalcAABBSimd@dgCollisionBox@@MBEXABVdgMatrix@@AAVdgVector@@1@Z 1003b6d0 f   physics:dgCollisionBox.obj
 0001:0003a6d0       ?CalcAABBSimd@dgConvexCollision@@UBEXABVdgMatrix@@AAVdgVector@@1@Z 1003b6d0 f   physics:dgConvexCollision.obj
 0001:0003a6d0       ?DebugCollision@dgCollisionNull@@MBEXABVdgMatrix@@P6AXPAXHPBNH@ZQAX@Z 1003b6d0 f   physics:dgCollisionNull.obj
 0001:0003a6d0       ?ForAllSectorsRayHit@dgPolygonSoupDatabase@@MBEXABVFastRayTest@@P6ANPAXQBNHQBHH@ZQAX@Z 1003b6d0 f   corelib:dgAABBPolygonSoup.obj
 0001:0003a6d0       ?ForAllSectorsRayHitSimd@dgPolygonSoupDatabase@@MBEXABVFastRayTest@@P6ANPAXQBNHQBHH@ZQAX@Z 1003b6d0 f   corelib:dgAABBPolygonSoup.obj
 0001:0003a6d0       ?CalcAABBSimd@dgCollisionConvexModifier@@MBEXABVdgMatrix@@AAVdgVector@@1@Z 1003b6d0 f   physics:dgCollisionConvexModifier.obj
 0001:0003a6e0       ?CalculateSignature@dgCollisionConvexHull@@EBEHXZ 1003b6e0 f   physics:dgCollisionConvexHull.obj
 0001:0003a6e0       ?CalculateSignature@dgCollisionNull@@EBEHXZ 1003b6e0 f   physics:dgCollisionNull.obj
 0001:0003a6f0       ?CalcAABB@dgCollisionNull@@MBEXABVdgMatrix@@AAVdgVector@@1@Z 1003b6f0 f   physics:dgCollisionNull.obj
 0001:0003a730       ?RayCast@dgCollisionNull@@MBENABVdgVector@@0AAVdgContactPoint@@P6AIQBVdgBody@@QBVdgCollision@@QAX@Z24@Z 1003b730 f   physics:dgCollisionNull.obj
 0001:0003a730       ?RayCastSimd@dgCollisionNull@@MBENABVdgVector@@0AAVdgContactPoint@@P6AIQBVdgBody@@QBVdgCollision@@QAX@Z24@Z 1003b730 f   physics:dgCollisionNull.obj
 0001:0003a740       ?CalculateVolumeIntegral@dgCollisionNull@@MBE?AVdgVector@@ABVdgMatrix@@P6AIPAX10AAVdgPlane@@@ZQAX@Z 1003b740 f   physics:dgCollisionNull.obj
 0001:0003a740       ?CalculateVolumeIntegral@dgCollisionScene@@EBE?AVdgVector@@ABVdgMatrix@@P6AIPAX10AAVdgPlane@@@ZQAX@Z 1003b740 f   physics:dgCollisionScene.obj
 0001:0003a740       ?CalculateVolumeIntegral@dgCollisionMesh@@EBE?AVdgVector@@ABVdgMatrix@@P6AIPAX10AAVdgPlane@@@ZQAX@Z 1003b740 f   physics:dgCollisionMesh.obj
 0001:0003a760       ??0dgConvexCollision@@IAE@QAVdgMemoryAllocator@@IABVdgMatrix@@W4dgCollisionID@@@Z 1003b760 f   physics:dgConvexCollision.obj
 0001:0003a8c0       ??_EdgCollisionNull@@UAEPAXI@Z 1003b8c0 f i  CIL library: CIL module
 0001:0003a8c0       ??_GdgCollisionConvexPolygon@dgCollisionMesh@@UAEPAXI@Z 1003b8c0 f i physics:dgCollisionMesh.obj
 0001:0003a8c0       ??_EdgConvexCollision@@MAEPAXI@Z 1003b8c0 f i  CIL library: CIL module
 0001:0003a8c0       ??_EdgCollisionConvexPolygon@dgCollisionMesh@@UAEPAXI@Z 1003b8c0 f i  CIL library: CIL module
 0001:0003a8c0       ??_GdgCollisionNull@@UAEPAXI@Z 1003b8c0 f i physics:dgCollisionNull.obj
 0001:0003a8c0       ??_GdgConvexCollision@@MAEPAXI@Z 1003b8c0 f i physics:dgConvexCollision.obj
 0001:0003a920       ??0dgConvexCollision@@IAE@QAVdgWorld@@P6AXPAX1I@ZQAX@Z 1003b920 f   physics:dgConvexCollision.obj
 0001:0003aa00       ?SerializeLow@dgConvexCollision@@MBEXP6AXPAXPBXI@ZQAX@Z 1003ba00 f   physics:dgConvexCollision.obj
 0001:0003aa40       ?GetUserData@dgConvexCollision@@MBEPAXXZ 1003ba40 f   physics:dgConvexCollision.obj
 0001:0003aa50       ?SetUserData@dgConvexCollision@@MAEXQAX@Z 1003ba50 f   physics:dgConvexCollision.obj
 0001:0003aa60       ?SetVolumeAndCG@dgConvexCollision@@IAEXXZ 1003ba60 f   physics:dgConvexCollision.obj
 0001:0003ae60       ?DebugCollision@dgConvexCollision@@MBEXABVdgMatrix@@P6AXPAXHPBNH@ZQAX@Z 1003be60 f   physics:dgConvexCollision.obj
 0001:0003af80       ?CalcAABB@dgConvexCollision@@UBEXABVdgMatrix@@AAVdgVector@@1@Z 1003bf80 f   physics:dgConvexCollision.obj
 0001:0003b200       ?GetSupportEdge@dgConvexCollision@@IBEPAVdgConvexSimplexEdge@@ABVdgVector@@@Z 1003c200 f   physics:dgConvexCollision.obj
 0001:0003b280       ?CalculateInertia@dgConvexCollision@@CAXPAXHPBNH@Z 1003c280 f   physics:dgConvexCollision.obj
 0001:0003b2a0       ?CalculateMassProperties@dgCollisionEllipse@@EBENAAVdgVector@@00@Z 1003c2a0 f   physics:dgCollisionEllipse.obj
 0001:0003b2a0       ?CalculateMassProperties@dgConvexCollision@@MBENAAVdgVector@@00@Z 1003c2a0 f   physics:dgConvexCollision.obj
 0001:0003b2f0       ?CalculateInertia@dgConvexCollision@@EBEXAAVdgVector@@0@Z 1003c2f0 f   physics:dgConvexCollision.obj
 0001:0003b450       ?GetVolume@dgConvexCollision@@EBENXZ 1003c450 f   physics:dgConvexCollision.obj
 0001:0003b460       ?GetBoxMinRadius@dgConvexCollision@@EBENXZ 1003c460 f   physics:dgConvexCollision.obj
 0001:0003b470       ?GetBoxMaxRadius@dgConvexCollision@@EBENXZ 1003c470 f   physics:dgConvexCollision.obj
 0001:0003b480       ?RayCastClosestFace@dgConvexCollision@@ABEHPAVdgVector@@ABV2@AAN@Z 1003c480 f   physics:dgConvexCollision.obj
 0001:0003b940       ?RayHitBox@dgConvexCollision@@ABE_NABVdgVector@@0@Z 1003c940 f   physics:dgConvexCollision.obj
 0001:0003ba70       ?CalculateVolumeIntegral@dgConvexCollision@@EBE?AVdgVector@@ABVdgMatrix@@P6AIPAX10AAVdgPlane@@@ZQAX@Z 1003ca70 f   physics:dgConvexCollision.obj
 0001:0003bbd0       ?CalculateVolumeIntegral@dgConvexCollision@@IBE?AVdgVector@@ABVdgPlane@@@Z 1003cbd0 f   physics:dgConvexCollision.obj
 0001:0003c0f0       ?SupportVertex@dgConvexCollision@@UBE?AVdgVector@@ABV2@@Z 1003d0f0 f   physics:dgConvexCollision.obj
 0001:0003c2c0       ?SimplifyClipPolygon@dgConvexCollision@@ABEHHABVdgVector@@QAV2@@Z 1003d2c0 f   physics:dgConvexCollision.obj
 0001:0003c4a0       ?RectifyConvexSlice@dgConvexCollision@@IBEHHABVdgVector@@QAV2@@Z 1003d4a0 f   physics:dgConvexCollision.obj
 0001:0003c890       ?CalculatePlaneIntersection@dgConvexCollision@@UBEHABVdgVector@@0QAV2@@Z 1003d890 f   physics:dgConvexCollision.obj
 0001:0003cdb0       ?RayCast@dgConvexCollision@@UBENABVdgVector@@0AAVdgContactPoint@@P6AIQBVdgBody@@QBVdgCollision@@QAX@Z24@Z 1003ddb0 f   physics:dgConvexCollision.obj
 0001:0003db70       ?RayCastSimd@dgCollisionUserMesh@@EBENABVdgVector@@0AAVdgContactPoint@@P6AIQBVdgBody@@QBVdgCollision@@QAX@Z24@Z 1003eb70 f   physics:dgCollisionUserMesh.obj
 0001:0003db70       ?RayCastSimd@dgConvexCollision@@UBENABVdgVector@@0AAVdgContactPoint@@P6AIQBVdgBody@@QBVdgCollision@@QAX@Z24@Z 1003eb70 f   physics:dgConvexCollision.obj
 0001:0003db70       ?RayCastSimd@dgCollisionCylinder@@EBENABVdgVector@@0AAVdgContactPoint@@P6AIQBVdgBody@@QBVdgCollision@@QAX@Z24@Z 1003eb70 f   physics:dgCollisionCylinder.obj
 0001:0003db70       ?RayCastSimd@dgCollisionBox@@MBENABVdgVector@@0AAVdgContactPoint@@P6AIQBVdgBody@@QBVdgCollision@@QAX@Z24@Z 1003eb70 f   physics:dgCollisionBox.obj
 0001:0003db70       ?RayCastSimd@dgCollisionSphere@@MBENABVdgVector@@0AAVdgContactPoint@@P6AIQBVdgBody@@QBVdgCollision@@QAX@Z24@Z 1003eb70 f   physics:dgCollisionSphere.obj
 0001:0003db70       ?RayCastSimd@dgCollisionCapsule@@EBENABVdgVector@@0AAVdgContactPoint@@P6AIQBVdgBody@@QBVdgCollision@@QAX@Z24@Z 1003eb70 f   physics:dgCollisionCapsule.obj
 0001:0003db80       ?IsTriggerVolume@dgConvexCollision@@UBE_NXZ 1003eb80 f   physics:dgConvexCollision.obj
 0001:0003db90       ?SetAsTriggerVolume@dgConvexCollision@@MAEX_N@Z 1003eb90 f   physics:dgConvexCollision.obj
 0001:0003dbb0       ?OOBBTest@dgConvexCollision@@UBE_NABVdgMatrix@@QBV1@QAX@Z 1003ebb0 f   physics:dgConvexCollision.obj
 0001:0003dd60       ?Push@?$dgUpHeap@PAUdgPerimenterEdge@dgContactSolver@@N@@QAEXAAPAUdgPerimenterEdge@dgContactSolver@@N@Z 1003ed60 f i physics:dgMinkowskiConv.obj
 0001:0003dd60       ?Push@?$dgUpHeap@HN@@QAEXAAHN@Z 1003ed60 f i physics:dgConvexCollision.obj
 0001:0003ddd0       ??_GdgCollision@@MAEPAXI@Z 1003edd0 f i physics:dgCollision.obj
 0001:0003ddd0       ??_EdgCollision@@MAEPAXI@Z 1003edd0 f i  CIL library: CIL module
 0001:0003ddf0       ??0dgCollision@@IAE@QAVdgWorld@@P6AXPAX1I@ZQAX@Z 1003edf0 f   physics:dgCollision.obj
 0001:0003de70       ?Quantize@dgCollision@@SAIN@Z 1003ee70 f   physics:dgCollision.obj
 0001:0003dea0       ?GetCollisionInfo@dgCollision@@UBEXPAVdgCollisionInfo@@@Z 1003eea0 f   physics:dgCollision.obj
 0001:0003dee0       ?SerializeLow@dgCollision@@UBEXP6AXPAXPBXI@ZQAX@Z 1003eee0 f   physics:dgCollision.obj
 0001:0003df40       ??0dgCollisionBox@@QAE@QAVdgMemoryAllocator@@INNNABVdgMatrix@@@Z 1003ef40 f   physics:dgCollisionBox.obj
 0001:0003df90       ??_EdgCollisionBox@@UAEPAXI@Z 1003ef90 f i  CIL library: CIL module
 0001:0003df90       ??_GdgCollisionBox@@UAEPAXI@Z 1003ef90 f i physics:dgCollisionBox.obj
 0001:0003dfc0       ??0dgCollisionBox@@QAE@QAVdgWorld@@P6AXPAX1I@ZQAX@Z 1003efc0 f   physics:dgCollisionBox.obj
 0001:0003e020       ?Init@dgCollisionBox@@IAEXNNN@Z 1003f020 f   physics:dgCollisionBox.obj
 0001:0003e370       ?SetCollisionBBox@dgCollisionChamferCylinder@@MAEXABVdgVector@@0@Z 1003f370 f   physics:dgCollisionChamferCylinder.obj
 0001:0003e370       ?SetCollisionBBox@dgCollisionSphere@@MAEXABVdgVector@@0@Z 1003f370 f   physics:dgCollisionSphere.obj
 0001:0003e370       ?SetCollisionBBox@dgCollisionCylinder@@EAEXABVdgVector@@0@Z 1003f370 f   physics:dgCollisionCylinder.obj
 0001:0003e370       ?SetCollisionBBox@dgCollisionEllipse@@EAEXABVdgVector@@0@Z 1003f370 f   physics:dgCollisionEllipse.obj
 0001:0003e370       ?SetStiffness@dgConstraint@@UAEXN@Z 1003f370 f   physics:dgBilateralConstraint.obj
 0001:0003e370       ?GetAABB@dgPolygonSoupDatabase@@UBEXAAVdgVector@@0@Z 1003f370 f   corelib:dgAABBPolygonSoup.obj
 0001:0003e370       ?SetCollisionBBox@dgCollisionConvexPolygon@dgCollisionMesh@@UAEXABVdgVector@@0@Z 1003f370 f   physics:dgCollisionMesh.obj
 0001:0003e370       ?Serialize@dgCollisionUserMesh@@EBEXP6AXPAXPBXI@ZQAX@Z 1003f370 f   physics:dgCollisionUserMesh.obj
 0001:0003e370       ?SetCollisionBBox@dgCollisionNull@@EAEXABVdgVector@@0@Z 1003f370 f   physics:dgCollisionNull.obj
 0001:0003e370       ?SetCollisionBBox@dgCollisionCompound@@MAEXABVdgVector@@0@Z 1003f370 f   physics:dgCollisionCompound.obj
 0001:0003e370       ?SetCollisionBBox@dgCollisionBox@@MAEXABVdgVector@@0@Z 1003f370 f   physics:dgCollisionBox.obj
 0001:0003e370       ?Serialize@dgCollisionMesh@@EBEXP6AXPAXPBXI@ZQAX@Z 1003f370 f   physics:dgCollisionMesh.obj
 0001:0003e370       ?SetCollisionBBox@dgCollisionConvexHull@@EAEXABVdgVector@@0@Z 1003f370 f   physics:dgCollisionConvexHull.obj
 0001:0003e370       ?SetBreakImpulse@dgCollision@@UAEXN@Z 1003f370 f   physics:dgWorld.obj
 0001:0003e370       ?Serialize@dgCollisionConvexPolygon@dgCollisionMesh@@UBEXP6AXPAXPBXI@ZQAX@Z 1003f370 f   physics:dgCollisionMesh.obj
 0001:0003e370       ?SetCollisionBBox@dgCollisionCapsule@@EAEXABVdgVector@@0@Z 1003f370 f   physics:dgCollisionCapsule.obj
 0001:0003e370       ?SetCollisionBBox@dgCollisionCone@@EAEXABVdgVector@@0@Z 1003f370 f   physics:dgCollisionCone.obj
 0001:0003e370       ?SetCollisionBBox@dgCollisionConvexModifier@@EAEXABVdgVector@@0@Z 1003f370 f   physics:dgCollisionConvexModifier.obj
 0001:0003e380       ?CalculateSignature@dgCollisionBox@@MBEHXZ 1003f380 f   physics:dgCollisionBox.obj
 0001:0003e4e0       ?SupportVertex@dgCollisionBox@@MBE?AVdgVector@@ABV2@@Z 1003f4e0 f   physics:dgCollisionBox.obj
 0001:0003e540       ?CalcAABB@dgCollisionBox@@MBEXABVdgMatrix@@AAVdgVector@@1@Z 1003f540 f   physics:dgCollisionBox.obj
 0001:0003e680       ?RayCast@dgCollisionBox@@MBENABVdgVector@@0AAVdgContactPoint@@P6AIQBVdgBody@@QBVdgCollision@@QAX@Z24@Z 1003f680 f   physics:dgCollisionBox.obj
 0001:0003e810       ?CalculateMassProperties@dgCollisionBox@@MBENAAVdgVector@@00@Z 1003f810 f   physics:dgCollisionBox.obj
 0001:0003eac0       ?SetBreakImpulse@dgCollisionBox@@MAEXN@Z 1003fac0 f   physics:dgCollisionBox.obj
 0001:0003ead0       ?GetBreakImpulse@dgCollisionBox@@MBENXZ 1003fad0 f   physics:dgCollisionBox.obj
 0001:0003eae0       ?CalculatePlaneIntersection@dgCollisionBox@@MBEHABVdgVector@@0QAV2@@Z 1003fae0 f   physics:dgCollisionBox.obj
 0001:0003edd0       ?GetCollisionInfo@dgCollisionBox@@MBEXPAVdgCollisionInfo@@@Z 1003fdd0 f   physics:dgCollisionBox.obj
 0001:0003ee60       ?Serialize@dgCollisionBox@@MBEXP6AXPAXPBXI@ZQAX@Z 1003fe60 f   physics:dgCollisionBox.obj
 0001:0003eed0       ??0dgCollisionEllipse@@QAE@QAVdgMemoryAllocator@@INNNABVdgMatrix@@@Z 1003fed0 f   physics:dgCollisionEllipse.obj
 0001:0003ef70       ??_EdgCollisionPoint@@UAEPAXI@Z 1003ff70 f i  CIL library: CIL module
 0001:0003ef70       ??_GdgCollisionEllipse@@UAEPAXI@Z 1003ff70 f i physics:dgCollisionEllipse.obj
 0001:0003ef70       ??_EdgCollisionSphere@@UAEPAXI@Z 1003ff70 f i  CIL library: CIL module
 0001:0003ef70       ??_EdgCollisionEllipse@@UAEPAXI@Z 1003ff70 f i  CIL library: CIL module
 0001:0003ef70       ??_GdgCollisionPoint@@UAEPAXI@Z 1003ff70 f i physics:dgWorld.obj
 0001:0003ef70       ??_GdgCollisionSphere@@UAEPAXI@Z 1003ff70 f i physics:dgCollisionSphere.obj
 0001:0003efb0       ??0dgCollisionEllipse@@QAE@QAVdgWorld@@P6AXPAX1I@ZQAX@Z 1003ffb0 f   physics:dgCollisionEllipse.obj
 0001:0003f040       ?CalculateSignature@dgCollisionEllipse@@EBEHXZ 10040040 f   physics:dgCollisionEllipse.obj
 0001:0003f1a0       ?CalcAABB@dgCollisionEllipse@@MBEXABVdgMatrix@@AAVdgVector@@1@Z 100401a0 f   physics:dgCollisionEllipse.obj
 0001:0003f250       ?ForAllSectorsRayHitSimd@dgAABBPolygonSoup@@MBEXABVFastRayTest@@P6ANPAXQBNHQBHH@ZQAX@Z 10040250 f   corelib:dgAABBPolygonSoup.obj
 0001:0003f250       ?CalcAABBSimd@dgCollisionEllipse@@MBEXABVdgMatrix@@AAVdgVector@@1@Z 10040250 f   physics:dgCollisionEllipse.obj
 0001:0003f260       ?SupportVertex@dgCollisionEllipse@@MBE?AVdgVector@@ABV2@@Z 10040260 f   physics:dgCollisionEllipse.obj
 0001:0003f330       ?CalculatePlaneIntersection@dgCollisionEllipse@@EBEHABVdgVector@@0QAV2@@Z 10040330 f   physics:dgCollisionEllipse.obj
 0001:0003f3c0       ?DebugCollision@dgCollisionEllipse@@MBEXABVdgMatrix@@P6AXPAXHPBNH@ZQAX@Z 100403c0 f   physics:dgCollisionEllipse.obj
 0001:0003f5e0       ?RayCast@dgCollisionEllipse@@MBENABVdgVector@@0AAVdgContactPoint@@P6AIQBVdgBody@@QBVdgCollision@@QAX@Z24@Z 100405e0 f   physics:dgCollisionEllipse.obj
 0001:0003f690       ?RayCastSimd@dgCollisionEllipse@@MBENABVdgVector@@0AAVdgContactPoint@@P6AIQBVdgBody@@QBVdgCollision@@QAX@Z24@Z 10040690 f   physics:dgCollisionEllipse.obj
 0001:0003f740       ?GetCollisionInfo@dgCollisionEllipse@@EBEXPAVdgCollisionInfo@@@Z 10040740 f   physics:dgCollisionEllipse.obj
 0001:0003f7c0       ?Serialize@dgCollisionEllipse@@EBEXP6AXPAXPBXI@ZQAX@Z 100407c0 f   physics:dgCollisionEllipse.obj
 0001:0003f830       ??_EdgCollisionCapsule@@UAEPAXI@Z 10040830 f i  CIL library: CIL module
 0001:0003f830       ??_GdgCollisionCapsule@@UAEPAXI@Z 10040830 f i physics:dgCollisionCapsule.obj
 0001:0003f870       ??0dgCollisionCapsule@@QAE@QAVdgWorld@@P6AXPAX1I@ZQAX@Z 10040870 f   physics:dgCollisionCapsule.obj
 0001:0003f8c0       ?Init@dgCollisionCapsule@@AAEXNN@Z 100408c0 f   physics:dgCollisionCapsule.obj
 0001:0003fe40       ?CalculateSignature@dgCollisionCapsule@@EBEHXZ 10040e40 f   physics:dgCollisionCapsule.obj
 0001:0003ff70       ?TesselateTriangle@dgCollisionCapsule@@ABEXHNABVdgVector@@00AAHPAV2@@Z 10040f70 f   physics:dgCollisionCapsule.obj
 0001:00040220       ?DebugCollision@dgCollisionCapsule@@EBEXABVdgMatrix@@P6AXPAXHPBNH@ZQAX@Z 10041220 f   physics:dgCollisionCapsule.obj
 0001:000406e0       ?SupportVertex@dgCollisionCapsule@@EBE?AVdgVector@@ABV2@@Z 100416e0 f   physics:dgCollisionCapsule.obj
 0001:00040740       ?RayCast@dgCollisionCapsule@@EBENABVdgVector@@0AAVdgContactPoint@@P6AIQBVdgBody@@QBVdgCollision@@QAX@Z24@Z 10041740 f   physics:dgCollisionCapsule.obj
 0001:00041260       ?CalculateMassProperties@dgCollisionCapsule@@EBENAAVdgVector@@00@Z 10042260 f   physics:dgCollisionCapsule.obj
 0001:00041550       ?CalculatePlaneIntersection@dgCollisionCapsule@@EBEHABVdgVector@@0QAV2@@Z 10042550 f   physics:dgCollisionCapsule.obj
 0001:00041d70       ?GetCollisionInfo@dgCollisionCapsule@@EBEXPAVdgCollisionInfo@@@Z 10042d70 f   physics:dgCollisionCapsule.obj
 0001:00041e00       ?Serialize@dgCollisionCapsule@@EBEXP6AXPAXPBXI@ZQAX@Z 10042e00 f   physics:dgCollisionCapsule.obj
 0001:00041e60       ??_EdgCollisionCone@@UAEPAXI@Z 10042e60 f i  CIL library: CIL module
 0001:00041e60       ??_GdgCollisionCone@@UAEPAXI@Z 10042e60 f i physics:dgCollisionCone.obj
 0001:00041ea0       ??0dgCollisionCone@@QAE@QAVdgWorld@@P6AXPAX1I@ZQAX@Z 10042ea0 f   physics:dgCollisionCone.obj
 0001:00041ef0       ?Init@dgCollisionCone@@AAEXNN@Z 10042ef0 f   physics:dgCollisionCone.obj
 0001:00042240       ?CalculateSignature@dgCollisionCone@@EBEHXZ 10043240 f   physics:dgCollisionCone.obj
 0001:00042370       ?DebugCollision@dgCollisionCone@@EBEXABVdgMatrix@@P6AXPAXHPBNH@ZQAX@Z 10043370 f   physics:dgCollisionCone.obj
 0001:00042580       ?SupportVertex@dgCollisionCone@@EBE?AVdgVector@@ABV2@@Z 10043580 f   physics:dgCollisionCone.obj
 0001:00042630       ?CalculateMassProperties@dgCollisionCone@@EBENAAVdgVector@@00@Z 10043630 f   physics:dgCollisionCone.obj
 0001:00042920       ?CalculatePlaneIntersection@dgCollisionCone@@EBEHABVdgVector@@0QAV2@@Z 10043920 f   physics:dgCollisionCone.obj
 0001:00042920       ?CalculatePlaneIntersection@dgCollisionCylinder@@EBEHABVdgVector@@0QAV2@@Z 10043920 f   physics:dgCollisionCylinder.obj
 0001:00042b00       ?GetCollisionInfo@dgCollisionCone@@EBEXPAVdgCollisionInfo@@@Z 10043b00 f   physics:dgCollisionCone.obj
 0001:00042b80       ?Serialize@dgCollisionCone@@EBEXP6AXPAXPBXI@ZQAX@Z 10043b80 f   physics:dgCollisionCone.obj
 0001:00042bd0       ??_GdgCollisionCylinder@@UAEPAXI@Z 10043bd0 f i physics:dgCollisionCylinder.obj
 0001:00042bd0       ??_EdgCollisionCylinder@@UAEPAXI@Z 10043bd0 f i  CIL library: CIL module
 0001:00042c10       ??0dgCollisionCylinder@@QAE@QAVdgWorld@@P6AXPAX1I@ZQAX@Z 10043c10 f   physics:dgCollisionCylinder.obj
 0001:00042c60       ?Init@dgCollisionCylinder@@AAEXNN@Z 10043c60 f   physics:dgCollisionCylinder.obj
 0001:00042fa0       ?CalculateSignature@dgCollisionCylinder@@EBEHXZ 10043fa0 f   physics:dgCollisionCylinder.obj
 0001:000430d0       ?DebugCollision@dgCollisionCylinder@@EBEXABVdgMatrix@@P6AXPAXHPBNH@ZQAX@Z 100440d0 f   physics:dgCollisionCylinder.obj
 0001:00043330       ?SupportVertex@dgCollisionCylinder@@EBE?AVdgVector@@ABV2@@Z 10044330 f   physics:dgCollisionCylinder.obj
 0001:000433c0       ?CalculateMassProperties@dgCollisionCylinder@@EBENAAVdgVector@@00@Z 100443c0 f   physics:dgCollisionCylinder.obj
 0001:00043670       ?RayCast@dgCollisionCylinder@@EBENABVdgVector@@0AAVdgContactPoint@@P6AIQBVdgBody@@QBVdgCollision@@QAX@Z24@Z 10044670 f   physics:dgCollisionCylinder.obj
 0001:00043b20       ?GetCollisionInfo@dgCollisionCylinder@@EBEXPAVdgCollisionInfo@@@Z 10044b20 f   physics:dgCollisionCylinder.obj
 0001:00043ba0       ?Serialize@dgCollisionCylinder@@EBEXP6AXPAXPBXI@ZQAX@Z 10044ba0 f   physics:dgCollisionCylinder.obj
 0001:00043c00       ??_GdgCollisionChamferCylinder@@UAEPAXI@Z 10044c00 f i physics:dgCollisionChamferCylinder.obj
 0001:00043c00       ??_EdgCollisionChamferCylinder@@UAEPAXI@Z 10044c00 f i  CIL library: CIL module
 0001:00043c40       ??0dgCollisionChamferCylinder@@QAE@QAVdgWorld@@P6AXPAX1I@ZQAX@Z 10044c40 f   physics:dgCollisionChamferCylinder.obj
 0001:00043c90       ?Init@dgCollisionChamferCylinder@@IAEXNN@Z 10044c90 f   physics:dgCollisionChamferCylinder.obj
 0001:000441e0       ?DebugCollision@dgCollisionChamferCylinder@@MBEXABVdgMatrix@@P6AXPAXHPBNH@ZQAX@Z 100451e0 f   physics:dgCollisionChamferCylinder.obj
 0001:000448b0       ?CalculateSignature@dgCollisionChamferCylinder@@MBEHXZ 100458b0 f   physics:dgCollisionChamferCylinder.obj
 0001:000449e0       ?SupportVertexSimd@dgCollisionCone@@EBE?AVdgVector@@ABV2@@Z 100459e0 f   physics:dgCollisionCone.obj
 0001:000449e0       ?SupportVertexSimd@dgCollisionChamferCylinder@@MBE?AVdgVector@@ABV2@@Z 100459e0 f   physics:dgCollisionChamferCylinder.obj
 0001:000449e0       ?SupportVertexSimd@dgCollisionCylinder@@EBE?AVdgVector@@ABV2@@Z 100459e0 f   physics:dgCollisionCylinder.obj
 0001:00044a00       ?SupportVertex@dgCollisionChamferCylinder@@MBE?AVdgVector@@ABV2@@Z 10045a00 f   physics:dgCollisionChamferCylinder.obj
 0001:00044ae0       ?RayCast@dgCollisionChamferCylinder@@MBENABVdgVector@@0AAVdgContactPoint@@P6AIQBVdgBody@@QBVdgCollision@@QAX@Z24@Z 10045ae0 f   physics:dgCollisionChamferCylinder.obj
 0001:00044c60       ?RayCastSimd@dgCollisionChamferCylinder@@MBENABVdgVector@@0AAVdgContactPoint@@P6AIQBVdgBody@@QBVdgCollision@@QAX@Z24@Z 10045c60 f   physics:dgCollisionChamferCylinder.obj
 0001:00044de0       ?CalculatePlaneIntersectionSimd@dgCollisionChamferCylinder@@MBEHABVdgVector@@0QAV2@@Z 10045de0 f   physics:dgCollisionChamferCylinder.obj
 0001:00044df0       ?CalculatePlaneIntersection@dgCollisionChamferCylinder@@MBEHABVdgVector@@0QAV2@@Z 10045df0 f   physics:dgCollisionChamferCylinder.obj
 0001:00045540       ?GetCollisionInfo@dgCollisionChamferCylinder@@MBEXPAVdgCollisionInfo@@@Z 10046540 f   physics:dgCollisionChamferCylinder.obj
 0001:000455c0       ?Serialize@dgCollisionChamferCylinder@@MBEXP6AXPAXPBXI@ZQAX@Z 100465c0 f   physics:dgCollisionChamferCylinder.obj
 0001:00045620       ??0dgCollisionConvexModifier@@QAE@PAVdgConvexCollision@@PAVdgWorld@@@Z 10046620 f   physics:dgCollisionConvexModifier.obj
 0001:000456f0       ??_EdgCollisionConvexModifier@@UAEPAXI@Z 100466f0 f i  CIL library: CIL module
 0001:000456f0       ??_GdgCollisionConvexModifier@@UAEPAXI@Z 100466f0 f i physics:dgCollisionConvexModifier.obj
 0001:00045720       ??0dgCollisionConvexModifier@@QAE@QAVdgWorld@@P6AXPAX1I@ZQAX@Z 10046720 f   physics:dgCollisionConvexModifier.obj
 0001:000457b0       ??1dgCollisionConvexModifier@@UAE@XZ 100467b0 f   physics:dgCollisionConvexModifier.obj
 0001:00045810       ?ModifierGetMatrix@dgCollisionConvexModifier@@UBE?AVdgMatrix@@XZ 10046810 f   physics:dgCollisionConvexModifier.obj
 0001:00045960       ?GetBoxMinRadius@dgCollisionConvexModifier@@EBENXZ 10046960 f   physics:dgCollisionConvexModifier.obj
 0001:00045970       ?GetBoxMaxRadius@dgCollisionConvexModifier@@EBENXZ 10046970 f   physics:dgCollisionConvexModifier.obj
 0001:00045980       ?ModifierSetMatrix@dgCollisionConvexModifier@@UAEXABVdgMatrix@@@Z 10046980 f   physics:dgCollisionConvexModifier.obj
 0001:00045d60       ?CalculateSignature@dgCollisionConvexModifier@@EBEHXZ 10046d60 f   physics:dgCollisionConvexModifier.obj
 0001:00045d60       ?CalculateSignature@dgCollisionCompound@@MBEHXZ 10046d60 f   physics:dgCollisionCompound.obj
 0001:00045d60       _NewtonBreakableCreateDebrieBody 10046d60 f   Newton.obj
 0001:00045d60       ?GetUserData@dgCollisionMesh@@UBEPAXXZ 10046d60 f   physics:dgCollisionMesh.obj
 0001:00045d60       ?CalculateSignature@dgCollisionConvexIntance@dgCollisionCompoundBreakable@@EBEHXZ 10046d60 f   physics:dgCollisionCompoundBreakable.obj
 0001:00045d60       ?CalculateSignature@dgCollisionMesh@@EBEHXZ 10046d60 f   physics:dgCollisionMesh.obj
 0001:00045d60       ?GetUserData@dgCollision@@UBEPAXXZ 10046d60 f   physics:dgCollision.obj
 0001:00045d60       ?CalculateSignature@dgCollisionScene@@EBEHXZ 10046d60 f   physics:dgCollisionScene.obj
 0001:00045d60       ?GetPerformanceCount@dgWorld@@CAIXZ 10046d60 f   physics:dgWorld.obj
 0001:00045d70       ?CalcAABB@dgCollisionConvexModifier@@MBEXABVdgMatrix@@AAVdgVector@@1@Z 10046d70 f   physics:dgCollisionConvexModifier.obj
 0001:00046000       ?SupportVertex@dgCollisionConvexModifier@@MBE?AVdgVector@@ABV2@@Z 10047000 f   physics:dgCollisionConvexModifier.obj
 0001:00046170       ?CalculatePlaneIntersection@dgCollisionConvexModifier@@EBEHABVdgVector@@0QAV2@@Z 10047170 f   physics:dgCollisionConvexModifier.obj
 0001:000465c0       ?GetCollidingFacesSimd@dgCollisionHeightField@@EBEXQAVdgPolygonMeshDesc@@@Z 100475c0 f   physics:dgCollisionHeightField.obj
 0001:000465c0       ?CalculatePlaneIntersectionSimd@dgCollisionConvexModifier@@EBEHABVdgVector@@0QAV2@@Z 100475c0 f   physics:dgCollisionConvexModifier.obj
 0001:000465c0       ?GetCollidingFacesSimd@dgCollisionUserMesh@@EBEXQAVdgPolygonMeshDesc@@@Z 100475c0 f   physics:dgCollisionUserMesh.obj
 0001:000465d0       ?DebugCollision@dgCollisionConvexModifier@@MBEXABVdgMatrix@@P6AXPAXHPBNH@ZQAX@Z 100475d0 f   physics:dgCollisionConvexModifier.obj
 0001:00046750       ?RayCast@dgCollisionConvexModifier@@MBENABVdgVector@@0AAVdgContactPoint@@P6AIQBVdgBody@@QBVdgCollision@@QAX@Z24@Z 10047750 f   physics:dgCollisionConvexModifier.obj
 0001:000469a0       ?RayCastSimd@dgCollisionConvexModifier@@MBENABVdgVector@@0AAVdgContactPoint@@P6AIQBVdgBody@@QBVdgCollision@@QAX@Z24@Z 100479a0 f   physics:dgCollisionConvexModifier.obj
 0001:00046a80       ?GetVolume@dgCollisionConvexModifier@@MBENXZ 10047a80 f   physics:dgCollisionConvexModifier.obj
 0001:00046aa0       ?CalculateVolumeIntegral@dgCollisionConvexModifier@@MBE?AVdgVector@@ABVdgMatrix@@P6AIPAX10AAVdgPlane@@@ZQAX@Z 10047aa0 f   physics:dgCollisionConvexModifier.obj
 0001:00046e40       ?GetCollisionInfo@dgCollisionConvexModifier@@EBEXPAVdgCollisionInfo@@@Z 10047e40 f   physics:dgCollisionConvexModifier.obj
 0001:00046eb0       ?Serialize@dgCollisionConvexModifier@@EBEXP6AXPAXPBXI@ZQAX@Z 10047eb0 f   physics:dgCollisionConvexModifier.obj
 0001:00046ef0       ??0OOBBTestData@dgCollisionCompound@@QAE@ABVdgMatrix@@@Z 10047ef0 f   physics:dgCollisionCompound.obj
 0001:00047120       ??0OOBBTestData@dgCollisionCompound@@QAE@ABVdgMatrix@@ABVdgVector@@1@Z 10048120 f   physics:dgCollisionCompound.obj
 0001:00047580       ??0dgNodeBase@dgCollisionCompound@@QAE@PAVdgConvexCollision@@H@Z 10048580 f   physics:dgCollisionCompound.obj
 0001:00047680       ??0dgNodeBase@dgCollisionCompound@@QAE@PAV01@0H@Z 10048680 f   physics:dgCollisionCompound.obj
 0001:000477c0       ??1dgNodeBase@dgCollisionCompound@@QAE@XZ 100487c0 f   physics:dgCollisionCompound.obj
 0001:00047820       ??_GdgNodeBase@dgCollisionCompound@@QAEPAXI@Z 10048820 f i physics:dgCollisionCompound.obj
 0001:00047840       ?BoxTest@dgNodeBase@dgCollisionCompound@@QBE_NABVOOBBTestData@2@QBV12@@Z 10048840 f   physics:dgCollisionCompound.obj
 0001:00047be0       ?BoxTest@dgNodeBase@dgCollisionCompound@@QBE_NABVOOBBTestData@2@@Z 10048be0 f   physics:dgCollisionCompound.obj
 0001:00047e60       ??0dgCollisionCompound@@QAE@PAVdgWorld@@@Z 10048e60 f   physics:dgCollisionCompound.obj
 0001:00047ef0       ??_EdgCollisionCompound@@UAEPAXI@Z 10048ef0 f i  CIL library: CIL module
 0001:00047ef0       ??_GdgCollisionCompound@@UAEPAXI@Z 10048ef0 f i physics:dgCollisionCompound.obj
 0001:00047f20       ??0dgCollisionCompound@@QAE@HQBQAVdgConvexCollision@@PAVdgWorld@@@Z 10048f20 f   physics:dgCollisionCompound.obj
 0001:00047fd0       ??0dgCollisionCompound@@QAE@ABV0@@Z 10048fd0 f   physics:dgCollisionCompound.obj
 0001:00048160       ??0dgCollisionCompound@@QAE@QAVdgWorld@@P6AXPAX1I@ZQAX@Z 10049160 f   physics:dgCollisionCompound.obj
 0001:000483f0       ??1dgCollisionCompound@@UAE@XZ 100493f0 f   physics:dgCollisionCompound.obj
 0001:00048490       ?Init@dgCollisionCompound@@IAEXHQBQAVdgConvexCollision@@@Z 10049490 f   physics:dgCollisionCompound.obj
 0001:00048570       ?LinkParentNodes@dgCollisionCompound@@IAEXXZ 10049570 f   physics:dgCollisionCompound.obj
 0001:000485e0       ?CalcAABBSimd@dgCollisionCompound@@MBEXABVdgMatrix@@AAVdgVector@@1@Z 100495e0 f   physics:dgCollisionCompound.obj
 0001:000485e0       ?CalcAABB@dgCollisionCompound@@MBEXABVdgMatrix@@AAVdgVector@@1@Z 100495e0 f   physics:dgCollisionCompound.obj
 0001:00048830       ?DebugCollision@dgCollisionCompound@@MBEXABVdgMatrix@@P6AXPAXHPBNH@ZQAX@Z 10049830 f   physics:dgCollisionCompound.obj
 0001:00048880       ?RayCast@dgCollisionCompound@@MBENABVdgVector@@0AAVdgContactPoint@@P6AIQBVdgBody@@QBVdgCollision@@QAX@Z24@Z 10049880 f   physics:dgCollisionCompound.obj
 0001:00048b00       ?RayCastSimd@dgCollisionCompound@@MBENABVdgVector@@0AAVdgContactPoint@@P6AIQBVdgBody@@QBVdgCollision@@QAX@Z24@Z 10049b00 f   physics:dgCollisionCompound.obj
 0001:00048b40       ?GetVolume@dgCollisionCompound@@MBENXZ 10049b40 f   physics:dgCollisionCompound.obj
 0001:00048b90       ?GetBoxMinRadius@dgCollisionCompound@@MBENXZ 10049b90 f   physics:dgCollisionCompound.obj
 0001:00048ba0       ?GetBoxMaxRadius@dgCollisionCompound@@MBENXZ 10049ba0 f   physics:dgCollisionCompound.obj
 0001:00048bb0       ?CalculateVolumeIntegral@dgCollisionCompound@@MBE?AVdgVector@@ABVdgMatrix@@P6AIPAX10AAVdgPlane@@@ZQAX@Z 10049bb0 f   physics:dgCollisionCompound.obj
 0001:00048c80       ?CalculateInertia@dgCollisionCompound@@MBEXAAVdgVector@@0@Z 10049c80 f   physics:dgCollisionCompound.obj
 0001:00048de0       ?RemoveCollision@dgCollisionCompound@@QAEXPAVdgNodeBase@1@@Z 10049de0 f   physics:dgCollisionCompound.obj
 0001:00049010       ?SupportVertex@dgCollisionCompound@@MBE?AVdgVector@@ABV2@@Z 1004a010 f   physics:dgCollisionCompound.obj
 0001:00049390       ?GetCollisionInfo@dgCollisionCompound@@MBEXPAVdgCollisionInfo@@@Z 1004a390 f   physics:dgCollisionCompound.obj
 0001:00049400       ?Serialize@dgCollisionCompound@@MBEXP6AXPAXPBXI@ZQAX@Z 1004a400 f   physics:dgCollisionCompound.obj
 0001:00049550       ?BuildTopDownTree@dgCollisionCompound@@IAEPAVdgNodeBase@1@HQAPAV21@AAH@Z 1004a550 f   physics:dgCollisionCompound.obj
 0001:000498c0       ?BuildTree@dgCollisionCompound@@IAEPAVdgNodeBase@1@HQBQAVdgConvexCollision@@@Z 1004a8c0 f   physics:dgCollisionCompound.obj
 0001:00049970       ?CalculateContacts@dgCollisionCompound@@IBEHQAUdgPair@dgCollidingPairCollector@@AAVdgCollisionParamProxi@@H@Z 1004a970 f   physics:dgCollisionCompound.obj
 0001:00049a00       ?CalculateContactsToSingle@dgCollisionCompound@@IBEHQAUdgPair@dgCollidingPairCollector@@AAVdgCollisionParamProxi@@H@Z 1004aa00 f   physics:dgCollisionCompound.obj
 0001:00049e50       ?CalculateContactsToCompound@dgCollisionCompound@@IBEHQAUdgPair@dgCollidingPairCollector@@AAVdgCollisionParamProxi@@H@Z 1004ae50 f   physics:dgCollisionCompound.obj
 0001:0004a270       ?CalculateContactsToCollisionTree@dgCollisionCompound@@IBEHQAUdgPair@dgCollidingPairCollector@@AAVdgCollisionParamProxi@@H@Z 1004b270 f   physics:dgCollisionCompound.obj
 0001:0004aa70       ?CalculateContactsToHightField@dgCollisionCompound@@IBEHQAUdgPair@dgCollidingPairCollector@@AAVdgCollisionParamProxi@@H@Z 1004ba70 f   physics:dgCollisionCompound.obj
 0001:0004aff0       ?CalculateContactsBruteForce@dgCollisionCompound@@IBEHQAUdgPair@dgCollidingPairCollector@@AAVdgCollisionParamProxi@@H@Z 1004bff0 f   physics:dgCollisionCompound.obj
 0001:0004b140       ?ClosestDitance@dgCollisionCompound@@IBEHQAVdgBody@@AAVdgTriplex@@011@Z 1004c140 f   physics:dgCollisionCompound.obj
 0001:0004b570       ??0dgCollisionUserMesh@@QAE@PAVdgMemoryAllocator@@ABVdgVector@@1ABVdgUserMeshCreation@@@Z 1004c570 f   physics:dgCollisionUserMesh.obj
 0001:0004b5e0       ??_GdgCollisionUserMesh@@UAEPAXI@Z 1004c5e0 f i physics:dgCollisionUserMesh.obj
 0001:0004b5e0       ??_EdgCollisionUserMesh@@UAEPAXI@Z 1004c5e0 f i  CIL library: CIL module
 0001:0004b610       ??1dgCollisionUserMesh@@UAE@XZ 1004c610 f   physics:dgCollisionUserMesh.obj
 0001:0004b660       ?GetVertexListIndexList@dgCollisionUserMesh@@UBEXABVdgVector@@0AAVdgGetVertexListIndexList@dgCollisionMesh@@@Z 1004c660 f   physics:dgCollisionUserMesh.obj
 0001:0004b6b0       ?GetCollisionInfo@dgCollisionUserMesh@@EBEXPAVdgCollisionInfo@@@Z 1004c6b0 f   physics:dgCollisionUserMesh.obj
 0001:0004b720       ?RayCast@dgCollisionUserMesh@@EBENABVdgVector@@0AAVdgContactPoint@@P6AIQBVdgBody@@QBVdgCollision@@QAX@Z24@Z 1004c720 f   physics:dgCollisionUserMesh.obj
 0001:0004b840       ?GetCollidingFaces@dgCollisionUserMesh@@EBEXQAVdgPolygonMeshDesc@@@Z 1004c840 f   physics:dgCollisionUserMesh.obj
 0001:0004b870       ?GetHeight@dgCollisionCapsule@@QBENXZ 1004c870 f i physics:dgMinkowskiConv.obj
 0001:0004b880       ?GetShapeClipSize@dgContactSolver@@ABENQAVdgCollision@@@Z 1004c880 f i physics:dgMinkowskiConv.obj
 0001:0004b8b0       ?CheckTetraHedronVolume@dgContactSolver@@ABE_NXZ 1004c8b0 f i physics:dgMinkowskiConv.obj
 0001:0004b970       ?CheckTetraHedronVolumeLarge@dgContactSolver@@ABE_NXZ 1004c970 f i physics:dgMinkowskiConv.obj
 0001:0004ba30       ?CalcSupportVertex@dgContactSolver@@AAEXABVdgVector@@H@Z 1004ca30 f i physics:dgMinkowskiConv.obj
 0001:0004bb90       ?CalcSupportVertexLarge@dgContactSolver@@AAEXABVdgVector@@H@Z 1004cb90 f i physics:dgMinkowskiConv.obj
 0001:0004bd80       ?CalculateClosestPoints@dgContactSolver@@AAEHXZ 1004cd80 f i physics:dgMinkowskiConv.obj
 0001:0004cac0       ?CalculateConvexShapeIntersectionLine@dgContactSolver@@ABEHABVdgMatrix@@ABVdgVector@@INHQAV3@H2QAVdgContactPoint@@@Z 1004dac0 f i physics:dgMinkowskiConv.obj
 0001:0004ceb0       ?ReduceContacts@dgContactSolver@@ABEPAUdgPerimenterEdge@1@PAU21@H@Z 1004deb0 f i physics:dgMinkowskiConv.obj
 0001:0004d060       ?CalculateContactAlternateMethod@dgContactSolver@@AAEHQAVdgMinkFace@1@HQAVdgContactPoint@@H@Z 1004e060 f i physics:dgMinkowskiConv.obj
 0001:0004e060       ?CalculateConvexShapeIntersection@dgContactSolver@@ABEHABVdgMatrix@@ABVdgVector@@INHQAV3@H2QAVdgContactPoint@@H@Z 1004f060 f i physics:dgMinkowskiConv.obj
 0001:0004e650       ?CalculateContacts@dgContactSolver@@AAEHQAVdgMinkFace@1@HQAVdgContactPoint@@H@Z 1004f650 f i physics:dgMinkowskiConv.obj
 0001:0004f720       ?CalculateContactsContinues@dgContactSolver@@AAEHHQAVdgContactPoint@@HPBVdgVector@@1N@Z 10050720 f i physics:dgMinkowskiConv.obj
 0001:0004f890       ?ReduceLine@dgContactSolver@@AAE?AVdgVector@@ABV2@@Z 10050890 f i physics:dgMinkowskiConv.obj
 0001:0004f9c0       ?ReduceLineLarge@dgContactSolver@@AAE?AVdgBigVector@@ABV2@@Z 100509c0 f i physics:dgMinkowskiConv.obj
 0001:0004fb50       ?ReduceTriangle@dgContactSolver@@AAE?AVdgVector@@ABV2@@Z 10050b50 f i physics:dgMinkowskiConv.obj
 0001:0004ffc0       ?ReduceTriangleLarge@dgContactSolver@@AAE?AVdgBigVector@@ABV2@@Z 10050fc0 f i physics:dgMinkowskiConv.obj
 0001:00050420       ?ReduceTetrahedrum@dgContactSolver@@AAE?AVdgVector@@ABV2@@Z 10051420 f i physics:dgMinkowskiConv.obj
 0001:000506e0       ?ReduceTetrahedrumLarge@dgContactSolver@@AAE?AVdgBigVector@@ABV2@@Z 100516e0 f i physics:dgMinkowskiConv.obj
 0001:000509b0       ?UpdateSeparatingPlaneFallbackSolution@dgContactSolver@@AAE?AW4dgMinkReturnCode@1@AAPAVdgMinkFace@1@ABVdgVector@@@Z 100519b0 f i physics:dgMinkowskiConv.obj
 0001:00051df0       ?UpdateSeparatingPlaneFallbackSolutionLarge@dgContactSolver@@AAE?AW4dgMinkReturnCode@1@AAPAVdgMinkFace@1@ABVdgBigVector@@@Z 10052df0 f i physics:dgMinkowskiConv.obj
 0001:00053080       ?UpdateSeparatingPlane@dgContactSolver@@AAE?AW4dgMinkReturnCode@1@AAPAVdgMinkFace@1@ABVdgVector@@@Z 10054080 f i physics:dgMinkowskiConv.obj
 0001:00053670       ?UpdateSeparatingPlaneLarge@dgContactSolver@@AAE?AW4dgMinkReturnCode@1@AAPAVdgMinkFace@1@ABVdgBigVector@@@Z 10054670 f i physics:dgMinkowskiConv.obj
 0001:00053ca0       ?CalcSeparatingPlane@dgContactSolver@@AAE?AW4dgMinkReturnCode@1@AAPAVdgMinkFace@1@ABVdgVector@@@Z 10054ca0 f i physics:dgMinkowskiConv.obj
 0001:00054370       ?CalcSeparatingPlaneLarge@dgContactSolver@@AAE?AW4dgMinkReturnCode@1@AAPAVdgMinkFace@1@ABVdgBigVector@@@Z 10055370 f i physics:dgMinkowskiConv.obj
 0001:000549b0       ?CalcFacePlane@dgContactSolver@@AAE_NQAVdgMinkFace@1@@Z 100559b0 f i physics:dgMinkowskiConv.obj
 0001:00054ac0       ?CalcFacePlaneLarge@dgContactSolver@@AAE_NQAVdgMinkFace@1@@Z 10055ac0 f i physics:dgMinkowskiConv.obj
 0001:00054bf0       ?CalculateClipPlane@dgContactSolver@@AAEPAVdgMinkFace@1@XZ 10055bf0 f i physics:dgMinkowskiConv.obj
 0001:00055670       ?CalculateClipPlaneLarge@dgContactSolver@@AAEPAVdgMinkFace@1@XZ 10056670 f i physics:dgMinkowskiConv.obj
 0001:00056110       ??0dgContactSolver@@QAE@AAVdgCollisionParamProxi@@PAVdgCollision@@@Z 10057110 f i physics:dgMinkowskiConv.obj
 0001:00056180       ??0dgContactSolver@@QAE@AAVdgCollisionParamProxi@@@Z 10057180 f i physics:dgMinkowskiConv.obj
 0001:000561f0       ?HullHullContacts@dgContactSolver@@QAEHH@Z 100571f0 f i physics:dgMinkowskiConv.obj
 0001:00056440       ?HullHullContactsLarge@dgContactSolver@@QAEHH@Z 10057440 f i physics:dgMinkowskiConv.obj
 0001:000566f0       ?HullHullContinueContacts@dgContactSolver@@QAEHAANQAVdgContactPoint@@HHH@Z 100576f0 f i physics:dgMinkowskiConv.obj
 0001:00056f40       ?CalculateVelocities@dgContactSolver@@QAEXN@Z 10057f40 f i physics:dgMinkowskiConv.obj
 0001:00057020       ?InitConvexCollision@dgWorld@@CAXXZ 10058020 f   physics:dgMinkowskiConv.obj
 0001:000574b0       ?SphereSphereCollision@dgWorld@@ABEHABVdgVector@@N0NAAVdgCollisionParamProxi@@@Z 100584b0 f   physics:dgMinkowskiConv.obj
 0001:00057680       ?CalculateSphereToSphereContacts@dgWorld@@ABEHAAVdgCollisionParamProxi@@@Z 10058680 f   physics:dgMinkowskiConv.obj
 0001:000576b0       ?CalculateCapsuleToSphereContacts@dgWorld@@ABEHAAVdgCollisionParamProxi@@@Z 100586b0 f   physics:dgMinkowskiConv.obj
 0001:00057820       ?CalculateCapsuleToCapsuleContacts@dgWorld@@ABEHAAVdgCollisionParamProxi@@@Z 10058820 f   physics:dgMinkowskiConv.obj
 0001:00058480       ?CalculateBoxToSphereContacts@dgWorld@@ABEHAAVdgCollisionParamProxi@@@Z 10059480 f   physics:dgMinkowskiConv.obj
 0001:00059320       ?FilterPolygonEdgeContacts@dgWorld@@ABEHHQAVdgContactPoint@@@Z 1005a320 f   physics:dgMinkowskiConv.obj
 0001:00059560       ?ClosestPoint@dgWorld@@ABEHAAVdgCollisionParamProxi@@@Z 1005a560 f   physics:dgMinkowskiConv.obj
 0001:000596d0       ?CalculateHullToHullContacts@dgWorld@@ABEHAAVdgCollisionParamProxi@@@Z 1005a6d0 f   physics:dgMinkowskiConv.obj
 0001:00059860       ?CalculateConvexToConvexContacts@dgWorld@@ABEHAAVdgCollisionParamProxi@@@Z 1005a860 f   physics:dgMinkowskiConv.obj
 0001:00059f50       ?CalculatePolySoupToSphereContactsDescrete@dgWorld@@ABEHAAVdgCollisionParamProxi@@@Z 1005af50 f   physics:dgMinkowskiConv.obj
 0001:0005a460       ?CalculatePolySoupToElipseContactsDescrete@dgWorld@@ABEHAAVdgCollisionParamProxi@@@Z 1005b460 f   physics:dgMinkowskiConv.obj
 0001:0005aaf0       ?CalculatePolySoupToSphereContactsContinue@dgWorld@@ABEHAAVdgCollisionParamProxi@@@Z 1005baf0 f   physics:dgMinkowskiConv.obj
 0001:0005afc0       ?CalculatePolySoupToHullContactsDescrete@dgWorld@@ABEHAAVdgCollisionParamProxi@@@Z 1005bfc0 f   physics:dgMinkowskiConv.obj
 0001:0005b250       ?CalculateConvexToNonConvexContactsContinue@dgWorld@@ABEHAAVdgCollisionParamProxi@@@Z 1005c250 f   physics:dgMinkowskiConv.obj
 0001:0005b5f0       ?CalculateConvexToNonConvexContacts@dgWorld@@ABEHAAVdgCollisionParamProxi@@@Z 1005c5f0 f   physics:dgMinkowskiConv.obj
 0001:0005be40       ?Pop@?$dgDownHeap@PAVdgMinkFace@dgContactSolver@@N@@QAEXXZ 1005ce40 f i physics:dgMinkowskiConv.obj
 0001:0005be40       ?Pop@?$dgDownHeap@PAVdgEdge@@N@@QAEXXZ 1005ce40 f i corelib:dgPolyhedra.obj
 0001:0005be40       ?Pop@?$dgDownHeap@PAVdgListNode@?$dgList@UEDGE_HANDLE@InternalPolyhedra@@@@N@@QAEXXZ 1005ce40 f i corelib:dgPolyhedra.obj
 0001:0005be40       ?Pop@?$dgDownHeap@PAVdgListNode@?$dgList@VdgConvexHull4dTetraherum@@@@N@@QAEXXZ 1005ce40 f i corelib:dgConvexHull4d.obj
 0001:0005bee0       ?Pop@?$dgUpHeap@HN@@QAEXXZ 1005cee0 f i physics:dgConvexCollision.obj
 0001:0005bee0       ?Pop@?$dgUpHeap@PAUdgPerimenterEdge@dgContactSolver@@N@@QAEXXZ 1005cee0 f i physics:dgMinkowskiConv.obj
 0001:0005bf80       ?Remove@?$dgUpHeap@PAUdgPerimenterEdge@dgContactSolver@@N@@QAEXH@Z 1005cf80 f i physics:dgMinkowskiConv.obj
 0001:0005c020       ??0dgMemoryAllocator@@QAE@XZ 1005d020 f   corelib:dgMemory.obj
 0001:0005c070       ?MallocLow@dgMemoryAllocator@@QAEPAXHH@Z 1005d070 f   corelib:dgMemory.obj
 0001:0005c0b0       ?Malloc@dgMemoryAllocator@@QAEPAXH@Z 1005d0b0 f   corelib:dgMemory.obj
 0001:0005c1f0       ?Free@dgMemoryAllocator@@QAEXPAX@Z 1005d1f0 f   corelib:dgMemory.obj
 0001:0005c2f0       ??0dgThreads@@QAE@XZ       1005d2f0 f   corelib:dgThreads.obj
 0001:0005c410       ?CreateThreaded@dgThreads@@QAEXH@Z 1005d410 f   corelib:dgThreads.obj
 0001:0005c4c0       ?DestroydgThreads@dgThreads@@QAEXXZ 1005d4c0 f   corelib:dgThreads.obj
 0001:0005c580       ?SubmitJob@dgThreads@@QAEHQAVdgWorkerThread@@@Z 1005d580 f   corelib:dgThreads.obj
 0001:0005c600       ?ThreadExecute@dgThreads@@CGIPAX@Z 1005d600 f   corelib:dgThreads.obj
 0001:0005c620       ?GetWork@dgThreads@@AAEHPAPAVdgWorkerThread@@@Z 1005d620 f   corelib:dgThreads.obj
 0001:0005c6a0       ?DoWork@dgThreads@@AAEXH@Z 1005d6a0 f   corelib:dgThreads.obj
 0001:0005c740       ?CalculateChunkSizes@dgThreads@@QBEXHQAH@Z 1005d740 f   corelib:dgThreads.obj
 0001:0005c790       ?dgGetLock@dgThreads@@QBEXXZ 1005d790 f   corelib:dgThreads.obj
 0001:0005c7d0       ?dgAbsf@@YANN@Z            1005d7d0 f   corelib:dgTypes.obj
 0001:0005c7e0       ?dgSqrt@@YANN@Z            1005d7e0 f   corelib:dgTypes.obj
 0001:0005c7f0       ?dgSin@@YANN@Z             1005d7f0 f   corelib:dgTypes.obj
 0001:0005c800       ?dgCos@@YANN@Z             1005d800 f   corelib:dgTypes.obj
 0001:0005c810       ?dgAsin@@YANN@Z            1005d810 f   corelib:dgTypes.obj
 0001:0005c830       ?dgAtan2@@YANNN@Z          1005d830 f   corelib:dgTypes.obj
 0001:0005c850       ?dgFloor@@YANN@Z           1005d850 f   corelib:dgTypes.obj
 0001:0005c890       ?dgFastInt@@YAHN@Z         1005d890 f   corelib:dgTypes.obj
 0001:0005c8c0       ?GetMinMax@@YAXAAVdgVector@@0QBNHH@Z 1005d8c0 f   corelib:dgTypes.obj
 0001:0005db40       ?dgVertexListToIndexList@@YAHQANHHHHQAHN@Z 1005eb40 f   corelib:dgTypes.obj
 0001:0005dcc0       ??0?$dgStack@N@@QAE@H@Z    1005ecc0 f i corelib:dgTypes.obj
 0001:0005dcc0       ??0?$dgStack@VdgHeapNodePair@dgAABBTree@@@@QAE@H@Z 1005ecc0 f i corelib:dgAABBPolygonSoup.obj
 0001:0005dd20       ??0dgMatrix@@QAE@ABVdgQuaternion@@ABVdgVector@@@Z 1005ed20 f   corelib:dgMatrix.obj
 0001:0005de30       ??DdgMatrix@@QBE?AV0@ABV0@@Z 1005ee30 f   corelib:dgMatrix.obj
 0001:0005e0a0       ?TransformTriplex@dgMatrix@@QBEXQAXHQBXHH@Z 1005f0a0 f   corelib:dgMatrix.obj
 0001:0005e2e0       ?Symetric3by3Inverse@dgMatrix@@QBE?AV1@XZ 1005f2e0 f   corelib:dgMatrix.obj
 0001:0005e420       ?CalcPitchYawRoll@dgMatrix@@QBE?AVdgVector@@XZ 1005f420 f   corelib:dgMatrix.obj
 0001:0005e530       ?Accumulate@VERTEX_METRIC_STRUCT@InternalPolyhedra@@QAEXAAVdgBigPlane@@@Z 1005f530 f i corelib:dgPolyhedra.obj
 0001:00061f20       ?Update@dgPolyhedraDescriptor@@QAEXABVdgPolyhedra@@@Z 10062f20 f   corelib:dgPolyhedra.obj
 0001:000620d0       ??_GdgPolySoupFilterAllocator@@UAEPAXI@Z 100630d0 f i corelib:dgPolygonSoupBuilder.obj
 0001:000620d0       ??_GdgPolyhedra@@UAEPAXI@Z 100630d0 f i corelib:dgPolyhedra.obj
 0001:000620d0       ??_EdgPolySoupFilterAllocator@@UAEPAXI@Z 100630d0 f i  CIL library: CIL module
 0001:000620d0       ??_EdgPolyhedra@@UAEPAXI@Z 100630d0 f i  CIL library: CIL module
 0001:00062110       ??0dgPolyhedra@@QAE@ABV0@@Z 10063110 f   corelib:dgPolyhedra.obj
 0001:00062300       ?AddFace@dgPolyhedra@@QAEPAVdgEdge@@HQBHQB_J@Z 10063300 f   corelib:dgPolyhedra.obj
 0001:00062590       ?DeleteFace@dgPolyhedra@@QAEXQAVdgEdge@@@Z 10063590 f   corelib:dgPolyhedra.obj
 0001:00062600       ?AddHalfEdge@dgPolyhedra@@QAEPAVdgEdge@@HH@Z 10063600 f   corelib:dgPolyhedra.obj
 0001:00062680       ?DeleteEdge@dgPolyhedra@@QAEXQAVdgEdge@@@Z 10063680 f   corelib:dgPolyhedra.obj
 0001:00062710       ?CollapseEdge@dgPolyhedra@@QAEPAVdgEdge@@QAV2@@Z 10063710 f   corelib:dgPolyhedra.obj
 0001:00062af0       ?ChangeEdgeIncidentVertex@dgPolyhedra@@QAEXQAVdgEdge@@H@Z 10063af0 f   corelib:dgPolyhedra.obj
 0001:00062bb0       ?FlipEdge@dgPolyhedra@@QAE_NQAVdgEdge@@@Z 10063bb0 f   corelib:dgPolyhedra.obj
 0001:00062d70       ?SpliteEdge@dgPolyhedra@@QAEPAVdgEdge@@HQAV2@@Z 10063d70 f   corelib:dgPolyhedra.obj
 0001:00062e60       ?CalculateSphere@dgPolyhedra@@QBE?AVdgSphere@@QBNHQBVdgMatrix@@@Z 10063e60 f   corelib:dgPolyhedra.obj
 0001:00063870       ?FaceNormal@dgPolyhedra@@QBE?AVdgVector@@QAVdgEdge@@QBNH@Z 10064870 f   corelib:dgPolyhedra.obj
 0001:000638b0       ?GetFaceCount@dgPolyhedra@@QBEHXZ 100648b0 f   corelib:dgPolyhedra.obj
 0001:00063940       ?DeleteDegenerateFaces@dgPolyhedra@@QAEXQBNHN@Z 10064940 f   corelib:dgPolyhedra.obj
 0001:00063a90       ?GetConectedSurface@dgPolyhedra@@QBE_NAAV1@@Z 10064a90 f   corelib:dgPolyhedra.obj
 0001:00063c20       ?Optimize@dgPolyhedra@@QAEXQBNHN@Z 10064c20 f   corelib:dgPolyhedra.obj
 0001:00064510       ?Triangulate@dgPolyhedra@@QAEXQBNHQAV1@@Z 10065510 f   corelib:dgPolyhedra.obj
 0001:000647a0       ?ConvexPartition@dgPolyhedra@@QAEXQBNHQAV1@@Z 100657a0 f   corelib:dgPolyhedra.obj
 0001:00064810       ?Find@?$dgTree@VdgEdge@@_J@@QBEPAVdgTreeNode@1@_J@Z 10065810 f i corelib:dgPolyhedra.obj
 0001:00064850       ?Insert@?$dgTree@VdgEdge@@_J@@QAEPAVdgTreeNode@1@ABVdgEdge@@_JAA_N@Z 10065850 f i corelib:dgPolyhedra.obj
 0001:00064930       ?Append@?$dgList@VdgDiagonalEdge@InternalPolyhedra@@@@QAEPAVdgListNode@1@ABVdgDiagonalEdge@InternalPolyhedra@@@Z 10065930 f i corelib:dgPolyhedra.obj
 0001:000649c0       ?Push@?$dgDownHeap@PAVdgListNode@?$dgList@UEDGE_HANDLE@InternalPolyhedra@@@@N@@QAEXAAPAVdgListNode@?$dgList@UEDGE_HANDLE@InternalPolyhedra@@@@N@Z 100659c0 f i corelib:dgPolyhedra.obj
 0001:000649c0       ?Push@?$dgDownHeap@PAVdgMinkFace@dgContactSolver@@N@@QAEXAAPAVdgMinkFace@dgContactSolver@@N@Z 100659c0 f i physics:dgMinkowskiConv.obj
 0001:000649c0       ?Push@?$dgDownHeap@PAVdgListNode@?$dgList@VdgConvexHull4dTetraherum@@@@N@@QAEXAAPAVdgListNode@?$dgList@VdgConvexHull4dTetraherum@@@@N@Z 100659c0 f i corelib:dgConvexHull4d.obj
 0001:000649c0       ?Push@?$dgDownHeap@PAVdgEdge@@N@@QAEXAAPAVdgEdge@@N@Z 100659c0 f i corelib:dgPolyhedra.obj
 0001:00064a30       ?Addtop@?$dgList@UEDGE_HANDLE@InternalPolyhedra@@@@QAEPAVdgListNode@1@ABUEDGE_HANDLE@InternalPolyhedra@@@Z 10065a30 f i corelib:dgPolyhedra.obj
 0001:00064ab0       ??0?$dgStack@UVERTEX_METRIC_STRUCT@InternalPolyhedra@@@@QAE@H@Z 10065ab0 f i corelib:dgPolyhedra.obj
 0001:00064b10       ??0dgListNode@?$dgList@UEDGE_HANDLE@InternalPolyhedra@@@@AAE@ABUEDGE_HANDLE@InternalPolyhedra@@QAV01@1@Z 10065b10 f i corelib:dgPolyhedra.obj
 0001:00064b50       ?Insert@?$dgTree@VdgEdge@@_J@@QAEPAVdgTreeNode@1@QAV21@_J@Z 10065b50 f i corelib:dgPolyhedra.obj
 0001:00064c10       ?RemoveAll@?$dgList@UEDGE_HANDLE@InternalPolyhedra@@@@QAEXXZ 10065c10 f i corelib:dgPolyhedra.obj
 0001:00064c80       ?InsertFixup@dgRedBackNode@@QAEXQAPAV1@@Z 10065c80 f   corelib:dgTree.obj
 0001:00064e50       ?RemoveFixup@dgRedBackNode@@QAEXQAV1@QAPAV1@@Z 10065e50 f   corelib:dgTree.obj
 0001:000650e0       ?Unlink@dgRedBackNode@@QAEXQAPAV1@@Z 100660e0 f   corelib:dgTree.obj
 0001:000651d0       ?RemoveAllLow@dgRedBackNode@@QAEXXZ 100661d0 f   corelib:dgTree.obj
 0001:00065200       ?RemoveAll@dgRedBackNode@@QAEXXZ 10066200 f   corelib:dgTree.obj
 0001:00065240       ??0FastRayTest@@QAE@ABVdgVector@@0@Z 10066240 f   corelib:dgIntersections.obj
 0001:000654a0       ?BoxTest@FastRayTest@@QBEHABVdgVector@@0@Z 100664a0 f   corelib:dgIntersections.obj
 0001:00065550       ?PolygonIntersect@FastRayTest@@QBENABVdgVector@@QBNHQBHH@Z 10066550 f   corelib:dgIntersections.obj
 0001:000656f0       ?dgRayBoxClip@@YA_NAAVdgVector@@0ABV1@1@Z 100666f0 f   corelib:dgIntersections.obj
 0001:00065900       ?dgPointToRayDistance@@YA?AVdgVector@@ABV1@00@Z 10066900 f   corelib:dgIntersections.obj
 0001:000659a0       ?dgRayToRayDistance@@YAXABVdgVector@@000AAV1@1@Z 100669a0 f   corelib:dgIntersections.obj
 0001:00065cc0       ?dgPointToTriangleDistance@@YA?AVdgVector@@ABV1@000@Z 10066cc0 f   corelib:dgIntersections.obj
 0001:00065cc0       ?dgPointToTriangleDistance@@YA?AVdgBigVector@@ABV1@000@Z 10066cc0 f   corelib:dgIntersections.obj
 0001:00066050       ?AddCGFace@dgPolyhedraMassProperties@@QAEXHPBVdgVector@@@Z 10067050 f   corelib:dgPolyhedraMassProperties.obj
 0001:00066190       ?AddInertiaFace@dgPolyhedraMassProperties@@QAEXHPBN@Z 10067190 f   corelib:dgPolyhedraMassProperties.obj
 0001:00066460       ?MassProperties@dgPolyhedraMassProperties@@QAENAAVdgVector@@00@Z 10067460 f   corelib:dgPolyhedraMassProperties.obj
 0001:00066530       ?Evalue@dgConvexHull3DFace@@ABENQBVdgBigVector@@ABV2@@Z 10067530 f   corelib:dgConvexHull3d.obj
 0001:000668a0       ?GetPlaneEquation@dgConvexHull3DFace@@ABE?AVdgBigPlane@@QBVdgBigVector@@@Z 100678a0 f   corelib:dgConvexHull3d.obj
 0001:00066990       ??_EdgConvexHull3d@@UAEPAXI@Z 10067990 f i  CIL library: CIL module
 0001:00066990       ??_GdgConvexHull3d@@UAEPAXI@Z 10067990 f i corelib:dgConvexHull3d.obj
 0001:000669f0       ??0dgConvexHull3d@@QAE@QAVdgMemoryAllocator@@QBNHHN@Z 100679f0 f   corelib:dgConvexHull3d.obj
 0001:00066be0       ?BuildTree@dgConvexHull3d@@IBEPAVdgAABBPointTree3d@@QAV2@QAVdgBigVector@@HHQAPADAAH@Z 10067be0 f   corelib:dgConvexHull3d.obj
 0001:00067440       ?InitVertexArray@dgConvexHull3d@@MAEHQAVdgBigVector@@0QBNHHQAXH@Z 10068440 f   corelib:dgConvexHull3d.obj
 0001:000679a0       ?SupportVertex@dgConvexHull3d@@IBEHQAPAVdgAABBPointTree3d@@QBVdgBigVector@@ABV3@@Z 100689a0 f   corelib:dgConvexHull3d.obj
 0001:00067c50       ?AddFace@dgConvexHull3d@@MAEPAVdgListNode@?$dgList@VdgConvexHull3DFace@@@@HHH@Z 10068c50 f   corelib:dgConvexHull3d.obj
 0001:00067c80       ?DeleteFace@dgConvexHull3d@@MAEXQAVdgListNode@?$dgList@VdgConvexHull3DFace@@@@@Z 10068c80 f   corelib:dgConvexHull3d.obj
 0001:00067ce0       ?CalculateConvexHull@dgConvexHull3d@@IAEXPAVdgAABBPointTree3d@@QAVdgBigVector@@1HN@Z 10068ce0 f   corelib:dgConvexHull3d.obj
 0001:000681f0       ?Append@?$dgList@VdgConvexHull3DFace@@@@QAEPAVdgListNode@1@XZ 100691f0 f i corelib:dgConvexHull3d.obj
 0001:00068270       ??0?$dgStack@VdgAABBPointTree4dClump@@@@QAE@H@Z 10069270 f i corelib:dgConvexHull4d.obj
 0001:00068270       ??0?$dgStack@VdgAABBPointTree3dClump@@@@QAE@H@Z 10069270 f i corelib:dgConvexHull3d.obj
 0001:000682d0       ??$dgSort@VdgBigVector@@@@YAXQAVdgBigVector@@HP6AHQBV0@1QAX@Z2@Z 100692d0 f i corelib:dgConvexHull3d.obj
 0001:00068540       ?RemoveAll@?$dgList@VdgConvexHull3DFace@@@@QAEXXZ 10069540 f i corelib:dgConvexHull3d.obj
 0001:00068590       ?RemoveAll@?$dgList@PAVdgListNode@?$dgList@V?$dgGraphNode@VdgDebriNodeInfo@dgCollisionCompoundBreakable@@VdgSharedNodeMesh@2@@@@@@@QAEXXZ 10069590 f i physics:dgCollisionCompoundBreakable.obj
 0001:00068590       ?RemoveAll@?$dgList@PAVdgListNode@?$dgList@VdgConvexHull4dTetraherum@@@@@@QAEXXZ 10069590 f i physics:dgMeshEffect2.obj
 0001:00068590       ?RemoveAll@?$dgList@PAVdgTreeNode@?$dgTree@VdgEdge@@_J@@@@QAEXXZ 10069590 f i physics:dgMeshEffect2.obj
 0001:00068590       ?RemoveAll@?$dgList@PAVdgEdge@@@@QAEXXZ 10069590 f i corelib:dgPolyhedra.obj
 0001:00068590       ?RemoveAll@?$dgList@PAVdgListNode@?$dgList@VdgConvexHull3DFace@@@@@@QAEXXZ 10069590 f i corelib:dgConvexHull3d.obj
 0001:00068590       ?RemoveAll@?$dgList@PAVdgMemoryAllocator@@@@QAEXXZ 10069590 f i corelib:dgMemory.obj
 0001:00068590       ?RemoveAll@?$dgList@PAVdgContact@@@@QAEXXZ 10069590 f i physics:dgWorld.obj
 0001:000685e0       ??0dgDelaunayTetrahedralization@@QAE@QAVdgMemoryAllocator@@QBNHHN@Z 100695e0 f   corelib:dgDelaunayTetrahedralization.obj
 0001:00068850       ??_GdgDelaunayTetrahedralization@@UAEPAXI@Z 10069850 f i corelib:dgDelaunayTetrahedralization.obj
 0001:00068850       ??_GdgConvexHull4d@@UAEPAXI@Z 10069850 f i corelib:dgConvexHull4d.obj
 0001:00068850       ??_EdgDelaunayTetrahedralization@@UAEPAXI@Z 10069850 f i  CIL library: CIL module
 0001:00068850       ??_EdgConvexHull4d@@UAEPAXI@Z 10069850 f i  CIL library: CIL module
 0001:000688b0       ?AddVertex@dgDelaunayTetrahedralization@@UAEHABVdgBigVector@@@Z 100698b0 f   corelib:dgDelaunayTetrahedralization.obj
 0001:00068940       ?RemoveUpperHull@dgDelaunayTetrahedralization@@QAEXXZ 10069940 f   corelib:dgDelaunayTetrahedralization.obj
 0001:000689c0       ?GetTetraVolume@dgDelaunayTetrahedralization@@IBENQBVdgConvexHull4dTetraherum@@@Z 100699c0 f   corelib:dgDelaunayTetrahedralization.obj
 0001:00068d70       ??0dgTetrahedrumPlane@dgConvexHull4dTetraherum@@QAE@ABVdgBigVector@@000@Z 10069d70 f   corelib:dgConvexHull4d.obj
 0001:00068ea0       ?Evalue@dgConvexHull4dTetraherum@@QBENQBVdgHullVector@@ABVdgBigVector@@@Z 10069ea0 f   corelib:dgConvexHull4d.obj
 0001:00069330       ?BuildHull@dgConvexHull4d@@IAEXQAVdgMemoryAllocator@@QBVdgBigVector@@HN@Z 1006a330 f   corelib:dgConvexHull4d.obj
 0001:00069420       ?TessellateTriangle@dgConvexHull3d@@IBEXHABVdgVector@@00AAHQAVdgBigVector@@1@Z 1006a420 f   corelib:dgConvexHull3d.obj
 0001:00069420       ?TessellateTriangle@dgConvexHull4d@@IBEXHABVdgVector@@00AAHQAVdgBigVector@@1@Z 1006a420 f   corelib:dgConvexHull4d.obj
 0001:000697d0       ?BuildNormalList@dgConvexHull3d@@IBEHQAVdgBigVector@@@Z 1006a7d0 f   corelib:dgConvexHull3d.obj
 0001:000697d0       ?BuildNormalList@dgConvexHull4d@@IBEHQAVdgBigVector@@@Z 1006a7d0 f   corelib:dgConvexHull4d.obj
 0001:000699f0       ?SupportVertex@dgConvexHull4d@@IBEHQAPAVdgAABBPointTree4d@@QBVdgHullVector@@ABVdgBigVector@@@Z 1006a9f0 f   corelib:dgConvexHull4d.obj
 0001:00069ce0       ?BuildTree@dgConvexHull4d@@IBEPAVdgAABBPointTree4d@@QAV2@QAVdgHullVector@@HHQAPADAAH@Z 1006ace0 f   corelib:dgConvexHull4d.obj
 0001:0006a420       ?InitVertexArray@dgConvexHull4d@@MAEHQAVdgHullVector@@QBVdgBigVector@@HQAXH@Z 1006b420 f   corelib:dgConvexHull4d.obj
 0001:0006a9a0       ?AddFace@dgConvexHull4d@@MAEPAVdgListNode@?$dgList@VdgConvexHull4dTetraherum@@@@HHHH@Z 1006b9a0 f   corelib:dgConvexHull4d.obj
 0001:0006aa30       ?DeleteFace@dgConvexHull4d@@MAEXQAVdgListNode@?$dgList@VdgConvexHull4dTetraherum@@@@@Z 1006ba30 f   corelib:dgConvexHull4d.obj
 0001:0006aa90       ?LinkSibling@dgConvexHull4d@@IBEXPAVdgListNode@?$dgList@VdgConvexHull4dTetraherum@@@@0@Z 1006ba90 f   corelib:dgConvexHull4d.obj
 0001:0006ab40       ?InsertNewVertex@dgConvexHull4d@@IAEXHQAVdgListNode@?$dgList@VdgConvexHull4dTetraherum@@@@AAV?$dgList@PAVdgListNode@?$dgList@VdgConvexHull4dTetraherum@@@@@@1@Z 1006bb40 f   corelib:dgConvexHull4d.obj
 0001:0006aef0       ?CalculateConvexHull@dgConvexHull4d@@IAEXPAVdgAABBPointTree4d@@QAVdgHullVector@@HN@Z 1006bef0 f   corelib:dgConvexHull4d.obj
 0001:0006b170       ?FindFacingNode@dgConvexHull4d@@IAEPAVdgListNode@?$dgList@VdgConvexHull4dTetraherum@@@@ABVdgBigVector@@@Z 1006c170 f   corelib:dgConvexHull4d.obj
 0001:0006b3e0       ?AddVertex@dgConvexHull4d@@MAEHABVdgBigVector@@@Z 1006c3e0 f   corelib:dgConvexHull4d.obj
 0001:0006b520       ?CrossProduct4@?$dgTemplateVector@N@@QBE?AV1@ABV1@0@Z 1006c520 f i corelib:dgConvexHull4d.obj
 0001:0006b690       ?Append@?$dgList@VdgConvexHull4dTetraherum@@@@QAEPAVdgListNode@1@XZ 1006c690 f i corelib:dgConvexHull4d.obj
 0001:0006b700       ??0?$dgStack@VdgHullVector@@@@QAE@H@Z 1006c700 f i corelib:dgConvexHull4d.obj
 0001:0006b760       ??$dgSort@VdgHullVector@@@@YAXQAVdgHullVector@@HP6AHQBV0@1QAX@Z2@Z 1006c760 f i corelib:dgConvexHull4d.obj
 0001:0006b9f0       ?Remove@?$dgDownHeap@PAVdgListNode@?$dgList@VdgConvexHull4dTetraherum@@@@N@@QAEXH@Z 1006c9f0 f i corelib:dgConvexHull4d.obj
 0001:0006ba90       ?RemoveAll@?$dgList@VdgConvexHull4dTetraherum@@@@QAEXXZ 1006ca90 f i corelib:dgConvexHull4d.obj
 0001:0006bae0       ??_EdgPolygonSoupDatabase@@MAEPAXI@Z 1006cae0 f i  CIL library: CIL module
 0001:0006bae0       ??_GdgPolygonSoupDatabase@@MAEPAXI@Z 1006cae0 f i corelib:dgAABBPolygonSoup.obj
 0001:0006bb30       ?ForAllSectorsSimd@dgPolygonSoupDatabase@@MBEXABVdgVector@@0P6A?AW4dgIntersectStatus@@PAXQBNHQBHH@ZQAX@Z 1006cb30 f i corelib:dgAABBPolygonSoup.obj
 0001:0006bb30       ?ForAllSectors@dgPolygonSoupDatabase@@MBEXABVdgVector@@0P6A?AW4dgIntersectStatus@@PAXQBNHQBHH@ZQAX@Z 1006cb30 f i corelib:dgAABBPolygonSoup.obj
 0001:0006bb40       ??0dgConstructionTree@dgAABBTree@@QAE@QAV01@0@Z 1006cb40 f i corelib:dgAABBPolygonSoup.obj
 0001:0006bc00       ?CalcExtends@dgAABBTree@@QAEXQAVdgTriplex@@HQBH@Z 1006cc00 f i corelib:dgAABBPolygonSoup.obj
 0001:0006c050       ?BuildTree@dgAABBTree@@QAEHPAVdgConstructionTree@1@QAV1@1QAVdgTriplex@@AAH@Z 1006d050 f i corelib:dgAABBPolygonSoup.obj
 0001:0006c160       ?BuildBottomUp@dgAABBTree@@QAEHQAVdgMemoryAllocator@@HQAV1@QAVdgTriplex@@AAH@Z 1006d160 f i corelib:dgAABBPolygonSoup.obj
 0001:0006c630       ?BuildTree@dgAABBTree@@QAEPAVdgConstructionTree@1@QAVdgMemoryAllocator@@HHQAV1@QBVdgTriplex@@@Z 1006d630 f i corelib:dgAABBPolygonSoup.obj
 0001:0006c750       ?BuildTopDown@dgAABBTree@@QAEHQAVdgMemoryAllocator@@HQAV1@QAVdgTriplex@@AAH@Z 1006d750 f i corelib:dgAABBPolygonSoup.obj
 0001:0006c800       ?ForAllSectorsSimd@dgAABBTree@@QBEXQBHQBNABVdgVector@@2P6A?AW4dgIntersectStatus@@PAX1H0H@ZQAX@Z 1006d800 f i corelib:dgAABBPolygonSoup.obj
 0001:0006c8e0       ?ForAllSectors@dgAABBTree@@QBEXQBHQBNABVdgVector@@2P6A?AW4dgIntersectStatus@@PAX1H0H@ZQAX@Z 1006d8e0 f i corelib:dgAABBPolygonSoup.obj
 0001:0006ca10       ?ForAllSectorsRayHit@dgAABBTree@@QBEXABVFastRayTest@@PBHPBNP6ANPAXQBNHQBHH@ZQAX@Z 1006da10 f i corelib:dgAABBPolygonSoup.obj
 0001:0006cc10       ?ForAllSectorsSupportVertex@dgAABBTree@@QBE?AVdgVector@@ABV2@QBHQBN@Z 1006dc10 f i corelib:dgAABBPolygonSoup.obj
 0001:0006d4e0       ?GetAxis@dgAABBTree@@ABEHPAPAVdgConstructionTree@1@H@Z 1006e4e0 f i corelib:dgAABBPolygonSoup.obj
 0001:0006dd70       ??_GdgConstructionTree@dgAABBTree@@QAEPAXI@Z 1006ed70 f i corelib:dgAABBPolygonSoup.obj
 0001:0006dda0       ??_GdgAABBPolygonSoup@@MAEPAXI@Z 1006eda0 f i corelib:dgAABBPolygonSoup.obj
 0001:0006dda0       ??_EdgAABBPolygonSoup@@MAEPAXI@Z 1006eda0 f i  CIL library: CIL module
 0001:0006ddc0       ??1dgAABBPolygonSoup@@MAE@XZ 1006edc0 f   corelib:dgAABBPolygonSoup.obj
 0001:0006de50       ?ForAllSectorsSimd@dgAABBPolygonSoup@@MBEXABVdgVector@@0P6A?AW4dgIntersectStatus@@PAXQBNHQBHH@ZQAX@Z 1006ee50 f   corelib:dgAABBPolygonSoup.obj
 0001:0006de80       ?ForAllSectors@dgAABBPolygonSoup@@MBEXABVdgVector@@0P6A?AW4dgIntersectStatus@@PAXQBNHQBHH@ZQAX@Z 1006ee80 f   corelib:dgAABBPolygonSoup.obj
 0001:0006deb0       ?ForAllSectorsSupportVectex@dgAABBPolygonSoup@@MBE?AVdgVector@@ABV2@@Z 1006eeb0 f   corelib:dgAABBPolygonSoup.obj
 0001:0006df00       ?GetAABB@dgAABBPolygonSoup@@UBEXAAVdgVector@@0@Z 1006ef00 f   corelib:dgAABBPolygonSoup.obj
 0001:0006df90       ?ForAllSectorsRayHit@dgAABBPolygonSoup@@MBEXABVFastRayTest@@P6ANPAXQBNHQBHH@ZQAX@Z 1006ef90 f   corelib:dgAABBPolygonSoup.obj
 0001:0006dfc0       ?Serialize@dgAABBPolygonSoup@@UBEXP6AXPAXPBXI@ZQAX@Z 1006efc0 f   corelib:dgAABBPolygonSoup.obj
 0001:0006e040       ?Deserialize@dgAABBPolygonSoup@@UAEXP6AXPAX0I@ZQAX@Z 1006f040 f   corelib:dgAABBPolygonSoup.obj
 0001:0006e1c0       ?CalculateThisFaceEdgeNormals@dgAABBPolygonSoup@@CA?AW4dgIntersectStatus@@PAXQBNHQBHH@Z 1006f1c0 f   corelib:dgAABBPolygonSoup.obj
 0001:0006e330       ?CalculateAllFaceEdgeNormals@dgAABBPolygonSoup@@CA?AW4dgIntersectStatus@@PAXQBNHQBHH@Z 1006f330 f   corelib:dgAABBPolygonSoup.obj
 0001:0006e870       ?CalculateFaceMaxSize@dgAABBPolygonSoup@@IBENQAVdgTriplex@@HQBH@Z 1006f870 f   corelib:dgAABBPolygonSoup.obj
 0001:0006eb00       ?Create@dgAABBPolygonSoup@@IAEXABVdgPolygonSoupDatabaseBuilder@@_N@Z 1006fb00 f   corelib:dgAABBPolygonSoup.obj
 0001:0006f120       ??0?$dgStack@VdgAABBTree@@@@QAE@H@Z 10070120 f i corelib:dgAABBPolygonSoup.obj
 0001:0006f180       ??0?$dgStack@PAVdgConstructionTree@dgAABBTree@@@@QAE@H@Z 10070180 f i corelib:dgAABBPolygonSoup.obj
 0001:0006f180       ??0?$dgStack@H@@QAE@H@Z    10070180 f i physics:dgMeshEffect.obj
 0001:0006f180       ??0?$dgStack@I@@QAE@H@Z    10070180 f i physics:dgNarrowPhaseCollision.obj
 0001:0006f180       ??0?$dgStack@PAVdgListNode@?$dgList@VdgConvexHull3DFace@@@@@@QAE@H@Z 10070180 f i corelib:dgConvexHull3d.obj
 0001:0006f180       ??0?$dgStack@PAVdgListNode@?$dgList@UdgProxy@dgCollisionScene@@@@@@QAE@H@Z 10070180 f i physics:dgCollisionScene.obj
 0001:0006f180       ??0?$dgStack@PAVdgNodeBase@dgCollisionCompound@@@@QAE@H@Z 10070180 f i physics:dgCollisionCompound.obj
 0001:0006f180       ??0?$dgStack@PAVdgConvexCollision@@@@QAE@H@Z 10070180 f i physics:dgCollisionCompoundBreakable.obj
 0001:0006f180       ??0?$dgStack@PAVdgTreeNode@?$dgTree@VdgEdge@@_J@@@@QAE@H@Z 10070180 f i corelib:dgPolyhedra.obj
 0001:0006f180       ??0?$dgStack@PAVdgListNode@?$dgList@V?$dgGraphNode@VdgDebriNodeInfo@dgCollisionCompoundBreakable@@VdgSharedNodeMesh@2@@@@@@@QAE@H@Z 10070180 f i physics:dgCollisionCompoundBreakable.obj
 0001:0006f180       ??0?$dgStack@PAVdgEdge@@@@QAE@H@Z 10070180 f i physics:dgCollisionConvexHull.obj
 0001:0006f1e0       ?Pop@?$dgDownHeap@VdgHeapNodePair@dgAABBTree@@N@@QAEXXZ 100701e0 f i corelib:dgAABBPolygonSoup.obj
 0001:0006f290       ?Push@?$dgDownHeap@VdgHeapNodePair@dgAABBTree@@N@@QAEXAAVdgHeapNodePair@dgAABBTree@@N@Z 10070290 f i corelib:dgAABBPolygonSoup.obj
 0001:0006f310       ?Sort@?$dgDownHeap@VdgHeapNodePair@dgAABBTree@@N@@QAEXXZ 10070310 f i corelib:dgAABBPolygonSoup.obj
 0001:0006f510       ??$dgSortIndirect@VdgConstructionTree@dgAABBTree@@@@YAXQAPAVdgConstructionTree@dgAABBTree@@HP6AHQBV01@1QAX@Z2@Z 10070510 f i corelib:dgAABBPolygonSoup.obj
 0001:0006f670       ?Resize@?$dgArray@VdgTriplex@@@@QBEXH@Z 10070670 f i corelib:dgAABBPolygonSoup.obj
 0001:0006f800       ?Resize@?$dgArray@H@@QBEXH@Z 10070800 f i corelib:dgAABBPolygonSoup.obj
 0001:0006f930       ?AddFilterFace@dgPolySoupFilterAllocator@@QAEHIQAH@Z 10070930 f i corelib:dgPolygonSoupBuilder.obj
 0001:0006f9e0       ??1dgPolygonSoupDatabaseBuilder@@QAE@XZ 100709e0 f   corelib:dgPolygonSoupBuilder.obj
 0001:0006fab0       ?AddMesh@dgPolygonSoupDatabaseBuilder@@QAEXQBNHHHQBH11ABVdgMatrix@@@Z 10070ab0 f   corelib:dgPolygonSoupBuilder.obj
 0001:0006fcd0       ?EndAndOptimize@dgPolygonSoupDatabaseBuilder@@AAEX_N@Z 10070cd0 f   corelib:dgPolygonSoupBuilder.obj
 0001:0006fe20       ?OptimizeByGroupID@dgPolygonSoupDatabaseBuilder@@AAEXXZ 10070e20 f   corelib:dgPolygonSoupBuilder.obj
 0001:000705c0       ?OptimizeByGroupID@dgPolygonSoupDatabaseBuilder@@AAEXAAV1@HH0@Z 100715c0 f   corelib:dgPolygonSoupBuilder.obj
 0001:00070c10       ?OptimizeByIndividualFaces@dgPolygonSoupDatabaseBuilder@@AAEXXZ 10071c10 f   corelib:dgPolygonSoupBuilder.obj
 0001:00070d40       ?End@dgPolygonSoupDatabaseBuilder@@QAEX_N@Z 10071d40 f   corelib:dgPolygonSoupBuilder.obj
 0001:00071180       ?Optimize@dgPolygonSoupDatabaseBuilder@@AAEX_N@Z 10072180 f   corelib:dgPolygonSoupBuilder.obj
 0001:00071f20       ?FilterFace@dgPolygonSoupDatabaseBuilder@@AAEHHQAH@Z 10072f20 f   corelib:dgPolygonSoupBuilder.obj
 0001:00072770       ?AddConvexFace@dgPolygonSoupDatabaseBuilder@@AAEHHQAH0@Z 10073770 f   corelib:dgPolygonSoupBuilder.obj
 0001:000730f0       ?Insert@?$dgTree@HH@@QAEPAVdgTreeNode@1@ABHHAA_N@Z 100740f0 f i corelib:dgPolygonSoupBuilder.obj
 0001:000731c0       ??0dgQuaternion@@QAE@ABVdgMatrix@@@Z 100741c0 f   corelib:dgQuaternion.obj
 0001:000732e0       ??0dgQuaternion@@QAE@ABVdgVector@@N@Z 100742e0 f   corelib:dgQuaternion.obj
 0001:00073340       ?Determinant3x3@@YANQAY02$$CBNQAN@Z 10074340 f   corelib:dgSmallDeterminant.obj
 0001:00073430       ?Determinant3x3@@YA?AVdgGoogol@@QAY02$$CBV1@@Z 10074430 f   corelib:dgSmallDeterminant.obj
 0001:00073670       ?Determinant4x4@@YANQAY03$$CBNQAN@Z 10074670 f   corelib:dgSmallDeterminant.obj
 0001:00073760       ?Determinant4x4@@YA?AVdgGoogol@@QAY03$$CBV1@@Z 10074760 f   corelib:dgSmallDeterminant.obj
 0001:00073980       ?SetDimensions@dgSphere@@QAEXNNN@Z 10074980 f i corelib:dgSphere.obj
 0001:00073a30       ?InitFloatFloat@dgGoogol@@QAEXN@Z 10074a30 f   corelib:dgGoogol.obj
 0001:00073ac0       ?PackFloat@dgGoogol@@AAEXXZ 10074ac0 f i corelib:dgGoogol.obj
 0001:00073c70       ?ScaleFloat@dgGoogol@@ABE?AV1@N@Z 10074c70 f i corelib:dgGoogol.obj
 0001:00074020       ??HdgGoogol@@QBE?AV0@ABV0@@Z 10075020 f   corelib:dgGoogol.obj
 0001:00074220       ??DdgGoogol@@QBE?AV0@ABV0@@Z 10075220 f   corelib:dgGoogol.obj
 0001:000742c0       _ceil                      100752c0 f   LIBCMT:_ceil_pentium4_.obj
 0001:00074300       __ceil_pentium4            10075300 f   LIBCMT:_ceil_pentium4_.obj
 0001:000743dd       _free                      100753dd f   LIBCMT:free.obj
 0001:0007446b       _V6_HeapAlloc              1007546b f   LIBCMT:malloc.obj
 0001:000744ba       _malloc                    100754ba f   LIBCMT:malloc.obj
 0001:00074584       __CRT_INIT@12              10075584 f   LIBCMT:dllcrt0.obj
 0001:000747af       __DllMainCRTStartup@12     100757af f   LIBCMT:dllcrt0.obj
 0001:000747d2       _sprintf                   100757d2 f   LIBCMT:sprintf.obj
 0001:0007484f       __purecall                 1007584f f   LIBCMT:purevirt.obj
 0001:00074879       ??3@YAXPAX@Z               10075879 f   LIBCMT:delete.obj
 0001:0007493e       ___onexitinit              1007593e f   LIBCMT:onexit.obj
 0001:0007496f       __onexit                   1007596f f   LIBCMT:onexit.obj
 0001:000749ab       _atexit                    100759ab f   LIBCMT:onexit.obj
 0001:000749c2       __endthreadex              100759c2 f   LIBCMT:threadex.obj
 0001:00074ac3       __beginthreadex            10075ac3 f   LIBCMT:threadex.obj
 0001:00074ca1       __control87                10075ca1 f i LIBCMT:_ieee87_.obj
 0001:00074fb0       __controlfp                10075fb0 f   LIBCMT:_ieee87_.obj
 0001:000752c2       ___libm_error_support      100762c2 f   LIBCMT:_libm_error_.obj
 0001:00075572       __sse2_mathfcns_init       10076572 f   LIBCMT:_mathfcns_.obj
 0001:00075586       __ceil_default             10076586 f   LIBCMT:_ceil_.obj
 0001:0007565b       __get_errno_from_oserr     1007665b f   LIBCMT:dosmap.obj
 0001:0007569d       __errno                    1007669d f   LIBCMT:dosmap.obj
 0001:000756b0       ___doserrno                100766b0 f   LIBCMT:dosmap.obj
 0001:000756c3       __dosmaperr                100766c3 f   LIBCMT:dosmap.obj
 0001:000756e6       __heap_init                100766e6 f   LIBCMT:heapinit.obj
 0001:00075716       __heap_term                10076716 f   LIBCMT:heapinit.obj
 0001:0007578a       __mtinitlocks              1007678a f   LIBCMT:mlock.obj
 0001:000757d5       __mtdeletelocks            100767d5 f   LIBCMT:mlock.obj
 0001:0007582c       __unlock                   1007682c f   LIBCMT:mlock.obj
 0001:00075843       __mtinitlocknum            10076843 f   LIBCMT:mlock.obj
 0001:00075906       __lock                     10076906 f   LIBCMT:mlock.obj
 0001:00075939       ___sbh_find_block          10076939 f   LIBCMT:sbheap.obj
 0001:00075969       ___sbh_free_block          10076969 f   LIBCMT:sbheap.obj
 0001:00075c7f       ___sbh_alloc_new_region    10076c7f f   LIBCMT:sbheap.obj
 0001:00075d2f       ___sbh_alloc_new_group     10076d2f f   LIBCMT:sbheap.obj
 0001:00075e37       ___sbh_resize_block        10076e37 f   LIBCMT:sbheap.obj
 0001:00076118       ___sbh_alloc_block         10077118 f   LIBCMT:sbheap.obj
 0001:00076400       __SEH_prolog4              10077400 f   LIBCMT:sehprolg4.obj
 0001:00076445       __SEH_epilog4              10077445 f   LIBCMT:sehprolg4.obj
 0001:00076460       __except_handler4          10077460 f   LIBCMT:chandler4.obj
 0001:000765ec       __crt_waiting_on_module_handle 100775ec f   LIBCMT:crt0dat.obj
 0001:0007661c       __amsg_exit                1007761c f   LIBCMT:crt0dat.obj
 0001:00076645       ___crtCorExitProcess       10077645 f   LIBCMT:crt0dat.obj
 0001:00076670       ___crtExitProcess          10077670 f   LIBCMT:crt0dat.obj
 0001:00076688       __lockexit                 10077688 f   LIBCMT:crt0dat.obj
 0001:00076691       __unlockexit               10077691 f   LIBCMT:crt0dat.obj
 0001:000766b7       __initterm_e               100776b7 f   LIBCMT:crt0dat.obj
 0001:000766db       __cinit                    100776db f   LIBCMT:crt0dat.obj
 0001:0007688c       __exit                     1007788c f   LIBCMT:crt0dat.obj
 0001:000768a2       __cexit                    100778a2 f   LIBCMT:crt0dat.obj
 0001:000768b1       __init_pointers            100778b1 f   LIBCMT:crt0dat.obj
 0001:000768ff       __NMSG_WRITE               100778ff f   LIBCMT:crt0msg.obj
 0001:00076aaa       __FF_MSGBANNER             10077aaa f   LIBCMT:crt0msg.obj
 0001:00076ae3       __initp_heap_handler       10077ae3 f   LIBCMT:handler.obj
 0001:00076af2       __callnewh                 10077af2 f   LIBCMT:handler.obj
 0001:00076b1a       __encode_pointer           10077b1a f   LIBCMT:tidtable.obj
 0001:00076b8c       __encoded_null             10077b8c f   LIBCMT:tidtable.obj
 0001:00076b95       __decode_pointer           10077b95 f   LIBCMT:tidtable.obj
 0001:00076c07       ___crtTlsAlloc@4           10077c07 f   LIBCMT:tidtable.obj
 0001:00076c10       ___fls_getvalue@4          10077c10 f   LIBCMT:tidtable.obj
 0001:00076c2a       ___get_flsindex            10077c2a f   LIBCMT:tidtable.obj
 0001:00076c30       ___set_flsgetvalue         10077c30 f   LIBCMT:tidtable.obj
 0001:00076c64       ___fls_setvalue@8          10077c64 f   LIBCMT:tidtable.obj
 0001:00076c81       __mtterm                   10077c81 f   LIBCMT:tidtable.obj
 0001:00076cbe       __initptd                  10077cbe f   LIBCMT:tidtable.obj
 0001:00076da5       __getptd_noexit            10077da5 f   LIBCMT:tidtable.obj
 0001:00076e1e       __getptd                   10077e1e f   LIBCMT:tidtable.obj
 0001:00076e38       __freefls@4                10077e38 f   LIBCMT:tidtable.obj
 0001:00076f67       __freeptd                  10077f67 f   LIBCMT:tidtable.obj
 0001:00076fd5       __mtinit                   10077fd5 f   LIBCMT:tidtable.obj
 0001:00077162       __malloc_crt               10078162 f   LIBCMT:crtheap.obj
 0001:000771a7       __calloc_crt               100781a7 f   LIBCMT:crtheap.obj
 0001:000771f3       __realloc_crt              100781f3 f   LIBCMT:crtheap.obj
 0001:00077241       __ioinit                   10078241 f   LIBCMT:ioinit.obj
 0001:00077495       __ioterm                   10078495 f   LIBCMT:ioinit.obj
 0001:000774e3       __setenvp                  100784e3 f   LIBCMT:stdenvp.obj
 0001:0007775b       __setargv                  1007875b f   LIBCMT:stdargv.obj
 0001:00077816       ___crtGetEnvironmentStringsA 10078816 f   LIBCMT:a_env.obj
 0001:0007794d       __RTC_Initialize           1007894d f   LIBCMT:_initsect_.obj
 0001:00077973       __RTC_Terminate            10078973 f   LIBCMT:_initsect_.obj
 0001:00077999       __XcptFilter               10078999 f   LIBCMT:winxfltr.obj
 0001:00077af9       ___CppXcptFilter           10078af9 f   LIBCMT:winxfltr.obj
 0001:00077b19       ___security_init_cookie    10078b19 f   LIBCMT:gs_support.obj
 0001:00077baf       __flsbuf                   10078baf f   LIBCMT:_flsbuf.obj
 0001:00077d13       ??0_LocaleUpdate@@QAE@PAUlocaleinfo_struct@@@Z 10078d13 f i LIBCMT:output.obj
 0001:00077e40       __output_l                 10078e40 f   LIBCMT:output.obj
 0001:000789d8       __initp_misc_invarg        100799d8 f   LIBCMT:invarg.obj
 0001:000789e7       __invoke_watson            100799e7 f   LIBCMT:invarg.obj
 0001:00078b0f       __invalid_parameter        10079b0f f   LIBCMT:invarg.obj
 0001:00078b35       _abort                     10079b35 f   LIBCMT:abort.obj
 0001:00078c4c       __set_abort_behavior       10079c4c f   LIBCMT:abort.obj
 0001:00078c6d       __initp_misc_purevirt      10079c6d f   LIBCMT:inithelp.obj
 0001:00078c7c       __msize                    10079c7c f   LIBCMT:msize.obj
 0001:00078d20       __ValidateImageBase        10079d20 f   LIBCMT:pesect.obj
 0001:00078d60       __FindPESection            10079d60 f   LIBCMT:pesect.obj
 0001:00078db0       __IsNonwritableInCurrentImage 10079db0 f   LIBCMT:pesect.obj
 0001:00078e6d       __controlfp_s              10079e6d f   LIBCMT:_contrlfp_.obj
 0001:00078ed9       __statfp                   10079ed9 f   LIBCMT:_fpctrl_.obj
 0001:00078ee9       __clrfp                    10079ee9 f   LIBCMT:_fpctrl_.obj
 0001:00078efa       __ctrlfp                   10079efa f   LIBCMT:_fpctrl_.obj
 0001:00078f23       __set_statfp               10079f23 f   LIBCMT:_fpctrl_.obj
 0001:00078f7b       ___set_fpsr_sse2           10079f7b f   LIBCMT:_fpctrl_.obj
 0001:00078fed       __setdefaultprecision      10079fed f   LIBCMT:fp8.obj
 0001:00079018       __initp_misc_winsig        1007a018 f   LIBCMT:winsig.obj
 0001:0007906d       ___get_sigabrt             1007a06d f   LIBCMT:winsig.obj
 0001:0007907a       _raise                     1007a07a f   LIBCMT:winsig.obj
 0001:0007922a       __matherr                  1007a22a f   LIBCMT:_matherr_.obj
 0001:0007922d       __fpclear                  1007a22d f   LIBCMT:_fpinit_.obj
 0001:0007922d       __initp_misc_winxfltr      1007a22d f   LIBCMT:winxfltr.obj
 0001:0007922e       __cfltcvt_init             1007a22e f   LIBCMT:_fpinit_.obj
 0001:0007928e       __fpmath                   1007a28e f   LIBCMT:_fpinit_.obj
 0001:00079301       __get_sse2_info            1007a301 f   LIBCMT:cpu_disp.obj
 0001:00079363       ___sse2_available_init     1007a363 f   LIBCMT:cpu_disp.obj
 0001:00079370       __raise_exc_ex             1007a370 f   LIBCMT:_fpexcept_.obj
 0001:0007964c       __raise_exc                1007a64c f   LIBCMT:_fpexcept_.obj
 0001:0007966f       __handle_exc               1007a66f f   LIBCMT:_fpexcept_.obj
 0001:00079851       __set_errno_from_matherr   1007a851 f   LIBCMT:_fpexcept_.obj
 0001:0007987e       __errcode                  1007a87e f   LIBCMT:_fpexcept_.obj
 0001:000798b2       __umatherr                 1007a8b2 f   LIBCMT:_fpexcept_.obj
 0001:00079952       __handle_qnan1             1007a952 f   LIBCMT:_fpexcept_.obj
 0001:000799a7       __except1                  1007a9a7 f   LIBCMT:_fpexcept_.obj
 0001:00079a70       __frnd                     1007aa70 f   LIBCMT:_frnd_.obj
 0001:00079a84       __set_exp                  1007aa84 f   LIBCMT:_util_.obj
 0001:00079ab0       __sptype                   1007aab0 f   LIBCMT:_util_.obj
 0001:00079b10       __decomp                   1007ab10 f   LIBCMT:_util_.obj
 0001:00079bc9       __initp_misc_initcrit      1007abc9 f   LIBCMT:initcrit.obj
 0001:00079bd8       ___crtInitCritSecAndSpinCount 1007abd8 f   LIBCMT:initcrit.obj
 0001:00079c40       _memmove                   1007ac40 f   LIBCMT:memmove.obj
 0001:00079fa5       @__security_check_cookie@4 1007afa5 f   LIBCMT:secchk.obj
 0001:00079fb4       __local_unwind4            1007afb4 f   LIBCMT:exsup4.obj
 0001:0007a08a       __seh_longjmp_unwind4@4    1007b08a f   LIBCMT:exsup4.obj
 0001:0007a0a6       @_EH4_CallFilterFunc@8     1007b0a6 f   LIBCMT:exsup4.obj
 0001:0007a0bd       @_EH4_TransferToHandler@8  1007b0bd f   LIBCMT:exsup4.obj
 0001:0007a0d6       @_EH4_GlobalUnwind@4       1007b0d6 f   LIBCMT:exsup4.obj
 0001:0007a0f0       @_EH4_LocalUnwind@16       1007b0f0 f   LIBCMT:exsup4.obj
 0001:0007a107       __initp_misc_cfltcvt_tab   1007b107 f   LIBCMT:cmiscdat.obj
 0001:0007a128       ?terminate@@YAXXZ          1007b128 f   LIBCMT:hooks.obj
 0001:0007a161       __initp_eh_hooks           1007b161 f   LIBCMT:hooks.obj
 0001:0007a172       __initp_misc_rand_s        1007b172 f   LIBCMT:rand_s.obj
 0001:0007a181       ___crtMessageBoxA          1007b181 f   LIBCMT:crtmbox.obj
 0001:0007a2ea       _strcat_s                  1007b2ea f   LIBCMT:strcat_s.obj
 0001:0007a35e       _strncpy_s                 1007b35e f   LIBCMT:strncpy_s.obj
 0001:0007a420       _strlen                    1007b420 f   LIBCMT:strlen.obj
 0001:0007a4ab       _strcpy_s                  1007b4ab f   LIBCMT:strcpy_s.obj
 0001:0007a513       __set_error_mode           1007b513 f   LIBCMT:errmode.obj
 0001:0007a55e       ___freetlocinfo            1007b55e f   LIBCMT:setlocal.obj
 0001:0007a6a7       ___addlocaleref            1007b6a7 f   LIBCMT:setlocal.obj
 0001:0007a736       ___removelocaleref         1007b736 f   LIBCMT:setlocal.obj
 0001:0007a80d       ___updatetlocinfo          1007b80d f   LIBCMT:setlocal.obj
 0001:0007aaa9       ___updatetmbcinfo          1007baa9 f   LIBCMT:mbctype.obj
 0001:0007abc9       __setmbcp_nolock           1007bbc9 f   LIBCMT:mbctype.obj
 0001:0007adae       __setmbcp                  1007bdae f   LIBCMT:mbctype.obj
 0001:0007af48       ___initmbctable            1007bf48 f   LIBCMT:mbctype.obj
 0001:0007af66       __calloc_impl              1007bf66 f   LIBCMT:calloc_impl.obj
 0001:0007b084       _realloc                   1007c084 f   LIBCMT:realloc.obj
 0001:0007b2f2       __ismbblead                1007c2f2 f   LIBCMT:ismbbyte.obj
 0001:0007b310       _memcpy                    1007c310 f   LIBCMT:memcpy.obj
 0001:0007b675       __lseeki64_nolock          1007c675 f   LIBCMT:lseeki64.obj
 0001:0007b6fa       __lseeki64                 1007c6fa f   LIBCMT:lseeki64.obj
 0001:0007b813       __write_nolock             1007c813 f   LIBCMT:write.obj
 0001:0007bf46       __write                    1007cf46 f   LIBCMT:write.obj
 0001:0007c022       __getbuf                   1007d022 f   LIBCMT:_getbuf.obj
 0001:0007c06b       __isatty                   1007d06b f   LIBCMT:isatty.obj
 0001:0007c0cf       ___iob_func                1007d0cf f   LIBCMT:_file.obj
 0001:0007c0d5       ___initstdio               1007d0d5 f   LIBCMT:_file.obj
 0001:0007c186       ___endstdio                1007d186 f   LIBCMT:_file.obj
 0001:0007c1a6       __lock_file                1007d1a6 f   LIBCMT:_file.obj
 0001:0007c1e7       __lock_file2               1007d1e7 f   LIBCMT:_file.obj
 0001:0007c219       __unlock_file              1007d219 f   LIBCMT:_file.obj
 0001:0007c255       __unlock_file2             1007d255 f   LIBCMT:_file.obj
 0001:0007c284       __fileno                   1007d284 f   LIBCMT:fileno.obj
 0001:0007c2b6       __get_printf_count_output  1007d2b6 f   LIBCMT:printf.obj
 0001:0007c2cc       __wctomb_s_l               1007d2cc f   LIBCMT:wctomb.obj
 0001:0007c438       _wctomb_s                  1007d438 f   LIBCMT:wctomb.obj
 0001:0007c455       __isleadbyte_l             1007d455 f i LIBCMT:_wctype.obj
 0001:0007c48d       _isleadbyte                1007d48d f i LIBCMT:_wctype.obj
 0001:0007c4a0       __aulldvrm                 1007d4a0 f   LIBCMT:ulldvrm.obj
 0001:0007c535       __crt_debugger_hook        1007d535 f   LIBCMT:dbghook.obj
 0001:0007c540       _memset                    1007d540 f   LIBCMT:memset.obj
 0001:0007c5ba       __isdigit_l                1007d5ba f i LIBCMT:_ctype.obj
 0001:0007c60b       _isdigit                   1007d60b f i LIBCMT:_ctype.obj
 0001:0007c639       __freea                    1007d639 f i LIBCMT:a_loc.obj
 0001:0007c659       __forcdecpt_l              1007d659 f   LIBCMT:cvt.obj
 0001:0007c6cc       __cropzeros_l              1007d6cc f   LIBCMT:cvt.obj
 0001:0007c74e       __positive                 1007d74e f   LIBCMT:cvt.obj
 0001:0007c76a       __fassign_l                1007d76a f   LIBCMT:cvt.obj
 0001:0007c7ac       __fassign                  1007d7ac f   LIBCMT:cvt.obj
 0001:0007c7e5       __forcdecpt                1007d7e5 f   LIBCMT:cvt.obj
 0001:0007c7f8       __cropzeros                1007d7f8 f   LIBCMT:cvt.obj
 0001:0007c97a       __cftoe_l                  1007d97a f   LIBCMT:cvt.obj
 0001:0007ca4a       __cftoe                    1007da4a f   LIBCMT:cvt.obj
 0001:0007ca6a       __cftoa_l                  1007da6a f   LIBCMT:cvt.obj
 0001:0007ced4       __cftof_l                  1007ded4 f   LIBCMT:cvt.obj
 0001:0007cf8f       __cftog_l                  1007df8f f   LIBCMT:cvt.obj
 0001:0007d089       __cfltcvt_l                1007e089 f   LIBCMT:cvt.obj
 0001:0007d111       __cfltcvt                  1007e111 f   LIBCMT:cvt.obj
 0001:0007d134       __ms_p5_test_fdiv          1007e134 f   LIBCMT:_testfdiv_.obj
 0001:0007d172       __ms_p5_mp_test_fdiv       1007e172 f   LIBCMT:_testfdiv_.obj
 0001:0007d222       __VEC_memcpy               1007e222 f   LIBCMT:p4_memcpy.obj
 0001:0007d305       ___report_gsfailure        1007e305 f   LIBCMT:gs_report.obj
 0001:0007d40c       __global_unwind2           1007e40c f   LIBCMT:exsup.obj
 0001:0007d471       __local_unwind2            1007e471 f   LIBCMT:exsup.obj
 0001:0007d4f5       __abnormal_termination     1007e4f5 f   LIBCMT:exsup.obj
 0001:0007d518       __NLG_Notify1              1007e518 f   LIBCMT:exsup.obj
 0001:0007d521       __NLG_Notify               1007e521 f   LIBCMT:exsup.obj
 0001:0007d538       __NLG_Dispatch             1007e538     LIBCMT:exsup.obj
 0001:0007d538       __NLG_Dispatch2            1007e538     LIBCMT:exsup.obj
 0001:0007d540       __NLG_Call                 1007e540 f   LIBCMT:exsup.obj
 0001:0007d542       __NLG_Return2              1007e542     LIBCMT:exsup.obj
 0001:0007d543       __fptrap                   1007e543 f   LIBCMT:crt0fp.obj
 0001:0007d54c       ___free_lc_time            1007e54c f   LIBCMT:inittime.obj
 0001:0007d6e1       ___free_lconv_num          1007e6e1 f   LIBCMT:initnum.obj
 0001:0007d726       ___free_lconv_mon          1007e726 f   LIBCMT:initmon.obj
 0001:0007d7c0       _strcspn                   1007e7c0 f   LIBCMT:strcspn.obj
 0001:0007d810       _strcmp                    1007e810 f   LIBCMT:strcmp.obj
 0001:0007da52       ___crtGetStringTypeA       1007ea52 f   LIBCMT:a_str.obj
 0001:0007daa0       _strpbrk                   1007eaa0 f   LIBCMT:strpbrk.obj
 0001:0007de85       ___crtLCMapStringA         1007ee85 f   LIBCMT:a_map.obj
 0001:0007deca       __free_osfhnd              1007eeca f   LIBCMT:osfinfo.obj
 0001:0007df50       __get_osfhandle            1007ef50 f   LIBCMT:osfinfo.obj
 0001:0007dfc7       ___lock_fhandle            1007efc7 f   LIBCMT:osfinfo.obj
 0001:0007e067       __unlock_fhandle           1007f067 f   LIBCMT:osfinfo.obj
 0001:0007e08e       __putwch_nolock            1007f08e f   LIBCMT:putwch.obj
 0001:0007e153       __mbtowc_l                 1007f153 f   LIBCMT:mbtowc.obj
 0001:0007e26a       _mbtowc                    1007f26a f   LIBCMT:mbtowc.obj
 0001:0007e290       __alloca_probe             1007f290     LIBCMT:chkstk.obj
 0001:0007e290       __chkstk                   1007f290 f   LIBCMT:chkstk.obj
 0001:0007e2bb       __fcloseall                1007f2bb f   LIBCMT:closeall.obj
 0001:0007e35a       __flush                    1007f35a f   LIBCMT:fflush.obj
 0001:0007e3c2       __fflush_nolock            1007f3c2 f   LIBCMT:fflush.obj
 0001:0007e4e4       __flushall                 1007f4e4 f   LIBCMT:fflush.obj
 0001:0007e544       __VEC_memzero              1007f544 f   LIBCMT:p4_memset.obj
 0001:0007e802       _strtol                    1007f802 f   LIBCMT:strtol.obj
 0001:0007e82d       __isctype_l                1007f82d f   LIBCMT:isctype.obj
 0001:0007e8f0       __alloca_probe_16          1007f8f0 f   LIBCMT:alloca16.obj
 0001:0007e906       __alloca_probe_8           1007f906     LIBCMT:alloca16.obj
 0001:0007e920       _strrchr                   1007f920 f   LIBCMT:strrchr.obj
 0001:0007e94d       __tolower_l                1007f94d f   LIBCMT:tolower.obj
 0001:0007ea62       _tolower                   1007fa62 f   LIBCMT:tolower.obj
 0001:0007ea8e       __atodbl_l                 1007fa8e f   LIBCMT:atodbl.obj
 0001:0007eb36       __atoflt_l                 1007fb36 f   LIBCMT:atodbl.obj
 0001:0007ebde       __fptostr                  1007fbde f   LIBCMT:_fptostr.obj
 0001:0007ec9d       ___dtold                   1007fc9d f   LIBCMT:_cfout_.obj
 0001:0007ed5a       __fltout2                  1007fd5a f   LIBCMT:_cfout_.obj
 0001:0007edf0       __alldvrm                  1007fdf0 f   LIBCMT:lldvrm.obj
 0001:0007eed0       __aullshr                  1007fed0 f   LIBCMT:ullshr.obj
 0001:0007eeef       _atol                      1007feef f   LIBCMT:atox.obj
 0001:0007ef05       ___ansicp                  1007ff05 f   LIBCMT:convrtcp.obj
 0001:0007ef4e       ___convertcp               1007ff4e f   LIBCMT:convrtcp.obj
 0001:0007f102       ___initconout              10080102 f   LIBCMT:initcon.obj
 0001:0007f121       ___termcon                 10080121 f   LIBCMT:initcon.obj
 0001:0007f14e       __fclose_nolock            1008014e f   LIBCMT:fclose.obj
 0001:0007f1c5       _fclose                    100801c5 f   LIBCMT:fclose.obj
 0001:0007f241       __commit                   10080241 f   LIBCMT:commit.obj
 0001:0007f322       __ld12tod                  10080322 f   LIBCMT:_intrncvt_.obj
 0001:0007f866       __ld12tof                  10080866 f   LIBCMT:_intrncvt_.obj
 0001:0007fdaa       ___strgtold12_l            10080daa f   LIBCMT:_strgtold_.obj
 0001:000804a2       _$I10_OUTPUT               100814a2 f   LIBCMT:_x10fout_.obj
 0001:00080dd0       ___ascii_strnicmp          10081dd0 f   LIBCMT:_strnicm.obj
 0001:00080e31       __close_nolock             10081e31 f   LIBCMT:close.obj
 0001:00080ecd       __close                    10081ecd f   LIBCMT:close.obj
 0001:00080f9a       __freebuf                  10081f9a f   LIBCMT:_freebuf.obj
 0001:00080fcb       ___mtold12                 10081fcb f   LIBCMT:_mantold_.obj
 0001:000811a0       __allmul                   100821a0 f   LIBCMT:llmul.obj
 0001:000811f0       _strchr                    100821f0 f   LIBCMT:strchr.obj
 0001:000811f6       ___from_strstr_to_strchr   100821f6     LIBCMT:strchr.obj
 0001:000812ae       _RtlUnwind@16              100822ae f   kernel32:KERNEL32.dll
 0001:000812c0       __CIsqrt                   100822c0 f   LIBCMT:_sqrt_.obj
 0001:000812d4       _sqrt                      100822d4     LIBCMT:_sqrt_.obj
 0001:00081380       __ftol2_sse                10082380 f   LIBCMT:ftol2.obj
 0001:00081389       __ftol2_pentium4           10082389 f   LIBCMT:ftol2.obj
 0001:0008139c       __ftol2_sse_excpt          1008239c f   LIBCMT:ftol2.obj
 0001:000813b6       __ftol2                    100823b6 f   LIBCMT:ftol2.obj
 0001:00081430       _pow                       10082430 f   LIBCMT:_pow_.obj
 0001:00081470       __CIpow                    10082470 f   LIBCMT:_pow_.obj
 0001:000814ab       __CIpow_default            100824ab f   LIBCMT:_pow_.obj
 0001:000814c4       __pow_default              100824c4     LIBCMT:_pow_.obj
 0001:000816c0       _log                       100826c0 f   LIBCMT:_log_.obj
 0001:00081700       __CIlog                    10082700 f   LIBCMT:_log_.obj
 0001:0008173b       __CIlog_default            1008273b f   LIBCMT:_log_.obj
 0001:0008174f       __log_default              1008274f     LIBCMT:_log_.obj
 0001:00081810       __trandisp1                10082810 f   LIBCMT:_87disp_.obj
 0001:00081877       __trandisp2                10082877 f   LIBCMT:_87disp_.obj
 0001:00081903       __rttospopde               10082903     LIBCMT:_87disp_.obj
 0001:00081908       __rttospop                 10082908     LIBCMT:_87disp_.obj
 0001:0008190a       __rtnospop                 1008290a     LIBCMT:_87disp_.obj
 0001:0008190c       __rttosnpop                1008290c     LIBCMT:_87disp_.obj
 0001:0008190d       __rtnospopde               1008290d     LIBCMT:_87disp_.obj
 0001:00081914       __rtzeropop                10082914     LIBCMT:_87disp_.obj
 0001:00081916       __rtzeronpop               10082916     LIBCMT:_87disp_.obj
 0001:0008191b       __rtonepop                 1008291b     LIBCMT:_87disp_.obj
 0001:0008191d       __rtonenpop                1008291d     LIBCMT:_87disp_.obj
 0001:00081922       __tosnan1                  10082922     LIBCMT:_87disp_.obj
 0001:0008194d       __nosnan2                  1008294d     LIBCMT:_87disp_.obj
 0001:0008194f       __tosnan2                  1008294f     LIBCMT:_87disp_.obj
 0001:00081977       __nan2                     10082977     LIBCMT:_87disp_.obj
 0001:000819b6       __rtindfpop                100829b6     LIBCMT:_87disp_.obj
 0001:000819b8       __rtindfnpop               100829b8     LIBCMT:_87disp_.obj
 0001:000819c9       __rttosnpopde              100829c9     LIBCMT:_87disp_.obj
 0001:000819d3       __rtchsifneg               100829d3     LIBCMT:_87disp_.obj
 0001:000819e0       __startTwoArgErrorHandling 100829e0 f   LIBCMT:_genexcep_.obj
 0001:000819f7       __startOneArgErrorHandling 100829f7 f   LIBCMT:_genexcep_.obj
 0001:00081a40       __twoToTOS                 10082a40 f   LIBCMT:_common_.obj
 0001:00081a55       __load_CW                  10082a55 f   LIBCMT:_common_.obj
 0001:00081a6c       __convertTOStoQNaN         10082a6c f   LIBCMT:_common_.obj
 0001:00081a85       __fload_withFB             10082a85 f   LIBCMT:_common_.obj
 0001:00081ac8       __checkTOS_withFB          10082ac8 f   LIBCMT:_common_.obj
 0001:00081ade       __fast_exit                10082ade f   LIBCMT:_common_.obj
 0001:00081aeb       __math_exit                10082aeb f   LIBCMT:_common_.obj
 0001:00081b15       __check_overflow_exit      10082b15 f   LIBCMT:_common_.obj
 0001:00081b29       __check_range_exit         10082b29 f   LIBCMT:_common_.obj
 0001:00081bd0       __CIpow_pentium4           10082bd0 f   LIBCMT:_pow_pentium4_.obj
 0001:00081be9       __pow_pentium4             10082be9     LIBCMT:_pow_pentium4_.obj
 0001:00082741       __fFEXP                    10083741     LIBCMT:_87tran_.obj
 0001:000827a8       __rtinfpopse               100837a8     LIBCMT:_87tran_.obj
 0001:000827aa       __rtinfnpopse              100837aa     LIBCMT:_87tran_.obj
 0001:000827ba       __fFLN                     100837ba     LIBCMT:_87tran_.obj
 0001:0008286f       __rtinfpop                 1008386f     LIBCMT:_87tran_.obj
 0001:00082871       __rtinfnpop                10083871     LIBCMT:_87tran_.obj
 0001:0008288e       __ffexpm1                  1008388e     LIBCMT:_87tran_.obj
 0001:00082937       __d_inttype                10083937 f   LIBCMT:_powhlp_.obj
 0001:0008299d       __powhlp                   1008399d f   LIBCMT:_powhlp_.obj
 0001:00082ae0       __CIlog_pentium4           10083ae0 f   LIBCMT:_log_pentium4_.obj
 0001:00082af8       __log_pentium4             10083af8     LIBCMT:_log_pentium4_.obj
 0001:00082d50       __87except                 10083d50 f   LIBCMT:_87except_.obj
 0001:00082e90       _fdiv_main_routine         10083e90 f   LIBCMT:_adj_fdiv_.obj
 0001:00082fa7       __adj_fdiv_r               10083fa7 f   LIBCMT:_adj_fdiv_.obj
 0001:00083446       __fdivp_sti_st             10084446 f   LIBCMT:_adj_fdiv_.obj
 0001:00083459       __fdivrp_sti_st            10084459 f   LIBCMT:_adj_fdiv_.obj
 0001:0008346c       __adj_fdiv_m32             1008446c f   LIBCMT:_adj_fdiv_.obj
 0001:000834b8       __adj_fdiv_m64             100844b8 f   LIBCMT:_adj_fdiv_.obj
 0001:00083504       __adj_fdiv_m16i            10084504 f   LIBCMT:_adj_fdiv_.obj
 0001:00083538       __adj_fdiv_m32i            10084538 f   LIBCMT:_adj_fdiv_.obj
 0001:0008356c       __adj_fdivr_m32            1008456c f   LIBCMT:_adj_fdiv_.obj
 0001:000835b8       __adj_fdivr_m64            100845b8 f   LIBCMT:_adj_fdiv_.obj
 0001:00083604       __adj_fdivr_m16i           10084604 f   LIBCMT:_adj_fdiv_.obj
 0001:00083638       __adj_fdivr_m32i           10084638 f   LIBCMT:_adj_fdiv_.obj
 0001:0008366c       __safe_fdiv                1008466c f   LIBCMT:_adj_fdiv_.obj
 0001:00083681       __safe_fdivr               10084681 f   LIBCMT:_adj_fdiv_.obj
 0001:00083696       __fprem_common             10084696 f   LIBCMT:_adj_fdiv_.obj
 0001:0008389c       __adj_fprem                1008489c f   LIBCMT:_adj_fdiv_.obj
 0001:0008394e       __fprem1_common            1008494e f   LIBCMT:_adj_fdiv_.obj
 0001:00083b54       __adj_fprem1               10084b54 f   LIBCMT:_adj_fdiv_.obj
 0001:00083c09       __safe_fprem               10084c09 f   LIBCMT:_adj_fdiv_.obj
 0001:00083c0f       __safe_fprem1              10084c0f f   LIBCMT:_adj_fdiv_.obj
 0001:00083c15       __adj_fpatan               10084c15 f   LIBCMT:_adj_fdiv_.obj
 0001:00083c18       __adj_fptan                10084c18 f   LIBCMT:_adj_fdiv_.obj
 0001:00083c1b       __fpclass                  10084c1b f   LIBCMT:_ieeemisc_.obj
 0002:00000000       __imp__InterlockedExchangeAdd@8 10085000     kernel32:KERNEL32.dll
 0002:00000004       __imp__Sleep@4             10085004     kernel32:KERNEL32.dll
 0002:00000008       __imp__InterlockedExchange@8 10085008     kernel32:KERNEL32.dll
 0002:0000000c       __imp__InterlockedIncrement@4 1008500c     kernel32:KERNEL32.dll
 0002:00000010       __imp__InterlockedDecrement@4 10085010     kernel32:KERNEL32.dll
 0002:00000014       __imp__GetSystemInfo@4     10085014     kernel32:KERNEL32.dll
 0002:00000018       __imp__CreateSemaphoreA@16 10085018     kernel32:KERNEL32.dll
 0002:0000001c       __imp__CreateEventA@16     1008501c     kernel32:KERNEL32.dll
 0002:00000020       __imp__InitializeCriticalSection@4 10085020     kernel32:KERNEL32.dll
 0002:00000024       __imp__SetEvent@4          10085024     kernel32:KERNEL32.dll
 0002:00000028       __imp__DeleteCriticalSection@4 10085028     kernel32:KERNEL32.dll
 0002:0000002c       __imp__WaitForMultipleObjects@16 1008502c     kernel32:KERNEL32.dll
 0002:00000030       __imp__CloseHandle@4       10085030     kernel32:KERNEL32.dll
 0002:00000034       __imp__WaitForSingleObject@8 10085034     kernel32:KERNEL32.dll
 0002:00000038       __imp__EnterCriticalSection@4 10085038     kernel32:KERNEL32.dll
 0002:0000003c       __imp__ReleaseSemaphore@12 1008503c     kernel32:KERNEL32.dll
 0002:00000040       __imp__LeaveCriticalSection@4 10085040     kernel32:KERNEL32.dll
 0002:00000044       __imp__GetLastError@0      10085044     kernel32:KERNEL32.dll
 0002:00000048       __imp__HeapFree@12         10085048     kernel32:KERNEL32.dll
 0002:0000004c       __imp__HeapAlloc@12        1008504c     kernel32:KERNEL32.dll
 0002:00000050       __imp__GetCurrentThreadId@0 10085050     kernel32:KERNEL32.dll
 0002:00000054       __imp__GetCommandLineA@0   10085054     kernel32:KERNEL32.dll
 0002:00000058       __imp__ExitThread@4        10085058     kernel32:KERNEL32.dll
 0002:0000005c       __imp__CreateThread@24     1008505c     kernel32:KERNEL32.dll
 0002:00000060       __imp__HeapCreate@12       10085060     kernel32:KERNEL32.dll
 0002:00000064       __imp__HeapDestroy@4       10085064     kernel32:KERNEL32.dll
 0002:00000068       __imp__VirtualFree@12      10085068     kernel32:KERNEL32.dll
 0002:0000006c       __imp__VirtualAlloc@16     1008506c     kernel32:KERNEL32.dll
 0002:00000070       __imp__HeapReAlloc@16      10085070     kernel32:KERNEL32.dll
 0002:00000074       __imp__GetModuleHandleW@4  10085074     kernel32:KERNEL32.dll
 0002:00000078       __imp__GetProcAddress@8    10085078     kernel32:KERNEL32.dll
 0002:0000007c       __imp__ExitProcess@4       1008507c     kernel32:KERNEL32.dll
 0002:00000080       __imp__WriteFile@20        10085080     kernel32:KERNEL32.dll
 0002:00000084       __imp__GetStdHandle@4      10085084     kernel32:KERNEL32.dll
 0002:00000088       __imp__GetModuleFileNameA@12 10085088     kernel32:KERNEL32.dll
 0002:0000008c       __imp__TlsGetValue@4       1008508c     kernel32:KERNEL32.dll
 0002:00000090       __imp__TlsAlloc@0          10085090     kernel32:KERNEL32.dll
 0002:00000094       __imp__TlsSetValue@8       10085094     kernel32:KERNEL32.dll
 0002:00000098       __imp__TlsFree@4           10085098     kernel32:KERNEL32.dll
 0002:0000009c       __imp__SetLastError@4      1008509c     kernel32:KERNEL32.dll
 0002:000000a0       __imp__SetHandleCount@4    100850a0     kernel32:KERNEL32.dll
 0002:000000a4       __imp__GetFileType@4       100850a4     kernel32:KERNEL32.dll
 0002:000000a8       __imp__GetStartupInfoA@4   100850a8     kernel32:KERNEL32.dll
 0002:000000ac       __imp__FreeEnvironmentStringsA@4 100850ac     kernel32:KERNEL32.dll
 0002:000000b0       __imp__GetEnvironmentStrings@0 100850b0     kernel32:KERNEL32.dll
 0002:000000b4       __imp__FreeEnvironmentStringsW@4 100850b4     kernel32:KERNEL32.dll
 0002:000000b8       __imp__WideCharToMultiByte@32 100850b8     kernel32:KERNEL32.dll
 0002:000000bc       __imp__GetEnvironmentStringsW@0 100850bc     kernel32:KERNEL32.dll
 0002:000000c0       __imp__QueryPerformanceCounter@4 100850c0     kernel32:KERNEL32.dll
 0002:000000c4       __imp__GetTickCount@0      100850c4     kernel32:KERNEL32.dll
 0002:000000c8       __imp__GetCurrentProcessId@0 100850c8     kernel32:KERNEL32.dll
 0002:000000cc       __imp__GetSystemTimeAsFileTime@4 100850cc     kernel32:KERNEL32.dll
 0002:000000d0       __imp__TerminateProcess@8  100850d0     kernel32:KERNEL32.dll
 0002:000000d4       __imp__GetCurrentProcess@0 100850d4     kernel32:KERNEL32.dll
 0002:000000d8       __imp__UnhandledExceptionFilter@4 100850d8     kernel32:KERNEL32.dll
 0002:000000dc       __imp__SetUnhandledExceptionFilter@4 100850dc     kernel32:KERNEL32.dll
 0002:000000e0       __imp__IsDebuggerPresent@0 100850e0     kernel32:KERNEL32.dll
 0002:000000e4       __imp__HeapSize@12         100850e4     kernel32:KERNEL32.dll
 0002:000000e8       __imp__RaiseException@16   100850e8     kernel32:KERNEL32.dll
 0002:000000ec       __imp__InitializeCriticalSectionAndSpinCount@8 100850ec     kernel32:KERNEL32.dll
 0002:000000f0       __imp__RtlUnwind@16        100850f0     kernel32:KERNEL32.dll
 0002:000000f4       __imp__LoadLibraryA@4      100850f4     kernel32:KERNEL32.dll
 0002:000000f8       __imp__GetCPInfo@8         100850f8     kernel32:KERNEL32.dll
 0002:000000fc       __imp__GetACP@0            100850fc     kernel32:KERNEL32.dll
 0002:00000100       __imp__GetOEMCP@0          10085100     kernel32:KERNEL32.dll
 0002:00000104       __imp__IsValidCodePage@4   10085104     kernel32:KERNEL32.dll
 0002:00000108       __imp__SetFilePointer@16   10085108     kernel32:KERNEL32.dll
 0002:0000010c       __imp__GetConsoleCP@0      1008510c     kernel32:KERNEL32.dll
 0002:00000110       __imp__GetConsoleMode@8    10085110     kernel32:KERNEL32.dll
 0002:00000114       __imp__GetLocaleInfoA@16   10085114     kernel32:KERNEL32.dll
 0002:00000118       __imp__GetModuleHandleA@4  10085118     kernel32:KERNEL32.dll
 0002:0000011c       __imp__GetStringTypeA@20   1008511c     kernel32:KERNEL32.dll
 0002:00000120       __imp__MultiByteToWideChar@24 10085120     kernel32:KERNEL32.dll
 0002:00000124       __imp__GetStringTypeW@16   10085124     kernel32:KERNEL32.dll
 0002:00000128       __imp__LCMapStringA@24     10085128     kernel32:KERNEL32.dll
 0002:0000012c       __imp__LCMapStringW@24     1008512c     kernel32:KERNEL32.dll
 0002:00000130       __imp__SetStdHandle@8      10085130     kernel32:KERNEL32.dll
 0002:00000134       __imp__WriteConsoleA@20    10085134     kernel32:KERNEL32.dll
 0002:00000138       __imp__GetConsoleOutputCP@0 10085138     kernel32:KERNEL32.dll
 0002:0000013c       __imp__WriteConsoleW@20    1008513c     kernel32:KERNEL32.dll
 0002:00000140       __imp__CreateFileA@28      10085140     kernel32:KERNEL32.dll
 0002:00000144       __imp__FlushFileBuffers@4  10085144     kernel32:KERNEL32.dll
 0002:00000148       \177KERNEL32_NULL_THUNK_DATA 10085148     kernel32:KERNEL32.dll
 0002:0000014c       ___xc_a                    1008514c     LIBCMT:crt0init.obj
 0002:00000160       ___xc_z                    10085160     LIBCMT:crt0init.obj
 0002:00000164       ___xi_a                    10085164     LIBCMT:crt0init.obj
 0002:0000017c       ___xi_z                    1008517c     LIBCMT:crt0init.obj
 0002:00000180       ___xp_a                    10085180     LIBCMT:crt0init.obj
 0002:0000018c       ___xp_z                    1008518c     LIBCMT:crt0init.obj
 0002:00000190       ___xt_a                    10085190     LIBCMT:crt0init.obj
 0002:00000194       ___xt_z                    10085194     LIBCMT:crt0init.obj
 0002:00000208       __pDefaultRawDllMain       10085208     LIBCMT:dllcrt0.obj
 0002:00000208       __pRawDllMain              10085208     LIBCMT:dllcrt0.obj
 0002:00000278       ??_C@_03IIINPABG@tan?$AA@  10085278     LIBCMT:_libm_error_.obj
 0002:0000027c       ??_C@_03LALBNOCG@cos?$AA@  1008527c     LIBCMT:_libm_error_.obj
 0002:00000280       ??_C@_03BLEJJJBH@sin?$AA@  10085280     LIBCMT:_libm_error_.obj
 0002:00000284       ??_C@_04EHEDPDJG@modf?$AA@ 10085284     LIBCMT:_libm_error_.obj
 0002:0000028c       ??_C@_05PBJFFIGL@floor?$AA@ 1008528c     LIBCMT:_libm_error_.obj
 0002:00000294       ??_C@_04GFPJNGEK@ceil?$AA@ 10085294     LIBCMT:_libm_error_.obj
 0002:0000029c       ??_C@_04MLLJIGOK@atan?$AA@ 1008529c     LIBCMT:_libm_error_.obj
 0002:000002a4       ??_C@_05EOHGHCHD@exp10?$AA@ 100852a4     LIBCMT:_libm_error_.obj
 0002:000002ac       ??_C@_04PDIFKINK@acos?$AA@ 100852ac     LIBCMT:_libm_error_.obj
 0002:000002b4       ??_C@_04FIHNOPOL@asin?$AA@ 100852b4     LIBCMT:_libm_error_.obj
 0002:000002bc       ??_C@_03MGHMBJCF@log?$AA@  100852bc     LIBCMT:_libm_error_.obj
 0002:000002c0       ??_C@_05HGHHAHAP@log10?$AA@ 100852c0     LIBCMT:_libm_error_.obj
 0002:000002c8       ??_C@_03KHJOGHMM@exp?$AA@  100852c8     LIBCMT:_libm_error_.obj
 0002:000002cc       ??_C@_03JGHBODFD@pow?$AA@  100852cc     LIBCMT:_libm_error_.obj
 0002:000002d0       ??_C@_0P@MIGLKIOC@CorExitProcess?$AA@ 100852d0     LIBCMT:crt0dat.obj
 0002:000002e0       ??_C@_1BI@BGOHAHKC@?$AAm?$AAs?$AAc?$AAo?$AAr?$AAe?$AAe?$AA?4?$AAd?$AAl?$AAl?$AA?$AA@ 100852e0     LIBCMT:crt0dat.obj
 0002:000002f8       ??_C@_0P@GGKDKEEG@runtime?5error?5?$AA@ 100852f8     LIBCMT:crt0msg.obj
 0002:00000308       ??_C@_02PCIJFNDE@?$AN?6?$AA@ 10085308     LIBCMT:crt0msg.obj
 0002:0000030c       ??_C@_0O@MJNIPGOH@TLOSS?5error?$AN?6?$AA@ 1008530c     LIBCMT:crt0msg.obj
 0002:0000031c       ??_C@_0N@BONNPDHF@SING?5error?$AN?6?$AA@ 1008531c     LIBCMT:crt0msg.obj
 0002:0000032c       ??_C@_0P@MBDAJNE@DOMAIN?5error?$AN?6?$AA@ 1008532c     LIBCMT:crt0msg.obj
 0002:00000340       ??_C@_0JL@DFDOOABL@R6034?$AN?6An?5application?5has?5made?5a@ 10085340     LIBCMT:crt0msg.obj
 0002:000003e0       ??_C@_0PH@EPAFIJ@R6033?$AN?6?9?5Attempt?5to?5use?5MSIL?5cod@ 100853e0     LIBCMT:crt0msg.obj
 0002:000004d8       ??_C@_0DD@BKEEABMM@R6032?$AN?6?9?5not?5enough?5space?5for?5lo@ 100854d8     LIBCMT:crt0msg.obj
 0002:00000510       ??_C@_0GD@OFKILIED@R6031?$AN?6?9?5Attempt?5to?5initialize?5t@ 10085510     LIBCMT:crt0msg.obj
 0002:00000574       ??_C@_0BP@LPMHJOKI@R6030?$AN?6?9?5CRT?5not?5initialized?$AN?6?$AA@ 10085574     LIBCMT:crt0msg.obj
 0002:00000594       ??_C@_0CF@KJDAIALP@R6028?$AN?6?9?5unable?5to?5initialize?5he@ 10085594     LIBCMT:crt0msg.obj
 0002:000005bc       ??_C@_0DF@GAKBPDFP@R6027?$AN?6?9?5not?5enough?5space?5for?5lo@ 100855bc     LIBCMT:crt0msg.obj
 0002:000005f4       ??_C@_0DF@IBLNNAIG@R6026?$AN?6?9?5not?5enough?5space?5for?5st@ 100855f4     LIBCMT:crt0msg.obj
 0002:0000062c       ??_C@_0CG@IOHKGFNJ@R6025?$AN?6?9?5pure?5virtual?5function?5c@ 1008562c     LIBCMT:crt0msg.obj
 0002:00000654       ??_C@_0DF@JIJJFJDC@R6024?$AN?6?9?5not?5enough?5space?5for?5_o@ 10085654     LIBCMT:crt0msg.obj
 0002:0000068c       ??_C@_0CJ@EGEJHFME@R6019?$AN?6?9?5unable?5to?5open?5console?5@ 1008568c     LIBCMT:crt0msg.obj
 0002:000006b8       ??_C@_0CB@GNHNIELH@R6018?$AN?6?9?5unexpected?5heap?5error?$AN?6@ 100856b8     LIBCMT:crt0msg.obj
 0002:000006dc       ??_C@_0CN@FOLDKNG@R6017?$AN?6?9?5unexpected?5multithread?5@ 100856dc     LIBCMT:crt0msg.obj
 0002:0000070c       ??_C@_0CM@FAHFJNHO@R6016?$AN?6?9?5not?5enough?5space?5for?5th@ 1008570c     LIBCMT:crt0msg.obj
 0002:00000738       ??_C@_0JG@LBKMGKLD@?$AN?6This?5application?5has?5requested@ 10085738     LIBCMT:crt0msg.obj
 0002:000007d0       ??_C@_0CM@FLCNIPKK@R6009?$AN?6?9?5not?5enough?5space?5for?5en@ 100857d0     LIBCMT:crt0msg.obj
 0002:000007fc       ??_C@_0CK@KMMJOAPP@R6008?$AN?6?9?5not?5enough?5space?5for?5ar@ 100857fc     LIBCMT:crt0msg.obj
 0002:00000828       ??_C@_0CN@LEKKICBM@R6002?$AN?6?9?5floating?5point?5support?5@ 10085828     LIBCMT:crt0msg.obj
 0002:00000858       ??_C@_0CF@GOGNBNAK@Microsoft?5Visual?5C?$CL?$CL?5Runtime?5Lib@ 10085858     LIBCMT:crt0msg.obj
 0002:00000880       ??_C@_02PHMGELLB@?6?6?$AA@ 10085880     LIBCMT:crt0msg.obj
 0002:00000884       ??_C@_03KHICJKCI@?4?4?4?$AA@ 10085884     LIBCMT:crt0msg.obj
 0002:00000888       ??_C@_0BH@DNAGHKFM@?$DMprogram?5name?5unknown?$DO?$AA@ 10085888     LIBCMT:crt0msg.obj
 0002:000008a0       ??_C@_0BK@OFGJDLJJ@Runtime?5Error?$CB?6?6Program?3?5?$AA@ 100858a0     LIBCMT:crt0msg.obj
 0002:000008bc       ??_C@_0O@NLDKAIKN@EncodePointer?$AA@ 100858bc     LIBCMT:tidtable.obj
 0002:000008cc       ??_C@_1BK@DBDEIDLH@?$AAK?$AAE?$AAR?$AAN?$AAE?$AAL?$AA3?$AA2?$AA?4?$AAD?$AAL?$AAL?$AA?$AA@ 100858cc     LIBCMT:tidtable.obj
 0002:000008e8       ??_C@_0O@KBPMFGHI@DecodePointer?$AA@ 100858e8     LIBCMT:tidtable.obj
 0002:000008f8       ??_C@_07PEJMOBNF@FlsFree?$AA@ 100858f8     LIBCMT:tidtable.obj
 0002:00000900       ??_C@_0M@JCPCPOEF@FlsSetValue?$AA@ 10085900     LIBCMT:tidtable.obj
 0002:0000090c       ??_C@_0M@GDNOONDI@FlsGetValue?$AA@ 1008590c     LIBCMT:tidtable.obj
 0002:00000918       ??_C@_08KNHFBNJ@FlsAlloc?$AA@ 10085918     LIBCMT:tidtable.obj
 0002:00000928       __XcptActTab               10085928     LIBCMT:winxfltr.obj
 0002:000009a0       ??_C@_1O@CEDCILHN@?$AA?$CI?$AAn?$AAu?$AAl?$AAl?$AA?$CJ?$AA?$AA@ 100859a0     LIBCMT:output.obj
 0002:000009b0       ??_C@_06OJHGLDPL@?$CInull?$CJ?$AA@ 100859b0     LIBCMT:output.obj
 0002:000009b8       ___lookuptable             100859b8     LIBCMT:output.obj
 0002:00000a14       __FPinit                   10085a14     LIBCMT:_fpinit_.obj
 0002:00000a18       __FPmtinit                 10085a18     LIBCMT:_fpinit_.obj
 0002:00000a1c       __FPmtterm                 10085a1c     LIBCMT:_fpinit_.obj
 0002:00000a20       ??_C@_0L@KDOEJCKC@_nextafter?$AA@ 10085a20     LIBCMT:_fpexcept_.obj
 0002:00000a2c       ??_C@_05JGDBENOH@_logb?$AA@ 10085a2c     LIBCMT:_fpexcept_.obj
 0002:00000a34       ??_C@_03ONILCKOB@_yn?$AA@  10085a34     LIBCMT:_fpexcept_.obj
 0002:00000a38       ??_C@_03NAKIGLHK@_y1?$AA@  10085a38     LIBCMT:_fpexcept_.obj
 0002:00000a3c       ??_C@_03MJLDFKDL@_y0?$AA@  10085a3c     LIBCMT:_fpexcept_.obj
 0002:00000a40       ??_C@_05GKKHEGJL@frexp?$AA@ 10085a40     LIBCMT:_fpexcept_.obj
 0002:00000a48       ??_C@_04KEPJIHGP@fmod?$AA@ 10085a48     LIBCMT:_fpexcept_.obj
 0002:00000a50       ??_C@_06MEIMCGCF@_hypot?$AA@ 10085a50     LIBCMT:_fpexcept_.obj
 0002:00000a58       ??_C@_05KBKMEMPO@_cabs?$AA@ 10085a58     LIBCMT:_fpexcept_.obj
 0002:00000a60       ??_C@_05CEJMAHNP@ldexp?$AA@ 10085a60     LIBCMT:_fpexcept_.obj
 0002:00000a68       ??_C@_04ODHECPBC@fabs?$AA@ 10085a68     LIBCMT:_fpexcept_.obj
 0002:00000a70       ??_C@_04EIAKFFMI@sqrt?$AA@ 10085a70     LIBCMT:_fpexcept_.obj
 0002:00000a78       ??_C@_05KNGEOGJB@atan2?$AA@ 10085a78     LIBCMT:_fpexcept_.obj
 0002:00000a80       ??_C@_04FJHINJAO@tanh?$AA@ 10085a80     LIBCMT:_fpexcept_.obj
 0002:00000a88       ??_C@_04HPJJNFIM@cosh?$AA@ 10085a88     LIBCMT:_fpexcept_.obj
 0002:00000a90       ??_C@_04COOMCNPB@sinh?$AA@ 10085a90     LIBCMT:_fpexcept_.obj
 0002:00000a98       ??_C@_0BI@DFKBFLJE@GetProcessWindowStation?$AA@ 10085a98     LIBCMT:crtmbox.obj
 0002:00000ab0       ??_C@_0BK@CIDNPOGP@GetUserObjectInformationA?$AA@ 10085ab0     LIBCMT:crtmbox.obj
 0002:00000acc       ??_C@_0BD@HHGDFDBJ@GetLastActivePopup?$AA@ 10085acc     LIBCMT:crtmbox.obj
 0002:00000ae0       ??_C@_0BA@HNOPNCHB@GetActiveWindow?$AA@ 10085ae0     LIBCMT:crtmbox.obj
 0002:00000af0       ??_C@_0M@CHKKJDAI@MessageBoxA?$AA@ 10085af0     LIBCMT:crtmbox.obj
 0002:00000afc       ??_C@_0L@NDEGIDAG@USER32?4DLL?$AA@ 10085afc     LIBCMT:crtmbox.obj
 0002:00000b88       ___lookuptable_s           10085b88     LIBCMT:outputs.obj
 0002:00000be4       ??_C@_05KLBDPFGC@e?$CL000?$AA@ 10085be4     LIBCMT:cvt.obj
 0002:00000bf0       __real@4150017ec0000000    10085bf0     LIBCMT:_testfdiv_.obj
 0002:00000bf8       __real@4147ffff80000000    10085bf8     LIBCMT:_testfdiv_.obj
 0002:00000c00       ??_C@_0BK@NHEOCAHP@IsProcessorFeaturePresent?$AA@ 10085c00     LIBCMT:_testfdiv_.obj
 0002:00000c1c       ??_C@_08CPNIBGIE@KERNEL32?$AA@ 10085c1c     LIBCMT:_testfdiv_.obj
 0002:00000c30       ___newctype                10085c30     LIBCMT:ctype.obj
 0002:00000f30       __wctype                   10085f30     LIBCMT:ctype.obj
 0002:00001138       ___newclmap                10086138     LIBCMT:ctype.obj
 0002:000012b8       ___newcumap                100862b8     LIBCMT:ctype.obj
 0002:00001438       ??_C@_08JCCMCCIL@HH?3mm?3ss?$AA@ 10086438     LIBCMT:strftime.obj
 0002:00001444       ??_C@_0BE@CKGJFCPC@dddd?0?5MMMM?5dd?0?5yyyy?$AA@ 10086444     LIBCMT:strftime.obj
 0002:00001458       ??_C@_08BPBNCDIB@MM?1dd?1yy?$AA@ 10086458     LIBCMT:strftime.obj
 0002:00001464       ??_C@_02CJNFDJBF@PM?$AA@   10086464     LIBCMT:strftime.obj
 0002:00001468       ??_C@_02DEDBPAFC@AM?$AA@   10086468     LIBCMT:strftime.obj
 0002:0000146c       ??_C@_08EDHMEBNP@December?$AA@ 1008646c     LIBCMT:strftime.obj
 0002:00001478       ??_C@_08HCHEGEOA@November?$AA@ 10086478     LIBCMT:strftime.obj
 0002:00001484       ??_C@_07JJNFCEND@October?$AA@ 10086484     LIBCMT:strftime.obj
 0002:0000148c       ??_C@_09BHHEALKD@September?$AA@ 1008648c     LIBCMT:strftime.obj
 0002:00001498       ??_C@_06LBBHFDDG@August?$AA@ 10086498     LIBCMT:strftime.obj
 0002:000014a0       ??_C@_04MIEPOIFP@July?$AA@ 100864a0     LIBCMT:strftime.obj
 0002:000014a8       ??_C@_04CNLMGBGM@June?$AA@ 100864a8     LIBCMT:strftime.obj
 0002:000014b0       ??_C@_05DMJDNLEJ@April?$AA@ 100864b0     LIBCMT:strftime.obj
 0002:000014b8       ??_C@_05HPCKOFNC@March?$AA@ 100864b8     LIBCMT:strftime.obj
 0002:000014c0       ??_C@_08GNJGEPFN@February?$AA@ 100864c0     LIBCMT:strftime.obj
 0002:000014cc       ??_C@_07CGJPFGJA@January?$AA@ 100864cc     LIBCMT:strftime.obj
 0002:000014d4       ??_C@_03MKABNOCG@Dec?$AA@  100864d4     LIBCMT:strftime.obj
 0002:000014d8       ??_C@_03JPJOFNIA@Nov?$AA@  100864d8     LIBCMT:strftime.obj
 0002:000014dc       ??_C@_03BMAOKBAD@Oct?$AA@  100864dc     LIBCMT:strftime.obj
 0002:000014e0       ??_C@_03GGCAPAJC@Sep?$AA@  100864e0     LIBCMT:strftime.obj
 0002:000014e4       ??_C@_03IFJFEIGA@Aug?$AA@  100864e4     LIBCMT:strftime.obj
 0002:000014e8       ??_C@_03LBGABGKK@Jul?$AA@  100864e8     LIBCMT:strftime.obj
 0002:000014ec       ??_C@_03IDFGHECI@Jun?$AA@  100864ec     LIBCMT:strftime.obj
 0002:000014f0       ??_C@_03CNMDKL@May?$AA@    100864f0     LIBCMT:strftime.obj
 0002:000014f4       ??_C@_03LEOLGMJP@Apr?$AA@  100864f4     LIBCMT:strftime.obj
 0002:000014f8       ??_C@_03ODNJBKGA@Mar?$AA@  100864f8     LIBCMT:strftime.obj
 0002:000014fc       ??_C@_03HJBDCHOM@Feb?$AA@  100864fc     LIBCMT:strftime.obj
 0002:00001500       ??_C@_03JIHJHPIE@Jan?$AA@  10086500     LIBCMT:strftime.obj
 0002:00001504       ??_C@_08INBOOONO@Saturday?$AA@ 10086504     LIBCMT:strftime.obj
 0002:00001510       ??_C@_06JECMNKMI@Friday?$AA@ 10086510     LIBCMT:strftime.obj
 0002:00001518       ??_C@_08HACCIKIA@Thursday?$AA@ 10086518     LIBCMT:strftime.obj
 0002:00001524       ??_C@_09DLIGFAKA@Wednesday?$AA@ 10086524     LIBCMT:strftime.obj
 0002:00001530       ??_C@_07BAAGCFCM@Tuesday?$AA@ 10086530     LIBCMT:strftime.obj
 0002:00001538       ??_C@_06JLEDEDGH@Monday?$AA@ 10086538     LIBCMT:strftime.obj
 0002:00001540       ??_C@_06OOPIFAJ@Sunday?$AA@ 10086540     LIBCMT:strftime.obj
 0002:00001548       ??_C@_03FEFJNEK@Sat?$AA@   10086548     LIBCMT:strftime.obj
 0002:0000154c       ??_C@_03IDIOELNC@Fri?$AA@  1008654c     LIBCMT:strftime.obj
 0002:00001550       ??_C@_03IOFIKPDN@Thu?$AA@  10086550     LIBCMT:strftime.obj
 0002:00001554       ??_C@_03MHOMLAJA@Wed?$AA@  10086554     LIBCMT:strftime.obj
 0002:00001558       ??_C@_03NAGEINEP@Tue?$AA@  10086558     LIBCMT:strftime.obj
 0002:0000155c       ??_C@_03PDAGKDH@Mon?$AA@   1008655c     LIBCMT:strftime.obj
 0002:00001560       ??_C@_03KOEHGMDN@Sun?$AA@  10086560     LIBCMT:strftime.obj
 0002:00001564       ??_C@_13NOLLCAOD@?$AA?$AA?$AA?$AA@ 10086564     LIBCMT:a_str.obj
 0002:00001568       ___dnames                  10086568     LIBCMT:timeset.obj
 0002:00001580       ___mnames                  10086580     LIBCMT:timeset.obj
 0002:000015a8       ??_C@_07GPDNMNG@CONOUT$?$AA@ 100865a8     LIBCMT:initcon.obj
 0002:000015b0       ??_C@_06IMKFLFPG@1?$CDQNAN?$AA@ 100865b0     LIBCMT:_x10fout_.obj
 0002:000015b8       ??_C@_05DNEBIAHO@1?$CDINF?$AA@ 100865b8     LIBCMT:_x10fout_.obj
 0002:000015c0       ??_C@_05PHHOCPM@1?$CDIND?$AA@ 100865c0     LIBCMT:_x10fout_.obj
 0002:000015c8       ??_C@_06PGGFOGJG@1?$CDSNAN?$AA@ 100865c8     LIBCMT:_x10fout_.obj
 0002:000015d0       ??_C@_0IE@IMGBDMJL@Newton?5Game?5Dynamics?5is?5the?5prop@ 100865d0     Newton.obj
 0002:00001654       ??_C@_0P@GHFPNOJB@bad?5allocation?$AA@ 10086654     NewtonClass.obj
 0002:00001664       ??_7NewtonUserJoint@@6B@   10086664     NewtonClass.obj
 0002:00001694       ??_7dgWorkerThread@@6B@    10086694     physics:dgWorld.obj
 0002:0000169c       ??_C@_03MKEPLMIM@x87?$AA@  1008669c     physics:dgWorld.obj
 0002:000016a0       ??_C@_04IABPNMKE@simd?$AA@ 100866a0     physics:dgWorld.obj
 0002:000016a8       ??_7dgCollisionPoint@@6B@  100866a8     physics:dgWorld.obj
 0002:00001724       ??_7dgBroadPhaseApplyExternalForce@@6B@ 10086724     physics:dgBroadPhaseCollision.obj
 0002:0000172c       ??_7dgBroadPhaseMaterialCallbackWorkerThread@@6B@ 1008672c     physics:dgBroadPhaseCollision.obj
 0002:00001734       ??_7dgBroadPhaseCellPairsWorkerThread@@6B@ 10086734     physics:dgBroadPhaseCollision.obj
 0002:0000173c       ??_7dgBroadPhaseCalculateContactsWorkerThread@@6B@ 1008673c     physics:dgBroadPhaseCollision.obj
 0002:00001744       ??_7dgSolverWorlkerThreads@@6B@ 10086744     physics:dgWorldDynamicUpdate.obj
 0002:0000174c       ??_7dgParallelSolverClear@@6B@ 1008674c     physics:dgWorldDynamicUpdate.obj
 0002:00001754       ??_7dgParallelSolverUpdateForce@@6B@ 10086754     physics:dgWorldDynamicUpdate.obj
 0002:0000175c       ??_7dgParallelSolverUpdateVeloc@@6B@ 1008675c     physics:dgWorldDynamicUpdate.obj
 0002:00001764       ??_7dgParallelSolverBodyInertia@@6B@ 10086764     physics:dgWorldDynamicUpdate.obj
 0002:0000176c       ??_7dgParallelSolverBuildJacobianRows@@6B@ 1008676c     physics:dgWorldDynamicUpdate.obj
 0002:00001774       ??_7dgParallelSolverBuildJacobianMatrix@@6B@ 10086774     physics:dgWorldDynamicUpdate.obj
 0002:0000177c       ??_7dgParallelSolverJointAcceleration@@6B@ 1008677c     physics:dgWorldDynamicUpdate.obj
 0002:00001784       ??_7dgParallelSolverInitFeedbackUpdate@@6B@ 10086784     physics:dgWorldDynamicUpdate.obj
 0002:0000178c       ??_7dgParallelSolverInitInternalForces@@6B@ 1008678c     physics:dgWorldDynamicUpdate.obj
 0002:00001794       ??_7dgParallelSolverCalculateForces@@6B@ 10086794     physics:dgWorldDynamicUpdate.obj
 0002:0000179c       ??_7dgMeshEffect@@6BdgPolyhedra@@@ 1008679c     physics:dgMeshEffect.obj
 0002:000017a0       ??_7dgMeshEffect@@6BdgRefCounter@@@ 100867a0     physics:dgMeshEffect.obj
 0002:000017a4       ??_7dgRefCounter@@6B@      100867a4     physics:dgMeshEffect.obj
 0002:000017a8       ??_7Tetrahedralization@@6B@ 100867a8     physics:dgMeshEffect2.obj
 0002:000017c0       ??_7dgCollisionCompoundBreakable@@6B@ 100867c0     physics:dgCollisionCompoundBreakable.obj
 0002:0000182c       ??_7dgVertexBuffer@dgCollisionCompoundBreakable@@6B@ 1008682c     physics:dgCollisionCompoundBreakable.obj
 0002:00001830       ??_7dgMesh@dgCollisionCompoundBreakable@@6B@ 10086830     physics:dgCollisionCompoundBreakable.obj
 0002:00001838       ??_7dgCollisionConvexIntance@dgCollisionCompoundBreakable@@6B@ 10086838     physics:dgCollisionCompoundBreakable.obj
 0002:000018b8       ??_7dgCollisionConvexHull@@6B@ 100868b8     physics:dgCollisionConvexHull.obj
 0002:00001938       ??_7dgCollisionMesh@@6B@   10086938     physics:dgCollisionMesh.obj
 0002:000019b0       ??_7dgCollisionConvexPolygon@dgCollisionMesh@@6B@ 100869b0     physics:dgCollisionMesh.obj
 0002:00001a30       ??_7dgCollisionScene@@6B@  10086a30     physics:dgCollisionScene.obj
 0002:00001aa0       ??_7dgCollisionBVH@@6BdgCollisionMesh@@@ 10086aa0     physics:dgCollisionBVH.obj
 0002:00001b18       ??_7dgCollisionBVH@@6BdgAABBPolygonSoup@@@ 10086b18     physics:dgCollisionBVH.obj
 0002:00001b40       ??_7dgCollisionHeightField@@6B@ 10086b40     physics:dgCollisionHeightField.obj
 0002:00001bb8       ??_7dgBallConstraint@@6B@  10086bb8     physics:dgBallConstraint.obj
 0002:00001be8       ??_7dgHingeConstraint@@6B@ 10086be8     physics:dgHingeConstraint.obj
 0002:00001c18       ??_7dgSlidingConstraint@@6B@ 10086c18     physics:dgSlidingConstraint.obj
 0002:00001c48       ??_7dgCorkscrewConstraint@@6B@ 10086c48     physics:dgCorkscrewConstraint.obj
 0002:00001c78       ??_7dgUniversalConstraint@@6B@ 10086c78     physics:dgUniversalConstraint.obj
 0002:00001ca8       ??_7dgUpVectorConstraint@@6B@ 10086ca8     physics:dgUpVectorConstraint.obj
 0002:00001cd8       ??_7dgUserConstraint@@6B@  10086cd8     physics:dgUserConstraint.obj
 0002:00001d08       ??_7dgConstraint@@6B@      10086d08     physics:dgBilateralConstraint.obj
 0002:00001d30       ??_7dgBilateralConstraint@@6B@ 10086d30     physics:dgBilateralConstraint.obj
 0002:00001d60       ??_7dgCollisionSphere@@6B@ 10086d60     physics:dgCollisionSphere.obj
 0002:00001ddc       ??_C@_07FLDMKAK@contact?$AA@ 10086ddc     physics:dgContact.obj
 0002:00001de4       ??_7dgContact@@6B@         10086de4     physics:dgContact.obj
 0002:00001e10       ??_7dgCollisionNull@@6B@   10086e10     physics:dgCollisionNull.obj
 0002:00001e90       ??_7dgConvexCollision@@6B@ 10086e90     physics:dgConvexCollision.obj
 0002:00001f10       ??_7dgCollision@@6B@       10086f10     physics:dgCollision.obj
 0002:00001f80       ??_7dgCollisionBox@@6B@    10086f80     physics:dgCollisionBox.obj
 0002:00002000       ??_7dgCollisionEllipse@@6B@ 10087000     physics:dgCollisionEllipse.obj
 0002:00002080       ??_7dgCollisionCapsule@@6B@ 10087080     physics:dgCollisionCapsule.obj
 0002:00002100       ??_7dgCollisionCone@@6B@   10087100     physics:dgCollisionCone.obj
 0002:00002180       ??_7dgCollisionCylinder@@6B@ 10087180     physics:dgCollisionCylinder.obj
 0002:00002200       ??_7dgCollisionChamferCylinder@@6B@ 10087200     physics:dgCollisionChamferCylinder.obj
 0002:00002280       ??_7dgCollisionConvexModifier@@6B@ 10087280     physics:dgCollisionConvexModifier.obj
 0002:00002300       ??_7dgCollisionCompound@@6B@ 10087300     physics:dgCollisionCompound.obj
 0002:00002370       ??_7dgCollisionUserMesh@@6B@ 10087370     physics:dgCollisionUserMesh.obj
 0002:000023f0       ??_7dgPolyhedra@@6B@       100873f0     corelib:dgPolyhedra.obj
 0002:000023f0       ??_7dgPolySoupFilterAllocator@@6B@ 100873f0     corelib:dgPolygonSoupBuilder.obj
 0002:000023f4       ??_7dgConvexHull3d@@6B@    100873f4     corelib:dgConvexHull3d.obj
 0002:00002404       ??_7dgDelaunayTetrahedralization@@6B@ 10087404     corelib:dgDelaunayTetrahedralization.obj
 0002:00002418       ??_7dgConvexHull4d@@6B@    10087418     corelib:dgConvexHull4d.obj
 0002:0000242c       ??_7dgPolygonSoupDatabase@@6B@ 1008742c     corelib:dgAABBPolygonSoup.obj
 0002:0000244c       ??_7dgAABBPolygonSoup@@6B@ 1008744c     corelib:dgAABBPolygonSoup.obj
 0002:00002470       __real@4000000000000000    10087470      CIL library: CIL module
 0002:00002478       __real@3fe0000000000000    10087478      CIL library: CIL module
 0002:00002480       __real@3ff0000000000000    10087480      CIL library: CIL module
 0002:00002488       __real@0000000000000000    10087488      CIL library: CIL module
 0002:00002490       __real@4090000000000000    10087490      CIL library: CIL module
 0002:00002498       __real@3ff3333340000000    10087498      CIL library: CIL module
 0002:000024a0       __real@3fd0000000000000    100874a0      CIL library: CIL module
 0002:000024a8       __real@4014000000000000    100874a8      CIL library: CIL module
 0002:000024b0       __real@bff0000000000000    100874b0      CIL library: CIL module
 0002:000024b8       __real@4202a05f20000000    100874b8      CIL library: CIL module
 0002:000024c0       __real@3e45798ee0000000    100874c0      CIL library: CIL module
 0002:000024c8       __real@42fc6bf520000000    100874c8      CIL library: CIL module
 0002:000024d0       __real@3f847ae140000000    100874d0      CIL library: CIL module
 0002:000024d8       __real@3fe6666660000000    100874d8      CIL library: CIL module
 0002:000024e0       __real@3fc0000000000000    100874e0      CIL library: CIL module
 0002:000024e8       __real@408f3fffe7190014    100874e8      CIL library: CIL module
 0002:000024f0       __real@404dffffe5c00017    100874f0      CIL library: CIL module
 0002:000024f8       __real@3f50624de0000000    100874f8      CIL library: CIL module
 0002:00002500       __real@4040000000000000    10087500      CIL library: CIL module
 0002:00002508       __real@4010000000000000    10087508      CIL library: CIL module
 0002:00002510       __real@3eb0c6f7a0000000    10087510      CIL library: CIL module
 0002:00002518       __real@401921fa00000000    10087518      CIL library: CIL module
 0002:00002520       __real@4060000000000000    10087520      CIL library: CIL module
 0002:00002528       __real@4070000000000000    10087528      CIL library: CIL module
 0002:00002530       __real@4059000000000000    10087530      CIL library: CIL module
 0002:00002538       __real@3f647ae140000000    10087538      CIL library: CIL module
 0002:00002540       __real@4097700000000000    10087540      CIL library: CIL module
 0002:00002548       __real@40c3880000000000    10087548      CIL library: CIL module
 0002:00002550       __real@c0c3880000000000    10087550      CIL library: CIL module
 0002:00002558       __real@3ff999999999999a    10087558      CIL library: CIL module
 0002:00002560       __real@430c6bf520000000    10087560      CIL library: CIL module
 0002:00002568       __real@431c6bf520000000    10087568      CIL library: CIL module
 0002:00002570       __real@c202a05f20000000    10087570      CIL library: CIL module
 0002:00002578       __real@3af357c2a0000000    10087578      CIL library: CIL module
 0002:00002580       __real@3fe3333340000000    10087580      CIL library: CIL module
 0002:00002588       __real@4058c00000000000    10087588      CIL library: CIL module
 0002:00002590       __real@bf50624de0000000    10087590      CIL library: CIL module
 0002:00002598       __real@c30c6bf520000000    10087598      CIL library: CIL module
 0002:000025a0       __real@3fe276c8c0000000    100875a0      CIL library: CIL module
 0002:000025a8       __real@3f1a36e2e0000000    100875a8      CIL library: CIL module
 0002:000025b0       __real@bf1a36e2e0000000    100875b0      CIL library: CIL module
 0002:000025b8       __real@c415af1d80000000    100875b8      CIL library: CIL module
 0002:000025c0       __real@4415af1d80000000    100875c0      CIL library: CIL module
 0002:000025c8       __real@bf91eb8520000000    100875c8      CIL library: CIL module
 0002:000025d0       __real@3d71979980000000    100875d0      CIL library: CIL module
 0002:000025d8       __real@3fa99999a0000000    100875d8      CIL library: CIL module
 0002:000025e0       __real@3fb99999a0000000    100875e0      CIL library: CIL module
 0002:000025e8       __real@4024000000000000    100875e8      CIL library: CIL module
 0002:000025f0       __real@3ddb7cdfe0000000    100875f0      CIL library: CIL module
 0002:000025f8       __real@bfefff9720000000    100875f8      CIL library: CIL module
 0002:00002600       __real@3fefff9720000000    10087600      CIL library: CIL module
 0002:00002608       __real@3feffffde0000000    10087608      CIL library: CIL module
 0002:00002610       __real@bfeffffde0000000    10087610      CIL library: CIL module
 0002:00002618       __real@3f1a36e2eb1c432d    10087618      CIL library: CIL module
 0002:00002620       __real@3f80000000000000    10087620      CIL library: CIL module
 0002:00002628       __real@bf70000000000000    10087628      CIL library: CIL module
 0002:00002630       __real@bfe279a6c0000000    10087630      CIL library: CIL module
 0002:00002638       __real@3fe279a6c0000000    10087638      CIL library: CIL module
 0002:00002640       __real@3eb0c6f7bb730840    10087640      CIL library: CIL module
 0002:00002648       __real@3eb0c6f78dd616ff    10087648      CIL library: CIL module
 0002:00002650       __real@3c32725de0000000    10087650      CIL library: CIL module
 0002:00002658       __real@3feffe5ca0000000    10087658      CIL library: CIL module
 0002:00002660       __real@3fd0c15155555555    10087660      CIL library: CIL module
 0002:00002668       __real@bfe0000000000000    10087668      CIL library: CIL module
 0002:00002670       __real@3feff7cee0000000    10087670      CIL library: CIL module
 0002:00002678       __real@3fd921fa00000000    10087678      CIL library: CIL module
 0002:00002680       __real@bee4f8b580000000    10087680      CIL library: CIL module
 0002:00002688       __real@3ee4f8b580000000    10087688      CIL library: CIL module
 0002:00002690       __real@3fecccccc0000000    10087690      CIL library: CIL module
 0002:00002698       __real@3fd99999a0000000    10087698      CIL library: CIL module
 0002:000026a0       __real@3fd999999999999a    100876a0      CIL library: CIL module
 0002:000026a8       __real@4010c15200000000    100876a8      CIL library: CIL module
 0002:000026b0       __real@4079000000000000    100876b0      CIL library: CIL module
 0002:000026b8       __real@4077700000000000    100876b8      CIL library: CIL module
 0002:000026c0       __real@3e698d99528f96de    100876c0      CIL library: CIL module
 0002:000026c8       __real@3fe99999a0000000    100876c8      CIL library: CIL module
 0002:000026d0       __real@3fe3bd3ab3412000    100876d0      CIL library: CIL module
 0002:000026d8       __real@408f400000000000    100876d8      CIL library: CIL module
 0002:000026e0       __real@3ff00068e0000000    100876e0      CIL library: CIL module
 0002:000026e8       __real@3f647ae151eb8520    100876e8      CIL library: CIL module
 0002:000026f0       __real@3fb0000000000000    100876f0      CIL library: CIL module
 0002:000026f8       __real@3f1a36e2d7731900    100876f8      CIL library: CIL module
 0002:00002700       __real@431550f7d8000000    10087700      CIL library: CIL module
 0002:00002708       __real@4030000000000000    10087708      CIL library: CIL module
 0002:00002710       __real@3fe69fbe80000000    10087710      CIL library: CIL module
 0002:00002718       __real@bfecccccc0000000    10087718      CIL library: CIL module
 0002:00002720       __real@3fefef9dc0000000    10087720      CIL library: CIL module
 0002:00002728       __real@3fe6a09e60000000    10087728      CIL library: CIL module
 0002:00002730       __real@3fa1de58c0000000    10087730      CIL library: CIL module
 0002:00002738       __real@3feffb0280000000    10087738      CIL library: CIL module
 0002:00002740       __real@3f40624de0000000    10087740      CIL library: CIL module
 0002:00002748       __real@3feffbe760000000    10087748      CIL library: CIL module
 0002:00002750       __real@3e112e0be0000000    10087750      CIL library: CIL module
 0002:00002758       __real@3fd5555555555555    10087758      CIL library: CIL module
 0002:00002760       __real@40194af500000000    10087760      CIL library: CIL module
 0002:00002768       __real@3fd3333333333333    10087768      CIL library: CIL module
 0002:00002770       __real@3fc3333333333333    10087770      CIL library: CIL module
 0002:00002778       __real@4000dca355555555    10087778      CIL library: CIL module
 0002:00002780       __real@4010dca355555555    10087780      CIL library: CIL module
 0002:00002788       __real@4020000000000000    10087788      CIL library: CIL module
 0002:00002790       __real@3ee2dfd69a4df480    10087790      CIL library: CIL module
 0002:00002798       __real@3fd3333340000000    10087798      CIL library: CIL module
 0002:000027a0       __real@c010000000000000    100877a0      CIL library: CIL module
 0002:000027a8       __real@4049000000000000    100877a8      CIL library: CIL module
 0002:000027b0       __real@3fefd70a40000000    100877b0      CIL library: CIL module
 0002:000027b8       __real@3ff028f5c0000000    100877b8      CIL library: CIL module
 0002:000027c0       __real@bfefff2e40000000    100877c0      CIL library: CIL module
 0002:000027c8       __real@3ff19999a0000000    100877c8      CIL library: CIL module
 0002:000027d0       __real@40086f41471c71c7    100877d0      CIL library: CIL module
 0002:000027d8       __real@3ff921fa00000000    100877d8      CIL library: CIL module
 0002:000027e0       __real@3fb657171c71c71c    100877e0      CIL library: CIL module
 0002:000027e8       __real@4050000000000000    100877e8      CIL library: CIL module
 0002:000027f0       __real@c000000000000000    100877f0      CIL library: CIL module
 0002:000027f8       __real@bfb99999a0000000    100877f8      CIL library: CIL module
 0002:00002800       __real@3c670ef540000000    10087800      CIL library: CIL module
 0002:00002808       __real@bc9cd2b2a0000000    10087808      CIL library: CIL module
 0002:00002810       __real@3c9cd2b2a0000000    10087810      CIL library: CIL module
 0002:00002818       __real@3f91df45b05b05b0    10087818      CIL library: CIL module
 0002:00002820       __real@3e70000000000000    10087820      CIL library: CIL module
 0002:00002828       __real@4056800000000000    10087828      CIL library: CIL module
 0002:00002830       __real@4066800000000000    10087830      CIL library: CIL module
 0002:00002838       __real@400921ff20000000    10087838      CIL library: CIL module
 0002:00002840       __real@3fefff2e40000000    10087840      CIL library: CIL module
 0002:00002848       __real@3f40000000000000    10087848      CIL library: CIL module
 0002:00002850       __real@3f1a36e3068db8c0    10087850      CIL library: CIL module
 0002:00002858       __real@3f70000000000000    10087858      CIL library: CIL module
 0002:00002860       __real@c197d78400000000    10087860      CIL library: CIL module
 0002:00002868       __real@baf357c2a0000000    10087868      CIL library: CIL module
 0002:00002870       __real@bff921fa00000000    10087870      CIL library: CIL module
 0002:00002878       __real@3fc6388660000000    10087878      CIL library: CIL module
 0002:00002880       __real@3f0a36e3068db8c0    10087880      CIL library: CIL module
 0002:00002888       __real@3f60000000000000    10087888      CIL library: CIL module
 0002:00002890       __real@3fd51eb860000000    10087890      CIL library: CIL module
 0002:00002898       __real@3e7ad7f2a0000000    10087898      CIL library: CIL module
 0002:000028a0       __real@3fefae1480000000    100878a0      CIL library: CIL module
 0002:000028a8       __real@3fc45f30b21788bb    100878a8      CIL library: CIL module
 0002:000028b0       __real@401921fb00000000    100878b0      CIL library: CIL module
 0002:000028b8       __real@3ff921fb00000000    100878b8      CIL library: CIL module
 0002:000028c0       __real@4080000000000000    100878c0      CIL library: CIL module
 0002:000028c8       __real@3f747ae140000000    100878c8      CIL library: CIL module
 0002:000028d0       __real@3d06849b80000000    100878d0      CIL library: CIL module
 0002:000028d8       __real@3fe921fa00000000    100878d8      CIL library: CIL module
 0002:000028e0       __real@3ff0c15155555555    100878e0      CIL library: CIL module
 0002:000028e8       __real@3fe921ff20000000    100878e8      CIL library: CIL module
 0002:000028f0       __real@c08f400000000000    100878f0      CIL library: CIL module
 0002:000028f8       __real@3fef5c2900000000    100878f8      CIL library: CIL module
 0002:00002900       __real@3fbac08320000000    10087900      CIL library: CIL module
 0002:00002908       __real@3ff6666660000000    10087908      CIL library: CIL module
 0002:00002910       __real@3ff8000000000000    10087910      CIL library: CIL module
 0002:00002918       __real@3f50624ddf3b645d    10087918      CIL library: CIL module
 0002:00002920       __real@3f847ae151eb8520    10087920      CIL library: CIL module
 0002:00002928       __real@3f91111120000000    10087928      CIL library: CIL module
 0002:00002930       __real@c059000000000000    10087930      CIL library: CIL module
 0002:00002938       __real@3bc79ca100000000    10087938      CIL library: CIL module
 0002:00002940       __real@404e000000000000    10087940      CIL library: CIL module
 0002:00002948       __real@3f90000000000000    10087948      CIL library: CIL module
 0002:00002950       __real@3fb5555560000000    10087950      CIL library: CIL module
 0002:00002968       __DEFAULT_CW_in_mem        10087968     LIBCMT:_common_.obj
 0002:0000296a       __pi_by_2_to_61            1008796a     LIBCMT:_common_.obj
 0002:00006bf0       __load_config_used         1008bbf0     LIBCMT:loadcfg.obj
 0002:00006cb0       ___safe_se_handler_table   1008bcb0     <linker-defined>
 0002:00006cbc       ___rtc_iaa                 1008bcbc     LIBCMT:_initsect_.obj
 0002:00006cc0       ___rtc_izz                 1008bcc0     LIBCMT:_initsect_.obj
 0002:00006cc4       ___rtc_taa                 1008bcc4     LIBCMT:_initsect_.obj
 0002:00006cc8       ___rtc_tzz                 1008bcc8     LIBCMT:_initsect_.obj
 0002:000070a4       __IMPORT_DESCRIPTOR_KERNEL32 1008c0a4     kernel32:KERNEL32.dll
 0002:000070b8       __NULL_IMPORT_DESCRIPTOR   1008c0b8     kernel32:KERNEL32.dll
 0003:00000178       __amblksiz                 10090178     LIBCMT:heapinit.obj
 0003:000002a0       __aexit_rtn                100902a0     LIBCMT:crt0dat.obj
 0003:00000360       ___flsindex                10090360     LIBCMT:tidtable.obj
 0003:00000364       ___getvalueindex           10090364     LIBCMT:tidtable.obj
 0003:00000368       ___badioinfo               10090368     LIBCMT:ioinit.obj
 0003:000003a8       __First_FPE_Indx           100903a8     LIBCMT:winxfltr.obj
 0003:000003ac       __Num_FPE                  100903ac     LIBCMT:winxfltr.obj
 0003:000003b0       __XcptActTabSize           100903b0     LIBCMT:winxfltr.obj
 0003:000003b4       __XcptActTabCount          100903b4     LIBCMT:winxfltr.obj
 0003:000003b8       ___nullstring              100903b8     LIBCMT:output.obj
 0003:000003bc       ___wnullstring             100903bc     LIBCMT:output.obj
 0003:000003c0       ___abort_behavior          100903c0     LIBCMT:abort.obj
 0003:000003e0       __matherr_flag             100903e0     LIBCMT:_matherr_.obj
 0003:000003e4       __fltused                  100903e4     LIBCMT:_fpinit_.obj
 0003:000003e8       __ldused                   100903e8     LIBCMT:_fpinit_.obj
 0003:000004d8       __d_inf                    100904d8     LIBCMT:_util_.obj
 0003:000004e0       __d_ind                    100904e0     LIBCMT:_util_.obj
 0003:000004e8       __d_max                    100904e8     LIBCMT:_util_.obj
 0003:000004f0       __d_min                    100904f0     LIBCMT:_util_.obj
 0003:000004f8       __d_mzero                  100904f8     LIBCMT:_util_.obj
 0003:00000500       ___security_cookie         10090500     LIBCMT:gs_cookie.obj
 0003:00000504       ___security_cookie_complement 10090504     LIBCMT:gs_cookie.obj
 0003:00000508       __cfltcvt_tab              10090508     LIBCMT:cmiscdat.obj
 0003:00000538       ___clocalestr              10090538     LIBCMT:nlsdata2.obj
 0003:00000540       ___initiallocinfo          10090540     LIBCMT:nlsdata2.obj
 0003:00000618       ___ptlocinfo               10090618     LIBCMT:nlsdata2.obj
 0003:0000061c       ___lc_clike                1009061c     LIBCMT:nlsdata2.obj
 0003:00000620       ___initiallocalestructinfo 10090620     LIBCMT:nlsdata2.obj
 0003:00000628       ___initialmbcinfo          10090628     LIBCMT:mbctype.obj
 0003:00000848       __mbctype                  10090848     LIBCMT:mbctype.obj
 0003:00000950       __mbcasemap                10090950     LIBCMT:mbctype.obj
 0003:00000a50       ___ptmbcinfo               10090a50     LIBCMT:mbctype.obj
 0003:00000b50       __iob                      10090b50     LIBCMT:_file.obj
 0003:00000dd0       ___globallocalestatus      10090dd0     LIBCMT:glstatus.obj
 0003:00000de0       __NLG_Destination          10090de0     LIBCMT:exsup.obj
 0003:00000df0       __pctype                   10090df0     LIBCMT:ctype.obj
 0003:00000df4       __pwctype                  10090df4     LIBCMT:ctype.obj
 0003:00000df8       ___lc_time_c               10090df8     LIBCMT:strftime.obj
 0003:00000eb0       ___lc_time_curr            10090eb0     LIBCMT:strftime.obj
 0003:00000eb4       ___lconv_static_decimal    10090eb4     LIBCMT:lconv.obj
 0003:00000eb8       ___lconv_c                 10090eb8     LIBCMT:lconv.obj
 0003:00000ee8       ___lconv                   10090ee8     LIBCMT:lconv.obj
 0003:00000eec       ___mb_cur_max              10090eec     LIBCMT:nlsdata1.obj
 0003:00000ef0       ___decimal_point           10090ef0     LIBCMT:nlsdata1.obj
 0003:00000ef4       ___decimal_point_length    10090ef4     LIBCMT:nlsdata1.obj
 0003:00000f10       __timezone                 10090f10     LIBCMT:timeset.obj
 0003:00000f14       __daylight                 10090f14     LIBCMT:timeset.obj
 0003:00000f18       __dstbias                  10090f18     LIBCMT:timeset.obj
 0003:00000fa0       __tzname                   10090fa0     LIBCMT:timeset.obj
 0003:00000fc0       __coninpfh                 10090fc0     LIBCMT:initcon.obj
 0003:00000fc4       __confh                    10090fc4     LIBCMT:initcon.obj
 0003:00000ff8       __lpdays                   10090ff8     LIBCMT:days.obj
 0003:0000102c       __days                     1009102c     LIBCMT:days.obj
 0003:00001060       __pow10pos                 10091060     LIBCMT:_constpow_.obj
 0003:000011c0       __pow10neg                 100911c0     LIBCMT:_constpow_.obj
 0003:00001320       ?mult@dgPolyhedraMassProperties@@0PANA 10091320     corelib:dgPolyhedraMassProperties.obj
 0003:00001788       ?m_faceIndex@dgContactSolver@@2PAY03HA 10091788     physics:dgMinkowskiConv.obj
 0003:000017c8       ?m_edgeArray@dgCollisionBox@@1PAVdgConvexSimplexEdge@@A 100917c8     physics:dgCollisionBox.obj
 0003:00001948       ?m_rayCastSimplex@dgConvexCollision@@1PAY03HA 10091948     physics:dgConvexCollision.obj
 0003:00001988       ?m_hullDirs@dgConvexCollision@@1PAVdgTriplex@@A 10091988     physics:dgConvexCollision.obj
 0003:00001ae0       ?m_negOne@dgConvexCollision@@1VdgVector@@A 10091ae0     physics:dgConvexCollision.obj
 0003:00001b00       ?m_nrh0p5@dgConvexCollision@@1VdgVector@@A 10091b00     physics:dgConvexCollision.obj
 0003:00001b20       ?m_nrh3p0@dgConvexCollision@@1VdgVector@@A 10091b20     physics:dgConvexCollision.obj
 0003:00001b40       ?m_indexStep@dgConvexCollision@@1VdgVector@@A 10091b40     physics:dgConvexCollision.obj
 0003:00001b60       ?m_index_0123@dgConvexCollision@@1VdgVector@@A 10091b60     physics:dgConvexCollision.obj
 0003:00001b80       ?m_index_4567@dgConvexCollision@@1VdgVector@@A 10091b80     physics:dgConvexCollision.obj
 0003:00001ba0       ?m_huge@dgConvexCollision@@1VdgVector@@A 10091ba0     physics:dgConvexCollision.obj
 0003:00001bc0       ?m_negativeTiny@dgConvexCollision@@1VdgVector@@A 10091bc0     physics:dgConvexCollision.obj
 0003:00001be0       ?m_aabb_padd@dgConvexCollision@@1VdgVector@@A 10091be0     physics:dgConvexCollision.obj
 0003:00001c00       ?m_globalAllocator@dgGlobalAllocator@@2V1@A 10091c00     corelib:dgMemory.obj
 0003:00001d40       __half                     10091d40     LIBCMT:_pow_.obj
 0003:00001d60       __indefinite               10091d60     LIBCMT:_87disp_.obj
 0003:00001d6a       __piby2                    10091d6a     LIBCMT:_87disp_.obj
 0003:00001d90       __infinity                 10091d90     LIBCMT:_87tran_.obj
 0003:00001d9a       __minfinity                10091d9a     LIBCMT:_87tran_.obj
 0003:00001da4       __logemax                  10091da4     LIBCMT:_87tran_.obj
 0003:00001dca       __OP_EXPjmptab             10091dca     LIBCMT:_87tran_.obj
 0003:00001f64       __aenvptr                  10091f64     LIBCMT:dllcrt0.obj
 0003:00001f68       __wenvptr                  10091f68     LIBCMT:dllcrt0.obj
 0003:00001f6c       ___error_mode              10091f6c     LIBCMT:dllcrt0.obj
 0003:00001f70       ___app_type                10091f70     LIBCMT:dllcrt0.obj
 0003:00001f78       __crtheap                  10091f78     LIBCMT:heapinit.obj
 0003:000020d0       ___sbh_pHeaderDefer        100920d0     LIBCMT:sbheap.obj
 0003:000020d4       __umaskval                 100920d4     LIBCMT:crt0dat.obj
 0003:000020d8       ___argc                    100920d8     LIBCMT:crt0dat.obj
 0003:000020dc       ___argv                    100920dc     LIBCMT:crt0dat.obj
 0003:000020e0       ___wargv                   100920e0     LIBCMT:crt0dat.obj
 0003:000020e4       __environ                  100920e4     LIBCMT:crt0dat.obj
 0003:000020e8       ___initenv                 100920e8     LIBCMT:crt0dat.obj
 0003:000020ec       __wenviron                 100920ec     LIBCMT:crt0dat.obj
 0003:000020f0       ___winitenv                100920f0     LIBCMT:crt0dat.obj
 0003:000020f4       __pgmptr                   100920f4     LIBCMT:crt0dat.obj
 0003:000020f8       __wpgmptr                  100920f8     LIBCMT:crt0dat.obj
 0003:000020fc       __exitflag                 100920fc     LIBCMT:crt0dat.obj
 0003:00002100       __C_Termination_Done       10092100     LIBCMT:crt0dat.obj
 0003:00002104       __C_Exit_Done              10092104     LIBCMT:crt0dat.obj
 0003:0000241c       ?_pnhHeap@@3P6AHI@ZA       1009241c     LIBCMT:handler.obj
 0003:00002420       __newmode                  10092420     LIBCMT:_newmode.obj
 0003:00002424       _gpFlsAlloc                10092424     LIBCMT:tidtable.obj
 0003:00002428       _gpFlsGetValue             10092428     LIBCMT:tidtable.obj
 0003:0000242c       _gpFlsSetValue             1009242c     LIBCMT:tidtable.obj
 0003:00002430       _gpFlsFree                 10092430     LIBCMT:tidtable.obj
 0003:00002434       __maxwait                  10092434     LIBCMT:crtheap.obj
 0003:00002544       ___pInvalidArgHandler      10092544     LIBCMT:invarg.obj
 0003:00002550       ___pPurecall               10092550     LIBCMT:inithelp.obj
 0003:00002568       ___fastflag                10092568     LIBCMT:_fpinit_.obj
 0003:0000256c       __adjust_fdiv              1009256c     LIBCMT:_fpinit_.obj
 0003:00002574       ?__pInconsistency@@3P6AXXZA 10092574     LIBCMT:hooks.obj
 0003:00002590       ___locale_changed          10092590     LIBCMT:setlocal.obj
 0003:00002594       ___lc_handle               10092594     LIBCMT:nlsdata2.obj
 0003:000025ac       ___lc_codepage             100925ac     LIBCMT:nlsdata2.obj
 0003:000025b0       ___lc_collate_cp           100925b0     LIBCMT:nlsdata2.obj
 0003:000025b8       ___mbulinfo                100925b8     LIBCMT:mbctype.obj
 0003:000025c4       ___mbcodepage              100925c4     LIBCMT:mbctype.obj
 0003:000025c8       ___ismbcodepage            100925c8     LIBCMT:mbctype.obj
 0003:000025cc       ___mblcid                  100925cc     LIBCMT:mbctype.obj
 0003:000025d0       __cflush                   100925d0     LIBCMT:_file.obj
 0003:000028fc       ___lconv_static_null       100928fc     LIBCMT:lconv.obj
 0003:00002908       __stdbuf                   10092908     LIBCMT:_sftbuf.obj
 0003:00002910       __outputformat             10092910     LIBCMT:outputformat.obj
 0003:000029d4       ___@@_PchSym_@00@UmvdglmPCAAUDworyUgllohUmvdglmUkilqvxgPehCAAIUdrmDCUmvdglmUivovzhvPCAAJPwlfyovPwooUmvdglmxozhhOlyq@ 100929d4     NewtonClass.obj
 0003:000029d8       ___@@_PchSym_@00@UmvdglmPCAAUDworyUgllohUmvdglmUkilqvxgPehCAAIUdrmDCUksbhrxhUivovzhvPCAAJPwlfyovPwooUwtdliowOlyq@ 100929d8     physics:dgWorld.obj
 0003:000029dc       ___@@_PchSym_@00@UmvdglmPCAAUDworyUgllohUmvdglmUkilqvxgPehCAAIUdrmDCUxlivoryUivovzhvPCAAJPwlfyovPwooUwtgbkvhOlyq@ 100929dc     corelib:dgTypes.obj
 0003:000029e0       ?m_edgeArray@dgCollisionSphere@@1PAVdgConvexSimplexEdge@@A 100929e0     physics:dgCollisionSphere.obj
 0003:00002fe0       ?m_edgeArray@dgCollisionCapsule@@0PAVdgConvexSimplexEdge@@A 10092fe0     physics:dgCollisionCapsule.obj
 0003:00003b20       ?m_edgeArray@dgCollisionCone@@0PAVdgConvexSimplexEdge@@A 10093b20     physics:dgCollisionCone.obj
 0003:00003d20       ?m_edgeArray@dgCollisionCylinder@@0PAVdgConvexSimplexEdge@@A 10093d20     physics:dgCollisionCylinder.obj
 0003:00004020       ?m_edgeArray@dgCollisionChamferCylinder@@0PAVdgConvexSimplexEdge@@A 10094020     physics:dgCollisionChamferCylinder.obj
 0003:00004920       ?m_shapeRefCount@dgCollisionSphere@@1HA 10094920     physics:dgCollisionSphere.obj
 0003:00004924       ?m_iniliazised@dgConvexCollision@@1HA 10094924     physics:dgConvexCollision.obj
 0003:00004928       ?m_shapeRefCount@dgCollisionCapsule@@0HA 10094928     physics:dgCollisionCapsule.obj
 0003:0000492c       ?m_shapeRefCount@dgCollisionCone@@0HA 1009492c     physics:dgCollisionCone.obj
 0003:00004930       ?m_shapeRefCount@dgCollisionCylinder@@0HA 10094930     physics:dgCollisionCylinder.obj
 0003:00004934       ?m_shapeRefCount@dgCollisionChamferCylinder@@0HA 10094934     physics:dgCollisionChamferCylinder.obj
 0003:00004940       ?m_zero@dgConvexCollision@@1VdgVector@@A 10094940     physics:dgConvexCollision.obj
 0003:00004960       ?m_signMask@dgConvexCollision@@1VdgVector@@A 10094960     physics:dgConvexCollision.obj
 0003:00004980       ?m_triplexMask@dgConvexCollision@@1VdgVector@@A 10094980     physics:dgConvexCollision.obj
 0003:00004a40       ?m_unitSphere@dgCollisionSphere@@1PAVdgVector@@A 10094a40     physics:dgCollisionSphere.obj
 0003:00004c80       ?m_multiResDir@dgConvexCollision@@1PAVdgVector@@A 10094c80     physics:dgConvexCollision.obj
 0003:00004d80       ?m_multiResDir_sse@dgConvexCollision@@1PAVdgVector@@A 10094d80     physics:dgConvexCollision.obj
 0003:00004e40       ?m_shapesDirs@dgCollisionChamferCylinder@@0PAVdgVector@@A 10094e40     physics:dgCollisionChamferCylinder.obj
 0003:00004f40       ?m_dir@dgContactSolver@@2PAVdgVector@@A 10094f40     physics:dgMinkowskiConv.obj
 0003:00005200       __debugger_hook_dummy      10095200     <common>
 0003:00005204       ___piob                    10095204     <common>
 0003:00005220       __bufin                    10095220     <common>
 0003:00006220       __nstream                  10096220     <common>
 0003:00006224       __nhandle                  10096224     <common>
 0003:00006240       ___pioinfo                 10096240     <common>
 0003:00006340       ___env_initialized         10096340     <common>
 0003:00006344       ___onexitend               10096344     <common>
 0003:00006348       ___onexitbegin             10096348     <common>
 0003:0000634c       ___mbctype_initialized     1009634c     <common>
 0003:00006350       ___dyn_tls_init_callback   10096350     <common>
 0003:00006354       __pDestructExceptionObject 10096354     <common>
 0003:00006358       ___sbh_cntHeaderList       10096358     <common>
 0003:0000635c       ___sbh_pHeaderList         1009635c     <common>
 0003:00006360       ___sbh_threshold           10096360     <common>
 0003:00006364       ___sbh_pHeaderScan         10096364     <common>
 0003:00006368       ___sbh_sizeHeaderList      10096368     <common>
 0003:0000636c       ___sbh_indGroupDefer       1009636c     <common>
 0003:00006370       ___active_heap             10096370     <common>
 0003:00006374       ___use_sse2_mathfcns       10096374     <common>
 0003:00006378       ___sse2_available          10096378     <common>
 0003:0000637c       __pmatherr                 1009637c     <common>
 0003:00006380       __acmdln                   10096380     <common>

 entry point at        0001:000747af

 Static symbols

 0001:0005cc30       ?SortVertices@InternalGeoUtil@@YAHQANHHHHN@Z 1005dc30 f    CIL library: CIL module
 0001:0005d6e0       ?QuickSortVertices@InternalGeoUtil@@YAHQANHHHHN@Z 1005e6e0 f    CIL library: CIL module
 0001:0005e5c0       ?MatchTwins@InternalPolyhedra@@YA_NPAVdgPolyhedra@@@Z 1005f5c0 f    CIL library: CIL module
 0001:0005e6c0       ?CloseOpenBounds@InternalPolyhedra@@YAXPAVdgPolyhedra@@@Z 1005f6c0 f    CIL library: CIL module
 0001:0005e830       ?NormalizeVertex@InternalPolyhedra@@YAXHQAVdgTriplex@@QBNH@Z 1005f830 f    CIL library: CIL module
 0001:0005e980       ?EdgePlane@InternalPolyhedra@@YA?AVdgBigPlane@@HHHQBVdgTriplex@@@Z 1005f980 f    CIL library: CIL module
 0001:0005ead0       ?UnboundedLoopPlane@InternalPolyhedra@@YA?AVdgBigPlane@@HHHQBVdgTriplex@@@Z 1005fad0 f    CIL library: CIL module
 0001:0005ec90       ?CalculateAllMetrics@InternalPolyhedra@@YAXPBVdgPolyhedra@@QAUVERTEX_METRIC_STRUCT@1@QBVdgTriplex@@@Z 1005fc90 f    CIL library: CIL module
 0001:0005ef80       ?BigFaceNormal@InternalPolyhedra@@YA?AVdgBigVector@@PAVdgEdge@@QBNH@Z 1005ff80 f    CIL library: CIL module
 0001:0005f140       ?EdgePenalty@InternalPolyhedra@@YANABVdgPolyhedra@@QBVdgTriplex@@PAVdgEdge@@@Z 10060140 f    CIL library: CIL module
 0001:0005f7b0       ?CalculateVertexMetrics@InternalPolyhedra@@YAXQAUVERTEX_METRIC_STRUCT@1@QBVdgTriplex@@PAVdgEdge@@@Z 100607b0 f    CIL library: CIL module
 0001:0005f8a0       ?RefineTriangulation@InternalPolyhedra@@YAXAAVdgPolyhedra@@QBNHQAVdgVector@@HQAPAVdgEdge@@@Z 100608a0 f    CIL library: CIL module
 0001:000600a0       ?FindEarTip@InternalPolyhedra@@YAPAVdgEdge@@ABVdgPolyhedra@@QAV2@QBNHAAV?$dgDownHeap@PAVdgEdge@@N@@ABVdgVector@@@Z 100610a0 f    CIL library: CIL module
 0001:000606b0       ?IsEssensialPointDiagonal@InternalPolyhedra@@YA_NQAVdgEdge@@ABVdgBigVector@@QBNH@Z 100616b0 f    CIL library: CIL module
 0001:00060880       ?GetInteriorDiagonals@InternalPolyhedra@@YAHAAVdgPolyhedra@@QAPAVdgEdge@@H@Z 10061880 f    CIL library: CIL module
 0001:00060910       ?MarkAdjacentCoplanarFaces@InternalPolyhedra@@YAXAAVdgPolyhedra@@0QAVdgEdge@@QBNH@Z 10061910 f    CIL library: CIL module
 0001:00060d80       ?RemoveColinearVertices@InternalPolyhedra@@YAXAAVdgPolyhedra@@QBNH@Z 10061d80 f    CIL library: CIL module
 0001:000611e0       ?RefineTriangulation@InternalPolyhedra@@YAXAAVdgPolyhedra@@QBNH@Z 100621e0 f    CIL library: CIL module
 0001:00061300       ?TriangulateFace@InternalPolyhedra@@YAPAVdgEdge@@AAVdgPolyhedra@@PAV2@QBNHAAV?$dgDownHeap@PAVdgEdge@@N@@QAVdgVector@@@Z 10062300 f    CIL library: CIL module
 0001:000614c0       ?OptimizeTriangulation@InternalPolyhedra@@YAXAAVdgPolyhedra@@QBNH@Z 100624c0 f    CIL library: CIL module
 0001:00061760       ?ConvexPartition@InternalPolyhedra@@YA_NAAVdgPolyhedra@@QBNH@Z 10062760 f    CIL library: CIL module
 0001:0006d5f0       ??0dgSpliteInfo@?6??BuildTree@dgAABBTree@@QAEPAVdgConstructionTree@2@QAVdgMemoryAllocator@@HHQAV2@QBVdgTriplex@@@Z@QAE@1H2QBV32@@Z 1006e5f0 f    CIL library: CIL module
 0001:000746b9       ___DllMainCRTStartup       100756b9 f   LIBCMT:dllcrt0.obj
 0001:00074884       __onexit_nolock            10075884 f   LIBCMT:onexit.obj
 0001:000749ff       __callthreadstartex        100759ff f   LIBCMT:threadex.obj
 0001:00074a40       __threadstartex@4          10075a40 f   LIBCMT:threadex.obj
 0001:00074b73       __hw_cw                    10075b73 f   LIBCMT:_ieee87_.obj
 0001:00074c01       ___hw_cw_sse2              10075c01 f   LIBCMT:_ieee87_.obj
 0001:0007669a       __initterm                 1007769a f   LIBCMT:crt0dat.obj
 0001:00076760       _doexit                    10077760 f   LIBCMT:crt0dat.obj
 0001:000775c1       _parse_cmdline             100785c1 f   LIBCMT:stdargv.obj
 0001:00077d9a       _write_char                10078d9a f   LIBCMT:output.obj
 0001:00077dcd       _write_multi_char          10078dcd f   LIBCMT:output.obj
 0001:00077df3       _write_string              10078df3 f   LIBCMT:output.obj
 0001:00079036       _siglookup                 1007a036 f   LIBCMT:winsig.obj
 0001:000792b1       _has_osfxsr_set            1007a2b1 f   LIBCMT:cpu_disp.obj
 0001:0007a044       __unwind_handler4          1007b044 f   LIBCMT:exsup4.obj
 0001:0007a7cf       __updatetlocinfoEx_nolock  1007b7cf f   LIBCMT:setlocal.obj
 0001:0007a883       ?CPtoLCID@@YAHH@Z          1007b883 f   LIBCMT:mbctype.obj
 0001:0007a8b2       ?setSBCS@@YAXPAUthreadmbcinfostruct@@@Z 1007b8b2 f   LIBCMT:mbctype.obj
 0001:0007a916       ?setSBUpLow@@YAXPAUthreadmbcinfostruct@@@Z 1007b916 f   LIBCMT:mbctype.obj
 0001:0007ab4d       ?getSystemCP@@YAHH@Z       1007bb4d f   LIBCMT:mbctype.obj
 0001:0007b29f       ?x_ismbbtype_l@@YAHPAUlocaleinfo_struct@@IHH@Z 1007c29f f   LIBCMT:ismbbyte.obj
 0001:0007c7c6       __shift                    1007d7c6 f   LIBCMT:cvt.obj
 0001:0007c80b       __cftoe2_l                 1007d80b f   LIBCMT:cvt.obj
 0001:0007cddd       __cftof2_l                 1007dddd f   LIBCMT:cvt.obj
 0001:0007d19b       _fastcopy_I                1007e19b f   LIBCMT:p4_memcpy.obj
 0001:0007d42c       __unwind_handler           1007e42c f   LIBCMT:exsup.obj
 0001:0007d898       ?__crtGetStringTypeA_stat@@YAHPAUlocaleinfo_struct@@KPBDHPAGHHH@Z 1007e898 f   LIBCMT:a_str.obj
 0001:0007dae0       ?__crtLCMapStringA_stat@@YAHPAUlocaleinfo_struct@@KKPBDHPADHHH@Z 1007eae0 f   LIBCMT:a_map.obj
 0001:0007e40a       _flsall                    1007f40a f   LIBCMT:fflush.obj
 0001:0007e4ed       _fastzero_I                1007f4ed f   LIBCMT:p4_memset.obj
 0001:0007e5d3       ?strtoxl@@YAKPAUlocaleinfo_struct@@PBDPAPBDHH@Z 1007f5d3 f   LIBCMT:strtol.obj
 0001:00083cb0       ??__E?m_globalAllocator@dgGlobalAllocator@@2V1@A@@YAXXZ 10084cb0 f    CIL library: CIL module
 0001:00083cc0       ??__EzeroMatrix@@YAXXZ     10084cc0 f    CIL library: CIL module
 0001:00083d90       ??__EidentityMatrix@@YAXXZ 10084d90 f    CIL library: CIL module
 0001:00083e70       ??__EidentitySphere@@YAXXZ 10084e70 f    CIL library: CIL module
 0001:00083e90       ??__F?m_globalAllocator@dgGlobalAllocator@@2V1@A@@YAXXZ 10084e90 f    CIL library: CIL module
